ARM GAS  C:\Users\Morten\AppData\Local\Temp\ccqpWnMe.s 			page 1


   1              		.syntax unified
   2              		.cpu cortex-m3
   3              		.fpu softvfp
   4              		.eabi_attribute 20, 1
   5              		.eabi_attribute 21, 1
   6              		.eabi_attribute 23, 3
   7              		.eabi_attribute 24, 1
   8              		.eabi_attribute 25, 1
   9              		.eabi_attribute 26, 1
  10              		.eabi_attribute 30, 1
  11              		.eabi_attribute 34, 1
  12              		.eabi_attribute 18, 4
  13              		.thumb
  14              		.syntax unified
  15              		.file	"Display.c"
  16              		.text
  17              	.Ltext0:
  18              		.cfi_sections	.debug_frame
  19              		.section	.text.initDisp,"ax",%progbits
  20              		.align	2
  21              		.global	initDisp
  22              		.thumb
  23              		.thumb_func
  24              		.type	initDisp, %function
  25              	initDisp:
  26              	.LFB65:
  27              		.file 1 "Display.c"
   1:Display.c     **** 
   2:Display.c     **** #include "Display.h"
   3:Display.c     **** #include "Stopur.h"
   4:Display.c     **** 
   5:Display.c     **** #define Display1 0x26
   6:Display.c     **** #define Display2 0x27
   7:Display.c     **** 
   8:Display.c     **** int display1On = 0;
   9:Display.c     **** int display2On = 0;
  10:Display.c     **** 
  11:Display.c     **** CY_ISR(isr_refreshrate_LCD)
  12:Display.c     **** {
  13:Display.c     ****     int x = getTime();
  14:Display.c     ****     if (display1On == 1) dispTime(1,x);
  15:Display.c     ****     if (display2On == 1) dispTime(2,x);
  16:Display.c     **** }
  17:Display.c     **** 
  18:Display.c     **** 
  19:Display.c     **** 
  20:Display.c     **** void initDisp(int Hz)                           // Initiere display
  21:Display.c     **** {
  28              		.loc 1 21 0
  29              		.cfi_startproc
  30              		@ args = 0, pretend = 0, frame = 0
  31              		@ frame_needed = 0, uses_anonymous_args = 0
  32              	.LVL0:
  33 0000 38B5     		push	{r3, r4, r5, lr}
  34              		.cfi_def_cfa_offset 16
  35              		.cfi_offset 3, -16
  36              		.cfi_offset 4, -12
ARM GAS  C:\Users\Morten\AppData\Local\Temp\ccqpWnMe.s 			page 2


  37              		.cfi_offset 5, -8
  38              		.cfi_offset 14, -4
  39 0002 0446     		mov	r4, r0
  22:Display.c     ****     I2C_1_Start();                        // Initiere og klargør I2C komponenten
  40              		.loc 1 22 0
  41 0004 FFF7FEFF 		bl	I2C_1_Start
  42              	.LVL1:
  23:Display.c     ****     isr_refreshrate_LCD_StartEx(isr_refreshrate_LCD);
  43              		.loc 1 23 0
  44 0008 1F48     		ldr	r0, .L3
  45 000a FFF7FEFF 		bl	isr_refreshrate_LCD_StartEx
  46              	.LVL2:
  24:Display.c     ****     Timer_LCD_WritePeriod((1/Hz)*10000);
  47              		.loc 1 24 0
  48 000e 0125     		movs	r5, #1
  49 0010 95FBF4F0 		sdiv	r0, r5, r4
  50 0014 C0EB4013 		rsb	r3, r0, r0, lsl #5
  51 0018 00EB8300 		add	r0, r0, r3, lsl #2
  52 001c 00EB8000 		add	r0, r0, r0, lsl #2
  53 0020 0301     		lsls	r3, r0, #4
  54 0022 98B2     		uxth	r0, r3
  55 0024 FFF7FEFF 		bl	Timer_LCD_WritePeriod
  56              	.LVL3:
  25:Display.c     ****     
  26:Display.c     ****     LiquidCrystal_I2C_init(Display1,16,2,0);  // Initiere vores LCD library med: adressen på LCD'e
  57              		.loc 1 26 0
  58 0028 0023     		movs	r3, #0
  59 002a 0222     		movs	r2, #2
  60 002c 1021     		movs	r1, #16
  61 002e 2620     		movs	r0, #38
  62 0030 FFF7FEFF 		bl	LiquidCrystal_I2C_init
  63              	.LVL4:
  27:Display.c     ****     begin();                              // positionere vores displat til begin state
  64              		.loc 1 27 0
  65 0034 FFF7FEFF 		bl	begin
  66              	.LVL5:
  28:Display.c     ****     clear();
  67              		.loc 1 28 0
  68 0038 FFF7FEFF 		bl	clear
  69              	.LVL6:
  29:Display.c     ****     
  30:Display.c     ****     LCD_print("Spiller 1");
  70              		.loc 1 30 0
  71 003c 1348     		ldr	r0, .L3+4
  72 003e FFF7FEFF 		bl	LCD_print
  73              	.LVL7:
  31:Display.c     ****     setCursor(0,1);                       // vælger kollene og række
  74              		.loc 1 31 0
  75 0042 2946     		mov	r1, r5
  76 0044 0020     		movs	r0, #0
  77 0046 FFF7FEFF 		bl	setCursor
  78              	.LVL8:
  32:Display.c     ****     LCD_print("Tid: ");
  79              		.loc 1 32 0
  80 004a 114C     		ldr	r4, .L3+8
  81              	.LVL9:
  82 004c 2046     		mov	r0, r4
ARM GAS  C:\Users\Morten\AppData\Local\Temp\ccqpWnMe.s 			page 3


  83 004e FFF7FEFF 		bl	LCD_print
  84              	.LVL10:
  33:Display.c     ****     
  34:Display.c     ****     LiquidCrystal_I2C_init(Display2,16,2,0);
  85              		.loc 1 34 0
  86 0052 0023     		movs	r3, #0
  87 0054 0222     		movs	r2, #2
  88 0056 1021     		movs	r1, #16
  89 0058 2720     		movs	r0, #39
  90 005a FFF7FEFF 		bl	LiquidCrystal_I2C_init
  91              	.LVL11:
  35:Display.c     ****     begin();                              // positionere vores displat til begin state
  92              		.loc 1 35 0
  93 005e FFF7FEFF 		bl	begin
  94              	.LVL12:
  36:Display.c     ****     clear();
  95              		.loc 1 36 0
  96 0062 FFF7FEFF 		bl	clear
  97              	.LVL13:
  37:Display.c     ****     
  38:Display.c     ****     LCD_print("Spiller 2");
  98              		.loc 1 38 0
  99 0066 0B48     		ldr	r0, .L3+12
 100 0068 FFF7FEFF 		bl	LCD_print
 101              	.LVL14:
  39:Display.c     ****     setCursor(0,1);                       // vælger kollene og række
 102              		.loc 1 39 0
 103 006c 2946     		mov	r1, r5
 104 006e 0020     		movs	r0, #0
 105 0070 FFF7FEFF 		bl	setCursor
 106              	.LVL15:
  40:Display.c     ****     LCD_print("Tid: ");
 107              		.loc 1 40 0
 108 0074 2046     		mov	r0, r4
 109 0076 FFF7FEFF 		bl	LCD_print
 110              	.LVL16:
  41:Display.c     ****     
  42:Display.c     ****     display1On = 1;
 111              		.loc 1 42 0
 112 007a 074B     		ldr	r3, .L3+16
 113 007c 1D60     		str	r5, [r3]
  43:Display.c     ****     display2On = 1;
 114              		.loc 1 43 0
 115 007e 5D60     		str	r5, [r3, #4]
  44:Display.c     ****     
  45:Display.c     ****     Timer_LCD_Start();
 116              		.loc 1 45 0
 117 0080 FFF7FEFF 		bl	Timer_LCD_Start
 118              	.LVL17:
 119 0084 38BD     		pop	{r3, r4, r5, pc}
 120              	.L4:
 121 0086 00BF     		.align	2
 122              	.L3:
 123 0088 00000000 		.word	isr_refreshrate_LCD
 124 008c 00000000 		.word	.LC0
 125 0090 0C000000 		.word	.LC1
 126 0094 14000000 		.word	.LC2
ARM GAS  C:\Users\Morten\AppData\Local\Temp\ccqpWnMe.s 			page 4


 127 0098 00000000 		.word	.LANCHOR0
 128              		.cfi_endproc
 129              	.LFE65:
 130              		.size	initDisp, .-initDisp
 131              		.section	.text.dispTime,"ax",%progbits
 132              		.align	2
 133              		.global	dispTime
 134              		.thumb
 135              		.thumb_func
 136              		.type	dispTime, %function
 137              	dispTime:
 138              	.LFB66:
  46:Display.c     **** }
  47:Display.c     **** 
  48:Display.c     **** void dispTime(int disp, int ms_)                           // skifter mellem de 2 displays
  49:Display.c     **** {
 139              		.loc 1 49 0
 140              		.cfi_startproc
 141              		@ args = 0, pretend = 0, frame = 24
 142              		@ frame_needed = 0, uses_anonymous_args = 0
 143              	.LVL18:
 144 0000 30B5     		push	{r4, r5, lr}
 145              		.cfi_def_cfa_offset 12
 146              		.cfi_offset 4, -12
 147              		.cfi_offset 5, -8
 148              		.cfi_offset 14, -4
 149 0002 89B0     		sub	sp, sp, #36
 150              		.cfi_def_cfa_offset 48
 151 0004 0546     		mov	r5, r0
 152 0006 0C46     		mov	r4, r1
  50:Display.c     ****     Timer_LCD_Stop();
 153              		.loc 1 50 0
 154 0008 FFF7FEFF 		bl	Timer_LCD_Stop
 155              	.LVL19:
  51:Display.c     ****     if(ms_ == 0)
 156              		.loc 1 51 0
 157 000c 34B9     		cbnz	r4, .L6
  52:Display.c     ****     {
  53:Display.c     ****         setCursor(9,1);
 158              		.loc 1 53 0
 159 000e 0121     		movs	r1, #1
 160 0010 0920     		movs	r0, #9
 161 0012 FFF7FEFF 		bl	setCursor
 162              	.LVL20:
  54:Display.c     ****         LCD_print("     ");
 163              		.loc 1 54 0
 164 0016 1448     		ldr	r0, .L10
 165 0018 FFF7FEFF 		bl	LCD_print
 166              	.LVL21:
 167              	.L6:
  55:Display.c     ****     }
  56:Display.c     ****     int seconds = 0;
  57:Display.c     ****     int ms = ms_ < 0 ? 0 : ms_;
 168              		.loc 1 57 0
 169 001c 24EAE471 		bic	r1, r4, r4, asr #31
 170              	.LVL22:
  58:Display.c     ****     char buf[20];
ARM GAS  C:\Users\Morten\AppData\Local\Temp\ccqpWnMe.s 			page 5


  59:Display.c     ****     disp = disp == 1 ? 0x26 : 0x27;
 171              		.loc 1 59 0
 172 0020 012D     		cmp	r5, #1
 173 0022 01D1     		bne	.L8
 174 0024 2620     		movs	r0, #38
 175 0026 00E0     		b	.L7
 176              	.L8:
 177 0028 2720     		movs	r0, #39
 178              	.L7:
 179              	.LVL23:
  60:Display.c     ****    
  61:Display.c     ****     seconds = ms / 10;             // getTime kommer som ms derfor /10 for at få sekunder
 180              		.loc 1 61 0 discriminator 4
 181 002a 104C     		ldr	r4, .L10+4
 182              	.LVL24:
 183 002c 84FB0134 		smull	r3, r4, r4, r1
 184 0030 CB17     		asrs	r3, r1, #31
 185 0032 C3EBA404 		rsb	r4, r3, r4, asr #2
 186              	.LVL25:
  62:Display.c     ****     ms = (ms - seconds*10);        // sørger for at vi får vores decimal tal 
 187              		.loc 1 62 0 discriminator 4
 188 0036 6FF00905 		mvn	r5, #9
 189 003a 05FB0415 		mla	r5, r5, r4, r1
 190              	.LVL26:
  63:Display.c     ****     
  64:Display.c     ****     setaddress(disp);
 191              		.loc 1 64 0 discriminator 4
 192 003e FFF7FEFF 		bl	setaddress
 193              	.LVL27:
  65:Display.c     ****     snprintf(buf, 8, "%d,%ds", seconds, ms); // udskriver vores sekunder og ms
 194              		.loc 1 65 0 discriminator 4
 195 0042 0095     		str	r5, [sp]
 196 0044 2346     		mov	r3, r4
 197 0046 0A4A     		ldr	r2, .L10+8
 198 0048 0821     		movs	r1, #8
 199 004a 03A8     		add	r0, sp, #12
 200 004c FFF7FEFF 		bl	snprintf
 201              	.LVL28:
  66:Display.c     ****     setCursor(5,1);
 202              		.loc 1 66 0 discriminator 4
 203 0050 0121     		movs	r1, #1
 204 0052 0520     		movs	r0, #5
 205 0054 FFF7FEFF 		bl	setCursor
 206              	.LVL29:
  67:Display.c     ****     LCD_print(buf);
 207              		.loc 1 67 0 discriminator 4
 208 0058 03A8     		add	r0, sp, #12
 209 005a FFF7FEFF 		bl	LCD_print
 210              	.LVL30:
  68:Display.c     ****     
  69:Display.c     ****     Timer_LCD_Start();
 211              		.loc 1 69 0 discriminator 4
 212 005e FFF7FEFF 		bl	Timer_LCD_Start
 213              	.LVL31:
  70:Display.c     **** }
 214              		.loc 1 70 0 discriminator 4
 215 0062 09B0     		add	sp, sp, #36
ARM GAS  C:\Users\Morten\AppData\Local\Temp\ccqpWnMe.s 			page 6


 216              		.cfi_def_cfa_offset 12
 217              		@ sp needed
 218 0064 30BD     		pop	{r4, r5, pc}
 219              	.LVL32:
 220              	.L11:
 221 0066 00BF     		.align	2
 222              	.L10:
 223 0068 20000000 		.word	.LC3
 224 006c 67666666 		.word	1717986919
 225 0070 28000000 		.word	.LC4
 226              		.cfi_endproc
 227              	.LFE66:
 228              		.size	dispTime, .-dispTime
 229              		.section	.text.isr_refreshrate_LCD,"ax",%progbits
 230              		.align	2
 231              		.global	isr_refreshrate_LCD
 232              		.thumb
 233              		.thumb_func
 234              		.type	isr_refreshrate_LCD, %function
 235              	isr_refreshrate_LCD:
 236              	.LFB64:
  12:Display.c     ****     int x = getTime();
 237              		.loc 1 12 0
 238              		.cfi_startproc
 239              		@ args = 0, pretend = 0, frame = 0
 240              		@ frame_needed = 0, uses_anonymous_args = 0
 241 0000 10B5     		push	{r4, lr}
 242              		.cfi_def_cfa_offset 8
 243              		.cfi_offset 4, -8
 244              		.cfi_offset 14, -4
  13:Display.c     ****     if (display1On == 1) dispTime(1,x);
 245              		.loc 1 13 0
 246 0002 FFF7FEFF 		bl	getTime
 247              	.LVL33:
 248 0006 0446     		mov	r4, r0
 249              	.LVL34:
  14:Display.c     ****     if (display2On == 1) dispTime(2,x);
 250              		.loc 1 14 0
 251 0008 084B     		ldr	r3, .L16
 252 000a 1B68     		ldr	r3, [r3]
 253 000c 012B     		cmp	r3, #1
 254 000e 03D1     		bne	.L13
  14:Display.c     ****     if (display2On == 1) dispTime(2,x);
 255              		.loc 1 14 0 is_stmt 0 discriminator 1
 256 0010 0146     		mov	r1, r0
 257 0012 0120     		movs	r0, #1
 258              	.LVL35:
 259 0014 FFF7FEFF 		bl	dispTime
 260              	.LVL36:
 261              	.L13:
  15:Display.c     **** }
 262              		.loc 1 15 0 is_stmt 1
 263 0018 044B     		ldr	r3, .L16
 264 001a 5B68     		ldr	r3, [r3, #4]
 265 001c 012B     		cmp	r3, #1
 266 001e 03D1     		bne	.L12
  15:Display.c     **** }
ARM GAS  C:\Users\Morten\AppData\Local\Temp\ccqpWnMe.s 			page 7


 267              		.loc 1 15 0 is_stmt 0 discriminator 1
 268 0020 2146     		mov	r1, r4
 269 0022 0220     		movs	r0, #2
 270 0024 FFF7FEFF 		bl	dispTime
 271              	.LVL37:
 272              	.L12:
 273 0028 10BD     		pop	{r4, pc}
 274              	.LVL38:
 275              	.L17:
 276 002a 00BF     		.align	2
 277              	.L16:
 278 002c 00000000 		.word	.LANCHOR0
 279              		.cfi_endproc
 280              	.LFE64:
 281              		.size	isr_refreshrate_LCD, .-isr_refreshrate_LCD
 282              		.section	.text.stopLCD,"ax",%progbits
 283              		.align	2
 284              		.global	stopLCD
 285              		.thumb
 286              		.thumb_func
 287              		.type	stopLCD, %function
 288              	stopLCD:
 289              	.LFB67:
  71:Display.c     **** 
  72:Display.c     **** void stopLCD(int disp)
  73:Display.c     **** {
 290              		.loc 1 73 0 is_stmt 1
 291              		.cfi_startproc
 292              		@ args = 0, pretend = 0, frame = 0
 293              		@ frame_needed = 0, uses_anonymous_args = 0
 294              		@ link register save eliminated.
 295              	.LVL39:
  74:Display.c     ****     if (disp == 1)
 296              		.loc 1 74 0
 297 0000 0128     		cmp	r0, #1
 298 0002 03D1     		bne	.L19
  75:Display.c     ****     {
  76:Display.c     ****     display1On = 0;
 299              		.loc 1 76 0
 300 0004 0022     		movs	r2, #0
 301 0006 034B     		ldr	r3, .L21
 302 0008 1A60     		str	r2, [r3]
 303 000a 7047     		bx	lr
 304              	.L19:
  77:Display.c     ****     }else{
  78:Display.c     ****     display2On = 0;
 305              		.loc 1 78 0
 306 000c 0022     		movs	r2, #0
 307 000e 014B     		ldr	r3, .L21
 308 0010 5A60     		str	r2, [r3, #4]
 309 0012 7047     		bx	lr
 310              	.L22:
 311              		.align	2
 312              	.L21:
 313 0014 00000000 		.word	.LANCHOR0
 314              		.cfi_endproc
 315              	.LFE67:
ARM GAS  C:\Users\Morten\AppData\Local\Temp\ccqpWnMe.s 			page 8


 316              		.size	stopLCD, .-stopLCD
 317              		.global	display2On
 318              		.global	display1On
 319              		.section	.rodata.str1.4,"aMS",%progbits,1
 320              		.align	2
 321              	.LC0:
 322 0000 5370696C 		.ascii	"Spiller 1\000"
 322      6C657220 
 322      3100
 323 000a 0000     		.space	2
 324              	.LC1:
 325 000c 5469643A 		.ascii	"Tid: \000"
 325      2000
 326 0012 0000     		.space	2
 327              	.LC2:
 328 0014 5370696C 		.ascii	"Spiller 2\000"
 328      6C657220 
 328      3200
 329 001e 0000     		.space	2
 330              	.LC3:
 331 0020 20202020 		.ascii	"     \000"
 331      2000
 332 0026 0000     		.space	2
 333              	.LC4:
 334 0028 25642C25 		.ascii	"%d,%ds\000"
 334      647300
 335              		.bss
 336              		.align	2
 337              		.set	.LANCHOR0,. + 0
 338              		.type	display1On, %object
 339              		.size	display1On, 4
 340              	display1On:
 341 0000 00000000 		.space	4
 342              		.type	display2On, %object
 343              		.size	display2On, 4
 344              	display2On:
 345 0004 00000000 		.space	4
 346              		.text
 347              	.Letext0:
 348              		.file 2 "c:\\program files (x86)\\cypress\\psoc creator\\4.2\\psoc creator\\import\\gnu\\arm\\5.4.
 349              		.file 3 "c:\\program files (x86)\\cypress\\psoc creator\\4.2\\psoc creator\\import\\gnu\\arm\\5.4.
 350              		.file 4 "Generated_Source\\PSoC5/core_cm3.h"
 351              		.file 5 "Generated_Source\\PSoC5/I2C_1.h"
 352              		.file 6 "Generated_Source\\PSoC5/isr_refreshrate_LCD.h"
 353              		.file 7 "Generated_Source\\PSoC5/Timer_LCD.h"
 354              		.file 8 "LiquidCrystal_I2C.h"
 355              		.file 9 "c:\\program files (x86)\\cypress\\psoc creator\\4.2\\psoc creator\\import\\gnu\\arm\\5.4.
 356              		.file 10 "Stopur.h"