ARM GAS  C:\Users\Morten\AppData\Local\Temp\ccOec4AR.s 			page 1


   1              		.syntax unified
   2              		.cpu cortex-m3
   3              		.fpu softvfp
   4              		.eabi_attribute 20, 1
   5              		.eabi_attribute 21, 1
   6              		.eabi_attribute 23, 3
   7              		.eabi_attribute 24, 1
   8              		.eabi_attribute 25, 1
   9              		.eabi_attribute 26, 1
  10              		.eabi_attribute 30, 1
  11              		.eabi_attribute 34, 1
  12              		.eabi_attribute 18, 4
  13              		.thumb
  14              		.syntax unified
  15              		.file	"Stopur.c"
  16              		.text
  17              	.Ltext0:
  18              		.cfi_sections	.debug_frame
  19              		.section	.text.initTimer,"ax",%progbits
  20              		.align	2
  21              		.global	initTimer
  22              		.thumb
  23              		.thumb_func
  24              		.type	initTimer, %function
  25              	initTimer:
  26              	.LFB65:
  27              		.file 1 "Stopur.c"
   1:Stopur.c      **** #include "Stopur.h"
   2:Stopur.c      **** #include "Display.h"
   3:Stopur.c      **** 
   4:Stopur.c      **** int count = 0;
   5:Stopur.c      **** 
   6:Stopur.c      **** CY_ISR(isr_timer)                // interrupter ved hvert 100 ms
   7:Stopur.c      **** {
   8:Stopur.c      ****     if (count < 1200)            // incrementeres ved hvert interrupt
   9:Stopur.c      ****     {
  10:Stopur.c      ****         count++;
  11:Stopur.c      ****        
  12:Stopur.c      ****     }else{
  13:Stopur.c      ****         stopTimer();             
  14:Stopur.c      ****     }
  15:Stopur.c      **** }
  16:Stopur.c      **** 
  17:Stopur.c      **** void initTimer()                 // initiere timeren
  18:Stopur.c      **** {
  28              		.loc 1 18 0
  29              		.cfi_startproc
  30              		@ args = 0, pretend = 0, frame = 0
  31              		@ frame_needed = 0, uses_anonymous_args = 0
  32 0000 08B5     		push	{r3, lr}
  33              		.cfi_def_cfa_offset 8
  34              		.cfi_offset 3, -8
  35              		.cfi_offset 14, -4
  19:Stopur.c      ****     isr_timer_StartEx(isr_timer);
  36              		.loc 1 19 0
  37 0002 0248     		ldr	r0, .L3
  38 0004 FFF7FEFF 		bl	isr_timer_StartEx
ARM GAS  C:\Users\Morten\AppData\Local\Temp\ccOec4AR.s 			page 2


  39              	.LVL0:
  40 0008 08BD     		pop	{r3, pc}
  41              	.L4:
  42 000a 00BF     		.align	2
  43              	.L3:
  44 000c 00000000 		.word	isr_timer
  45              		.cfi_endproc
  46              	.LFE65:
  47              		.size	initTimer, .-initTimer
  48              		.section	.text.startTimer,"ax",%progbits
  49              		.align	2
  50              		.global	startTimer
  51              		.thumb
  52              		.thumb_func
  53              		.type	startTimer, %function
  54              	startTimer:
  55              	.LFB66:
  20:Stopur.c      **** }
  21:Stopur.c      **** 
  22:Stopur.c      **** void startTimer()                // starter timeren 
  23:Stopur.c      **** {
  56              		.loc 1 23 0
  57              		.cfi_startproc
  58              		@ args = 0, pretend = 0, frame = 0
  59              		@ frame_needed = 0, uses_anonymous_args = 0
  60 0000 08B5     		push	{r3, lr}
  61              		.cfi_def_cfa_offset 8
  62              		.cfi_offset 3, -8
  63              		.cfi_offset 14, -4
  24:Stopur.c      ****    Timer_Stopur_Start();
  64              		.loc 1 24 0
  65 0002 FFF7FEFF 		bl	Timer_Stopur_Start
  66              	.LVL1:
  67 0006 08BD     		pop	{r3, pc}
  68              		.cfi_endproc
  69              	.LFE66:
  70              		.size	startTimer, .-startTimer
  71              		.section	.text.stopTimer,"ax",%progbits
  72              		.align	2
  73              		.global	stopTimer
  74              		.thumb
  75              		.thumb_func
  76              		.type	stopTimer, %function
  77              	stopTimer:
  78              	.LFB67:
  25:Stopur.c      **** }
  26:Stopur.c      **** 
  27:Stopur.c      **** void stopTimer()                 // Stopper timeren
  28:Stopur.c      **** {
  79              		.loc 1 28 0
  80              		.cfi_startproc
  81              		@ args = 0, pretend = 0, frame = 0
  82              		@ frame_needed = 0, uses_anonymous_args = 0
  83 0000 08B5     		push	{r3, lr}
  84              		.cfi_def_cfa_offset 8
  85              		.cfi_offset 3, -8
  86              		.cfi_offset 14, -4
ARM GAS  C:\Users\Morten\AppData\Local\Temp\ccOec4AR.s 			page 3


  29:Stopur.c      ****    Timer_Stopur_Stop();
  87              		.loc 1 29 0
  88 0002 FFF7FEFF 		bl	Timer_Stopur_Stop
  89              	.LVL2:
  90 0006 08BD     		pop	{r3, pc}
  91              		.cfi_endproc
  92              	.LFE67:
  93              		.size	stopTimer, .-stopTimer
  94              		.section	.text.isr_timer,"ax",%progbits
  95              		.align	2
  96              		.global	isr_timer
  97              		.thumb
  98              		.thumb_func
  99              		.type	isr_timer, %function
 100              	isr_timer:
 101              	.LFB64:
   7:Stopur.c      ****     if (count < 1200)            // incrementeres ved hvert interrupt
 102              		.loc 1 7 0
 103              		.cfi_startproc
 104              		@ args = 0, pretend = 0, frame = 0
 105              		@ frame_needed = 0, uses_anonymous_args = 0
 106 0000 08B5     		push	{r3, lr}
 107              		.cfi_def_cfa_offset 8
 108              		.cfi_offset 3, -8
 109              		.cfi_offset 14, -4
   8:Stopur.c      ****     {
 110              		.loc 1 8 0
 111 0002 064B     		ldr	r3, .L13
 112 0004 1B68     		ldr	r3, [r3]
 113 0006 B3F5966F 		cmp	r3, #1200
 114 000a 03DA     		bge	.L10
  10:Stopur.c      ****        
 115              		.loc 1 10 0
 116 000c 0133     		adds	r3, r3, #1
 117 000e 034A     		ldr	r2, .L13
 118 0010 1360     		str	r3, [r2]
 119 0012 08BD     		pop	{r3, pc}
 120              	.L10:
  13:Stopur.c      ****     }
 121              		.loc 1 13 0
 122 0014 FFF7FEFF 		bl	stopTimer
 123              	.LVL3:
 124 0018 08BD     		pop	{r3, pc}
 125              	.L14:
 126 001a 00BF     		.align	2
 127              	.L13:
 128 001c 00000000 		.word	.LANCHOR0
 129              		.cfi_endproc
 130              	.LFE64:
 131              		.size	isr_timer, .-isr_timer
 132              		.section	.text.getTime,"ax",%progbits
 133              		.align	2
 134              		.global	getTime
 135              		.thumb
 136              		.thumb_func
 137              		.type	getTime, %function
 138              	getTime:
ARM GAS  C:\Users\Morten\AppData\Local\Temp\ccOec4AR.s 			page 4


 139              	.LFB68:
  30:Stopur.c      **** }
  31:Stopur.c      **** 
  32:Stopur.c      **** int getTime()                    // Returnere vores count værdi
  33:Stopur.c      **** {   
 140              		.loc 1 33 0
 141              		.cfi_startproc
 142              		@ args = 0, pretend = 0, frame = 0
 143              		@ frame_needed = 0, uses_anonymous_args = 0
 144              		@ link register save eliminated.
  34:Stopur.c      ****     return count;
  35:Stopur.c      **** }
 145              		.loc 1 35 0
 146 0000 014B     		ldr	r3, .L16
 147 0002 1868     		ldr	r0, [r3]
 148 0004 7047     		bx	lr
 149              	.L17:
 150 0006 00BF     		.align	2
 151              	.L16:
 152 0008 00000000 		.word	.LANCHOR0
 153              		.cfi_endproc
 154              	.LFE68:
 155              		.size	getTime, .-getTime
 156              		.section	.text.clearTimer,"ax",%progbits
 157              		.align	2
 158              		.global	clearTimer
 159              		.thumb
 160              		.thumb_func
 161              		.type	clearTimer, %function
 162              	clearTimer:
 163              	.LFB69:
  36:Stopur.c      **** 
  37:Stopur.c      **** void clearTimer()                // nulstiller vores timer ved at sætte count til 0
  38:Stopur.c      **** {
 164              		.loc 1 38 0
 165              		.cfi_startproc
 166              		@ args = 0, pretend = 0, frame = 0
 167              		@ frame_needed = 0, uses_anonymous_args = 0
 168              		@ link register save eliminated.
  39:Stopur.c      ****     count = 0;
 169              		.loc 1 39 0
 170 0000 0022     		movs	r2, #0
 171 0002 014B     		ldr	r3, .L19
 172 0004 1A60     		str	r2, [r3]
 173 0006 7047     		bx	lr
 174              	.L20:
 175              		.align	2
 176              	.L19:
 177 0008 00000000 		.word	.LANCHOR0
 178              		.cfi_endproc
 179              	.LFE69:
 180              		.size	clearTimer, .-clearTimer
 181              		.global	count
 182              		.bss
 183              		.align	2
 184              		.set	.LANCHOR0,. + 0
 185              		.type	count, %object
ARM GAS  C:\Users\Morten\AppData\Local\Temp\ccOec4AR.s 			page 5


 186              		.size	count, 4
 187              	count:
 188 0000 00000000 		.space	4
 189              		.text
 190              	.Letext0:
 191              		.file 2 "c:\\program files (x86)\\cypress\\psoc creator\\4.2\\psoc creator\\import\\gnu\\arm\\5.4.
 192              		.file 3 "c:\\program files (x86)\\cypress\\psoc creator\\4.2\\psoc creator\\import\\gnu\\arm\\5.4.
 193              		.file 4 "Generated_Source\\PSoC5/core_cm3.h"
 194              		.file 5 "Generated_Source\\PSoC5/isr_timer.h"
 195              		.file 6 "Generated_Source\\PSoC5/Timer_Stopur.h"