ARM GAS  C:\Users\dryos\AppData\Local\Temp\ccy6pi9A.s 			page 1


   1              		.syntax unified
   2              		.cpu cortex-m3
   3              		.fpu softvfp
   4              		.eabi_attribute 20, 1
   5              		.eabi_attribute 21, 1
   6              		.eabi_attribute 23, 3
   7              		.eabi_attribute 24, 1
   8              		.eabi_attribute 25, 1
   9              		.eabi_attribute 26, 1
  10              		.eabi_attribute 30, 1
  11              		.eabi_attribute 34, 1
  12              		.eabi_attribute 18, 4
  13              		.thumb
  14              		.syntax unified
  15              		.file	"main.c"
  16              		.text
  17              	.Ltext0:
  18              		.cfi_sections	.debug_frame
  19              		.section	.text.SPItester,"ax",%progbits
  20              		.align	2
  21              		.global	SPItester
  22              		.thumb
  23              		.thumb_func
  24              		.type	SPItester, %function
  25              	SPItester:
  26              	.LFB64:
  27              		.file 1 "main.c"
   1:main.c        **** /* ========================================
   2:main.c        ****  *
   3:main.c        ****  * Copyright YOUR COMPANY, THE YEAR
   4:main.c        ****  * All Rights Reserved
   5:main.c        ****  * UNPUBLISHED, LICENSED SOFTWARE.
   6:main.c        ****  *
   7:main.c        ****  * CONFIDENTIAL AND PROPRIETARY INFORMATION
   8:main.c        ****  * WHICH IS THE PROPERTY OF your company.
   9:main.c        ****  *
  10:main.c        ****  * ========================================
  11:main.c        **** */
  12:main.c        **** #include "project.h"
  13:main.c        **** #include "SPI_Master.h"
  14:main.c        **** 
  15:main.c        **** CY_ISR_PROTO(SPItester);
  16:main.c        **** 
  17:main.c        **** int main(void)
  18:main.c        **** {
  19:main.c        ****     CyGlobalIntEnable; /* Enable global interrupts. */
  20:main.c        **** 
  21:main.c        ****     /* Place your initialization/startup code here (e.g. MyInst_Start()) */
  22:main.c        ****     
  23:main.c        ****     SPIS_initSPI();
  24:main.c        ****     tester_StartEx(SPItester);
  25:main.c        ****     
  26:main.c        ****     
  27:main.c        ****     for(;;)
  28:main.c        ****     {
  29:main.c        ****     }
  30:main.c        **** }
ARM GAS  C:\Users\dryos\AppData\Local\Temp\ccy6pi9A.s 			page 2


  31:main.c        **** 
  32:main.c        **** CY_ISR(SPItester){
  28              		.loc 1 32 0
  29              		.cfi_startproc
  30              		@ args = 0, pretend = 0, frame = 0
  31              		@ frame_needed = 0, uses_anonymous_args = 0
  32 0000 08B5     		push	{r3, lr}
  33              		.cfi_def_cfa_offset 8
  34              		.cfi_offset 3, -8
  35              		.cfi_offset 14, -4
  33:main.c        ****     SPIS_sendData(50,9);
  36              		.loc 1 33 0
  37 0002 0921     		movs	r1, #9
  38 0004 3220     		movs	r0, #50
  39 0006 FFF7FEFF 		bl	SPIS_sendData
  40              	.LVL0:
  41 000a 08BD     		pop	{r3, pc}
  42              		.cfi_endproc
  43              	.LFE64:
  44              		.size	SPItester, .-SPItester
  45              		.section	.text.main,"ax",%progbits
  46              		.align	2
  47              		.global	main
  48              		.thumb
  49              		.thumb_func
  50              		.type	main, %function
  51              	main:
  52              	.LFB63:
  18:main.c        ****     CyGlobalIntEnable; /* Enable global interrupts. */
  53              		.loc 1 18 0
  54              		.cfi_startproc
  55              		@ Volatile: function does not return.
  56              		@ args = 0, pretend = 0, frame = 0
  57              		@ frame_needed = 0, uses_anonymous_args = 0
  58 0000 08B5     		push	{r3, lr}
  59              		.cfi_def_cfa_offset 8
  60              		.cfi_offset 3, -8
  61              		.cfi_offset 14, -4
  19:main.c        **** 
  62              		.loc 1 19 0
  63              		.syntax unified
  64              	@ 19 "main.c" 1
  65 0002 62B6     		CPSIE   i
  66              	@ 0 "" 2
  23:main.c        ****     tester_StartEx(SPItester);
  67              		.loc 1 23 0
  68              		.thumb
  69              		.syntax unified
  70 0004 FFF7FEFF 		bl	SPIS_initSPI
  71              	.LVL1:
  24:main.c        ****     
  72              		.loc 1 24 0
  73 0008 0148     		ldr	r0, .L6
  74 000a FFF7FEFF 		bl	tester_StartEx
  75              	.LVL2:
  76              	.L4:
  77 000e FEE7     		b	.L4
ARM GAS  C:\Users\dryos\AppData\Local\Temp\ccy6pi9A.s 			page 3


  78              	.L7:
  79              		.align	2
  80              	.L6:
  81 0010 00000000 		.word	SPItester
  82              		.cfi_endproc
  83              	.LFE63:
  84              		.size	main, .-main
  85              		.text
  86              	.Letext0:
  87              		.file 2 "c:\\program files (x86)\\cypress\\psoc creator\\4.2\\psoc creator\\import\\gnu\\arm\\5.4.
  88              		.file 3 "c:\\program files (x86)\\cypress\\psoc creator\\4.2\\psoc creator\\import\\gnu\\arm\\5.4.
  89              		.file 4 "SPI_Master.h"
  90              		.file 5 "Generated_Source\\PSoC5/tester.h"
  91              		.file 6 "Generated_Source\\PSoC5/core_cm3.h"