ARM GAS  C:\Users\dryos\AppData\Local\Temp\cci4fwNA.s 			page 1


   1              		.syntax unified
   2              		.cpu cortex-m3
   3              		.fpu softvfp
   4              		.eabi_attribute 20, 1
   5              		.eabi_attribute 21, 1
   6              		.eabi_attribute 23, 3
   7              		.eabi_attribute 24, 1
   8              		.eabi_attribute 25, 1
   9              		.eabi_attribute 26, 1
  10              		.eabi_attribute 30, 1
  11              		.eabi_attribute 34, 1
  12              		.eabi_attribute 18, 4
  13              		.thumb
  14              		.syntax unified
  15              		.file	"SPI_Master.c"
  16              		.text
  17              	.Ltext0:
  18              		.cfi_sections	.debug_frame
  19              		.section	.text.SPIS_initSPI,"ax",%progbits
  20              		.align	2
  21              		.global	SPIS_initSPI
  22              		.thumb
  23              		.thumb_func
  24              		.type	SPIS_initSPI, %function
  25              	SPIS_initSPI:
  26              	.LFB63:
  27              		.file 1 "SPI_Master.c"
   1:SPI_Master.c  **** /* ========================================
   2:SPI_Master.c  ****  *
   3:SPI_Master.c  ****  * Copyright YOUR COMPANY, THE YEAR
   4:SPI_Master.c  ****  * All Rights Reserved
   5:SPI_Master.c  ****  * UNPUBLISHED, LICENSED SOFTWARE.
   6:SPI_Master.c  ****  *
   7:SPI_Master.c  ****  * CONFIDENTIAL AND PROPRIETARY INFORMATION
   8:SPI_Master.c  ****  * WHICH IS THE PROPERTY OF your company.
   9:SPI_Master.c  ****  *
  10:SPI_Master.c  ****  * ========================================
  11:SPI_Master.c  **** */
  12:SPI_Master.c  **** #include "SPI_Master.h"
  13:SPI_Master.c  **** 
  14:SPI_Master.c  **** int rxFlag = 0;
  15:SPI_Master.c  **** int tx[2];
  16:SPI_Master.c  **** 
  17:SPI_Master.c  **** void SPIS_initSPI(){            //initialize SPI
  28              		.loc 1 17 0
  29              		.cfi_startproc
  30              		@ args = 0, pretend = 0, frame = 0
  31              		@ frame_needed = 0, uses_anonymous_args = 0
  32 0000 08B5     		push	{r3, lr}
  33              		.cfi_def_cfa_offset 8
  34              		.cfi_offset 3, -8
  35              		.cfi_offset 14, -4
  18:SPI_Master.c  ****     SPI_int_Write(0);           //drive interrupt pin low.
  36              		.loc 1 18 0
  37 0002 0020     		movs	r0, #0
  38 0004 FFF7FEFF 		bl	SPI_int_Write
  39              	.LVL0:
ARM GAS  C:\Users\dryos\AppData\Local\Temp\cci4fwNA.s 			page 2


  19:SPI_Master.c  ****     SPIS_Start();               
  40              		.loc 1 19 0
  41 0008 FFF7FEFF 		bl	SPIS_Start
  42              	.LVL1:
  20:SPI_Master.c  ****     SPIS_ClearTxBuffer();
  43              		.loc 1 20 0
  44 000c FFF7FEFF 		bl	SPIS_ClearTxBuffer
  45              	.LVL2:
  21:SPI_Master.c  ****     SPIS_ClearFIFO();
  46              		.loc 1 21 0
  47 0010 FFF7FEFF 		bl	SPIS_ClearFIFO
  48              	.LVL3:
  22:SPI_Master.c  ****     rx_isr_StartEx(isr_spi_rx);
  49              		.loc 1 22 0
  50 0014 0148     		ldr	r0, .L3
  51 0016 FFF7FEFF 		bl	rx_isr_StartEx
  52              	.LVL4:
  53 001a 08BD     		pop	{r3, pc}
  54              	.L4:
  55              		.align	2
  56              	.L3:
  57 001c 00000000 		.word	isr_spi_rx
  58              		.cfi_endproc
  59              	.LFE63:
  60              		.size	SPIS_initSPI, .-SPIS_initSPI
  61              		.section	.text.SPIS_sendData,"ax",%progbits
  62              		.align	2
  63              		.global	SPIS_sendData
  64              		.thumb
  65              		.thumb_func
  66              		.type	SPIS_sendData, %function
  67              	SPIS_sendData:
  68              	.LFB64:
  23:SPI_Master.c  **** }
  24:SPI_Master.c  **** 
  25:SPI_Master.c  **** void SPIS_sendData(int sek, int ms){
  69              		.loc 1 25 0
  70              		.cfi_startproc
  71              		@ args = 0, pretend = 0, frame = 0
  72              		@ frame_needed = 0, uses_anonymous_args = 0
  73              	.LVL5:
  74 0000 08B5     		push	{r3, lr}
  75              		.cfi_def_cfa_offset 8
  76              		.cfi_offset 3, -8
  77              		.cfi_offset 14, -4
  26:SPI_Master.c  ****     tx[0] = sek;
  78              		.loc 1 26 0
  79 0002 0A4B     		ldr	r3, .L10
  80 0004 1860     		str	r0, [r3]
  27:SPI_Master.c  ****     tx[1] = (sek%2) == 0 ? (ms<<2) : ((ms<<2) | 0b10);        //sek parity
  81              		.loc 1 27 0
  82 0006 10F0010F 		tst	r0, #1
  83 000a 01D1     		bne	.L6
  84              		.loc 1 27 0 is_stmt 0 discriminator 1
  85 000c 8B00     		lsls	r3, r1, #2
  86 000e 02E0     		b	.L7
  87              	.L6:
ARM GAS  C:\Users\dryos\AppData\Local\Temp\cci4fwNA.s 			page 3


  88              		.loc 1 27 0 discriminator 2
  89 0010 8B00     		lsls	r3, r1, #2
  90 0012 43F00203 		orr	r3, r3, #2
  91              	.L7:
  28:SPI_Master.c  ****     tx[1] = (ms%2) == 0 ? tx[1] : (tx[1] | 0b01);             //ms parity
  92              		.loc 1 28 0 is_stmt 1 discriminator 4
  93 0016 11F0010F 		tst	r1, #1
  94 001a 01D0     		beq	.L8
  95              		.loc 1 28 0 is_stmt 0 discriminator 2
  96 001c 43F00103 		orr	r3, r3, #1
  97              	.L8:
  98              		.loc 1 28 0 discriminator 4
  99 0020 024A     		ldr	r2, .L10
 100 0022 5360     		str	r3, [r2, #4]
  29:SPI_Master.c  ****     //send interrupt to SPIM
  30:SPI_Master.c  ****     SPI_int_Write(255);
 101              		.loc 1 30 0 is_stmt 1 discriminator 4
 102 0024 FF20     		movs	r0, #255
 103              	.LVL6:
 104 0026 FFF7FEFF 		bl	SPI_int_Write
 105              	.LVL7:
 106 002a 08BD     		pop	{r3, pc}
 107              	.L11:
 108              		.align	2
 109              	.L10:
 110 002c 00000000 		.word	tx
 111              		.cfi_endproc
 112              	.LFE64:
 113              		.size	SPIS_sendData, .-SPIS_sendData
 114              		.section	.text.SPIS_checkData,"ax",%progbits
 115              		.align	2
 116              		.global	SPIS_checkData
 117              		.thumb
 118              		.thumb_func
 119              		.type	SPIS_checkData, %function
 120              	SPIS_checkData:
 121              	.LFB65:
  31:SPI_Master.c  **** }
  32:SPI_Master.c  **** 
  33:SPI_Master.c  **** void SPIS_checkData(int rxData){
 122              		.loc 1 33 0
 123              		.cfi_startproc
 124              		@ args = 0, pretend = 0, frame = 0
 125              		@ frame_needed = 0, uses_anonymous_args = 0
 126              	.LVL8:
 127 0000 08B5     		push	{r3, lr}
 128              		.cfi_def_cfa_offset 8
 129              		.cfi_offset 3, -8
 130              		.cfi_offset 14, -4
  34:SPI_Master.c  ****     switch(rxData){
 131              		.loc 1 34 0
 132 0002 1028     		cmp	r0, #16
 133 0004 06D0     		beq	.L14
 134 0006 2028     		cmp	r0, #32
 135 0008 09D1     		bne	.L17
  35:SPI_Master.c  ****         case 0x20 :
  36:SPI_Master.c  ****         {
ARM GAS  C:\Users\dryos\AppData\Local\Temp\cci4fwNA.s 			page 4


  37:SPI_Master.c  ****             SPIS_WriteTxData(tx[0]);    //sek
 136              		.loc 1 37 0
 137 000a 074B     		ldr	r3, .L19
 138 000c 1878     		ldrb	r0, [r3]	@ zero_extendqisi2
 139              	.LVL9:
 140 000e FFF7FEFF 		bl	SPIS_WriteTxData
 141              	.LVL10:
  38:SPI_Master.c  ****         }
  39:SPI_Master.c  ****         break;
 142              		.loc 1 39 0
 143 0012 08BD     		pop	{r3, pc}
 144              	.LVL11:
 145              	.L14:
  40:SPI_Master.c  ****         case 0x10 :
  41:SPI_Master.c  ****         {
  42:SPI_Master.c  ****             SPIS_WriteTxData(tx[1]);    //ms
 146              		.loc 1 42 0
 147 0014 044B     		ldr	r3, .L19
 148 0016 1879     		ldrb	r0, [r3, #4]	@ zero_extendqisi2
 149              	.LVL12:
 150 0018 FFF7FEFF 		bl	SPIS_WriteTxData
 151              	.LVL13:
  43:SPI_Master.c  ****         }
  44:SPI_Master.c  ****         break;
 152              		.loc 1 44 0
 153 001c 08BD     		pop	{r3, pc}
 154              	.LVL14:
 155              	.L17:
  45:SPI_Master.c  ****         default :
  46:SPI_Master.c  ****         {
  47:SPI_Master.c  ****             SPIS_WriteTxData(rxData);     //echo
 156              		.loc 1 47 0
 157 001e C0B2     		uxtb	r0, r0
 158              	.LVL15:
 159 0020 FFF7FEFF 		bl	SPIS_WriteTxData
 160              	.LVL16:
 161 0024 08BD     		pop	{r3, pc}
 162              	.L20:
 163 0026 00BF     		.align	2
 164              	.L19:
 165 0028 00000000 		.word	tx
 166              		.cfi_endproc
 167              	.LFE65:
 168              		.size	SPIS_checkData, .-SPIS_checkData
 169              		.section	.text.isr_spi_rx,"ax",%progbits
 170              		.align	2
 171              		.global	isr_spi_rx
 172              		.thumb
 173              		.thumb_func
 174              		.type	isr_spi_rx, %function
 175              	isr_spi_rx:
 176              	.LFB66:
  48:SPI_Master.c  ****         }
  49:SPI_Master.c  ****     }
  50:SPI_Master.c  **** }
  51:SPI_Master.c  **** 
  52:SPI_Master.c  **** CY_ISR(isr_spi_rx){
ARM GAS  C:\Users\dryos\AppData\Local\Temp\cci4fwNA.s 			page 5


 177              		.loc 1 52 0
 178              		.cfi_startproc
 179              		@ args = 0, pretend = 0, frame = 0
 180              		@ frame_needed = 0, uses_anonymous_args = 0
 181 0000 08B5     		push	{r3, lr}
 182              		.cfi_def_cfa_offset 8
 183              		.cfi_offset 3, -8
 184              		.cfi_offset 14, -4
  53:SPI_Master.c  ****     SPI_int_Write(0);
 185              		.loc 1 53 0
 186 0002 0020     		movs	r0, #0
 187 0004 FFF7FEFF 		bl	SPI_int_Write
 188              	.LVL17:
  54:SPI_Master.c  ****     uint8 SPIDATA = SPIS_ReadRxData();
 189              		.loc 1 54 0
 190 0008 FFF7FEFF 		bl	SPIS_ReadRxData
 191              	.LVL18:
  55:SPI_Master.c  ****     SPIS_checkData(SPIDATA);
 192              		.loc 1 55 0
 193 000c FFF7FEFF 		bl	SPIS_checkData
 194              	.LVL19:
 195 0010 08BD     		pop	{r3, pc}
 196              		.cfi_endproc
 197              	.LFE66:
 198              		.size	isr_spi_rx, .-isr_spi_rx
 199              		.comm	tx,8,4
 200              		.global	rxFlag
 201 0012 00BF     		.bss
 202              		.align	2
 203              		.type	rxFlag, %object
 204              		.size	rxFlag, 4
 205              	rxFlag:
 206 0000 00000000 		.space	4
 207              		.text
 208              	.Letext0:
 209              		.file 2 "c:\\program files (x86)\\cypress\\psoc creator\\4.2\\psoc creator\\import\\gnu\\arm\\5.4.
 210              		.file 3 "c:\\program files (x86)\\cypress\\psoc creator\\4.2\\psoc creator\\import\\gnu\\arm\\5.4.
 211              		.file 4 "Generated_Source\\PSoC5/cytypes.h"
 212              		.file 5 "Generated_Source\\PSoC5/core_cm3.h"
 213              		.file 6 "Generated_Source\\PSoC5/SPI_int.h"
 214              		.file 7 "Generated_Source\\PSoC5/SPIS.h"
 215              		.file 8 "Generated_Source\\PSoC5/rx_isr.h"