ARM GAS  C:\Users\cring\AppData\Local\Temp\ccR7cpQH.s 			page 1


   1              		.syntax unified
   2              		.cpu cortex-m3
   3              		.fpu softvfp
   4              		.eabi_attribute 20, 1
   5              		.eabi_attribute 21, 1
   6              		.eabi_attribute 23, 3
   7              		.eabi_attribute 24, 1
   8              		.eabi_attribute 25, 1
   9              		.eabi_attribute 26, 1
  10              		.eabi_attribute 30, 1
  11              		.eabi_attribute 34, 1
  12              		.eabi_attribute 18, 4
  13              		.thumb
  14              		.syntax unified
  15              		.file	"cyfitter_cfg.c"
  16              		.text
  17              	.Ltext0:
  18              		.cfi_sections	.debug_frame
  19              		.section	.text.CyClockStartupError,"ax",%progbits
  20              		.align	2
  21              		.thumb
  22              		.thumb_func
  23              		.type	CyClockStartupError, %function
  24              	CyClockStartupError:
  25              	.LFB3:
  26              		.file 1 "Generated_Source\\PSoC5\\cyfitter_cfg.c"
   1:Generated_Source\PSoC5/cyfitter_cfg.c **** 
   2:Generated_Source\PSoC5/cyfitter_cfg.c **** /*******************************************************************************
   3:Generated_Source\PSoC5/cyfitter_cfg.c **** * File Name: cyfitter_cfg.c
   4:Generated_Source\PSoC5/cyfitter_cfg.c **** * 
   5:Generated_Source\PSoC5/cyfitter_cfg.c **** * PSoC Creator  4.3 Early Access
   6:Generated_Source\PSoC5/cyfitter_cfg.c **** *
   7:Generated_Source\PSoC5/cyfitter_cfg.c **** * Description:
   8:Generated_Source\PSoC5/cyfitter_cfg.c **** * This file contains device initialization code.
   9:Generated_Source\PSoC5/cyfitter_cfg.c **** * Except for the user defined sections in CyClockStartupError(), this file should not be modified.
  10:Generated_Source\PSoC5/cyfitter_cfg.c **** * This file is automatically generated by PSoC Creator.
  11:Generated_Source\PSoC5/cyfitter_cfg.c **** *
  12:Generated_Source\PSoC5/cyfitter_cfg.c **** ********************************************************************************
  13:Generated_Source\PSoC5/cyfitter_cfg.c **** * Copyright (c) 2007-2019 Cypress Semiconductor.  All rights reserved.
  14:Generated_Source\PSoC5/cyfitter_cfg.c **** * You may use this file only in accordance with the license, terms, conditions, 
  15:Generated_Source\PSoC5/cyfitter_cfg.c **** * disclaimers, and limitations in the end user license agreement accompanying 
  16:Generated_Source\PSoC5/cyfitter_cfg.c **** * the software package with which this file was provided.
  17:Generated_Source\PSoC5/cyfitter_cfg.c **** ********************************************************************************/
  18:Generated_Source\PSoC5/cyfitter_cfg.c **** 
  19:Generated_Source\PSoC5/cyfitter_cfg.c **** #include <string.h>
  20:Generated_Source\PSoC5/cyfitter_cfg.c **** #include "cytypes.h"
  21:Generated_Source\PSoC5/cyfitter_cfg.c **** #include "cydevice_trm.h"
  22:Generated_Source\PSoC5/cyfitter_cfg.c **** #include "cyfitter.h"
  23:Generated_Source\PSoC5/cyfitter_cfg.c **** #include "CyLib.h"
  24:Generated_Source\PSoC5/cyfitter_cfg.c **** #include "cyfitter_cfg.h"
  25:Generated_Source\PSoC5/cyfitter_cfg.c **** #include "cyapicallbacks.h"
  26:Generated_Source\PSoC5/cyfitter_cfg.c **** 
  27:Generated_Source\PSoC5/cyfitter_cfg.c **** #define CY_NEED_CYCLOCKSTARTUPERROR 1
  28:Generated_Source\PSoC5/cyfitter_cfg.c **** 
  29:Generated_Source\PSoC5/cyfitter_cfg.c **** 
  30:Generated_Source\PSoC5/cyfitter_cfg.c **** #if defined(__GNUC__) || defined(__ARMCC_VERSION)
  31:Generated_Source\PSoC5/cyfitter_cfg.c ****     #define CYPACKED 
ARM GAS  C:\Users\cring\AppData\Local\Temp\ccR7cpQH.s 			page 2


  32:Generated_Source\PSoC5/cyfitter_cfg.c ****     #define CYPACKED_ATTR __attribute__ ((packed))
  33:Generated_Source\PSoC5/cyfitter_cfg.c ****     #define CYALIGNED __attribute__ ((aligned))
  34:Generated_Source\PSoC5/cyfitter_cfg.c ****     #define CY_CFG_UNUSED __attribute__ ((unused))
  35:Generated_Source\PSoC5/cyfitter_cfg.c ****     #ifndef CY_CFG_SECTION
  36:Generated_Source\PSoC5/cyfitter_cfg.c ****         #define CY_CFG_SECTION __attribute__ ((section(".psocinit")))
  37:Generated_Source\PSoC5/cyfitter_cfg.c ****     #endif
  38:Generated_Source\PSoC5/cyfitter_cfg.c ****     
  39:Generated_Source\PSoC5/cyfitter_cfg.c ****     #if defined(__ARMCC_VERSION)
  40:Generated_Source\PSoC5/cyfitter_cfg.c ****         #define CY_CFG_MEMORY_BARRIER() __memory_changed()
  41:Generated_Source\PSoC5/cyfitter_cfg.c ****     #else
  42:Generated_Source\PSoC5/cyfitter_cfg.c ****         #define CY_CFG_MEMORY_BARRIER() __sync_synchronize()
  43:Generated_Source\PSoC5/cyfitter_cfg.c ****     #endif
  44:Generated_Source\PSoC5/cyfitter_cfg.c ****     
  45:Generated_Source\PSoC5/cyfitter_cfg.c **** #elif defined(__ICCARM__)
  46:Generated_Source\PSoC5/cyfitter_cfg.c ****     #include <intrinsics.h>
  47:Generated_Source\PSoC5/cyfitter_cfg.c **** 
  48:Generated_Source\PSoC5/cyfitter_cfg.c ****     #define CYPACKED __packed
  49:Generated_Source\PSoC5/cyfitter_cfg.c ****     #define CYPACKED_ATTR 
  50:Generated_Source\PSoC5/cyfitter_cfg.c ****     #define CYALIGNED _Pragma("data_alignment=4")
  51:Generated_Source\PSoC5/cyfitter_cfg.c ****     #define CY_CFG_UNUSED _Pragma("diag_suppress=Pe177")
  52:Generated_Source\PSoC5/cyfitter_cfg.c ****     #define CY_CFG_SECTION _Pragma("location=\".psocinit\"")
  53:Generated_Source\PSoC5/cyfitter_cfg.c ****     
  54:Generated_Source\PSoC5/cyfitter_cfg.c ****     #define CY_CFG_MEMORY_BARRIER() __DMB()
  55:Generated_Source\PSoC5/cyfitter_cfg.c ****     
  56:Generated_Source\PSoC5/cyfitter_cfg.c **** #else
  57:Generated_Source\PSoC5/cyfitter_cfg.c ****     #error Unsupported toolchain
  58:Generated_Source\PSoC5/cyfitter_cfg.c **** #endif
  59:Generated_Source\PSoC5/cyfitter_cfg.c **** 
  60:Generated_Source\PSoC5/cyfitter_cfg.c **** #ifndef CYCODE
  61:Generated_Source\PSoC5/cyfitter_cfg.c ****     #define CYCODE
  62:Generated_Source\PSoC5/cyfitter_cfg.c **** #endif
  63:Generated_Source\PSoC5/cyfitter_cfg.c **** #ifndef CYDATA
  64:Generated_Source\PSoC5/cyfitter_cfg.c ****     #define CYDATA
  65:Generated_Source\PSoC5/cyfitter_cfg.c **** #endif
  66:Generated_Source\PSoC5/cyfitter_cfg.c **** #ifndef CYFAR
  67:Generated_Source\PSoC5/cyfitter_cfg.c ****     #define CYFAR
  68:Generated_Source\PSoC5/cyfitter_cfg.c **** #endif
  69:Generated_Source\PSoC5/cyfitter_cfg.c **** #ifndef CYXDATA
  70:Generated_Source\PSoC5/cyfitter_cfg.c ****     #define CYXDATA
  71:Generated_Source\PSoC5/cyfitter_cfg.c **** #endif
  72:Generated_Source\PSoC5/cyfitter_cfg.c **** 
  73:Generated_Source\PSoC5/cyfitter_cfg.c **** 
  74:Generated_Source\PSoC5/cyfitter_cfg.c **** CY_CFG_UNUSED
  75:Generated_Source\PSoC5/cyfitter_cfg.c **** static void CYMEMZERO(void *s, size_t n);
  76:Generated_Source\PSoC5/cyfitter_cfg.c **** CY_CFG_UNUSED
  77:Generated_Source\PSoC5/cyfitter_cfg.c **** static void CYMEMZERO(void *s, size_t n)
  78:Generated_Source\PSoC5/cyfitter_cfg.c **** {
  79:Generated_Source\PSoC5/cyfitter_cfg.c **** 	(void)memset(s, 0, n);
  80:Generated_Source\PSoC5/cyfitter_cfg.c **** }
  81:Generated_Source\PSoC5/cyfitter_cfg.c **** CY_CFG_UNUSED
  82:Generated_Source\PSoC5/cyfitter_cfg.c **** static void CYCONFIGCPY(void *dest, const void *src, size_t n);
  83:Generated_Source\PSoC5/cyfitter_cfg.c **** CY_CFG_UNUSED
  84:Generated_Source\PSoC5/cyfitter_cfg.c **** static void CYCONFIGCPY(void *dest, const void *src, size_t n)
  85:Generated_Source\PSoC5/cyfitter_cfg.c **** {
  86:Generated_Source\PSoC5/cyfitter_cfg.c **** 	(void)memcpy(dest, src, n);
  87:Generated_Source\PSoC5/cyfitter_cfg.c **** }
  88:Generated_Source\PSoC5/cyfitter_cfg.c **** CY_CFG_UNUSED
ARM GAS  C:\Users\cring\AppData\Local\Temp\ccR7cpQH.s 			page 3


  89:Generated_Source\PSoC5/cyfitter_cfg.c **** static void CYCONFIGCPYCODE(void *dest, const void *src, size_t n);
  90:Generated_Source\PSoC5/cyfitter_cfg.c **** CY_CFG_UNUSED
  91:Generated_Source\PSoC5/cyfitter_cfg.c **** static void CYCONFIGCPYCODE(void *dest, const void *src, size_t n)
  92:Generated_Source\PSoC5/cyfitter_cfg.c **** {
  93:Generated_Source\PSoC5/cyfitter_cfg.c **** 	(void)memcpy(dest, src, n);
  94:Generated_Source\PSoC5/cyfitter_cfg.c **** }
  95:Generated_Source\PSoC5/cyfitter_cfg.c **** 
  96:Generated_Source\PSoC5/cyfitter_cfg.c **** 
  97:Generated_Source\PSoC5/cyfitter_cfg.c **** 
  98:Generated_Source\PSoC5/cyfitter_cfg.c **** 
  99:Generated_Source\PSoC5/cyfitter_cfg.c **** /* Clock startup error codes                                                   */
 100:Generated_Source\PSoC5/cyfitter_cfg.c **** #define CYCLOCKSTART_NO_ERROR    0u
 101:Generated_Source\PSoC5/cyfitter_cfg.c **** #define CYCLOCKSTART_XTAL_ERROR  1u
 102:Generated_Source\PSoC5/cyfitter_cfg.c **** #define CYCLOCKSTART_32KHZ_ERROR 2u
 103:Generated_Source\PSoC5/cyfitter_cfg.c **** #define CYCLOCKSTART_PLL_ERROR   3u
 104:Generated_Source\PSoC5/cyfitter_cfg.c **** #define CYCLOCKSTART_FLL_ERROR   4u
 105:Generated_Source\PSoC5/cyfitter_cfg.c **** #define CYCLOCKSTART_WCO_ERROR   5u
 106:Generated_Source\PSoC5/cyfitter_cfg.c **** 
 107:Generated_Source\PSoC5/cyfitter_cfg.c **** 
 108:Generated_Source\PSoC5/cyfitter_cfg.c **** #ifdef CY_NEED_CYCLOCKSTARTUPERROR
 109:Generated_Source\PSoC5/cyfitter_cfg.c **** /*******************************************************************************
 110:Generated_Source\PSoC5/cyfitter_cfg.c **** * Function Name: CyClockStartupError
 111:Generated_Source\PSoC5/cyfitter_cfg.c **** ********************************************************************************
 112:Generated_Source\PSoC5/cyfitter_cfg.c **** * Summary:
 113:Generated_Source\PSoC5/cyfitter_cfg.c **** *  If an error is encountered during clock configuration (crystal startup error,
 114:Generated_Source\PSoC5/cyfitter_cfg.c **** *  PLL lock error, etc.), the system will end up here.  Unless reimplemented by
 115:Generated_Source\PSoC5/cyfitter_cfg.c **** *  the customer, this function will stop in an infinite loop.
 116:Generated_Source\PSoC5/cyfitter_cfg.c **** *
 117:Generated_Source\PSoC5/cyfitter_cfg.c **** * Parameters:
 118:Generated_Source\PSoC5/cyfitter_cfg.c **** *   void
 119:Generated_Source\PSoC5/cyfitter_cfg.c **** *
 120:Generated_Source\PSoC5/cyfitter_cfg.c **** * Return:
 121:Generated_Source\PSoC5/cyfitter_cfg.c **** *   void
 122:Generated_Source\PSoC5/cyfitter_cfg.c **** *
 123:Generated_Source\PSoC5/cyfitter_cfg.c **** *******************************************************************************/
 124:Generated_Source\PSoC5/cyfitter_cfg.c **** CY_CFG_UNUSED
 125:Generated_Source\PSoC5/cyfitter_cfg.c **** static void CyClockStartupError(uint8 errorCode);
 126:Generated_Source\PSoC5/cyfitter_cfg.c **** CY_CFG_UNUSED
 127:Generated_Source\PSoC5/cyfitter_cfg.c **** static void CyClockStartupError(uint8 errorCode)
 128:Generated_Source\PSoC5/cyfitter_cfg.c **** {
  27              		.loc 1 128 0
  28              		.cfi_startproc
  29              		@ Volatile: function does not return.
  30              		@ args = 0, pretend = 0, frame = 0
  31              		@ frame_needed = 0, uses_anonymous_args = 0
  32              		@ link register save eliminated.
  33              	.LVL0:
  34              	.L2:
  35 0000 FEE7     		b	.L2
  36              		.cfi_endproc
  37              	.LFE3:
  38              		.size	CyClockStartupError, .-CyClockStartupError
  39 0002 00BF     		.section	.text.cfg_write_bytes32,"ax",%progbits
  40              		.align	2
  41              		.thumb
  42              		.thumb_func
  43              		.type	cfg_write_bytes32, %function
ARM GAS  C:\Users\cring\AppData\Local\Temp\ccR7cpQH.s 			page 4


  44              	cfg_write_bytes32:
  45              	.LFB4:
 129:Generated_Source\PSoC5/cyfitter_cfg.c ****     /* To remove the compiler warning if errorCode not used.                */
 130:Generated_Source\PSoC5/cyfitter_cfg.c ****     errorCode = errorCode;
 131:Generated_Source\PSoC5/cyfitter_cfg.c **** 
 132:Generated_Source\PSoC5/cyfitter_cfg.c ****     /* If we have a clock startup error (bad MHz crystal, PLL lock, etc.),  */
 133:Generated_Source\PSoC5/cyfitter_cfg.c ****     /* we will end up here to allow the customer to implement something to  */
 134:Generated_Source\PSoC5/cyfitter_cfg.c ****     /* deal with the clock condition.                                       */
 135:Generated_Source\PSoC5/cyfitter_cfg.c **** 
 136:Generated_Source\PSoC5/cyfitter_cfg.c **** #ifdef CY_CFG_CLOCK_STARTUP_ERROR_CALLBACK
 137:Generated_Source\PSoC5/cyfitter_cfg.c ****     CY_CFG_Clock_Startup_ErrorCallback();
 138:Generated_Source\PSoC5/cyfitter_cfg.c **** #else
 139:Generated_Source\PSoC5/cyfitter_cfg.c ****     /*  If not using CY_CFG_CLOCK_STARTUP_ERROR_CALLBACK, place your clock startup code here. */
 140:Generated_Source\PSoC5/cyfitter_cfg.c ****     /* `#START CyClockStartupError` */
 141:Generated_Source\PSoC5/cyfitter_cfg.c **** 
 142:Generated_Source\PSoC5/cyfitter_cfg.c **** 
 143:Generated_Source\PSoC5/cyfitter_cfg.c **** 
 144:Generated_Source\PSoC5/cyfitter_cfg.c ****     /* `#END` */
 145:Generated_Source\PSoC5/cyfitter_cfg.c **** 
 146:Generated_Source\PSoC5/cyfitter_cfg.c ****     while(1) {}
 147:Generated_Source\PSoC5/cyfitter_cfg.c **** #endif /* CY_CFG_CLOCK_STARTUP_ERROR_CALLBACK */
 148:Generated_Source\PSoC5/cyfitter_cfg.c **** }
 149:Generated_Source\PSoC5/cyfitter_cfg.c **** #endif
 150:Generated_Source\PSoC5/cyfitter_cfg.c **** 
 151:Generated_Source\PSoC5/cyfitter_cfg.c **** #define CY_CFG_BASE_ADDR_COUNT 40u
 152:Generated_Source\PSoC5/cyfitter_cfg.c **** CYPACKED typedef struct
 153:Generated_Source\PSoC5/cyfitter_cfg.c **** {
 154:Generated_Source\PSoC5/cyfitter_cfg.c **** 	uint8 offset;
 155:Generated_Source\PSoC5/cyfitter_cfg.c **** 	uint8 value;
 156:Generated_Source\PSoC5/cyfitter_cfg.c **** } CYPACKED_ATTR cy_cfg_addrvalue_t;
 157:Generated_Source\PSoC5/cyfitter_cfg.c **** 
 158:Generated_Source\PSoC5/cyfitter_cfg.c **** #define cy_cfg_addr_table ((const uint32 CYFAR *)0x48000000u)
 159:Generated_Source\PSoC5/cyfitter_cfg.c **** #define cy_cfg_data_table ((const cy_cfg_addrvalue_t CYFAR *)0x480000A0u)
 160:Generated_Source\PSoC5/cyfitter_cfg.c **** 
 161:Generated_Source\PSoC5/cyfitter_cfg.c **** /* IOPORT_7 Address: CYDEV_PRTDSI_PRT12_BASE Size (bytes): 6 */
 162:Generated_Source\PSoC5/cyfitter_cfg.c **** #define BS_IOPORT_7_VAL ((const uint8 CYFAR *)0x48000F14u)
 163:Generated_Source\PSoC5/cyfitter_cfg.c **** 
 164:Generated_Source\PSoC5/cyfitter_cfg.c **** /* IDMUX_IRQ Address: CYREG_IDMUX_IRQ_CTL0 Size (bytes): 8 */
 165:Generated_Source\PSoC5/cyfitter_cfg.c **** #define BS_IDMUX_IRQ_VAL ((const uint8 CYFAR *)0x48000F1Cu)
 166:Generated_Source\PSoC5/cyfitter_cfg.c **** 
 167:Generated_Source\PSoC5/cyfitter_cfg.c **** /* IOPINS0_0 Address: CYREG_PRT0_DM0 Size (bytes): 8 */
 168:Generated_Source\PSoC5/cyfitter_cfg.c **** #define BS_IOPINS0_0_VAL ((const uint8 CYFAR *)0x48000F24u)
 169:Generated_Source\PSoC5/cyfitter_cfg.c **** 
 170:Generated_Source\PSoC5/cyfitter_cfg.c **** /* IOPINS0_7 Address: CYREG_PRT12_DR Size (bytes): 10 */
 171:Generated_Source\PSoC5/cyfitter_cfg.c **** #define BS_IOPINS0_7_VAL ((const uint8 CYFAR *)0x48000F2Cu)
 172:Generated_Source\PSoC5/cyfitter_cfg.c **** 
 173:Generated_Source\PSoC5/cyfitter_cfg.c **** /* IOPINS0_8 Address: CYREG_PRT15_DM0 Size (bytes): 8 */
 174:Generated_Source\PSoC5/cyfitter_cfg.c **** #define BS_IOPINS0_8_VAL ((const uint8 CYFAR *)0x48000F38u)
 175:Generated_Source\PSoC5/cyfitter_cfg.c **** 
 176:Generated_Source\PSoC5/cyfitter_cfg.c **** /* IOPINS0_1 Address: CYREG_PRT1_DM0 Size (bytes): 8 */
 177:Generated_Source\PSoC5/cyfitter_cfg.c **** #define BS_IOPINS0_1_VAL ((const uint8 CYFAR *)0x48000F40u)
 178:Generated_Source\PSoC5/cyfitter_cfg.c **** 
 179:Generated_Source\PSoC5/cyfitter_cfg.c **** /* IOPINS0_3 Address: CYREG_PRT3_DM0 Size (bytes): 8 */
 180:Generated_Source\PSoC5/cyfitter_cfg.c **** #define BS_IOPINS0_3_VAL ((const uint8 CYFAR *)0x48000F48u)
 181:Generated_Source\PSoC5/cyfitter_cfg.c **** 
 182:Generated_Source\PSoC5/cyfitter_cfg.c **** /* CYDEV_CLKDIST_ACFG0_CFG0 Address: CYREG_CLKDIST_ACFG0_CFG0 Size (bytes): 4 */
 183:Generated_Source\PSoC5/cyfitter_cfg.c **** #define BS_CYDEV_CLKDIST_ACFG0_CFG0_VAL ((const uint8 CYFAR *)0x48000F50u)
ARM GAS  C:\Users\cring\AppData\Local\Temp\ccR7cpQH.s 			page 5


 184:Generated_Source\PSoC5/cyfitter_cfg.c **** 
 185:Generated_Source\PSoC5/cyfitter_cfg.c **** 
 186:Generated_Source\PSoC5/cyfitter_cfg.c **** /*******************************************************************************
 187:Generated_Source\PSoC5/cyfitter_cfg.c **** * Function Name: cfg_write_bytes32
 188:Generated_Source\PSoC5/cyfitter_cfg.c **** ********************************************************************************
 189:Generated_Source\PSoC5/cyfitter_cfg.c **** * Summary:
 190:Generated_Source\PSoC5/cyfitter_cfg.c **** *  This function is used for setting up the chip configuration areas that
 191:Generated_Source\PSoC5/cyfitter_cfg.c **** *  contain relatively sparse data.
 192:Generated_Source\PSoC5/cyfitter_cfg.c **** *
 193:Generated_Source\PSoC5/cyfitter_cfg.c **** * Parameters:
 194:Generated_Source\PSoC5/cyfitter_cfg.c **** *   void
 195:Generated_Source\PSoC5/cyfitter_cfg.c **** *
 196:Generated_Source\PSoC5/cyfitter_cfg.c **** * Return:
 197:Generated_Source\PSoC5/cyfitter_cfg.c **** *   void
 198:Generated_Source\PSoC5/cyfitter_cfg.c **** *
 199:Generated_Source\PSoC5/cyfitter_cfg.c **** *******************************************************************************/
 200:Generated_Source\PSoC5/cyfitter_cfg.c **** static void cfg_write_bytes32(const uint32 addr_table[], const cy_cfg_addrvalue_t data_table[]);
 201:Generated_Source\PSoC5/cyfitter_cfg.c **** static void cfg_write_bytes32(const uint32 addr_table[], const cy_cfg_addrvalue_t data_table[])
 202:Generated_Source\PSoC5/cyfitter_cfg.c **** {
  46              		.loc 1 202 0
  47              		.cfi_startproc
  48              		@ args = 0, pretend = 0, frame = 0
  49              		@ frame_needed = 0, uses_anonymous_args = 0
  50              		@ link register save eliminated.
  51              	.LVL1:
  52              		.loc 1 202 0
  53 0000 F0B4     		push	{r4, r5, r6, r7}
  54              		.cfi_def_cfa_offset 16
  55              		.cfi_offset 4, -16
  56              		.cfi_offset 5, -12
  57              		.cfi_offset 6, -8
  58              		.cfi_offset 7, -4
  59              	.LVL2:
 203:Generated_Source\PSoC5/cyfitter_cfg.c **** 	/* For 32-bit little-endian architectures */
 204:Generated_Source\PSoC5/cyfitter_cfg.c **** 	uint32 i, j = 0u;
  60              		.loc 1 204 0
  61 0002 0022     		movs	r2, #0
 205:Generated_Source\PSoC5/cyfitter_cfg.c **** 	for (i = 0u; i < CY_CFG_BASE_ADDR_COUNT; i++)
  62              		.loc 1 205 0
  63 0004 1746     		mov	r7, r2
  64 0006 11E0     		b	.L4
  65              	.LVL3:
  66              	.L7:
  67              	.LBB2:
 206:Generated_Source\PSoC5/cyfitter_cfg.c **** 	{
 207:Generated_Source\PSoC5/cyfitter_cfg.c **** 		uint32 baseAddr = addr_table[i];
  68              		.loc 1 207 0
  69 0008 50F82760 		ldr	r6, [r0, r7, lsl #2]
  70              	.LVL4:
 208:Generated_Source\PSoC5/cyfitter_cfg.c **** 		uint8 count = (uint8)baseAddr;
  71              		.loc 1 208 0
  72 000c F3B2     		uxtb	r3, r6
  73              	.LVL5:
 209:Generated_Source\PSoC5/cyfitter_cfg.c **** 		baseAddr &= 0xFFFFFF00u;
  74              		.loc 1 209 0
  75 000e 26F0FF06 		bic	r6, r6, #255
  76              	.LVL6:
ARM GAS  C:\Users\cring\AppData\Local\Temp\ccR7cpQH.s 			page 6


 210:Generated_Source\PSoC5/cyfitter_cfg.c **** 		while (count != 0u)
  77              		.loc 1 210 0
  78 0012 08E0     		b	.L5
  79              	.L6:
 211:Generated_Source\PSoC5/cyfitter_cfg.c **** 		{
 212:Generated_Source\PSoC5/cyfitter_cfg.c **** 			CY_SET_REG8((void *)(baseAddr + data_table[j].offset), data_table[j].value);
  80              		.loc 1 212 0
  81 0014 01EB4205 		add	r5, r1, r2, lsl #1
  82 0018 11F81240 		ldrb	r4, [r1, r2, lsl #1]	@ zero_extendqisi2
  83 001c 6D78     		ldrb	r5, [r5, #1]	@ zero_extendqisi2
  84 001e A555     		strb	r5, [r4, r6]
 213:Generated_Source\PSoC5/cyfitter_cfg.c **** 			j++;
  85              		.loc 1 213 0
  86 0020 0132     		adds	r2, r2, #1
  87              	.LVL7:
 214:Generated_Source\PSoC5/cyfitter_cfg.c **** 			count--;
  88              		.loc 1 214 0
  89 0022 013B     		subs	r3, r3, #1
  90              	.LVL8:
  91 0024 DBB2     		uxtb	r3, r3
  92              	.LVL9:
  93              	.L5:
 210:Generated_Source\PSoC5/cyfitter_cfg.c **** 		{
  94              		.loc 1 210 0
  95 0026 002B     		cmp	r3, #0
  96 0028 F4D1     		bne	.L6
  97              	.LBE2:
 205:Generated_Source\PSoC5/cyfitter_cfg.c **** 	{
  98              		.loc 1 205 0 discriminator 2
  99 002a 0137     		adds	r7, r7, #1
 100              	.LVL10:
 101              	.L4:
 205:Generated_Source\PSoC5/cyfitter_cfg.c **** 	{
 102              		.loc 1 205 0 is_stmt 0 discriminator 1
 103 002c 272F     		cmp	r7, #39
 104 002e EBD9     		bls	.L7
 215:Generated_Source\PSoC5/cyfitter_cfg.c **** 		}
 216:Generated_Source\PSoC5/cyfitter_cfg.c **** 	}
 217:Generated_Source\PSoC5/cyfitter_cfg.c **** }
 105              		.loc 1 217 0 is_stmt 1
 106 0030 F0BC     		pop	{r4, r5, r6, r7}
 107              		.cfi_restore 7
 108              		.cfi_restore 6
 109              		.cfi_restore 5
 110              		.cfi_restore 4
 111              		.cfi_def_cfa_offset 0
 112              	.LVL11:
 113 0032 7047     		bx	lr
 114              		.cfi_endproc
 115              	.LFE4:
 116              		.size	cfg_write_bytes32, .-cfg_write_bytes32
 117              		.section	.text.CYMEMZERO,"ax",%progbits
 118              		.align	2
 119              		.thumb
 120              		.thumb_func
 121              		.type	CYMEMZERO, %function
 122              	CYMEMZERO:
ARM GAS  C:\Users\cring\AppData\Local\Temp\ccR7cpQH.s 			page 7


 123              	.LFB0:
  78:Generated_Source\PSoC5/cyfitter_cfg.c **** 	(void)memset(s, 0, n);
 124              		.loc 1 78 0
 125              		.cfi_startproc
 126              		@ args = 0, pretend = 0, frame = 0
 127              		@ frame_needed = 0, uses_anonymous_args = 0
 128              	.LVL12:
 129 0000 08B5     		push	{r3, lr}
 130              		.cfi_def_cfa_offset 8
 131              		.cfi_offset 3, -8
 132              		.cfi_offset 14, -4
  79:Generated_Source\PSoC5/cyfitter_cfg.c **** }
 133              		.loc 1 79 0
 134 0002 0A46     		mov	r2, r1
 135 0004 0021     		movs	r1, #0
 136              	.LVL13:
 137 0006 FFF7FEFF 		bl	memset
 138              	.LVL14:
 139 000a 08BD     		pop	{r3, pc}
 140              		.cfi_endproc
 141              	.LFE0:
 142              		.size	CYMEMZERO, .-CYMEMZERO
 143              		.section	.text.AnalogSetDefault,"ax",%progbits
 144              		.align	2
 145              		.thumb
 146              		.thumb_func
 147              		.type	AnalogSetDefault, %function
 148              	AnalogSetDefault:
 149              	.LFB6:
 218:Generated_Source\PSoC5/cyfitter_cfg.c **** 
 219:Generated_Source\PSoC5/cyfitter_cfg.c **** /*******************************************************************************
 220:Generated_Source\PSoC5/cyfitter_cfg.c **** * Function Name: ClockSetup
 221:Generated_Source\PSoC5/cyfitter_cfg.c **** ********************************************************************************
 222:Generated_Source\PSoC5/cyfitter_cfg.c **** *
 223:Generated_Source\PSoC5/cyfitter_cfg.c **** * Summary:
 224:Generated_Source\PSoC5/cyfitter_cfg.c **** *  Performs the initialization of all of the clocks in the device based on the
 225:Generated_Source\PSoC5/cyfitter_cfg.c **** *  settings in the Clock tab of the DWR.  This includes enabling the requested
 226:Generated_Source\PSoC5/cyfitter_cfg.c **** *  clocks and setting the necessary dividers to produce the desired frequency. 
 227:Generated_Source\PSoC5/cyfitter_cfg.c **** *
 228:Generated_Source\PSoC5/cyfitter_cfg.c **** * Parameters:
 229:Generated_Source\PSoC5/cyfitter_cfg.c **** *  void
 230:Generated_Source\PSoC5/cyfitter_cfg.c **** *
 231:Generated_Source\PSoC5/cyfitter_cfg.c **** * Return:
 232:Generated_Source\PSoC5/cyfitter_cfg.c **** *  void
 233:Generated_Source\PSoC5/cyfitter_cfg.c **** *
 234:Generated_Source\PSoC5/cyfitter_cfg.c **** *******************************************************************************/
 235:Generated_Source\PSoC5/cyfitter_cfg.c **** static void ClockSetup(void);
 236:Generated_Source\PSoC5/cyfitter_cfg.c **** static void ClockSetup(void)
 237:Generated_Source\PSoC5/cyfitter_cfg.c **** {
 238:Generated_Source\PSoC5/cyfitter_cfg.c **** 	uint32 timeout;
 239:Generated_Source\PSoC5/cyfitter_cfg.c **** 	uint8 pllLock;
 240:Generated_Source\PSoC5/cyfitter_cfg.c **** 
 241:Generated_Source\PSoC5/cyfitter_cfg.c **** 
 242:Generated_Source\PSoC5/cyfitter_cfg.c **** 	/* Configure Digital Clocks based on settings from Clock DWR */
 243:Generated_Source\PSoC5/cyfitter_cfg.c **** 	CY_SET_XTND_REG16((void CYFAR *)(CYREG_CLKDIST_DCFG0_CFG0), 0x0004u);
 244:Generated_Source\PSoC5/cyfitter_cfg.c **** 	CY_SET_XTND_REG8((void CYFAR *)(CYREG_CLKDIST_DCFG0_CFG0 + 0x2u), 0x18u);
 245:Generated_Source\PSoC5/cyfitter_cfg.c **** 	CY_SET_XTND_REG16((void CYFAR *)(CYREG_CLKDIST_DCFG1_CFG0), 0x0033u);
ARM GAS  C:\Users\cring\AppData\Local\Temp\ccR7cpQH.s 			page 8


 246:Generated_Source\PSoC5/cyfitter_cfg.c **** 	CY_SET_XTND_REG8((void CYFAR *)(CYREG_CLKDIST_DCFG1_CFG0 + 0x2u), 0x18u);
 247:Generated_Source\PSoC5/cyfitter_cfg.c **** 	CY_SET_XTND_REG16((void CYFAR *)(CYREG_CLKDIST_DCFG2_CFG0), 0x0077u);
 248:Generated_Source\PSoC5/cyfitter_cfg.c **** 	CY_SET_XTND_REG8((void CYFAR *)(CYREG_CLKDIST_DCFG2_CFG0 + 0x2u), 0x18u);
 249:Generated_Source\PSoC5/cyfitter_cfg.c **** 	CY_SET_XTND_REG16((void CYFAR *)(CYREG_CLKDIST_DCFG3_CFG0), 0x095Fu);
 250:Generated_Source\PSoC5/cyfitter_cfg.c **** 	CY_SET_XTND_REG8((void CYFAR *)(CYREG_CLKDIST_DCFG3_CFG0 + 0x2u), 0x18u);
 251:Generated_Source\PSoC5/cyfitter_cfg.c **** 
 252:Generated_Source\PSoC5/cyfitter_cfg.c **** 	/* Configure Analog Clocks based on settings from Clock DWR */
 253:Generated_Source\PSoC5/cyfitter_cfg.c **** 	CYCONFIGCPY((void CYFAR *)(CYREG_CLKDIST_ACFG0_CFG0), (const void CYFAR *)(BS_CYDEV_CLKDIST_ACFG0_
 254:Generated_Source\PSoC5/cyfitter_cfg.c **** 
 255:Generated_Source\PSoC5/cyfitter_cfg.c **** 	/* Configure ILO based on settings from Clock DWR */
 256:Generated_Source\PSoC5/cyfitter_cfg.c **** 	CY_SET_XTND_REG8((void CYFAR *)(CYREG_SLOWCLK_ILO_CR0), 0x02u);
 257:Generated_Source\PSoC5/cyfitter_cfg.c **** 	CY_SET_XTND_REG8((void CYFAR *)(CYREG_CLKDIST_CR), 0x08u);
 258:Generated_Source\PSoC5/cyfitter_cfg.c **** 
 259:Generated_Source\PSoC5/cyfitter_cfg.c **** 	/* Configure IMO based on settings from Clock DWR */
 260:Generated_Source\PSoC5/cyfitter_cfg.c **** 	CY_SET_XTND_REG8((void CYFAR *)(CYREG_FASTCLK_IMO_CR), 0x03u);
 261:Generated_Source\PSoC5/cyfitter_cfg.c **** 	CY_SET_XTND_REG8((void CYFAR *)(CYREG_IMO_TR1), (CY_GET_XTND_REG8((void CYFAR *)CYREG_FLSHID_CUST_
 262:Generated_Source\PSoC5/cyfitter_cfg.c **** 
 263:Generated_Source\PSoC5/cyfitter_cfg.c **** 	/* Configure PLL based on settings from Clock DWR */
 264:Generated_Source\PSoC5/cyfitter_cfg.c **** 	CY_SET_XTND_REG16((void CYFAR *)(CYREG_FASTCLK_PLL_P), 0x0008u);
 265:Generated_Source\PSoC5/cyfitter_cfg.c **** 	CY_SET_XTND_REG16((void CYFAR *)(CYREG_FASTCLK_PLL_CFG0), 0x1251u);
 266:Generated_Source\PSoC5/cyfitter_cfg.c **** 	/* Wait up to 250us for the PLL to lock */
 267:Generated_Source\PSoC5/cyfitter_cfg.c **** 	pllLock = 0u;
 268:Generated_Source\PSoC5/cyfitter_cfg.c **** 	for (timeout = 250u / 10u; (timeout > 0u) && (pllLock != 0x03u); timeout--)
 269:Generated_Source\PSoC5/cyfitter_cfg.c **** 	{ 
 270:Generated_Source\PSoC5/cyfitter_cfg.c **** 		pllLock = 0x03u & ((uint8)((uint8)pllLock << 1) | ((CY_GET_XTND_REG8((void CYFAR *)CYREG_FASTCLK_
 271:Generated_Source\PSoC5/cyfitter_cfg.c **** 		CyDelayCycles(10u * 48u); /* Delay 10us based on 48MHz clock */
 272:Generated_Source\PSoC5/cyfitter_cfg.c **** 	}
 273:Generated_Source\PSoC5/cyfitter_cfg.c **** 	/* If we ran out of time the PLL didn't lock so go to the error function */
 274:Generated_Source\PSoC5/cyfitter_cfg.c **** 	if (timeout == 0u)
 275:Generated_Source\PSoC5/cyfitter_cfg.c **** 	{
 276:Generated_Source\PSoC5/cyfitter_cfg.c **** 		CyClockStartupError(CYCLOCKSTART_PLL_ERROR);
 277:Generated_Source\PSoC5/cyfitter_cfg.c **** 	}
 278:Generated_Source\PSoC5/cyfitter_cfg.c **** 
 279:Generated_Source\PSoC5/cyfitter_cfg.c **** 	/* Configure Bus/Master Clock based on settings from Clock DWR */
 280:Generated_Source\PSoC5/cyfitter_cfg.c **** 	CY_SET_XTND_REG16((void CYFAR *)(CYREG_CLKDIST_MSTR0), 0x0100u);
 281:Generated_Source\PSoC5/cyfitter_cfg.c **** 	CY_SET_XTND_REG8((void CYFAR *)(CYREG_CLKDIST_MSTR0), 0x07u);
 282:Generated_Source\PSoC5/cyfitter_cfg.c **** 	CY_SET_XTND_REG8((void CYFAR *)(CYREG_CLKDIST_BCFG0), 0x00u);
 283:Generated_Source\PSoC5/cyfitter_cfg.c **** 	CY_SET_XTND_REG8((void CYFAR *)(CYREG_CLKDIST_BCFG2), 0x48u);
 284:Generated_Source\PSoC5/cyfitter_cfg.c **** 	CY_SET_XTND_REG8((void CYFAR *)(CYREG_CLKDIST_MSTR0), 0x00u);
 285:Generated_Source\PSoC5/cyfitter_cfg.c **** 	CY_SET_XTND_REG8((void CYFAR *)(CYREG_CLKDIST_LD), 0x02u);
 286:Generated_Source\PSoC5/cyfitter_cfg.c **** 	CY_SET_XTND_REG8((void CYFAR *)(CYREG_CLKDIST_DLY1), 0x04u);
 287:Generated_Source\PSoC5/cyfitter_cfg.c **** 
 288:Generated_Source\PSoC5/cyfitter_cfg.c **** 	CY_SET_XTND_REG8((void CYFAR *)(CYREG_PM_ACT_CFG2), ((CY_GET_XTND_REG8((void CYFAR *)CYREG_PM_ACT_
 289:Generated_Source\PSoC5/cyfitter_cfg.c **** 	CY_SET_XTND_REG8((void CYFAR *)(CYREG_PM_ACT_CFG1), ((CY_GET_XTND_REG8((void CYFAR *)CYREG_PM_ACT_
 290:Generated_Source\PSoC5/cyfitter_cfg.c **** 	CY_SET_XTND_REG8((void CYFAR *)(CYREG_PM_ACT_CFG0), ((CY_GET_XTND_REG8((void CYFAR *)CYREG_PM_ACT_
 291:Generated_Source\PSoC5/cyfitter_cfg.c **** }
 292:Generated_Source\PSoC5/cyfitter_cfg.c **** 
 293:Generated_Source\PSoC5/cyfitter_cfg.c **** 
 294:Generated_Source\PSoC5/cyfitter_cfg.c **** /* Analog API Functions */
 295:Generated_Source\PSoC5/cyfitter_cfg.c **** 
 296:Generated_Source\PSoC5/cyfitter_cfg.c **** 
 297:Generated_Source\PSoC5/cyfitter_cfg.c **** /*******************************************************************************
 298:Generated_Source\PSoC5/cyfitter_cfg.c **** * Function Name: AnalogSetDefault
 299:Generated_Source\PSoC5/cyfitter_cfg.c **** ********************************************************************************
 300:Generated_Source\PSoC5/cyfitter_cfg.c **** *
 301:Generated_Source\PSoC5/cyfitter_cfg.c **** * Summary:
 302:Generated_Source\PSoC5/cyfitter_cfg.c **** *  Sets up the analog portions of the chip to default values based on chip
ARM GAS  C:\Users\cring\AppData\Local\Temp\ccR7cpQH.s 			page 9


 303:Generated_Source\PSoC5/cyfitter_cfg.c **** *  configuration options from the project.
 304:Generated_Source\PSoC5/cyfitter_cfg.c **** *
 305:Generated_Source\PSoC5/cyfitter_cfg.c **** * Parameters:
 306:Generated_Source\PSoC5/cyfitter_cfg.c **** *  void
 307:Generated_Source\PSoC5/cyfitter_cfg.c **** *
 308:Generated_Source\PSoC5/cyfitter_cfg.c **** * Return:
 309:Generated_Source\PSoC5/cyfitter_cfg.c **** *  void
 310:Generated_Source\PSoC5/cyfitter_cfg.c **** *
 311:Generated_Source\PSoC5/cyfitter_cfg.c **** *******************************************************************************/
 312:Generated_Source\PSoC5/cyfitter_cfg.c **** static void AnalogSetDefault(void);
 313:Generated_Source\PSoC5/cyfitter_cfg.c **** static void AnalogSetDefault(void)
 314:Generated_Source\PSoC5/cyfitter_cfg.c **** {
 150              		.loc 1 314 0
 151              		.cfi_startproc
 152              		@ args = 0, pretend = 0, frame = 0
 153              		@ frame_needed = 0, uses_anonymous_args = 0
 154 0000 F8B5     		push	{r3, r4, r5, r6, r7, lr}
 155              		.cfi_def_cfa_offset 24
 156              		.cfi_offset 3, -24
 157              		.cfi_offset 4, -20
 158              		.cfi_offset 5, -16
 159              		.cfi_offset 6, -12
 160              		.cfi_offset 7, -8
 161              		.cfi_offset 14, -4
 315:Generated_Source\PSoC5/cyfitter_cfg.c **** 	uint8 bg_xover_inl_trim = CY_GET_XTND_REG8((void CYFAR *)(CYREG_FLSHID_MFG_CFG_BG_XOVER_INL_TRIM +
 162              		.loc 1 315 0
 163 0002 144B     		ldr	r3, .L13
 164 0004 1B78     		ldrb	r3, [r3]	@ zero_extendqisi2
 165 0006 DBB2     		uxtb	r3, r3
 166              	.LVL15:
 316:Generated_Source\PSoC5/cyfitter_cfg.c **** 	uint8 cr4 = CY_GET_XTND_REG8((void CYFAR *)(CYREG_RESET_CR4));
 167              		.loc 1 316 0
 168 0008 134E     		ldr	r6, .L13+4
 169 000a 3478     		ldrb	r4, [r6]	@ zero_extendqisi2
 170 000c E4B2     		uxtb	r4, r4
 171              	.LVL16:
 317:Generated_Source\PSoC5/cyfitter_cfg.c **** 	uint8 cr5 = CY_GET_XTND_REG8((void CYFAR *)(CYREG_RESET_CR5));
 172              		.loc 1 317 0
 173 000e 134F     		ldr	r7, .L13+8
 174 0010 3D78     		ldrb	r5, [r7]	@ zero_extendqisi2
 175 0012 EDB2     		uxtb	r5, r5
 176              	.LVL17:
 318:Generated_Source\PSoC5/cyfitter_cfg.c **** 	CY_SET_XTND_REG8((void CYFAR *)(CYREG_BG_DFT0), (bg_xover_inl_trim & 0x07u));
 177              		.loc 1 318 0
 178 0014 03F00701 		and	r1, r3, #7
 179 0018 114A     		ldr	r2, .L13+12
 180 001a 1170     		strb	r1, [r2]
 319:Generated_Source\PSoC5/cyfitter_cfg.c **** 	CY_SET_XTND_REG8((void CYFAR *)(CYREG_BG_DFT1), ((bg_xover_inl_trim >> 4) & 0x0Fu));
 181              		.loc 1 319 0
 182 001c 1B09     		lsrs	r3, r3, #4
 183              	.LVL18:
 184 001e 0132     		adds	r2, r2, #1
 185 0020 1370     		strb	r3, [r2]
 320:Generated_Source\PSoC5/cyfitter_cfg.c **** 	/* Disable PRES while setting up SAR voltage reference */
 321:Generated_Source\PSoC5/cyfitter_cfg.c **** 	CY_SET_XTND_REG8((void CYFAR *)(CYREG_RESET_CR4), (cr4 | 0x03u));
 186              		.loc 1 321 0
 187 0022 44F00303 		orr	r3, r4, #3
ARM GAS  C:\Users\cring\AppData\Local\Temp\ccR7cpQH.s 			page 10


 188 0026 3370     		strb	r3, [r6]
 322:Generated_Source\PSoC5/cyfitter_cfg.c **** 	CY_SET_XTND_REG8((void CYFAR *)(CYREG_RESET_CR5), (cr5 | 0x03u));
 189              		.loc 1 322 0
 190 0028 45F00303 		orr	r3, r5, #3
 191 002c 3B70     		strb	r3, [r7]
 323:Generated_Source\PSoC5/cyfitter_cfg.c **** 	CY_SET_XTND_REG8((void CYFAR *)CYREG_SAR0_CSR1, 0x80u);
 192              		.loc 1 323 0
 193 002e 8022     		movs	r2, #128
 194 0030 0C4B     		ldr	r3, .L13+16
 195 0032 1A70     		strb	r2, [r3]
 324:Generated_Source\PSoC5/cyfitter_cfg.c **** 	CY_SET_XTND_REG8((void CYFAR *)CYREG_SAR0_SW0, 0xC0u);
 196              		.loc 1 324 0
 197 0034 C022     		movs	r2, #192
 198 0036 03F21F23 		addw	r3, r3, #543
 199 003a 1A70     		strb	r2, [r3]
 325:Generated_Source\PSoC5/cyfitter_cfg.c **** 	CY_SET_XTND_REG8((void CYFAR *)CYREG_SAR0_SW3, 0x20u);
 200              		.loc 1 325 0
 201 003c 2022     		movs	r2, #32
 202 003e 0333     		adds	r3, r3, #3
 203 0040 1A70     		strb	r2, [r3]
 326:Generated_Source\PSoC5/cyfitter_cfg.c **** 	CyDelayUs(10u); /* Allow vref to settle before re-enabling PRES */
 204              		.loc 1 326 0
 205 0042 0A20     		movs	r0, #10
 206 0044 FFF7FEFF 		bl	CyDelayUs
 207              	.LVL19:
 327:Generated_Source\PSoC5/cyfitter_cfg.c **** 	CY_SET_XTND_REG8((void CYFAR *)(CYREG_RESET_CR5), (cr5));
 208              		.loc 1 327 0
 209 0048 3D70     		strb	r5, [r7]
 328:Generated_Source\PSoC5/cyfitter_cfg.c **** 	CY_SET_XTND_REG8((void CYFAR *)(CYREG_RESET_CR4), (cr4));
 210              		.loc 1 328 0
 211 004a 3470     		strb	r4, [r6]
 329:Generated_Source\PSoC5/cyfitter_cfg.c **** 	CY_SET_XTND_REG8((void CYFAR *)CYREG_PUMP_CR0, 0x44u);
 212              		.loc 1 329 0
 213 004c 4422     		movs	r2, #68
 214 004e 064B     		ldr	r3, .L13+20
 215 0050 1A70     		strb	r2, [r3]
 216 0052 F8BD     		pop	{r3, r4, r5, r6, r7, pc}
 217              	.LVL20:
 218              	.L14:
 219              		.align	2
 220              	.L13:
 221 0054 CF010049 		.word	1224737231
 222 0058 F8460040 		.word	1073759992
 223 005c F9460040 		.word	1073759993
 224 0060 6E580040 		.word	1073764462
 225 0064 01590040 		.word	1073764609
 226 0068 76580040 		.word	1073764470
 227              		.cfi_endproc
 228              	.LFE6:
 229              		.size	AnalogSetDefault, .-AnalogSetDefault
 230              		.section	.text.CYCONFIGCPY,"ax",%progbits
 231              		.align	2
 232              		.thumb
 233              		.thumb_func
 234              		.type	CYCONFIGCPY, %function
 235              	CYCONFIGCPY:
 236              	.LFB1:
ARM GAS  C:\Users\cring\AppData\Local\Temp\ccR7cpQH.s 			page 11


  85:Generated_Source\PSoC5/cyfitter_cfg.c **** 	(void)memcpy(dest, src, n);
 237              		.loc 1 85 0
 238              		.cfi_startproc
 239              		@ args = 0, pretend = 0, frame = 0
 240              		@ frame_needed = 0, uses_anonymous_args = 0
 241              	.LVL21:
 242 0000 08B5     		push	{r3, lr}
 243              		.cfi_def_cfa_offset 8
 244              		.cfi_offset 3, -8
 245              		.cfi_offset 14, -4
  86:Generated_Source\PSoC5/cyfitter_cfg.c **** }
 246              		.loc 1 86 0
 247 0002 FFF7FEFF 		bl	memcpy
 248              	.LVL22:
 249 0006 08BD     		pop	{r3, pc}
 250              		.cfi_endproc
 251              	.LFE1:
 252              		.size	CYCONFIGCPY, .-CYCONFIGCPY
 253              		.section	.text.ClockSetup,"ax",%progbits
 254              		.align	2
 255              		.thumb
 256              		.thumb_func
 257              		.type	ClockSetup, %function
 258              	ClockSetup:
 259              	.LFB5:
 237:Generated_Source\PSoC5/cyfitter_cfg.c **** 	uint32 timeout;
 260              		.loc 1 237 0
 261              		.cfi_startproc
 262              		@ args = 0, pretend = 0, frame = 0
 263              		@ frame_needed = 0, uses_anonymous_args = 0
 264 0000 38B5     		push	{r3, r4, r5, lr}
 265              		.cfi_def_cfa_offset 16
 266              		.cfi_offset 3, -16
 267              		.cfi_offset 4, -12
 268              		.cfi_offset 5, -8
 269              		.cfi_offset 14, -4
 243:Generated_Source\PSoC5/cyfitter_cfg.c **** 	CY_SET_XTND_REG8((void CYFAR *)(CYREG_CLKDIST_DCFG0_CFG0 + 0x2u), 0x18u);
 270              		.loc 1 243 0
 271 0002 0422     		movs	r2, #4
 272 0004 344B     		ldr	r3, .L23
 273 0006 1A80     		strh	r2, [r3]	@ movhi
 244:Generated_Source\PSoC5/cyfitter_cfg.c **** 	CY_SET_XTND_REG16((void CYFAR *)(CYREG_CLKDIST_DCFG1_CFG0), 0x0033u);
 274              		.loc 1 244 0
 275 0008 1823     		movs	r3, #24
 276 000a 3449     		ldr	r1, .L23+4
 277 000c 0B70     		strb	r3, [r1]
 245:Generated_Source\PSoC5/cyfitter_cfg.c **** 	CY_SET_XTND_REG8((void CYFAR *)(CYREG_CLKDIST_DCFG1_CFG0 + 0x2u), 0x18u);
 278              		.loc 1 245 0
 279 000e 3320     		movs	r0, #51
 280 0010 0231     		adds	r1, r1, #2
 281 0012 0880     		strh	r0, [r1]	@ movhi
 246:Generated_Source\PSoC5/cyfitter_cfg.c **** 	CY_SET_XTND_REG16((void CYFAR *)(CYREG_CLKDIST_DCFG2_CFG0), 0x0077u);
 282              		.loc 1 246 0
 283 0014 0231     		adds	r1, r1, #2
 284 0016 0B70     		strb	r3, [r1]
 247:Generated_Source\PSoC5/cyfitter_cfg.c **** 	CY_SET_XTND_REG8((void CYFAR *)(CYREG_CLKDIST_DCFG2_CFG0 + 0x2u), 0x18u);
 285              		.loc 1 247 0
ARM GAS  C:\Users\cring\AppData\Local\Temp\ccR7cpQH.s 			page 12


 286 0018 7720     		movs	r0, #119
 287 001a 0231     		adds	r1, r1, #2
 288 001c 0880     		strh	r0, [r1]	@ movhi
 248:Generated_Source\PSoC5/cyfitter_cfg.c **** 	CY_SET_XTND_REG16((void CYFAR *)(CYREG_CLKDIST_DCFG3_CFG0), 0x095Fu);
 289              		.loc 1 248 0
 290 001e 0231     		adds	r1, r1, #2
 291 0020 0B70     		strb	r3, [r1]
 249:Generated_Source\PSoC5/cyfitter_cfg.c **** 	CY_SET_XTND_REG8((void CYFAR *)(CYREG_CLKDIST_DCFG3_CFG0 + 0x2u), 0x18u);
 292              		.loc 1 249 0
 293 0022 40F65F10 		movw	r0, #2399
 294 0026 0231     		adds	r1, r1, #2
 295 0028 0880     		strh	r0, [r1]	@ movhi
 250:Generated_Source\PSoC5/cyfitter_cfg.c **** 
 296              		.loc 1 250 0
 297 002a 0231     		adds	r1, r1, #2
 298 002c 0B70     		strb	r3, [r1]
 253:Generated_Source\PSoC5/cyfitter_cfg.c **** 
 299              		.loc 1 253 0
 300 002e 2C49     		ldr	r1, .L23+8
 301 0030 2C48     		ldr	r0, .L23+12
 302 0032 FFF7FEFF 		bl	CYCONFIGCPY
 303              	.LVL23:
 256:Generated_Source\PSoC5/cyfitter_cfg.c **** 	CY_SET_XTND_REG8((void CYFAR *)(CYREG_CLKDIST_CR), 0x08u);
 304              		.loc 1 256 0
 305 0036 0222     		movs	r2, #2
 306 0038 2B4B     		ldr	r3, .L23+16
 307 003a 1A70     		strb	r2, [r3]
 257:Generated_Source\PSoC5/cyfitter_cfg.c **** 
 308              		.loc 1 257 0
 309 003c 0822     		movs	r2, #8
 310 003e 4FF04023 		mov	r3, #1073758208
 311 0042 1A70     		strb	r2, [r3]
 260:Generated_Source\PSoC5/cyfitter_cfg.c **** 	CY_SET_XTND_REG8((void CYFAR *)(CYREG_IMO_TR1), (CY_GET_XTND_REG8((void CYFAR *)CYREG_FLSHID_CUST_
 312              		.loc 1 260 0
 313 0044 0321     		movs	r1, #3
 314 0046 03F50073 		add	r3, r3, #512
 315 004a 1970     		strb	r1, [r3]
 261:Generated_Source\PSoC5/cyfitter_cfg.c **** 
 316              		.loc 1 261 0
 317 004c 274B     		ldr	r3, .L23+20
 318 004e 1B78     		ldrb	r3, [r3]	@ zero_extendqisi2
 319 0050 DBB2     		uxtb	r3, r3
 320 0052 2749     		ldr	r1, .L23+24
 321 0054 0B70     		strb	r3, [r1]
 264:Generated_Source\PSoC5/cyfitter_cfg.c **** 	CY_SET_XTND_REG16((void CYFAR *)(CYREG_FASTCLK_PLL_CFG0), 0x1251u);
 322              		.loc 1 264 0
 323 0056 274B     		ldr	r3, .L23+28
 324 0058 1A80     		strh	r2, [r3]	@ movhi
 265:Generated_Source\PSoC5/cyfitter_cfg.c **** 	/* Wait up to 250us for the PLL to lock */
 325              		.loc 1 265 0
 326 005a 41F25122 		movw	r2, #4689
 327 005e 023B     		subs	r3, r3, #2
 328 0060 1A80     		strh	r2, [r3]	@ movhi
 329              	.LVL24:
 267:Generated_Source\PSoC5/cyfitter_cfg.c **** 	for (timeout = 250u / 10u; (timeout > 0u) && (pllLock != 0x03u); timeout--)
 330              		.loc 1 267 0
 331 0062 0024     		movs	r4, #0
ARM GAS  C:\Users\cring\AppData\Local\Temp\ccR7cpQH.s 			page 13


 268:Generated_Source\PSoC5/cyfitter_cfg.c **** 	{ 
 332              		.loc 1 268 0
 333 0064 1925     		movs	r5, #25
 334 0066 0CE0     		b	.L18
 335              	.LVL25:
 336              	.L20:
 270:Generated_Source\PSoC5/cyfitter_cfg.c **** 		CyDelayCycles(10u * 48u); /* Delay 10us based on 48MHz clock */
 337              		.loc 1 270 0 discriminator 4
 338 0068 234B     		ldr	r3, .L23+32
 339 006a 1B78     		ldrb	r3, [r3]	@ zero_extendqisi2
 340 006c 03F00103 		and	r3, r3, #1
 341 0070 43EA4404 		orr	r4, r3, r4, lsl #1
 342              	.LVL26:
 343 0074 04F00304 		and	r4, r4, #3
 344              	.LVL27:
 271:Generated_Source\PSoC5/cyfitter_cfg.c **** 	}
 345              		.loc 1 271 0 discriminator 4
 346 0078 4FF4F070 		mov	r0, #480
 347 007c FFF7FEFF 		bl	CyDelayCycles
 348              	.LVL28:
 268:Generated_Source\PSoC5/cyfitter_cfg.c **** 	{ 
 349              		.loc 1 268 0 discriminator 4
 350 0080 013D     		subs	r5, r5, #1
 351              	.LVL29:
 352              	.L18:
 268:Generated_Source\PSoC5/cyfitter_cfg.c **** 	{ 
 353              		.loc 1 268 0 is_stmt 0 discriminator 1
 354 0082 0DB1     		cbz	r5, .L19
 268:Generated_Source\PSoC5/cyfitter_cfg.c **** 	{ 
 355              		.loc 1 268 0 discriminator 3
 356 0084 032C     		cmp	r4, #3
 357 0086 EFD1     		bne	.L20
 358              	.L19:
 274:Generated_Source\PSoC5/cyfitter_cfg.c **** 	{
 359              		.loc 1 274 0 is_stmt 1
 360 0088 15B9     		cbnz	r5, .L21
 276:Generated_Source\PSoC5/cyfitter_cfg.c **** 	}
 361              		.loc 1 276 0
 362 008a 0320     		movs	r0, #3
 363 008c FFF7FEFF 		bl	CyClockStartupError
 364              	.LVL30:
 365              	.L21:
 280:Generated_Source\PSoC5/cyfitter_cfg.c **** 	CY_SET_XTND_REG8((void CYFAR *)(CYREG_CLKDIST_MSTR0), 0x07u);
 366              		.loc 1 280 0
 367 0090 1A4B     		ldr	r3, .L23+36
 368 0092 4FF48072 		mov	r2, #256
 369 0096 1A80     		strh	r2, [r3]	@ movhi
 281:Generated_Source\PSoC5/cyfitter_cfg.c **** 	CY_SET_XTND_REG8((void CYFAR *)(CYREG_CLKDIST_BCFG0), 0x00u);
 370              		.loc 1 281 0
 371 0098 0722     		movs	r2, #7
 372 009a 1A70     		strb	r2, [r3]
 282:Generated_Source\PSoC5/cyfitter_cfg.c **** 	CY_SET_XTND_REG8((void CYFAR *)(CYREG_CLKDIST_BCFG2), 0x48u);
 373              		.loc 1 282 0
 374 009c 0022     		movs	r2, #0
 375 009e 1849     		ldr	r1, .L23+40
 376 00a0 0A70     		strb	r2, [r1]
 283:Generated_Source\PSoC5/cyfitter_cfg.c **** 	CY_SET_XTND_REG8((void CYFAR *)(CYREG_CLKDIST_MSTR0), 0x00u);
ARM GAS  C:\Users\cring\AppData\Local\Temp\ccR7cpQH.s 			page 14


 377              		.loc 1 283 0
 378 00a2 4820     		movs	r0, #72
 379 00a4 0231     		adds	r1, r1, #2
 380 00a6 0870     		strb	r0, [r1]
 284:Generated_Source\PSoC5/cyfitter_cfg.c **** 	CY_SET_XTND_REG8((void CYFAR *)(CYREG_CLKDIST_LD), 0x02u);
 381              		.loc 1 284 0
 382 00a8 1A70     		strb	r2, [r3]
 285:Generated_Source\PSoC5/cyfitter_cfg.c **** 	CY_SET_XTND_REG8((void CYFAR *)(CYREG_CLKDIST_DLY1), 0x04u);
 383              		.loc 1 285 0
 384 00aa 0222     		movs	r2, #2
 385 00ac 033B     		subs	r3, r3, #3
 386 00ae 1A70     		strb	r2, [r3]
 286:Generated_Source\PSoC5/cyfitter_cfg.c **** 
 387              		.loc 1 286 0
 388 00b0 0422     		movs	r2, #4
 389 00b2 0A33     		adds	r3, r3, #10
 390 00b4 1A70     		strb	r2, [r3]
 288:Generated_Source\PSoC5/cyfitter_cfg.c **** 	CY_SET_XTND_REG8((void CYFAR *)(CYREG_PM_ACT_CFG1), ((CY_GET_XTND_REG8((void CYFAR *)CYREG_PM_ACT_
 391              		.loc 1 288 0
 392 00b6 134A     		ldr	r2, .L23+44
 393 00b8 1378     		ldrb	r3, [r2]	@ zero_extendqisi2
 394 00ba 43F00F03 		orr	r3, r3, #15
 395 00be 1370     		strb	r3, [r2]
 289:Generated_Source\PSoC5/cyfitter_cfg.c **** 	CY_SET_XTND_REG8((void CYFAR *)(CYREG_PM_ACT_CFG0), ((CY_GET_XTND_REG8((void CYFAR *)CYREG_PM_ACT_
 396              		.loc 1 289 0
 397 00c0 013A     		subs	r2, r2, #1
 398 00c2 1378     		ldrb	r3, [r2]	@ zero_extendqisi2
 399 00c4 43F00103 		orr	r3, r3, #1
 400 00c8 1370     		strb	r3, [r2]
 290:Generated_Source\PSoC5/cyfitter_cfg.c **** }
 401              		.loc 1 290 0
 402 00ca 013A     		subs	r2, r2, #1
 403 00cc 1378     		ldrb	r3, [r2]	@ zero_extendqisi2
 404 00ce 43F08003 		orr	r3, r3, #128
 405 00d2 1370     		strb	r3, [r2]
 406 00d4 38BD     		pop	{r3, r4, r5, pc}
 407              	.LVL31:
 408              	.L24:
 409 00d6 00BF     		.align	2
 410              	.L23:
 411 00d8 80400040 		.word	1073758336
 412 00dc 82400040 		.word	1073758338
 413 00e0 500F0048 		.word	1207963472
 414 00e4 00410040 		.word	1073758464
 415 00e8 00430040 		.word	1073758976
 416 00ec 08010049 		.word	1224737032
 417 00f0 A1460040 		.word	1073759905
 418 00f4 22420040 		.word	1073758754
 419 00f8 25420040 		.word	1073758757
 420 00fc 04400040 		.word	1073758212
 421 0100 06400040 		.word	1073758214
 422 0104 A2430040 		.word	1073759138
 423              		.cfi_endproc
 424              	.LFE5:
 425              		.size	ClockSetup, .-ClockSetup
 426              		.section	.text.SetAnalogRoutingPumps,"ax",%progbits
 427              		.align	2
ARM GAS  C:\Users\cring\AppData\Local\Temp\ccR7cpQH.s 			page 15


 428              		.global	SetAnalogRoutingPumps
 429              		.thumb
 430              		.thumb_func
 431              		.type	SetAnalogRoutingPumps, %function
 432              	SetAnalogRoutingPumps:
 433              	.LFB7:
 330:Generated_Source\PSoC5/cyfitter_cfg.c **** }
 331:Generated_Source\PSoC5/cyfitter_cfg.c **** 
 332:Generated_Source\PSoC5/cyfitter_cfg.c **** 
 333:Generated_Source\PSoC5/cyfitter_cfg.c **** /*******************************************************************************
 334:Generated_Source\PSoC5/cyfitter_cfg.c **** * Function Name: SetAnalogRoutingPumps
 335:Generated_Source\PSoC5/cyfitter_cfg.c **** ********************************************************************************
 336:Generated_Source\PSoC5/cyfitter_cfg.c **** *
 337:Generated_Source\PSoC5/cyfitter_cfg.c **** * Summary:
 338:Generated_Source\PSoC5/cyfitter_cfg.c **** * Enables or disables the analog pumps feeding analog routing switches.
 339:Generated_Source\PSoC5/cyfitter_cfg.c **** * Intended to be called at startup, based on the Vdda system configuration;
 340:Generated_Source\PSoC5/cyfitter_cfg.c **** * may be called during operation when the user informs us that the Vdda voltage
 341:Generated_Source\PSoC5/cyfitter_cfg.c **** * crossed the pump threshold.
 342:Generated_Source\PSoC5/cyfitter_cfg.c **** *
 343:Generated_Source\PSoC5/cyfitter_cfg.c **** * Parameters:
 344:Generated_Source\PSoC5/cyfitter_cfg.c **** *  enabled - 1 to enable the pumps, 0 to disable the pumps
 345:Generated_Source\PSoC5/cyfitter_cfg.c **** *
 346:Generated_Source\PSoC5/cyfitter_cfg.c **** * Return:
 347:Generated_Source\PSoC5/cyfitter_cfg.c **** *  void
 348:Generated_Source\PSoC5/cyfitter_cfg.c **** *
 349:Generated_Source\PSoC5/cyfitter_cfg.c **** *******************************************************************************/
 350:Generated_Source\PSoC5/cyfitter_cfg.c **** void SetAnalogRoutingPumps(uint8 enabled)
 351:Generated_Source\PSoC5/cyfitter_cfg.c **** {
 434              		.loc 1 351 0
 435              		.cfi_startproc
 436              		@ args = 0, pretend = 0, frame = 0
 437              		@ frame_needed = 0, uses_anonymous_args = 0
 438              		@ link register save eliminated.
 439              	.LVL32:
 352:Generated_Source\PSoC5/cyfitter_cfg.c **** 	uint8 regValue = CY_GET_XTND_REG8((void CYFAR *)CYREG_PUMP_CR0);
 440              		.loc 1 352 0
 441 0000 054B     		ldr	r3, .L28
 442 0002 1B78     		ldrb	r3, [r3]	@ zero_extendqisi2
 443 0004 DBB2     		uxtb	r3, r3
 444              	.LVL33:
 353:Generated_Source\PSoC5/cyfitter_cfg.c **** 	if (enabled != 0u)
 445              		.loc 1 353 0
 446 0006 10B1     		cbz	r0, .L26
 354:Generated_Source\PSoC5/cyfitter_cfg.c **** 	{
 355:Generated_Source\PSoC5/cyfitter_cfg.c **** 		regValue |= 0x22u;
 447              		.loc 1 355 0
 448 0008 43F02203 		orr	r3, r3, #34
 449              	.LVL34:
 450 000c 01E0     		b	.L27
 451              	.L26:
 356:Generated_Source\PSoC5/cyfitter_cfg.c **** 	}
 357:Generated_Source\PSoC5/cyfitter_cfg.c **** 	else
 358:Generated_Source\PSoC5/cyfitter_cfg.c **** 	{
 359:Generated_Source\PSoC5/cyfitter_cfg.c **** 		regValue &= (uint8)~0x22u;
 452              		.loc 1 359 0
 453 000e 03F0DD03 		and	r3, r3, #221
 454              	.LVL35:
ARM GAS  C:\Users\cring\AppData\Local\Temp\ccR7cpQH.s 			page 16


 455              	.L27:
 360:Generated_Source\PSoC5/cyfitter_cfg.c **** 	}
 361:Generated_Source\PSoC5/cyfitter_cfg.c **** 	CY_SET_XTND_REG8((void CYFAR *)CYREG_PUMP_CR0, regValue);
 456              		.loc 1 361 0
 457 0012 014A     		ldr	r2, .L28
 458 0014 1370     		strb	r3, [r2]
 459 0016 7047     		bx	lr
 460              	.L29:
 461              		.align	2
 462              	.L28:
 463 0018 76580040 		.word	1073764470
 464              		.cfi_endproc
 465              	.LFE7:
 466              		.size	SetAnalogRoutingPumps, .-SetAnalogRoutingPumps
 467              		.section	.text.PlayerSelect_Set,"ax",%progbits
 468              		.align	2
 469              		.global	PlayerSelect_Set
 470              		.thumb
 471              		.thumb_func
 472              		.type	PlayerSelect_Set, %function
 473              	PlayerSelect_Set:
 474              	.LFB8:
 362:Generated_Source\PSoC5/cyfitter_cfg.c **** }
 363:Generated_Source\PSoC5/cyfitter_cfg.c **** 
 364:Generated_Source\PSoC5/cyfitter_cfg.c **** 
 365:Generated_Source\PSoC5/cyfitter_cfg.c **** #define CY_AMUX_UNUSED CYREG_BOOST_SR
 366:Generated_Source\PSoC5/cyfitter_cfg.c **** /* This is an implementation detail of the AMux. Code that depends on it may be
 367:Generated_Source\PSoC5/cyfitter_cfg.c ****    incompatible with other versions of PSoC Creator. */
 368:Generated_Source\PSoC5/cyfitter_cfg.c **** uint8 CYXDATA * const CYCODE PlayerSelect__addrTable[2] = {
 369:Generated_Source\PSoC5/cyfitter_cfg.c **** 	(uint8 CYXDATA *)CYREG_PRT0_AG, 
 370:Generated_Source\PSoC5/cyfitter_cfg.c **** 	(uint8 CYXDATA *)CYREG_PRT0_AG, 
 371:Generated_Source\PSoC5/cyfitter_cfg.c **** };
 372:Generated_Source\PSoC5/cyfitter_cfg.c **** 
 373:Generated_Source\PSoC5/cyfitter_cfg.c **** /* This is an implementation detail of the AMux. Code that depends on it may be
 374:Generated_Source\PSoC5/cyfitter_cfg.c ****    incompatible with other versions of PSoC Creator. */
 375:Generated_Source\PSoC5/cyfitter_cfg.c **** const uint8 CYCODE PlayerSelect__maskTable[2] = {
 376:Generated_Source\PSoC5/cyfitter_cfg.c **** 	0x04u, 
 377:Generated_Source\PSoC5/cyfitter_cfg.c **** 	0x80u, 
 378:Generated_Source\PSoC5/cyfitter_cfg.c **** };
 379:Generated_Source\PSoC5/cyfitter_cfg.c **** 
 380:Generated_Source\PSoC5/cyfitter_cfg.c **** /*******************************************************************************
 381:Generated_Source\PSoC5/cyfitter_cfg.c **** * Function Name: PlayerSelect_Set
 382:Generated_Source\PSoC5/cyfitter_cfg.c **** ********************************************************************************
 383:Generated_Source\PSoC5/cyfitter_cfg.c **** * Summary:
 384:Generated_Source\PSoC5/cyfitter_cfg.c **** *  This function is used to set a particular channel as active on the AMux.
 385:Generated_Source\PSoC5/cyfitter_cfg.c **** *
 386:Generated_Source\PSoC5/cyfitter_cfg.c **** * Parameters:  
 387:Generated_Source\PSoC5/cyfitter_cfg.c **** *   channel - The mux channel input to set as active
 388:Generated_Source\PSoC5/cyfitter_cfg.c **** *
 389:Generated_Source\PSoC5/cyfitter_cfg.c **** * Return:
 390:Generated_Source\PSoC5/cyfitter_cfg.c **** *   void
 391:Generated_Source\PSoC5/cyfitter_cfg.c **** *
 392:Generated_Source\PSoC5/cyfitter_cfg.c **** *******************************************************************************/
 393:Generated_Source\PSoC5/cyfitter_cfg.c **** void PlayerSelect_Set(uint8 channel)
 394:Generated_Source\PSoC5/cyfitter_cfg.c **** {
 475              		.loc 1 394 0
 476              		.cfi_startproc
ARM GAS  C:\Users\cring\AppData\Local\Temp\ccR7cpQH.s 			page 17


 477              		@ args = 0, pretend = 0, frame = 0
 478              		@ frame_needed = 0, uses_anonymous_args = 0
 479              		@ link register save eliminated.
 480              	.LVL36:
 395:Generated_Source\PSoC5/cyfitter_cfg.c **** 	if (channel < 2)
 481              		.loc 1 395 0
 482 0000 0128     		cmp	r0, #1
 483 0002 07D8     		bhi	.L30
 396:Generated_Source\PSoC5/cyfitter_cfg.c **** 	{
 397:Generated_Source\PSoC5/cyfitter_cfg.c **** 		*PlayerSelect__addrTable[channel] |= PlayerSelect__maskTable[channel];
 484              		.loc 1 397 0
 485 0004 044B     		ldr	r3, .L32
 486 0006 53F82020 		ldr	r2, [r3, r0, lsl #2]
 487 000a 1844     		add	r0, r0, r3
 488              	.LVL37:
 489 000c 017A     		ldrb	r1, [r0, #8]	@ zero_extendqisi2
 490 000e 1378     		ldrb	r3, [r2]	@ zero_extendqisi2
 491 0010 0B43     		orrs	r3, r3, r1
 492 0012 1370     		strb	r3, [r2]
 493              	.L30:
 494 0014 7047     		bx	lr
 495              	.L33:
 496 0016 00BF     		.align	2
 497              	.L32:
 498 0018 00000000 		.word	.LANCHOR0
 499              		.cfi_endproc
 500              	.LFE8:
 501              		.size	PlayerSelect_Set, .-PlayerSelect_Set
 502              		.section	.text.PlayerSelect_Unset,"ax",%progbits
 503              		.align	2
 504              		.global	PlayerSelect_Unset
 505              		.thumb
 506              		.thumb_func
 507              		.type	PlayerSelect_Unset, %function
 508              	PlayerSelect_Unset:
 509              	.LFB9:
 398:Generated_Source\PSoC5/cyfitter_cfg.c **** 	}
 399:Generated_Source\PSoC5/cyfitter_cfg.c **** }
 400:Generated_Source\PSoC5/cyfitter_cfg.c **** 
 401:Generated_Source\PSoC5/cyfitter_cfg.c **** /*******************************************************************************
 402:Generated_Source\PSoC5/cyfitter_cfg.c **** * Function Name: PlayerSelect_Unset
 403:Generated_Source\PSoC5/cyfitter_cfg.c **** ********************************************************************************
 404:Generated_Source\PSoC5/cyfitter_cfg.c **** * Summary:
 405:Generated_Source\PSoC5/cyfitter_cfg.c **** *  This function is used to clear a particular channel from being active on the
 406:Generated_Source\PSoC5/cyfitter_cfg.c **** *  AMux.
 407:Generated_Source\PSoC5/cyfitter_cfg.c **** *
 408:Generated_Source\PSoC5/cyfitter_cfg.c **** * Parameters:  
 409:Generated_Source\PSoC5/cyfitter_cfg.c **** *   channel - The mux channel input to mark inactive
 410:Generated_Source\PSoC5/cyfitter_cfg.c **** *
 411:Generated_Source\PSoC5/cyfitter_cfg.c **** * Return:
 412:Generated_Source\PSoC5/cyfitter_cfg.c **** *   void
 413:Generated_Source\PSoC5/cyfitter_cfg.c **** *
 414:Generated_Source\PSoC5/cyfitter_cfg.c **** *******************************************************************************/
 415:Generated_Source\PSoC5/cyfitter_cfg.c **** void PlayerSelect_Unset(uint8 channel)
 416:Generated_Source\PSoC5/cyfitter_cfg.c **** {
 510              		.loc 1 416 0
 511              		.cfi_startproc
ARM GAS  C:\Users\cring\AppData\Local\Temp\ccR7cpQH.s 			page 18


 512              		@ args = 0, pretend = 0, frame = 0
 513              		@ frame_needed = 0, uses_anonymous_args = 0
 514              		@ link register save eliminated.
 515              	.LVL38:
 417:Generated_Source\PSoC5/cyfitter_cfg.c **** 	if (channel < 2)
 516              		.loc 1 417 0
 517 0000 0128     		cmp	r0, #1
 518 0002 08D8     		bhi	.L34
 418:Generated_Source\PSoC5/cyfitter_cfg.c **** 	{
 419:Generated_Source\PSoC5/cyfitter_cfg.c **** 		*PlayerSelect__addrTable[channel] &= (uint8)~PlayerSelect__maskTable[channel];
 519              		.loc 1 419 0
 520 0004 044B     		ldr	r3, .L36
 521 0006 53F82020 		ldr	r2, [r3, r0, lsl #2]
 522 000a 1844     		add	r0, r0, r3
 523              	.LVL39:
 524 000c 017A     		ldrb	r1, [r0, #8]	@ zero_extendqisi2
 525 000e 1378     		ldrb	r3, [r2]	@ zero_extendqisi2
 526 0010 23EA0103 		bic	r3, r3, r1
 527 0014 1370     		strb	r3, [r2]
 528              	.L34:
 529 0016 7047     		bx	lr
 530              	.L37:
 531              		.align	2
 532              	.L36:
 533 0018 00000000 		.word	.LANCHOR0
 534              		.cfi_endproc
 535              	.LFE9:
 536              		.size	PlayerSelect_Unset, .-PlayerSelect_Unset
 537              		.section	.text.cyfitter_cfg,"ax",%progbits
 538              		.align	2
 539              		.global	cyfitter_cfg
 540              		.thumb
 541              		.thumb_func
 542              		.type	cyfitter_cfg, %function
 543              	cyfitter_cfg:
 544              	.LFB10:
 420:Generated_Source\PSoC5/cyfitter_cfg.c **** 	}
 421:Generated_Source\PSoC5/cyfitter_cfg.c **** }
 422:Generated_Source\PSoC5/cyfitter_cfg.c **** 
 423:Generated_Source\PSoC5/cyfitter_cfg.c **** 
 424:Generated_Source\PSoC5/cyfitter_cfg.c **** 
 425:Generated_Source\PSoC5/cyfitter_cfg.c **** /*******************************************************************************
 426:Generated_Source\PSoC5/cyfitter_cfg.c **** * Function Name: cyfitter_cfg
 427:Generated_Source\PSoC5/cyfitter_cfg.c **** ********************************************************************************
 428:Generated_Source\PSoC5/cyfitter_cfg.c **** * Summary:
 429:Generated_Source\PSoC5/cyfitter_cfg.c **** *  This function is called by the start-up code for the selected device. It
 430:Generated_Source\PSoC5/cyfitter_cfg.c **** *  performs all of the necessary device configuration based on the design
 431:Generated_Source\PSoC5/cyfitter_cfg.c **** *  settings.  This includes settings from the Design Wide Resources (DWR) such
 432:Generated_Source\PSoC5/cyfitter_cfg.c **** *  as Clocks and Pins as well as any component configuration that is necessary.
 433:Generated_Source\PSoC5/cyfitter_cfg.c **** *
 434:Generated_Source\PSoC5/cyfitter_cfg.c **** * Parameters:
 435:Generated_Source\PSoC5/cyfitter_cfg.c **** *   void
 436:Generated_Source\PSoC5/cyfitter_cfg.c **** *
 437:Generated_Source\PSoC5/cyfitter_cfg.c **** * Return:
 438:Generated_Source\PSoC5/cyfitter_cfg.c **** *   void
 439:Generated_Source\PSoC5/cyfitter_cfg.c **** *
 440:Generated_Source\PSoC5/cyfitter_cfg.c **** *******************************************************************************/
ARM GAS  C:\Users\cring\AppData\Local\Temp\ccR7cpQH.s 			page 19


 441:Generated_Source\PSoC5/cyfitter_cfg.c **** 
 442:Generated_Source\PSoC5/cyfitter_cfg.c **** void cyfitter_cfg(void)
 443:Generated_Source\PSoC5/cyfitter_cfg.c **** {
 545              		.loc 1 443 0
 546              		.cfi_startproc
 547              		@ args = 0, pretend = 0, frame = 0
 548              		@ frame_needed = 0, uses_anonymous_args = 0
 549 0000 38B5     		push	{r3, r4, r5, lr}
 550              		.cfi_def_cfa_offset 16
 551              		.cfi_offset 3, -16
 552              		.cfi_offset 4, -12
 553              		.cfi_offset 5, -8
 554              		.cfi_offset 14, -4
 444:Generated_Source\PSoC5/cyfitter_cfg.c **** #ifdef CYGlobalIntDisable
 445:Generated_Source\PSoC5/cyfitter_cfg.c **** 	/* Disable interrupts by default. Let user enable if/when they want. */
 446:Generated_Source\PSoC5/cyfitter_cfg.c **** 	CYGlobalIntDisable
 555              		.loc 1 446 0
 556              		.syntax unified
 557              	@ 446 "Generated_Source\PSoC5\cyfitter_cfg.c" 1
 558 0002 72B6     		CPSID   i
 559              	@ 0 "" 2
 447:Generated_Source\PSoC5/cyfitter_cfg.c **** #endif
 448:Generated_Source\PSoC5/cyfitter_cfg.c **** 
 449:Generated_Source\PSoC5/cyfitter_cfg.c **** 	/* Enable/Disable Debug functionality based on settings from System DWR */
 450:Generated_Source\PSoC5/cyfitter_cfg.c **** 	CY_SET_XTND_REG8((void CYFAR *)CYREG_MLOGIC_DEBUG, (CY_GET_XTND_REG8((void CYFAR *)CYREG_MLOGIC_DE
 560              		.loc 1 450 0
 561              		.thumb
 562              		.syntax unified
 563 0004 394A     		ldr	r2, .L44
 564 0006 1378     		ldrb	r3, [r2]	@ zero_extendqisi2
 565 0008 43F00403 		orr	r3, r3, #4
 566 000c 1370     		strb	r3, [r2]
 567              	.LVL40:
 568              	.LBB3:
 451:Generated_Source\PSoC5/cyfitter_cfg.c **** 
 452:Generated_Source\PSoC5/cyfitter_cfg.c **** 	{
 453:Generated_Source\PSoC5/cyfitter_cfg.c **** 
 454:Generated_Source\PSoC5/cyfitter_cfg.c **** 		CYPACKED typedef struct {
 455:Generated_Source\PSoC5/cyfitter_cfg.c **** 			void CYFAR *address;
 456:Generated_Source\PSoC5/cyfitter_cfg.c **** 			uint16 size;
 457:Generated_Source\PSoC5/cyfitter_cfg.c **** 		} CYPACKED_ATTR cfg_memset_t;
 458:Generated_Source\PSoC5/cyfitter_cfg.c **** 
 459:Generated_Source\PSoC5/cyfitter_cfg.c **** 
 460:Generated_Source\PSoC5/cyfitter_cfg.c **** 		CYPACKED typedef struct {
 461:Generated_Source\PSoC5/cyfitter_cfg.c **** 			void CYFAR *dest;
 462:Generated_Source\PSoC5/cyfitter_cfg.c **** 			const void CYFAR *src;
 463:Generated_Source\PSoC5/cyfitter_cfg.c **** 			uint16 size;
 464:Generated_Source\PSoC5/cyfitter_cfg.c **** 		} CYPACKED_ATTR cfg_memcpy_t;
 465:Generated_Source\PSoC5/cyfitter_cfg.c **** 
 466:Generated_Source\PSoC5/cyfitter_cfg.c **** 		static const cfg_memset_t CYCODE cfg_memset_list[] = {
 467:Generated_Source\PSoC5/cyfitter_cfg.c **** 			/* address, size */
 468:Generated_Source\PSoC5/cyfitter_cfg.c **** 			{(void CYFAR *)(CYREG_I2C_XCFG), 25u},
 469:Generated_Source\PSoC5/cyfitter_cfg.c **** 			{(void CYFAR *)(CYREG_PRT2_DR), 16u},
 470:Generated_Source\PSoC5/cyfitter_cfg.c **** 			{(void CYFAR *)(CYREG_PRT4_DR), 48u},
 471:Generated_Source\PSoC5/cyfitter_cfg.c **** 			{(void CYFAR *)(CYDEV_UCFG_B0_P0_U0_BASE), 4096u},
 472:Generated_Source\PSoC5/cyfitter_cfg.c **** 			{(void CYFAR *)(CYDEV_UCFG_B1_P2_U0_BASE), 2048u},
 473:Generated_Source\PSoC5/cyfitter_cfg.c **** 			{(void CYFAR *)(CYDEV_UCFG_DSI0_BASE), 2560u},
ARM GAS  C:\Users\cring\AppData\Local\Temp\ccR7cpQH.s 			page 20


 474:Generated_Source\PSoC5/cyfitter_cfg.c **** 			{(void CYFAR *)(CYDEV_UCFG_DSI12_BASE), 512u},
 475:Generated_Source\PSoC5/cyfitter_cfg.c **** 			{(void CYFAR *)(CYREG_BCTL0_MDCLK_EN), 32u},
 476:Generated_Source\PSoC5/cyfitter_cfg.c **** 		};
 477:Generated_Source\PSoC5/cyfitter_cfg.c **** 
 478:Generated_Source\PSoC5/cyfitter_cfg.c **** 		static const cfg_memcpy_t CYCODE cfg_memcpy_list [] = {
 479:Generated_Source\PSoC5/cyfitter_cfg.c **** 			/* dest, src, size */
 480:Generated_Source\PSoC5/cyfitter_cfg.c **** 			{(void CYFAR *)(CYDEV_PRTDSI_PRT12_BASE), BS_IOPORT_7_VAL, 6u},
 481:Generated_Source\PSoC5/cyfitter_cfg.c **** 			{(void CYFAR *)(CYREG_IDMUX_IRQ_CTL0), BS_IDMUX_IRQ_VAL, 8u},
 482:Generated_Source\PSoC5/cyfitter_cfg.c **** 		};
 483:Generated_Source\PSoC5/cyfitter_cfg.c **** 
 484:Generated_Source\PSoC5/cyfitter_cfg.c **** 		uint8 CYDATA i;
 485:Generated_Source\PSoC5/cyfitter_cfg.c **** 
 486:Generated_Source\PSoC5/cyfitter_cfg.c **** 		/* Zero out critical memory blocks before beginning configuration */
 487:Generated_Source\PSoC5/cyfitter_cfg.c **** 		for (i = 0u; i < (sizeof(cfg_memset_list)/sizeof(cfg_memset_list[0])); i++)
 569              		.loc 1 487 0
 570 000e 0024     		movs	r4, #0
 571 0010 0BE0     		b	.L39
 572              	.LVL41:
 573              	.L40:
 574              	.LBB4:
 488:Generated_Source\PSoC5/cyfitter_cfg.c **** 		{
 489:Generated_Source\PSoC5/cyfitter_cfg.c **** 			const cfg_memset_t CYCODE * CYDATA ms = &cfg_memset_list[i];
 490:Generated_Source\PSoC5/cyfitter_cfg.c **** 			CYMEMZERO(ms->address, (size_t)(uint32)(ms->size));
 575              		.loc 1 490 0 discriminator 3
 576 0012 3748     		ldr	r0, .L44+4
 577 0014 6300     		lsls	r3, r4, #1
 578 0016 1A19     		adds	r2, r3, r4
 579 0018 5100     		lsls	r1, r2, #1
 580 001a 0144     		add	r1, r1, r0
 581 001c 0A46     		mov	r2, r1
 582 001e 098A     		ldrh	r1, [r1, #16]
 583 0020 D068     		ldr	r0, [r2, #12]	@ unaligned
 584 0022 FFF7FEFF 		bl	CYMEMZERO
 585              	.LVL42:
 586              	.LBE4:
 487:Generated_Source\PSoC5/cyfitter_cfg.c **** 		{
 587              		.loc 1 487 0 discriminator 3
 588 0026 0134     		adds	r4, r4, #1
 589              	.LVL43:
 590 0028 E4B2     		uxtb	r4, r4
 591              	.LVL44:
 592              	.L39:
 487:Generated_Source\PSoC5/cyfitter_cfg.c **** 		{
 593              		.loc 1 487 0 is_stmt 0 discriminator 1
 594 002a 072C     		cmp	r4, #7
 595 002c F1D9     		bls	.L40
 596 002e 0024     		movs	r4, #0
 597              	.LVL45:
 598 0030 0CE0     		b	.L41
 599              	.LVL46:
 600              	.L42:
 601              	.LBB5:
 491:Generated_Source\PSoC5/cyfitter_cfg.c **** 		}
 492:Generated_Source\PSoC5/cyfitter_cfg.c **** 
 493:Generated_Source\PSoC5/cyfitter_cfg.c **** 		/* Copy device configuration data into registers */
 494:Generated_Source\PSoC5/cyfitter_cfg.c **** 		for (i = 0u; i < (sizeof(cfg_memcpy_list)/sizeof(cfg_memcpy_list[0])); i++)
 495:Generated_Source\PSoC5/cyfitter_cfg.c **** 		{
ARM GAS  C:\Users\cring\AppData\Local\Temp\ccR7cpQH.s 			page 21


 496:Generated_Source\PSoC5/cyfitter_cfg.c **** 			const cfg_memcpy_t CYCODE * CYDATA mc = &cfg_memcpy_list[i];
 497:Generated_Source\PSoC5/cyfitter_cfg.c **** 			void * CYDATA destPtr = mc->dest;
 602              		.loc 1 497 0 is_stmt 1 discriminator 3
 603 0032 2F48     		ldr	r0, .L44+4
 604 0034 A200     		lsls	r2, r4, #2
 605 0036 1119     		adds	r1, r2, r4
 606 0038 4B00     		lsls	r3, r1, #1
 607 003a 0344     		add	r3, r3, r0
 608              	.LVL47:
 498:Generated_Source\PSoC5/cyfitter_cfg.c **** 			const void * CYDATA srcPtr = mc->src;
 499:Generated_Source\PSoC5/cyfitter_cfg.c **** 			uint16 CYDATA numBytes = mc->size;
 500:Generated_Source\PSoC5/cyfitter_cfg.c **** 			CYCONFIGCPY(destPtr, srcPtr, numBytes);
 609              		.loc 1 500 0 discriminator 3
 610 003c B3F84420 		ldrh	r2, [r3, #68]
 611 0040 196C     		ldr	r1, [r3, #64]	@ unaligned
 612              	.LVL48:
 613 0042 D86B     		ldr	r0, [r3, #60]	@ unaligned
 614              	.LVL49:
 615 0044 FFF7FEFF 		bl	CYCONFIGCPY
 616              	.LVL50:
 617              	.LBE5:
 494:Generated_Source\PSoC5/cyfitter_cfg.c **** 		{
 618              		.loc 1 494 0 discriminator 3
 619 0048 0134     		adds	r4, r4, #1
 620              	.LVL51:
 621 004a E4B2     		uxtb	r4, r4
 622              	.LVL52:
 623              	.L41:
 494:Generated_Source\PSoC5/cyfitter_cfg.c **** 		{
 624              		.loc 1 494 0 is_stmt 0 discriminator 1
 625 004c 012C     		cmp	r4, #1
 626 004e F0D9     		bls	.L42
 501:Generated_Source\PSoC5/cyfitter_cfg.c **** 		}
 502:Generated_Source\PSoC5/cyfitter_cfg.c **** 
 503:Generated_Source\PSoC5/cyfitter_cfg.c **** 		cfg_write_bytes32(cy_cfg_addr_table, cy_cfg_data_table);
 627              		.loc 1 503 0 is_stmt 1
 628 0050 2849     		ldr	r1, .L44+8
 629 0052 4FF09040 		mov	r0, #1207959552
 630 0056 FFF7FEFF 		bl	cfg_write_bytes32
 631              	.LVL53:
 504:Generated_Source\PSoC5/cyfitter_cfg.c **** 
 505:Generated_Source\PSoC5/cyfitter_cfg.c **** 		/* B1_P2_U1_CFG24 Starting address: CYDEV_UCFG_B1_P2_U1_CFG24 */
 506:Generated_Source\PSoC5/cyfitter_cfg.c **** 		CY_SET_XTND_REG32((void CYFAR *)(CYREG_B1_P2_U1_CFG24), 0x64040404u);
 632              		.loc 1 506 0
 633 005a 274A     		ldr	r2, .L44+12
 634 005c 274B     		ldr	r3, .L44+16
 635 005e 1A60     		str	r2, [r3]
 507:Generated_Source\PSoC5/cyfitter_cfg.c **** 
 508:Generated_Source\PSoC5/cyfitter_cfg.c **** 		/* Enable digital routing */
 509:Generated_Source\PSoC5/cyfitter_cfg.c **** 		CY_SET_XTND_REG8((void CYFAR *)CYREG_BCTL0_BANK_CTL, CY_GET_XTND_REG8((void CYFAR *)CYREG_BCTL0_B
 636              		.loc 1 509 0
 637 0060 274A     		ldr	r2, .L44+20
 638 0062 1378     		ldrb	r3, [r2]	@ zero_extendqisi2
 639 0064 43F00203 		orr	r3, r3, #2
 640 0068 1370     		strb	r3, [r2]
 510:Generated_Source\PSoC5/cyfitter_cfg.c **** 		CY_SET_XTND_REG8((void CYFAR *)CYREG_BCTL1_BANK_CTL, CY_GET_XTND_REG8((void CYFAR *)CYREG_BCTL1_B
 641              		.loc 1 510 0
ARM GAS  C:\Users\cring\AppData\Local\Temp\ccR7cpQH.s 			page 22


 642 006a 1032     		adds	r2, r2, #16
 643 006c 1378     		ldrb	r3, [r2]	@ zero_extendqisi2
 644 006e 43F00203 		orr	r3, r3, #2
 645 0072 1370     		strb	r3, [r2]
 511:Generated_Source\PSoC5/cyfitter_cfg.c **** 
 512:Generated_Source\PSoC5/cyfitter_cfg.c **** 		/* Enable UDB array */
 513:Generated_Source\PSoC5/cyfitter_cfg.c **** 		CY_SET_XTND_REG8((void CYFAR *)CYREG_PM_ACT_CFG0, CY_GET_XTND_REG8((void CYFAR *)CYREG_PM_ACT_CFG
 646              		.loc 1 513 0
 647 0074 234C     		ldr	r4, .L44+24
 648              	.LVL54:
 649 0076 2378     		ldrb	r3, [r4]	@ zero_extendqisi2
 650 0078 43F04003 		orr	r3, r3, #64
 651 007c 2370     		strb	r3, [r4]
 514:Generated_Source\PSoC5/cyfitter_cfg.c **** 		CY_SET_XTND_REG8((void CYFAR *)CYREG_PM_AVAIL_CR2, CY_GET_XTND_REG8((void CYFAR *)CYREG_PM_AVAIL_
 652              		.loc 1 514 0
 653 007e A2F58632 		sub	r2, r2, #68608
 654 0082 513A     		subs	r2, r2, #81
 655 0084 1378     		ldrb	r3, [r2]	@ zero_extendqisi2
 656 0086 43F01003 		orr	r3, r3, #16
 657 008a 1370     		strb	r3, [r2]
 658              	.LBE3:
 515:Generated_Source\PSoC5/cyfitter_cfg.c **** 	}
 516:Generated_Source\PSoC5/cyfitter_cfg.c **** 
 517:Generated_Source\PSoC5/cyfitter_cfg.c **** 
 518:Generated_Source\PSoC5/cyfitter_cfg.c **** 	/* Perform second pass device configuration. These items must be configured in specific order afte
 519:Generated_Source\PSoC5/cyfitter_cfg.c **** 	CYCONFIGCPY((void CYFAR *)(CYREG_PRT0_DM0), (const void CYFAR *)(BS_IOPINS0_0_VAL), 8u);
 659              		.loc 1 519 0
 660 008c 0822     		movs	r2, #8
 661 008e 1E49     		ldr	r1, .L44+28
 662 0090 1E48     		ldr	r0, .L44+32
 663 0092 FFF7FEFF 		bl	CYCONFIGCPY
 664              	.LVL55:
 520:Generated_Source\PSoC5/cyfitter_cfg.c **** 	CYCONFIGCPY((void CYFAR *)(CYREG_PRT12_DR), (const void CYFAR *)(BS_IOPINS0_7_VAL), 10u);
 665              		.loc 1 520 0
 666 0096 0A22     		movs	r2, #10
 667 0098 1D49     		ldr	r1, .L44+36
 668 009a 1E48     		ldr	r0, .L44+40
 669 009c FFF7FEFF 		bl	CYCONFIGCPY
 670              	.LVL56:
 521:Generated_Source\PSoC5/cyfitter_cfg.c **** 	CYCONFIGCPY((void CYFAR *)(CYREG_PRT15_DM0), (const void CYFAR *)(BS_IOPINS0_8_VAL), 8u);
 671              		.loc 1 521 0
 672 00a0 0822     		movs	r2, #8
 673 00a2 1D49     		ldr	r1, .L44+44
 674 00a4 1D48     		ldr	r0, .L44+48
 675 00a6 FFF7FEFF 		bl	CYCONFIGCPY
 676              	.LVL57:
 522:Generated_Source\PSoC5/cyfitter_cfg.c **** 	CYCONFIGCPY((void CYFAR *)(CYREG_PRT1_DM0), (const void CYFAR *)(BS_IOPINS0_1_VAL), 8u);
 677              		.loc 1 522 0
 678 00aa 0822     		movs	r2, #8
 679 00ac 1C49     		ldr	r1, .L44+52
 680 00ae 1D48     		ldr	r0, .L44+56
 681 00b0 FFF7FEFF 		bl	CYCONFIGCPY
 682              	.LVL58:
 523:Generated_Source\PSoC5/cyfitter_cfg.c **** 	CYCONFIGCPY((void CYFAR *)(CYREG_PRT3_DM0), (const void CYFAR *)(BS_IOPINS0_3_VAL), 8u);
 683              		.loc 1 523 0
 684 00b4 0822     		movs	r2, #8
 685 00b6 1C49     		ldr	r1, .L44+60
ARM GAS  C:\Users\cring\AppData\Local\Temp\ccR7cpQH.s 			page 23


 686 00b8 1C48     		ldr	r0, .L44+64
 687 00ba FFF7FEFF 		bl	CYCONFIGCPY
 688              	.LVL59:
 524:Generated_Source\PSoC5/cyfitter_cfg.c **** 	/* Switch Boost to the precision bandgap reference from its internal reference */
 525:Generated_Source\PSoC5/cyfitter_cfg.c **** 	CY_SET_REG8((void CYXDATA *)CYREG_BOOST_CR2, (CY_GET_REG8((void CYXDATA *)CYREG_BOOST_CR2) | 0x08u
 689              		.loc 1 525 0
 690 00be 1C4A     		ldr	r2, .L44+68
 691 00c0 1378     		ldrb	r3, [r2]	@ zero_extendqisi2
 692 00c2 43F00803 		orr	r3, r3, #8
 693 00c6 1370     		strb	r3, [r2]
 526:Generated_Source\PSoC5/cyfitter_cfg.c **** 
 527:Generated_Source\PSoC5/cyfitter_cfg.c **** 	/* Set Flash Cycles based on max possible frequency in case a glitch occurs during ClockSetup(). *
 528:Generated_Source\PSoC5/cyfitter_cfg.c **** 	CY_SET_XTND_REG8((void CYFAR *)(CYREG_CACHE_CC_CTL), (((CYDEV_INSTRUCT_CACHE_ENABLED) != 0) ? 0x61
 694              		.loc 1 528 0
 695 00c8 1A4D     		ldr	r5, .L44+72
 696 00ca 6123     		movs	r3, #97
 697 00cc 2B70     		strb	r3, [r5]
 529:Generated_Source\PSoC5/cyfitter_cfg.c **** 	/* Setup clocks based on selections from Clock DWR */
 530:Generated_Source\PSoC5/cyfitter_cfg.c **** 	ClockSetup();
 698              		.loc 1 530 0
 699 00ce FFF7FEFF 		bl	ClockSetup
 700              	.LVL60:
 531:Generated_Source\PSoC5/cyfitter_cfg.c **** 	/* Set Flash Cycles based on newly configured 24.00MHz Bus Clock. */
 532:Generated_Source\PSoC5/cyfitter_cfg.c **** 	CY_SET_XTND_REG8((void CYFAR *)(CYREG_CACHE_CC_CTL), (((CYDEV_INSTRUCT_CACHE_ENABLED) != 0) ? 0x81
 701              		.loc 1 532 0
 702 00d2 8123     		movs	r3, #129
 703 00d4 2B70     		strb	r3, [r5]
 533:Generated_Source\PSoC5/cyfitter_cfg.c **** 	CY_SET_XTND_REG8((void CYFAR *)(CYREG_PANTHER_WAITPIPE), 0x01u);
 704              		.loc 1 533 0
 705 00d6 0122     		movs	r2, #1
 706 00d8 174B     		ldr	r3, .L44+76
 707 00da 1A70     		strb	r2, [r3]
 534:Generated_Source\PSoC5/cyfitter_cfg.c **** 
 535:Generated_Source\PSoC5/cyfitter_cfg.c **** 	/* Perform basic analog initialization to defaults */
 536:Generated_Source\PSoC5/cyfitter_cfg.c **** 	AnalogSetDefault();
 708              		.loc 1 536 0
 709 00dc FFF7FEFF 		bl	AnalogSetDefault
 710              	.LVL61:
 537:Generated_Source\PSoC5/cyfitter_cfg.c **** 
 538:Generated_Source\PSoC5/cyfitter_cfg.c **** 	/* Configure alternate active mode */
 539:Generated_Source\PSoC5/cyfitter_cfg.c **** 	CYCONFIGCPY((void CYFAR *)CYDEV_PM_STBY_BASE, (const void CYFAR *)CYDEV_PM_ACT_BASE, 14u);
 711              		.loc 1 539 0
 712 00e0 0E22     		movs	r2, #14
 713 00e2 2146     		mov	r1, r4
 714 00e4 1548     		ldr	r0, .L44+80
 715 00e6 FFF7FEFF 		bl	CYCONFIGCPY
 716              	.LVL62:
 717 00ea 38BD     		pop	{r3, r4, r5, pc}
 718              	.L45:
 719              		.align	2
 720              	.L44:
 721 00ec E8460040 		.word	1073759976
 722 00f0 00000000 		.word	.LANCHOR0
 723 00f4 A0000048 		.word	1207959712
 724 00f8 04040464 		.word	1677984772
 725 00fc D8140140 		.word	1073812696
 726 0100 03500140 		.word	1073827843
ARM GAS  C:\Users\cring\AppData\Local\Temp\ccR7cpQH.s 			page 24


 727 0104 A0430040 		.word	1073759136
 728 0108 240F0048 		.word	1207963428
 729 010c 02510040 		.word	1073762562
 730 0110 2C0F0048 		.word	1207963436
 731 0114 C0510040 		.word	1073762752
 732 0118 380F0048 		.word	1207963448
 733 011c F2510040 		.word	1073762802
 734 0120 400F0048 		.word	1207963456
 735 0124 12510040 		.word	1073762578
 736 0128 480F0048 		.word	1207963464
 737 012c 32510040 		.word	1073762610
 738 0130 22430040 		.word	1073759010
 739 0134 00480040 		.word	1073760256
 740 0138 04000840 		.word	1074266116
 741 013c B0430040 		.word	1073759152
 742              		.cfi_endproc
 743              	.LFE10:
 744              		.size	cyfitter_cfg, .-cyfitter_cfg
 745              		.global	PlayerSelect__maskTable
 746              		.global	PlayerSelect__addrTable
 747              		.section	.rodata
 748              		.align	2
 749              		.set	.LANCHOR0,. + 0
 750              		.type	PlayerSelect__addrTable, %object
 751              		.size	PlayerSelect__addrTable, 8
 752              	PlayerSelect__addrTable:
 753 0000 0D510040 		.word	1073762573
 754 0004 0D510040 		.word	1073762573
 755              		.type	PlayerSelect__maskTable, %object
 756              		.size	PlayerSelect__maskTable, 2
 757              	PlayerSelect__maskTable:
 758 0008 04       		.byte	4
 759 0009 80       		.byte	-128
 760 000a 0000     		.space	2
 761              		.type	cfg_memset_list.5034, %object
 762              		.size	cfg_memset_list.5034, 48
 763              	cfg_memset_list.5034:
 764 000c C8490040 		.word	1073760712
 765 0010 1900     		.short	25
 766 0012 20510040 		.4byte	1073762592
 767 0016 1000     		.short	16
 768 0018 40510040 		.word	1073762624
 769 001c 3000     		.short	48
 770 001e 00000140 		.4byte	1073807360
 771 0022 0010     		.short	4096
 772 0024 00140140 		.word	1073812480
 773 0028 0008     		.short	2048
 774 002a 00400140 		.4byte	1073823744
 775 002e 000A     		.short	2560
 776 0030 004C0140 		.word	1073826816
 777 0034 0002     		.short	512
 778 0036 00500140 		.4byte	1073827840
 779 003a 2000     		.short	32
 780              		.type	cfg_memcpy_list.5035, %object
 781              		.size	cfg_memcpy_list.5035, 20
 782              	cfg_memcpy_list.5035:
 783 003c 60520040 		.word	1073762912
ARM GAS  C:\Users\cring\AppData\Local\Temp\ccR7cpQH.s 			page 25


 784 0040 140F0048 		.word	1207963412
 785 0044 0600     		.short	6
 786 0046 00510140 		.4byte	1073828096
 787 004a 1C0F0048 		.4byte	1207963420
 788 004e 0800     		.short	8
 789              		.text
 790              	.Letext0:
 791              		.file 2 "c:\\program files (x86)\\cypress\\psoc creator\\4.3\\psoc creator\\import\\gnu\\arm\\5.4.
 792              		.file 3 "Generated_Source\\PSoC5\\cytypes.h"
 793              		.file 4 "Generated_Source\\PSoC5\\CyLib.h"