ARM GAS  C:\Users\cring\AppData\Local\Temp\cch6TCJ2.s 			page 1


   1              		.syntax unified
   2              		.cpu cortex-m3
   3              		.fpu softvfp
   4              		.eabi_attribute 20, 1
   5              		.eabi_attribute 21, 1
   6              		.eabi_attribute 23, 3
   7              		.eabi_attribute 24, 1
   8              		.eabi_attribute 25, 1
   9              		.eabi_attribute 26, 1
  10              		.eabi_attribute 30, 1
  11              		.eabi_attribute 34, 1
  12              		.eabi_attribute 18, 4
  13              		.thumb
  14              		.syntax unified
  15              		.file	"Display.c"
  16              		.text
  17              	.Ltext0:
  18              		.cfi_sections	.debug_frame
  19              		.section	.text.StartDisp,"ax",%progbits
  20              		.align	2
  21              		.global	StartDisp
  22              		.thumb
  23              		.thumb_func
  24              		.type	StartDisp, %function
  25              	StartDisp:
  26              	.LFB66:
  27              		.file 1 "Display.c"
   1:Display.c     **** 
   2:Display.c     **** #include "Display.h"
   3:Display.c     **** #include "Stopur.h"
   4:Display.c     **** 
   5:Display.c     **** #define Display1 0x26                                  // Definere adressen på display 1
   6:Display.c     **** #define Display2 0x27                                  // Definere adressen på display 2
   7:Display.c     **** 
   8:Display.c     **** int display1On = 0;                                    //Bestemmer om display1 opdateres i interrup
   9:Display.c     **** int display2On = 0;                                    //Bestemmer om display2 opdateres i interrup
  10:Display.c     **** 
  11:Display.c     **** CY_ISR(isr_refreshrate_LCD)
  12:Display.c     **** {
  13:Display.c     ****     int x = getTime()/100;                                  // vores count værdi bliver lagt i var
  14:Display.c     ****     if (display1On == 1) dispTime(1,x);                 // Kalder dispTime funktion for begge displ
  15:Display.c     ****     if (display2On == 1) dispTime(2,x);
  16:Display.c     **** }
  17:Display.c     **** 
  18:Display.c     **** 
  19:Display.c     **** 
  20:Display.c     **** void initDisp(int Hz)                                   // Initiere display
  21:Display.c     **** {
  22:Display.c     ****     I2C_1_Start();                                      // Initiere og klargør I2C komponenten
  23:Display.c     ****     isr_refreshrate_LCD_StartEx(isr_refreshrate_LCD);   // Initiere interrupt for refreshrate på d
  24:Display.c     ****     Timer_LCD_WritePeriod((1/Hz)*10000);                // Omskriver Hz til ms og opdaterer refresh
  25:Display.c     ****     
  26:Display.c     ****     LiquidCrystal_I2C_init(Display1,16,2,0);            // Initiere vores LCD library med: adressen
  27:Display.c     ****     begin();                                            // positionere vores display til begin stat
  28:Display.c     ****     
  29:Display.c     ****     LiquidCrystal_I2C_init(Display2,16,2,0);
  30:Display.c     ****     begin();                                            // positionere vores display til begin stat
ARM GAS  C:\Users\cring\AppData\Local\Temp\cch6TCJ2.s 			page 2


  31:Display.c     ****     StartDisp();                           
  32:Display.c     **** }
  33:Display.c     **** void StartDisp()
  34:Display.c     **** {
  28              		.loc 1 34 0
  29              		.cfi_startproc
  30              		@ args = 0, pretend = 0, frame = 0
  31              		@ frame_needed = 0, uses_anonymous_args = 0
  32 0000 10B5     		push	{r4, lr}
  33              		.cfi_def_cfa_offset 8
  34              		.cfi_offset 4, -8
  35              		.cfi_offset 14, -4
  35:Display.c     ****     Timer_LCD_Stop();
  36              		.loc 1 35 0
  37 0002 FFF7FEFF 		bl	Timer_LCD_Stop
  38              	.LVL0:
  36:Display.c     ****     setaddress(Display1);
  39              		.loc 1 36 0
  40 0006 2620     		movs	r0, #38
  41 0008 FFF7FEFF 		bl	setaddress
  42              	.LVL1:
  37:Display.c     ****     clearDisp();
  43              		.loc 1 37 0
  44 000c FFF7FEFF 		bl	clearDisp
  45              	.LVL2:
  38:Display.c     ****     
  39:Display.c     ****     LCD_print("Spiller 1");
  46              		.loc 1 39 0
  47 0010 1048     		ldr	r0, .L3
  48 0012 FFF7FEFF 		bl	LCD_print
  49              	.LVL3:
  40:Display.c     ****     setCursor(0,1);                                     // vælger kollene og række
  50              		.loc 1 40 0
  51 0016 0121     		movs	r1, #1
  52 0018 0020     		movs	r0, #0
  53 001a FFF7FEFF 		bl	setCursor
  54              	.LVL4:
  41:Display.c     ****     LCD_print("Tid: ");
  55              		.loc 1 41 0
  56 001e 0E4C     		ldr	r4, .L3+4
  57 0020 2046     		mov	r0, r4
  58 0022 FFF7FEFF 		bl	LCD_print
  59              	.LVL5:
  42:Display.c     ****     
  43:Display.c     ****     setaddress(Display2);
  60              		.loc 1 43 0
  61 0026 2720     		movs	r0, #39
  62 0028 FFF7FEFF 		bl	setaddress
  63              	.LVL6:
  44:Display.c     ****     clearDisp();
  64              		.loc 1 44 0
  65 002c FFF7FEFF 		bl	clearDisp
  66              	.LVL7:
  45:Display.c     ****     
  46:Display.c     ****     LCD_print("Spiller 2");
  67              		.loc 1 46 0
  68 0030 0A48     		ldr	r0, .L3+8
ARM GAS  C:\Users\cring\AppData\Local\Temp\cch6TCJ2.s 			page 3


  69 0032 FFF7FEFF 		bl	LCD_print
  70              	.LVL8:
  47:Display.c     ****     setCursor(0,1);                                     // vælger kollenne og række
  71              		.loc 1 47 0
  72 0036 0121     		movs	r1, #1
  73 0038 0020     		movs	r0, #0
  74 003a FFF7FEFF 		bl	setCursor
  75              	.LVL9:
  48:Display.c     ****     LCD_print("Tid: ");
  76              		.loc 1 48 0
  77 003e 2046     		mov	r0, r4
  78 0040 FFF7FEFF 		bl	LCD_print
  79              	.LVL10:
  49:Display.c     ****     
  50:Display.c     ****     display1On = 1;
  80              		.loc 1 50 0
  81 0044 064B     		ldr	r3, .L3+12
  82 0046 0122     		movs	r2, #1
  83 0048 1A60     		str	r2, [r3]
  51:Display.c     ****     display2On = 1;
  84              		.loc 1 51 0
  85 004a 5A60     		str	r2, [r3, #4]
  52:Display.c     ****     
  53:Display.c     ****     Timer_LCD_Start();                                   // starter timeren for display
  86              		.loc 1 53 0
  87 004c FFF7FEFF 		bl	Timer_LCD_Start
  88              	.LVL11:
  89 0050 10BD     		pop	{r4, pc}
  90              	.L4:
  91 0052 00BF     		.align	2
  92              	.L3:
  93 0054 00000000 		.word	.LC0
  94 0058 0C000000 		.word	.LC1
  95 005c 14000000 		.word	.LC2
  96 0060 00000000 		.word	.LANCHOR0
  97              		.cfi_endproc
  98              	.LFE66:
  99              		.size	StartDisp, .-StartDisp
 100              		.section	.text.initDisp,"ax",%progbits
 101              		.align	2
 102              		.global	initDisp
 103              		.thumb
 104              		.thumb_func
 105              		.type	initDisp, %function
 106              	initDisp:
 107              	.LFB65:
  21:Display.c     ****     I2C_1_Start();                                      // Initiere og klargør I2C komponenten
 108              		.loc 1 21 0
 109              		.cfi_startproc
 110              		@ args = 0, pretend = 0, frame = 0
 111              		@ frame_needed = 0, uses_anonymous_args = 0
 112              	.LVL12:
 113 0000 10B5     		push	{r4, lr}
 114              		.cfi_def_cfa_offset 8
 115              		.cfi_offset 4, -8
 116              		.cfi_offset 14, -4
 117 0002 0446     		mov	r4, r0
ARM GAS  C:\Users\cring\AppData\Local\Temp\cch6TCJ2.s 			page 4


  22:Display.c     ****     isr_refreshrate_LCD_StartEx(isr_refreshrate_LCD);   // Initiere interrupt for refreshrate på d
 118              		.loc 1 22 0
 119 0004 FFF7FEFF 		bl	I2C_1_Start
 120              	.LVL13:
  23:Display.c     ****     Timer_LCD_WritePeriod((1/Hz)*10000);                // Omskriver Hz til ms og opdaterer refresh
 121              		.loc 1 23 0
 122 0008 1148     		ldr	r0, .L7
 123 000a FFF7FEFF 		bl	isr_refreshrate_LCD_StartEx
 124              	.LVL14:
  24:Display.c     ****     
 125              		.loc 1 24 0
 126 000e 0120     		movs	r0, #1
 127 0010 90FBF4F0 		sdiv	r0, r0, r4
 128 0014 C0EB4013 		rsb	r3, r0, r0, lsl #5
 129 0018 00EB8300 		add	r0, r0, r3, lsl #2
 130 001c 00EB8000 		add	r0, r0, r0, lsl #2
 131 0020 0301     		lsls	r3, r0, #4
 132 0022 98B2     		uxth	r0, r3
 133 0024 FFF7FEFF 		bl	Timer_LCD_WritePeriod
 134              	.LVL15:
  26:Display.c     ****     begin();                                            // positionere vores display til begin stat
 135              		.loc 1 26 0
 136 0028 0023     		movs	r3, #0
 137 002a 0222     		movs	r2, #2
 138 002c 1021     		movs	r1, #16
 139 002e 2620     		movs	r0, #38
 140 0030 FFF7FEFF 		bl	LiquidCrystal_I2C_init
 141              	.LVL16:
  27:Display.c     ****     
 142              		.loc 1 27 0
 143 0034 FFF7FEFF 		bl	begin
 144              	.LVL17:
  29:Display.c     ****     begin();                                            // positionere vores display til begin stat
 145              		.loc 1 29 0
 146 0038 0023     		movs	r3, #0
 147 003a 0222     		movs	r2, #2
 148 003c 1021     		movs	r1, #16
 149 003e 2720     		movs	r0, #39
 150 0040 FFF7FEFF 		bl	LiquidCrystal_I2C_init
 151              	.LVL18:
  30:Display.c     ****     StartDisp();                           
 152              		.loc 1 30 0
 153 0044 FFF7FEFF 		bl	begin
 154              	.LVL19:
  31:Display.c     **** }
 155              		.loc 1 31 0
 156 0048 FFF7FEFF 		bl	StartDisp
 157              	.LVL20:
 158 004c 10BD     		pop	{r4, pc}
 159              	.LVL21:
 160              	.L8:
 161 004e 00BF     		.align	2
 162              	.L7:
 163 0050 00000000 		.word	isr_refreshrate_LCD
 164              		.cfi_endproc
 165              	.LFE65:
 166              		.size	initDisp, .-initDisp
ARM GAS  C:\Users\cring\AppData\Local\Temp\cch6TCJ2.s 			page 5


 167              		.section	.text.printDisp,"ax",%progbits
 168              		.align	2
 169              		.global	printDisp
 170              		.thumb
 171              		.thumb_func
 172              		.type	printDisp, %function
 173              	printDisp:
 174              	.LFB67:
  54:Display.c     **** }
  55:Display.c     **** 
  56:Display.c     **** void printDisp(int line, char *string, int disp)
  57:Display.c     **** {
 175              		.loc 1 57 0
 176              		.cfi_startproc
 177              		@ args = 0, pretend = 0, frame = 0
 178              		@ frame_needed = 0, uses_anonymous_args = 0
 179              	.LVL22:
 180 0000 38B5     		push	{r3, r4, r5, lr}
 181              		.cfi_def_cfa_offset 16
 182              		.cfi_offset 3, -16
 183              		.cfi_offset 4, -12
 184              		.cfi_offset 5, -8
 185              		.cfi_offset 14, -4
 186 0002 0546     		mov	r5, r0
 187 0004 0C46     		mov	r4, r1
  58:Display.c     ****     disp = disp == 1 ? 0x26 : 0x27;
 188              		.loc 1 58 0
 189 0006 012A     		cmp	r2, #1
 190 0008 01D1     		bne	.L11
 191 000a 2620     		movs	r0, #38
 192              	.LVL23:
 193 000c 00E0     		b	.L10
 194              	.LVL24:
 195              	.L11:
 196 000e 2720     		movs	r0, #39
 197              	.LVL25:
 198              	.L10:
  59:Display.c     ****     setaddress(disp);
 199              		.loc 1 59 0 discriminator 4
 200 0010 FFF7FEFF 		bl	setaddress
 201              	.LVL26:
  60:Display.c     ****     
  61:Display.c     ****     setCursor(0, line);
 202              		.loc 1 61 0 discriminator 4
 203 0014 E9B2     		uxtb	r1, r5
 204 0016 0020     		movs	r0, #0
 205 0018 FFF7FEFF 		bl	setCursor
 206              	.LVL27:
  62:Display.c     ****     LCD_print(string);
 207              		.loc 1 62 0 discriminator 4
 208 001c 2046     		mov	r0, r4
 209 001e FFF7FEFF 		bl	LCD_print
 210              	.LVL28:
 211 0022 38BD     		pop	{r3, r4, r5, pc}
 212              		.cfi_endproc
 213              	.LFE67:
 214              		.size	printDisp, .-printDisp
ARM GAS  C:\Users\cring\AppData\Local\Temp\cch6TCJ2.s 			page 6


 215              		.section	.text.dispTime,"ax",%progbits
 216              		.align	2
 217              		.global	dispTime
 218              		.thumb
 219              		.thumb_func
 220              		.type	dispTime, %function
 221              	dispTime:
 222              	.LFB68:
  63:Display.c     **** }
  64:Display.c     **** 
  65:Display.c     **** 
  66:Display.c     **** void dispTime(int disp, int ms)                           // positionerer og udskriver på displays
  67:Display.c     **** {
 223              		.loc 1 67 0
 224              		.cfi_startproc
 225              		@ args = 0, pretend = 0, frame = 24
 226              		@ frame_needed = 0, uses_anonymous_args = 0
 227              	.LVL29:
 228 0000 30B5     		push	{r4, r5, lr}
 229              		.cfi_def_cfa_offset 12
 230              		.cfi_offset 4, -12
 231              		.cfi_offset 5, -8
 232              		.cfi_offset 14, -4
 233 0002 87B0     		sub	sp, sp, #28
 234              		.cfi_def_cfa_offset 40
 235 0004 0446     		mov	r4, r0
 236 0006 0D46     		mov	r5, r1
  68:Display.c     ****     Timer_LCD_Stop();                                     // stopper opdateringen af display
 237              		.loc 1 68 0
 238 0008 FFF7FEFF 		bl	Timer_LCD_Stop
 239              	.LVL30:
  69:Display.c     ****     int seconds = 0;
  70:Display.c     ****     char buf[20];
  71:Display.c     ****     disp = disp == 1 ? 0x26 : 0x27;
 240              		.loc 1 71 0
 241 000c 012C     		cmp	r4, #1
 242 000e 01D1     		bne	.L15
 243 0010 2620     		movs	r0, #38
 244 0012 00E0     		b	.L14
 245              	.L15:
 246 0014 2720     		movs	r0, #39
 247              	.L14:
 248              	.LVL31:
  72:Display.c     ****    
  73:Display.c     ****     seconds = ms / 10;                                  // værdien kommer som ms derfor /10 for at
 249              		.loc 1 73 0 discriminator 4
 250 0016 0E4C     		ldr	r4, .L17
 251 0018 84FB0534 		smull	r3, r4, r4, r5
 252 001c EA17     		asrs	r2, r5, #31
 253 001e C2EBA404 		rsb	r4, r2, r4, asr #2
 254              	.LVL32:
  74:Display.c     ****     ms = (ms - seconds*10);                             // sørger for at vi får vores decimal tal
 255              		.loc 1 74 0 discriminator 4
 256 0022 6FF00903 		mvn	r3, #9
 257 0026 03FB0455 		mla	r5, r3, r4, r5
 258              	.LVL33:
  75:Display.c     ****     
ARM GAS  C:\Users\cring\AppData\Local\Temp\cch6TCJ2.s 			page 7


  76:Display.c     ****     setaddress(disp);
 259              		.loc 1 76 0 discriminator 4
 260 002a FFF7FEFF 		bl	setaddress
 261              	.LVL34:
  77:Display.c     ****     sprintf(buf,"%d,%ds   ", seconds, ms);              // udskriver vores sekunder og ms
 262              		.loc 1 77 0 discriminator 4
 263 002e 2B46     		mov	r3, r5
 264 0030 2246     		mov	r2, r4
 265 0032 0849     		ldr	r1, .L17+4
 266 0034 01A8     		add	r0, sp, #4
 267 0036 FFF7FEFF 		bl	sprintf
 268              	.LVL35:
  78:Display.c     ****     setCursor(5,1);
 269              		.loc 1 78 0 discriminator 4
 270 003a 0121     		movs	r1, #1
 271 003c 0520     		movs	r0, #5
 272 003e FFF7FEFF 		bl	setCursor
 273              	.LVL36:
  79:Display.c     ****     LCD_print(buf);
 274              		.loc 1 79 0 discriminator 4
 275 0042 01A8     		add	r0, sp, #4
 276 0044 FFF7FEFF 		bl	LCD_print
 277              	.LVL37:
  80:Display.c     ****     
  81:Display.c     ****     Timer_LCD_Start();                                    // starter timeren for displays 
 278              		.loc 1 81 0 discriminator 4
 279 0048 FFF7FEFF 		bl	Timer_LCD_Start
 280              	.LVL38:
  82:Display.c     **** }
 281              		.loc 1 82 0 discriminator 4
 282 004c 07B0     		add	sp, sp, #28
 283              		.cfi_def_cfa_offset 12
 284              		@ sp needed
 285 004e 30BD     		pop	{r4, r5, pc}
 286              	.LVL39:
 287              	.L18:
 288              		.align	2
 289              	.L17:
 290 0050 67666666 		.word	1717986919
 291 0054 20000000 		.word	.LC3
 292              		.cfi_endproc
 293              	.LFE68:
 294              		.size	dispTime, .-dispTime
 295              		.section	.text.isr_refreshrate_LCD,"ax",%progbits
 296              		.align	2
 297              		.global	isr_refreshrate_LCD
 298              		.thumb
 299              		.thumb_func
 300              		.type	isr_refreshrate_LCD, %function
 301              	isr_refreshrate_LCD:
 302              	.LFB64:
  12:Display.c     ****     int x = getTime()/100;                                  // vores count værdi bliver lagt i var
 303              		.loc 1 12 0
 304              		.cfi_startproc
 305              		@ args = 0, pretend = 0, frame = 0
 306              		@ frame_needed = 0, uses_anonymous_args = 0
 307 0000 10B5     		push	{r4, lr}
ARM GAS  C:\Users\cring\AppData\Local\Temp\cch6TCJ2.s 			page 8


 308              		.cfi_def_cfa_offset 8
 309              		.cfi_offset 4, -8
 310              		.cfi_offset 14, -4
  13:Display.c     ****     if (display1On == 1) dispTime(1,x);                 // Kalder dispTime funktion for begge displ
 311              		.loc 1 13 0
 312 0002 FFF7FEFF 		bl	getTime
 313              	.LVL40:
 314 0006 0B4C     		ldr	r4, .L23
 315 0008 84FB0034 		smull	r3, r4, r4, r0
 316 000c C017     		asrs	r0, r0, #31
 317 000e C0EB6414 		rsb	r4, r0, r4, asr #5
 318              	.LVL41:
  14:Display.c     ****     if (display2On == 1) dispTime(2,x);
 319              		.loc 1 14 0
 320 0012 094B     		ldr	r3, .L23+4
 321 0014 1B68     		ldr	r3, [r3]
 322 0016 012B     		cmp	r3, #1
 323 0018 03D1     		bne	.L20
  14:Display.c     ****     if (display2On == 1) dispTime(2,x);
 324              		.loc 1 14 0 is_stmt 0 discriminator 1
 325 001a 2146     		mov	r1, r4
 326 001c 0120     		movs	r0, #1
 327 001e FFF7FEFF 		bl	dispTime
 328              	.LVL42:
 329              	.L20:
  15:Display.c     **** }
 330              		.loc 1 15 0 is_stmt 1
 331 0022 054B     		ldr	r3, .L23+4
 332 0024 5B68     		ldr	r3, [r3, #4]
 333 0026 012B     		cmp	r3, #1
 334 0028 03D1     		bne	.L19
  15:Display.c     **** }
 335              		.loc 1 15 0 is_stmt 0 discriminator 1
 336 002a 2146     		mov	r1, r4
 337 002c 0220     		movs	r0, #2
 338 002e FFF7FEFF 		bl	dispTime
 339              	.LVL43:
 340              	.L19:
 341 0032 10BD     		pop	{r4, pc}
 342              	.LVL44:
 343              	.L24:
 344              		.align	2
 345              	.L23:
 346 0034 1F85EB51 		.word	1374389535
 347 0038 00000000 		.word	.LANCHOR0
 348              		.cfi_endproc
 349              	.LFE64:
 350              		.size	isr_refreshrate_LCD, .-isr_refreshrate_LCD
 351              		.section	.text.stopLCD,"ax",%progbits
 352              		.align	2
 353              		.global	stopLCD
 354              		.thumb
 355              		.thumb_func
 356              		.type	stopLCD, %function
 357              	stopLCD:
 358              	.LFB69:
  83:Display.c     **** 
ARM GAS  C:\Users\cring\AppData\Local\Temp\cch6TCJ2.s 			page 9


  84:Display.c     **** void stopLCD(int disp)                                    // stopper displays enkeltvis 
  85:Display.c     **** {
 359              		.loc 1 85 0 is_stmt 1
 360              		.cfi_startproc
 361              		@ args = 0, pretend = 0, frame = 0
 362              		@ frame_needed = 0, uses_anonymous_args = 0
 363              		@ link register save eliminated.
 364              	.LVL45:
  86:Display.c     ****     if (disp == 1)
 365              		.loc 1 86 0
 366 0000 0128     		cmp	r0, #1
 367 0002 03D1     		bne	.L26
  87:Display.c     ****     {
  88:Display.c     ****     display1On = 0;
 368              		.loc 1 88 0
 369 0004 0022     		movs	r2, #0
 370 0006 044B     		ldr	r3, .L28
 371 0008 1A60     		str	r2, [r3]
 372 000a 7047     		bx	lr
 373              	.L26:
  89:Display.c     ****     }
  90:Display.c     ****     else if (disp == 2)
 374              		.loc 1 90 0
 375 000c 0228     		cmp	r0, #2
 376 000e 02D1     		bne	.L25
  91:Display.c     ****     {
  92:Display.c     ****     display2On = 0;
 377              		.loc 1 92 0
 378 0010 0022     		movs	r2, #0
 379 0012 014B     		ldr	r3, .L28
 380 0014 5A60     		str	r2, [r3, #4]
 381              	.L25:
 382 0016 7047     		bx	lr
 383              	.L29:
 384              		.align	2
 385              	.L28:
 386 0018 00000000 		.word	.LANCHOR0
 387              		.cfi_endproc
 388              	.LFE69:
 389              		.size	stopLCD, .-stopLCD
 390              		.section	.text.startLCD,"ax",%progbits
 391              		.align	2
 392              		.global	startLCD
 393              		.thumb
 394              		.thumb_func
 395              		.type	startLCD, %function
 396              	startLCD:
 397              	.LFB70:
  93:Display.c     ****     }
  94:Display.c     **** }
  95:Display.c     **** 
  96:Display.c     **** void startLCD(int disp)
  97:Display.c     **** {
 398              		.loc 1 97 0
 399              		.cfi_startproc
 400              		@ args = 0, pretend = 0, frame = 0
 401              		@ frame_needed = 0, uses_anonymous_args = 0
ARM GAS  C:\Users\cring\AppData\Local\Temp\cch6TCJ2.s 			page 10


 402              		@ link register save eliminated.
 403              	.LVL46:
  98:Display.c     ****     if (disp == 1)
 404              		.loc 1 98 0
 405 0000 0128     		cmp	r0, #1
 406 0002 03D1     		bne	.L31
  99:Display.c     ****     {
 100:Display.c     ****     display1On = 1;
 407              		.loc 1 100 0
 408 0004 0122     		movs	r2, #1
 409 0006 044B     		ldr	r3, .L33
 410 0008 1A60     		str	r2, [r3]
 411 000a 7047     		bx	lr
 412              	.L31:
 101:Display.c     ****     }
 102:Display.c     ****     else if (disp == 2)
 413              		.loc 1 102 0
 414 000c 0228     		cmp	r0, #2
 415 000e 02D1     		bne	.L30
 103:Display.c     ****     {
 104:Display.c     ****     display2On = 1;
 416              		.loc 1 104 0
 417 0010 0122     		movs	r2, #1
 418 0012 014B     		ldr	r3, .L33
 419 0014 5A60     		str	r2, [r3, #4]
 420              	.L30:
 421 0016 7047     		bx	lr
 422              	.L34:
 423              		.align	2
 424              	.L33:
 425 0018 00000000 		.word	.LANCHOR0
 426              		.cfi_endproc
 427              	.LFE70:
 428              		.size	startLCD, .-startLCD
 429              		.global	display2On
 430              		.global	display1On
 431              		.section	.rodata.str1.4,"aMS",%progbits,1
 432              		.align	2
 433              	.LC0:
 434 0000 5370696C 		.ascii	"Spiller 1\000"
 434      6C657220 
 434      3100
 435 000a 0000     		.space	2
 436              	.LC1:
 437 000c 5469643A 		.ascii	"Tid: \000"
 437      2000
 438 0012 0000     		.space	2
 439              	.LC2:
 440 0014 5370696C 		.ascii	"Spiller 2\000"
 440      6C657220 
 440      3200
 441 001e 0000     		.space	2
 442              	.LC3:
 443 0020 25642C25 		.ascii	"%d,%ds   \000"
 443      64732020 
 443      2000
 444              		.bss
ARM GAS  C:\Users\cring\AppData\Local\Temp\cch6TCJ2.s 			page 11


 445              		.align	2
 446              		.set	.LANCHOR0,. + 0
 447              		.type	display1On, %object
 448              		.size	display1On, 4
 449              	display1On:
 450 0000 00000000 		.space	4
 451              		.type	display2On, %object
 452              		.size	display2On, 4
 453              	display2On:
 454 0004 00000000 		.space	4
 455              		.text
 456              	.Letext0:
 457              		.file 2 "c:\\program files (x86)\\cypress\\psoc creator\\4.3\\psoc creator\\import\\gnu\\arm\\5.4.
 458              		.file 3 "c:\\program files (x86)\\cypress\\psoc creator\\4.3\\psoc creator\\import\\gnu\\arm\\5.4.
 459              		.file 4 "Generated_Source\\PSoC5/core_cm3.h"
 460              		.file 5 "Generated_Source\\PSoC5/Timer_LCD.h"
 461              		.file 6 "LiquidCrystal_I2C.h"
 462              		.file 7 "Generated_Source\\PSoC5/I2C_1.h"
 463              		.file 8 "Generated_Source\\PSoC5/isr_refreshrate_LCD.h"
 464              		.file 9 "c:\\program files (x86)\\cypress\\psoc creator\\4.3\\psoc creator\\import\\gnu\\arm\\5.4.
 465              		.file 10 "Stopur.h"