ARM GAS  C:\Users\cring\AppData\Local\Temp\ccSaPXYf.s 			page 1


   1              		.syntax unified
   2              		.cpu cortex-m3
   3              		.fpu softvfp
   4              		.eabi_attribute 20, 1
   5              		.eabi_attribute 21, 1
   6              		.eabi_attribute 23, 3
   7              		.eabi_attribute 24, 1
   8              		.eabi_attribute 25, 1
   9              		.eabi_attribute 26, 1
  10              		.eabi_attribute 30, 1
  11              		.eabi_attribute 34, 1
  12              		.eabi_attribute 18, 4
  13              		.thumb
  14              		.syntax unified
  15              		.file	"LEDcontrol.c"
  16              		.text
  17              	.Ltext0:
  18              		.cfi_sections	.debug_frame
  19              		.global	__aeabi_i2f
  20              		.global	__aeabi_fdiv
  21              		.global	__aeabi_fmul
  22              		.global	__aeabi_f2iz
  23              		.section	.text.setrefreshrate,"ax",%progbits
  24              		.align	2
  25              		.global	setrefreshrate
  26              		.thumb
  27              		.thumb_func
  28              		.type	setrefreshrate, %function
  29              	setrefreshrate:
  30              	.LFB69:
  31              		.file 1 "LEDcontrol.c"
   1:LEDcontrol.c  **** /* ========================================
   2:LEDcontrol.c  ****  *
   3:LEDcontrol.c  ****  * Copyright YOUR COMPANY, THE YEAR
   4:LEDcontrol.c  ****  * All Rights Reserved
   5:LEDcontrol.c  ****  * UNPUBLISHED, LICENSED SOFTWARE.
   6:LEDcontrol.c  ****  *
   7:LEDcontrol.c  ****  * CONFIDENTIAL AND PROPRIETARY INFORMATION
   8:LEDcontrol.c  ****  * WHICH IS THE PROPERTY OF your company.
   9:LEDcontrol.c  ****  *
  10:LEDcontrol.c  ****  * ========================================
  11:LEDcontrol.c  **** */
  12:LEDcontrol.c  **** 
  13:LEDcontrol.c  **** /* [] END OF FILE */
  14:LEDcontrol.c  **** 
  15:LEDcontrol.c  **** #include "LEDcontrol.h"
  16:LEDcontrol.c  **** 
  17:LEDcontrol.c  **** static int pulselength_ = 0;
  18:LEDcontrol.c  **** static int index_ = 0;
  19:LEDcontrol.c  **** static float index2 = 1;
  20:LEDcontrol.c  **** static int count = 0;
  21:LEDcontrol.c  **** static int count2 = 0;
  22:LEDcontrol.c  **** static int count3 = 0;
  23:LEDcontrol.c  **** 
  24:LEDcontrol.c  **** LEDctrl *rgbLED1 = NULL;
  25:LEDcontrol.c  **** LEDctrl *rgbLED2 = NULL;
  26:LEDcontrol.c  **** 
ARM GAS  C:\Users\cring\AppData\Local\Temp\ccSaPXYf.s 			page 2


  27:LEDcontrol.c  **** 
  28:LEDcontrol.c  **** CY_ISR(isr_refreshrate)
  29:LEDcontrol.c  **** {
  30:LEDcontrol.c  ****     if (rgbLED1 != NULL)
  31:LEDcontrol.c  ****     {
  32:LEDcontrol.c  ****     UpdateLED(rgbLED1);
  33:LEDcontrol.c  ****     }
  34:LEDcontrol.c  ****     CyDelayUs(200);
  35:LEDcontrol.c  ****     if (rgbLED2 != NULL)
  36:LEDcontrol.c  ****     {
  37:LEDcontrol.c  ****     UpdateLED(rgbLED2);
  38:LEDcontrol.c  ****     }
  39:LEDcontrol.c  **** }
  40:LEDcontrol.c  **** 
  41:LEDcontrol.c  **** CY_ISR(isr_LED_ring)
  42:LEDcontrol.c  **** {
  43:LEDcontrol.c  ****     if((rgbLED1->ring == 0) && (rgbLED2->ring == 0)) return;
  44:LEDcontrol.c  ****     if(rgbLED1->ring == 1) fillcolor(0,0,0,rgbLED1);
  45:LEDcontrol.c  ****     if(rgbLED2->ring == 1) fillcolor(0,0,0,rgbLED2);
  46:LEDcontrol.c  ****     
  47:LEDcontrol.c  ****         for(int i2 = index_; i2 < pulselength_+index_; i2++)
  48:LEDcontrol.c  ****         {
  49:LEDcontrol.c  ****             if(rgbLED1->ring == 1)
  50:LEDcontrol.c  ****             {
  51:LEDcontrol.c  ****                 int x = i2 >= rgbLED1->LEDlength ? i2 - rgbLED1->LEDlength : i2;
  52:LEDcontrol.c  ****                 setcolorLED((rgbLED1 + x)->h, (rgbLED1 + x)->s, (rgbLED1 + x)->v, x, rgbLED1);
  53:LEDcontrol.c  ****             }
  54:LEDcontrol.c  ****             if(rgbLED2->ring == 1)
  55:LEDcontrol.c  ****             {
  56:LEDcontrol.c  ****                 int x = i2 >= rgbLED2->LEDlength ? i2 - rgbLED2->LEDlength : i2;
  57:LEDcontrol.c  ****                 setcolorLED((rgbLED2 + x)->h, (rgbLED2 + x)->s, (rgbLED2 + x)->v, x, rgbLED2);  
  58:LEDcontrol.c  ****             }
  59:LEDcontrol.c  ****         }
  60:LEDcontrol.c  ****     if (rgbLED1 != NULL)
  61:LEDcontrol.c  ****     {
  62:LEDcontrol.c  ****         index_ = index_ < (rgbLED1->LEDlength-1) ? index_ + 1 : 0;
  63:LEDcontrol.c  ****         return;
  64:LEDcontrol.c  ****     }else if (rgbLED2 != NULL){
  65:LEDcontrol.c  ****         index_ = index_ < (rgbLED2->LEDlength-1) ? index_ + 1 : 0;
  66:LEDcontrol.c  ****     }
  67:LEDcontrol.c  **** }
  68:LEDcontrol.c  **** 
  69:LEDcontrol.c  **** CY_ISR(isr_LED_pulse)
  70:LEDcontrol.c  **** {
  71:LEDcontrol.c  ****     
  72:LEDcontrol.c  ****     if(count == 0)
  73:LEDcontrol.c  ****     {
  74:LEDcontrol.c  ****         if (rgbLED1->pulse == 1)fillcolor(rgbLED1->h,rgbLED1->s,index2, rgbLED1);
  75:LEDcontrol.c  ****         if (rgbLED2->pulse == 1)fillcolor(rgbLED2->h,rgbLED2->s,index2, rgbLED2);
  76:LEDcontrol.c  ****         index2 = index2-0.01;
  77:LEDcontrol.c  ****         if (index2 < 0)count = 1;
  78:LEDcontrol.c  ****     }else if(count == 1){
  79:LEDcontrol.c  ****         if (rgbLED1->pulse == 1)fillcolor(rgbLED1->h,rgbLED1->s,index2, rgbLED1);
  80:LEDcontrol.c  ****         if (rgbLED2->pulse == 1)fillcolor(rgbLED2->h,rgbLED2->s,index2, rgbLED2);
  81:LEDcontrol.c  ****         index2 = index2+0.01;
  82:LEDcontrol.c  ****         if (index2 == 1)count = 0;
  83:LEDcontrol.c  ****     }
ARM GAS  C:\Users\cring\AppData\Local\Temp\ccSaPXYf.s 			page 3


  84:LEDcontrol.c  ****     
  85:LEDcontrol.c  **** }
  86:LEDcontrol.c  **** 
  87:LEDcontrol.c  **** CY_ISR(isr_BlinkLED)
  88:LEDcontrol.c  **** {
  89:LEDcontrol.c  ****     if(rgbLED1->blink == 1)
  90:LEDcontrol.c  ****     {
  91:LEDcontrol.c  ****         switch (count3)
  92:LEDcontrol.c  ****         {
  93:LEDcontrol.c  ****             case 0:
  94:LEDcontrol.c  ****             {
  95:LEDcontrol.c  ****                 fillcolor(rgbLED1->h, rgbLED1->s,1, rgbLED1);
  96:LEDcontrol.c  ****                 count3++;
  97:LEDcontrol.c  ****             }
  98:LEDcontrol.c  ****             break;
  99:LEDcontrol.c  ****             case 1:
 100:LEDcontrol.c  ****             {
 101:LEDcontrol.c  ****                 fillcolor(rgbLED1->h, rgbLED1->s,0, rgbLED1);
 102:LEDcontrol.c  ****                 count3 = 0;
 103:LEDcontrol.c  ****             }
 104:LEDcontrol.c  ****             break;
 105:LEDcontrol.c  ****         }
 106:LEDcontrol.c  ****     }
 107:LEDcontrol.c  ****     if(rgbLED2->blink == 1)
 108:LEDcontrol.c  ****     {
 109:LEDcontrol.c  ****         switch (count3)
 110:LEDcontrol.c  ****         {
 111:LEDcontrol.c  ****             case 0:
 112:LEDcontrol.c  ****             {
 113:LEDcontrol.c  ****                 fillcolor(rgbLED2->h, rgbLED2->s,1, rgbLED2);
 114:LEDcontrol.c  ****                 count3++;
 115:LEDcontrol.c  ****             }
 116:LEDcontrol.c  ****             break;
 117:LEDcontrol.c  ****             case 1:
 118:LEDcontrol.c  ****             {
 119:LEDcontrol.c  ****                 fillcolor(rgbLED2->h, rgbLED2->s,0, rgbLED2);
 120:LEDcontrol.c  ****                 count3 = 0;
 121:LEDcontrol.c  ****             }
 122:LEDcontrol.c  ****             break;
 123:LEDcontrol.c  ****         }
 124:LEDcontrol.c  ****     }
 125:LEDcontrol.c  **** }
 126:LEDcontrol.c  **** 
 127:LEDcontrol.c  **** CY_ISR(isr_delay)
 128:LEDcontrol.c  **** {
 129:LEDcontrol.c  ****     count2++;
 130:LEDcontrol.c  ****     startSeq(rgbLED1, rgbLED2);
 131:LEDcontrol.c  **** }
 132:LEDcontrol.c  **** 
 133:LEDcontrol.c  **** void setrefreshrate(int Hz)
 134:LEDcontrol.c  **** {
  32              		.loc 1 134 0
  33              		.cfi_startproc
  34              		@ args = 0, pretend = 0, frame = 0
  35              		@ frame_needed = 0, uses_anonymous_args = 0
  36              	.LVL0:
  37 0000 08B5     		push	{r3, lr}
ARM GAS  C:\Users\cring\AppData\Local\Temp\ccSaPXYf.s 			page 4


  38              		.cfi_def_cfa_offset 8
  39              		.cfi_offset 3, -8
  40              		.cfi_offset 14, -4
 135:LEDcontrol.c  ****     Hz = 1/(float)Hz*1000*10;
  41              		.loc 1 135 0
  42 0002 FFF7FEFF 		bl	__aeabi_i2f
  43              	.LVL1:
  44 0006 0146     		mov	r1, r0
  45 0008 4FF07E50 		mov	r0, #1065353216
  46 000c FFF7FEFF 		bl	__aeabi_fdiv
  47              	.LVL2:
  48 0010 0549     		ldr	r1, .L3
  49 0012 FFF7FEFF 		bl	__aeabi_fmul
  50              	.LVL3:
  51 0016 0549     		ldr	r1, .L3+4
  52 0018 FFF7FEFF 		bl	__aeabi_fmul
  53              	.LVL4:
  54 001c FFF7FEFF 		bl	__aeabi_f2iz
  55              	.LVL5:
 136:LEDcontrol.c  ****     Timer1_WritePeriod(Hz);
  56              		.loc 1 136 0
  57 0020 80B2     		uxth	r0, r0
  58              	.LVL6:
  59 0022 FFF7FEFF 		bl	Timer1_WritePeriod
  60              	.LVL7:
  61 0026 08BD     		pop	{r3, pc}
  62              	.L4:
  63              		.align	2
  64              	.L3:
  65 0028 00007A44 		.word	1148846080
  66 002c 00002041 		.word	1092616192
  67              		.cfi_endproc
  68              	.LFE69:
  69              		.size	setrefreshrate, .-setrefreshrate
  70              		.section	.text.initLED,"ax",%progbits
  71              		.align	2
  72              		.global	initLED
  73              		.thumb
  74              		.thumb_func
  75              		.type	initLED, %function
  76              	initLED:
  77              	.LFB71:
 137:LEDcontrol.c  **** }
 138:LEDcontrol.c  **** 
 139:LEDcontrol.c  **** void addLEDstrip(int LEDlength_, LEDctrl *rgbLED_, int strip)
 140:LEDcontrol.c  **** {
 141:LEDcontrol.c  ****     if (strip == 1)
 142:LEDcontrol.c  ****     {
 143:LEDcontrol.c  ****         rgbLED1 = rgbLED_;
 144:LEDcontrol.c  ****     }else{
 145:LEDcontrol.c  ****         rgbLED2 = rgbLED_;
 146:LEDcontrol.c  ****     }
 147:LEDcontrol.c  ****     
 148:LEDcontrol.c  ****     rgbLED_->LEDlength = LEDlength_;
 149:LEDcontrol.c  ****     rgbLED_->pin = strip;
 150:LEDcontrol.c  ****     LEDOff(rgbLED_);
 151:LEDcontrol.c  ****     
ARM GAS  C:\Users\cring\AppData\Local\Temp\ccSaPXYf.s 			page 5


 152:LEDcontrol.c  ****     for(int i = 0; i < rgbLED_->LEDlength; i++)
 153:LEDcontrol.c  ****     {
 154:LEDcontrol.c  ****         setcolorLED(0,0,0,i, rgbLED_);
 155:LEDcontrol.c  ****     }
 156:LEDcontrol.c  **** }
 157:LEDcontrol.c  **** 
 158:LEDcontrol.c  **** void initLED(int Hz)
 159:LEDcontrol.c  **** {    
  78              		.loc 1 159 0
  79              		.cfi_startproc
  80              		@ args = 0, pretend = 0, frame = 0
  81              		@ frame_needed = 0, uses_anonymous_args = 0
  82              	.LVL8:
  83 0000 10B5     		push	{r4, lr}
  84              		.cfi_def_cfa_offset 8
  85              		.cfi_offset 4, -8
  86              		.cfi_offset 14, -4
  87 0002 0446     		mov	r4, r0
 160:LEDcontrol.c  ****     isr_LED_refreshrate_StartEx(isr_refreshrate);
  88              		.loc 1 160 0
  89 0004 0E48     		ldr	r0, .L7
  90              	.LVL9:
  91 0006 FFF7FEFF 		bl	isr_LED_refreshrate_StartEx
  92              	.LVL10:
 161:LEDcontrol.c  ****     isr_LED_ring_StartEx(isr_LED_ring);
  93              		.loc 1 161 0
  94 000a 0E48     		ldr	r0, .L7+4
  95 000c FFF7FEFF 		bl	isr_LED_ring_StartEx
  96              	.LVL11:
 162:LEDcontrol.c  ****     isr_LED_pulse_StartEx(isr_LED_pulse);
  97              		.loc 1 162 0
  98 0010 0D48     		ldr	r0, .L7+8
  99 0012 FFF7FEFF 		bl	isr_LED_pulse_StartEx
 100              	.LVL12:
 163:LEDcontrol.c  ****     isr_BlinkLED_StartEx(isr_BlinkLED);
 101              		.loc 1 163 0
 102 0016 0D48     		ldr	r0, .L7+12
 103 0018 FFF7FEFF 		bl	isr_BlinkLED_StartEx
 104              	.LVL13:
 164:LEDcontrol.c  ****     isr_delay_StartEx(isr_delay);
 105              		.loc 1 164 0
 106 001c 0C48     		ldr	r0, .L7+16
 107 001e FFF7FEFF 		bl	isr_delay_StartEx
 108              	.LVL14:
 165:LEDcontrol.c  ****     
 166:LEDcontrol.c  ****     SPIM_1_Start();
 109              		.loc 1 166 0
 110 0022 FFF7FEFF 		bl	SPIM_1_Start
 111              	.LVL15:
 167:LEDcontrol.c  ****     Timer1_Start();
 112              		.loc 1 167 0
 113 0026 FFF7FEFF 		bl	Timer1_Start
 114              	.LVL16:
 168:LEDcontrol.c  ****     Timer2_Start();
 115              		.loc 1 168 0
 116 002a FFF7FEFF 		bl	Timer2_Start
 117              	.LVL17:
ARM GAS  C:\Users\cring\AppData\Local\Temp\ccSaPXYf.s 			page 6


 169:LEDcontrol.c  ****     Timer3_Start();
 118              		.loc 1 169 0
 119 002e FFF7FEFF 		bl	Timer3_Start
 120              	.LVL18:
 170:LEDcontrol.c  ****     Timer4_Start();
 121              		.loc 1 170 0
 122 0032 FFF7FEFF 		bl	Timer4_Start
 123              	.LVL19:
 171:LEDcontrol.c  ****     
 172:LEDcontrol.c  ****     setrefreshrate(Hz);
 124              		.loc 1 172 0
 125 0036 2046     		mov	r0, r4
 126 0038 FFF7FEFF 		bl	setrefreshrate
 127              	.LVL20:
 128 003c 10BD     		pop	{r4, pc}
 129              	.LVL21:
 130              	.L8:
 131 003e 00BF     		.align	2
 132              	.L7:
 133 0040 00000000 		.word	isr_refreshrate
 134 0044 00000000 		.word	isr_LED_ring
 135 0048 00000000 		.word	isr_LED_pulse
 136 004c 00000000 		.word	isr_BlinkLED
 137 0050 00000000 		.word	isr_delay
 138              		.cfi_endproc
 139              	.LFE71:
 140              		.size	initLED, .-initLED
 141              		.section	.text.setspeed,"ax",%progbits
 142              		.align	2
 143              		.global	setspeed
 144              		.thumb
 145              		.thumb_func
 146              		.type	setspeed, %function
 147              	setspeed:
 148              	.LFB74:
 173:LEDcontrol.c  **** }
 174:LEDcontrol.c  **** 
 175:LEDcontrol.c  **** 
 176:LEDcontrol.c  **** void fillcolor(double h, double s, double v, LEDctrl *rgbLED)
 177:LEDcontrol.c  **** {
 178:LEDcontrol.c  ****     for(int i = 0; i < rgbLED->LEDlength; i++)
 179:LEDcontrol.c  ****     {
 180:LEDcontrol.c  ****         setcolorLED(h, s, v, i, rgbLED);
 181:LEDcontrol.c  ****     }
 182:LEDcontrol.c  **** }
 183:LEDcontrol.c  **** 
 184:LEDcontrol.c  **** void pulseLED(double h1, double s1, double v1, LEDctrl *rgbLED)
 185:LEDcontrol.c  **** {
 186:LEDcontrol.c  ****     LEDOff(rgbLED);
 187:LEDcontrol.c  ****     rgbLED->pulse = 1;
 188:LEDcontrol.c  ****     
 189:LEDcontrol.c  ****     rgbLED->h = h1;
 190:LEDcontrol.c  ****     rgbLED->s = s1;
 191:LEDcontrol.c  ****     rgbLED->v = v1;
 192:LEDcontrol.c  ****     fillcolor(h1,s1,v1, rgbLED);
 193:LEDcontrol.c  **** }
 194:LEDcontrol.c  **** 
ARM GAS  C:\Users\cring\AppData\Local\Temp\ccSaPXYf.s 			page 7


 195:LEDcontrol.c  **** void setspeed(int ms_ring, int ms_pulse, int ms_blink)
 196:LEDcontrol.c  **** {
 149              		.loc 1 196 0
 150              		.cfi_startproc
 151              		@ args = 0, pretend = 0, frame = 0
 152              		@ frame_needed = 0, uses_anonymous_args = 0
 153              	.LVL22:
 154 0000 38B5     		push	{r3, r4, r5, lr}
 155              		.cfi_def_cfa_offset 16
 156              		.cfi_offset 3, -16
 157              		.cfi_offset 4, -12
 158              		.cfi_offset 5, -8
 159              		.cfi_offset 14, -4
 160 0002 0546     		mov	r5, r0
 161 0004 1446     		mov	r4, r2
 197:LEDcontrol.c  ****     Timer2_WritePeriod(ms_pulse*10);
 162              		.loc 1 197 0
 163 0006 01EB8101 		add	r1, r1, r1, lsl #2
 164              	.LVL23:
 165 000a 4800     		lsls	r0, r1, #1
 166              	.LVL24:
 167 000c 80B2     		uxth	r0, r0
 168 000e FFF7FEFF 		bl	Timer2_WritePeriod
 169              	.LVL25:
 198:LEDcontrol.c  ****     Timer3_WritePeriod(ms_ring*10);
 170              		.loc 1 198 0
 171 0012 05EB8505 		add	r5, r5, r5, lsl #2
 172              	.LVL26:
 173 0016 6800     		lsls	r0, r5, #1
 174 0018 80B2     		uxth	r0, r0
 175 001a FFF7FEFF 		bl	Timer3_WritePeriod
 176              	.LVL27:
 199:LEDcontrol.c  ****     Timer4_WritePeriod(ms_blink*10);
 177              		.loc 1 199 0
 178 001e 04EB8404 		add	r4, r4, r4, lsl #2
 179              	.LVL28:
 180 0022 6000     		lsls	r0, r4, #1
 181 0024 80B2     		uxth	r0, r0
 182 0026 FFF7FEFF 		bl	Timer4_WritePeriod
 183              	.LVL29:
 184 002a 38BD     		pop	{r3, r4, r5, pc}
 185              		.cfi_endproc
 186              	.LFE74:
 187              		.size	setspeed, .-setspeed
 188              		.global	__aeabi_dcmple
 189              		.global	__aeabi_d2iz
 190              		.global	__aeabi_dcmpge
 191              		.global	__aeabi_ddiv
 192              		.global	__aeabi_i2d
 193              		.global	__aeabi_dsub
 194              		.global	__aeabi_dmul
 195              		.global	__aeabi_dcmplt
 196              		.section	.text.hsv2rgb,"ax",%progbits
 197              		.align	2
 198              		.global	hsv2rgb
 199              		.thumb
 200              		.thumb_func
ARM GAS  C:\Users\cring\AppData\Local\Temp\ccSaPXYf.s 			page 8


 201              		.type	hsv2rgb, %function
 202              	hsv2rgb:
 203              	.LFB76:
 200:LEDcontrol.c  **** }
 201:LEDcontrol.c  **** 
 202:LEDcontrol.c  **** void ringLED(int pulselength, double h1, double s1, double v1, LEDctrl *rgbLED)
 203:LEDcontrol.c  **** {
 204:LEDcontrol.c  ****     pulselength_ = pulselength;
 205:LEDcontrol.c  ****     LEDOff(rgbLED);
 206:LEDcontrol.c  ****     rgbLED->ring = 1;
 207:LEDcontrol.c  ****     
 208:LEDcontrol.c  ****     for(int i = 0; i<rgbLED->LEDlength; i++)
 209:LEDcontrol.c  ****     {
 210:LEDcontrol.c  ****         (rgbLED + i)->h = h1;
 211:LEDcontrol.c  ****         (rgbLED + i)->s = s1;
 212:LEDcontrol.c  ****         (rgbLED + i)->v = v1;
 213:LEDcontrol.c  ****     }
 214:LEDcontrol.c  **** }
 215:LEDcontrol.c  **** 
 216:LEDcontrol.c  **** void hsv2rgb(double h, double s, double v, int LED, LEDctrl *rgbLED)
 217:LEDcontrol.c  **** {
 204              		.loc 1 217 0
 205              		.cfi_startproc
 206              		@ args = 16, pretend = 0, frame = 16
 207              		@ frame_needed = 0, uses_anonymous_args = 0
 208              	.LVL30:
 209 0000 2DE9F047 		push	{r4, r5, r6, r7, r8, r9, r10, lr}
 210              		.cfi_def_cfa_offset 32
 211              		.cfi_offset 4, -32
 212              		.cfi_offset 5, -28
 213              		.cfi_offset 6, -24
 214              		.cfi_offset 7, -20
 215              		.cfi_offset 8, -16
 216              		.cfi_offset 9, -12
 217              		.cfi_offset 10, -8
 218              		.cfi_offset 14, -4
 219 0004 84B0     		sub	sp, sp, #16
 220              		.cfi_def_cfa_offset 48
 221 0006 0446     		mov	r4, r0
 222 0008 0D46     		mov	r5, r1
 223 000a 9046     		mov	r8, r2
 224 000c 9946     		mov	r9, r3
 225 000e 0E9E     		ldr	r6, [sp, #56]
 226 0010 DDF83CA0 		ldr	r10, [sp, #60]
 218:LEDcontrol.c  ****     double      hh, p, q, t, ff, r, g, b;
 219:LEDcontrol.c  ****     long        i;
 220:LEDcontrol.c  **** 
 221:LEDcontrol.c  ****     if(s <= 0.0) {       // < is bogus, just shuts up warnings
 227              		.loc 1 221 0
 228 0014 0022     		movs	r2, #0
 229              	.LVL31:
 230 0016 0023     		movs	r3, #0
 231 0018 4046     		mov	r0, r8
 232              	.LVL32:
 233 001a 4946     		mov	r1, r9
 234 001c FFF7FEFF 		bl	__aeabi_dcmple
 235              	.LVL33:
ARM GAS  C:\Users\cring\AppData\Local\Temp\ccSaPXYf.s 			page 9


 236 0020 68B1     		cbz	r0, .L34
 222:LEDcontrol.c  ****         (rgbLED + LED)->green = v;
 237              		.loc 1 222 0
 238 0022 5823     		movs	r3, #88
 239 0024 03FB06F6 		mul	r6, r3, r6
 240 0028 0AEB0604 		add	r4, r10, r6
 241 002c DDE90C01 		ldrd	r0, [sp, #48]
 242 0030 FFF7FEFF 		bl	__aeabi_d2iz
 243              	.LVL34:
 244 0034 6060     		str	r0, [r4, #4]
 223:LEDcontrol.c  ****         (rgbLED + LED)->red = v;
 245              		.loc 1 223 0
 246 0036 4AF80600 		str	r0, [r10, r6]
 224:LEDcontrol.c  ****         (rgbLED + LED)->blue = v;
 247              		.loc 1 224 0
 248 003a A060     		str	r0, [r4, #8]
 225:LEDcontrol.c  ****         return;
 249              		.loc 1 225 0
 250 003c E2E0     		b	.L11
 251              	.L34:
 252              	.LVL35:
 226:LEDcontrol.c  ****     }
 227:LEDcontrol.c  ****     
 228:LEDcontrol.c  ****     hh = h;
 229:LEDcontrol.c  ****     if(hh >= 360.0) hh = 0.0;
 253              		.loc 1 229 0
 254 003e 0022     		movs	r2, #0
 255 0040 724B     		ldr	r3, .L36
 256 0042 2046     		mov	r0, r4
 257 0044 2946     		mov	r1, r5
 258 0046 FFF7FEFF 		bl	__aeabi_dcmpge
 259              	.LVL36:
 260 004a 08B1     		cbz	r0, .L15
 261 004c 0024     		movs	r4, #0
 262              	.LVL37:
 263 004e 0025     		movs	r5, #0
 264              	.L15:
 265              	.LVL38:
 230:LEDcontrol.c  ****     hh /= 60.0;
 266              		.loc 1 230 0
 267 0050 0022     		movs	r2, #0
 268 0052 6F4B     		ldr	r3, .L36+4
 269 0054 2046     		mov	r0, r4
 270 0056 2946     		mov	r1, r5
 271 0058 FFF7FEFF 		bl	__aeabi_ddiv
 272              	.LVL39:
 273 005c 0446     		mov	r4, r0
 274              	.LVL40:
 275 005e 0D46     		mov	r5, r1
 276              	.LVL41:
 231:LEDcontrol.c  ****     i = (long)hh;
 277              		.loc 1 231 0
 278 0060 FFF7FEFF 		bl	__aeabi_d2iz
 279              	.LVL42:
 280 0064 0746     		mov	r7, r0
 281              	.LVL43:
 232:LEDcontrol.c  ****     ff = hh - i;
ARM GAS  C:\Users\cring\AppData\Local\Temp\ccSaPXYf.s 			page 10


 282              		.loc 1 232 0
 283 0066 FFF7FEFF 		bl	__aeabi_i2d
 284              	.LVL44:
 285 006a 0246     		mov	r2, r0
 286 006c 0B46     		mov	r3, r1
 287 006e 2046     		mov	r0, r4
 288 0070 2946     		mov	r1, r5
 289 0072 FFF7FEFF 		bl	__aeabi_dsub
 290              	.LVL45:
 291 0076 0446     		mov	r4, r0
 292              	.LVL46:
 293 0078 0D46     		mov	r5, r1
 294              	.LVL47:
 233:LEDcontrol.c  ****     p = v * (1.0 - s);
 295              		.loc 1 233 0
 296 007a 4246     		mov	r2, r8
 297 007c 4B46     		mov	r3, r9
 298 007e 0020     		movs	r0, #0
 299 0080 6449     		ldr	r1, .L36+8
 300 0082 FFF7FEFF 		bl	__aeabi_dsub
 301              	.LVL48:
 302 0086 0246     		mov	r2, r0
 303 0088 0B46     		mov	r3, r1
 304 008a DDE90C01 		ldrd	r0, [sp, #48]
 305 008e FFF7FEFF 		bl	__aeabi_dmul
 306              	.LVL49:
 307 0092 CDE90001 		strd	r0, [sp]
 308              	.LVL50:
 234:LEDcontrol.c  ****     q = v * (1.0 - (s * ff));
 309              		.loc 1 234 0
 310 0096 CDE90245 		strd	r4, [sp, #8]
 311 009a 2246     		mov	r2, r4
 312 009c 2B46     		mov	r3, r5
 313 009e 4046     		mov	r0, r8
 314              	.LVL51:
 315 00a0 4946     		mov	r1, r9
 316 00a2 FFF7FEFF 		bl	__aeabi_dmul
 317              	.LVL52:
 318 00a6 0246     		mov	r2, r0
 319 00a8 0B46     		mov	r3, r1
 320 00aa 0020     		movs	r0, #0
 321 00ac 5949     		ldr	r1, .L36+8
 322 00ae FFF7FEFF 		bl	__aeabi_dsub
 323              	.LVL53:
 324 00b2 0246     		mov	r2, r0
 325 00b4 0B46     		mov	r3, r1
 326 00b6 DDE90C01 		ldrd	r0, [sp, #48]
 327 00ba FFF7FEFF 		bl	__aeabi_dmul
 328              	.LVL54:
 329 00be 0446     		mov	r4, r0
 330              	.LVL55:
 331 00c0 0D46     		mov	r5, r1
 332              	.LVL56:
 235:LEDcontrol.c  ****     t = v * (1.0 - (s * (1.0 - ff)));
 333              		.loc 1 235 0
 334 00c2 DDE90223 		ldrd	r2, [sp, #8]
 335 00c6 0020     		movs	r0, #0
ARM GAS  C:\Users\cring\AppData\Local\Temp\ccSaPXYf.s 			page 11


 336 00c8 5249     		ldr	r1, .L36+8
 337 00ca FFF7FEFF 		bl	__aeabi_dsub
 338              	.LVL57:
 339 00ce 0246     		mov	r2, r0
 340 00d0 0B46     		mov	r3, r1
 341 00d2 4046     		mov	r0, r8
 342 00d4 4946     		mov	r1, r9
 343 00d6 FFF7FEFF 		bl	__aeabi_dmul
 344              	.LVL58:
 345 00da 0246     		mov	r2, r0
 346 00dc 0B46     		mov	r3, r1
 347 00de 0020     		movs	r0, #0
 348 00e0 4C49     		ldr	r1, .L36+8
 349 00e2 FFF7FEFF 		bl	__aeabi_dsub
 350              	.LVL59:
 351 00e6 0246     		mov	r2, r0
 352 00e8 0B46     		mov	r3, r1
 353 00ea DDE90C01 		ldrd	r0, [sp, #48]
 354 00ee FFF7FEFF 		bl	__aeabi_dmul
 355              	.LVL60:
 236:LEDcontrol.c  **** 
 237:LEDcontrol.c  ****     switch(i) {
 356              		.loc 1 237 0
 357 00f2 042F     		cmp	r7, #4
 358 00f4 24D8     		bhi	.L16
 359 00f6 DFE807F0 		tbb	[pc, r7]
 360              	.L18:
 361 00fa 03       		.byte	(.L17-.L18)/2
 362 00fb 2D       		.byte	(.L19-.L18)/2
 363 00fc 08       		.byte	(.L20-.L18)/2
 364 00fd 0D       		.byte	(.L21-.L18)/2
 365 00fe 18       		.byte	(.L22-.L18)/2
 366 00ff 00       		.p2align 1
 367              	.L17:
 238:LEDcontrol.c  ****     case 0:
 239:LEDcontrol.c  ****         r = v;
 368              		.loc 1 239 0
 369 0100 DDE90C45 		ldrd	r4, [sp, #48]
 370              	.LVL61:
 240:LEDcontrol.c  ****         g = t;
 371              		.loc 1 240 0
 372 0104 CDE90C01 		strd	r0, [sp, #48]
 373 0108 24E0     		b	.L19
 374              	.LVL62:
 375              	.L20:
 241:LEDcontrol.c  ****         b = p;
 242:LEDcontrol.c  ****         break;
 243:LEDcontrol.c  ****     case 1:
 244:LEDcontrol.c  ****         r = q;
 245:LEDcontrol.c  ****         g = v;
 246:LEDcontrol.c  ****         b = p;
 247:LEDcontrol.c  ****         break;
 248:LEDcontrol.c  ****     case 2:
 249:LEDcontrol.c  ****         r = p;
 376              		.loc 1 249 0
 377 010a DDE90045 		ldrd	r4, [sp]
 378              	.LVL63:
ARM GAS  C:\Users\cring\AppData\Local\Temp\ccSaPXYf.s 			page 12


 250:LEDcontrol.c  ****         g = v;
 251:LEDcontrol.c  ****         b = t;
 379              		.loc 1 251 0
 380 010e CDE90001 		strd	r0, [sp]
 381              	.LVL64:
 252:LEDcontrol.c  ****         break;
 382              		.loc 1 252 0
 383 0112 1FE0     		b	.L19
 384              	.LVL65:
 385              	.L21:
 253:LEDcontrol.c  **** 
 254:LEDcontrol.c  ****     case 3:
 255:LEDcontrol.c  ****         r = p;
 256:LEDcontrol.c  ****         g = q;
 257:LEDcontrol.c  ****         b = v;
 258:LEDcontrol.c  ****         break;
 386              		.loc 1 258 0
 387 0114 2246     		mov	r2, r4
 388 0116 2B46     		mov	r3, r5
 255:LEDcontrol.c  ****         g = q;
 389              		.loc 1 255 0
 390 0118 DDE90045 		ldrd	r4, [sp]
 391              	.LVL66:
 257:LEDcontrol.c  ****         break;
 392              		.loc 1 257 0
 393 011c DDE90C01 		ldrd	r0, [sp, #48]
 394              	.LVL67:
 395 0120 CDE90001 		strd	r0, [sp]
 396              	.LVL68:
 256:LEDcontrol.c  ****         b = v;
 397              		.loc 1 256 0
 398 0124 CDE90C23 		strd	r2, [sp, #48]
 399              	.LVL69:
 400              		.loc 1 258 0
 401 0128 14E0     		b	.L19
 402              	.LVL70:
 403              	.L22:
 259:LEDcontrol.c  ****     case 4:
 260:LEDcontrol.c  ****         r = t;
 261:LEDcontrol.c  ****         g = p;
 262:LEDcontrol.c  ****         b = v;
 263:LEDcontrol.c  ****         break;
 404              		.loc 1 263 0
 405 012a DDE90C23 		ldrd	r2, [sp, #48]
 261:LEDcontrol.c  ****         b = v;
 406              		.loc 1 261 0
 407 012e DDE90045 		ldrd	r4, [sp]
 408              	.LVL71:
 409 0132 CDE90C45 		strd	r4, [sp, #48]
 410              	.LVL72:
 262:LEDcontrol.c  ****         break;
 411              		.loc 1 262 0
 412 0136 CDE90023 		strd	r2, [sp]
 413              	.LVL73:
 260:LEDcontrol.c  ****         g = p;
 414              		.loc 1 260 0
 415 013a 0446     		mov	r4, r0
ARM GAS  C:\Users\cring\AppData\Local\Temp\ccSaPXYf.s 			page 13


 416              	.LVL74:
 417 013c 0D46     		mov	r5, r1
 418              		.loc 1 263 0
 419 013e 09E0     		b	.L19
 420              	.LVL75:
 421              	.L16:
 264:LEDcontrol.c  ****     case 5:
 265:LEDcontrol.c  ****     default:
 266:LEDcontrol.c  ****         r = v;
 267:LEDcontrol.c  ****         g = p;
 268:LEDcontrol.c  ****         b = q;
 269:LEDcontrol.c  ****         break;
 422              		.loc 1 269 0
 423 0140 2246     		mov	r2, r4
 424 0142 2B46     		mov	r3, r5
 266:LEDcontrol.c  ****         g = p;
 425              		.loc 1 266 0
 426 0144 DDE90C45 		ldrd	r4, [sp, #48]
 427              	.LVL76:
 267:LEDcontrol.c  ****         b = q;
 428              		.loc 1 267 0
 429 0148 DDE90001 		ldrd	r0, [sp]
 430              	.LVL77:
 431 014c CDE90C01 		strd	r0, [sp, #48]
 432              	.LVL78:
 268:LEDcontrol.c  ****         break;
 433              		.loc 1 268 0
 434 0150 CDE90023 		strd	r2, [sp]
 435              	.LVL79:
 436              	.L19:
 270:LEDcontrol.c  ****     }
 271:LEDcontrol.c  ****     r = r*256.0-1;
 437              		.loc 1 271 0
 438 0154 0022     		movs	r2, #0
 439 0156 304B     		ldr	r3, .L36+12
 440 0158 2046     		mov	r0, r4
 441 015a 2946     		mov	r1, r5
 442 015c FFF7FEFF 		bl	__aeabi_dmul
 443              	.LVL80:
 444 0160 0022     		movs	r2, #0
 445 0162 2C4B     		ldr	r3, .L36+8
 446 0164 FFF7FEFF 		bl	__aeabi_dsub
 447              	.LVL81:
 448 0168 0446     		mov	r4, r0
 449              	.LVL82:
 450 016a 0D46     		mov	r5, r1
 451              	.LVL83:
 272:LEDcontrol.c  ****     g = g*256.0-1;
 452              		.loc 1 272 0
 453 016c 0022     		movs	r2, #0
 454 016e 2A4B     		ldr	r3, .L36+12
 455 0170 DDE90C01 		ldrd	r0, [sp, #48]
 456 0174 FFF7FEFF 		bl	__aeabi_dmul
 457              	.LVL84:
 458 0178 0022     		movs	r2, #0
 459 017a 264B     		ldr	r3, .L36+8
 460 017c FFF7FEFF 		bl	__aeabi_dsub
ARM GAS  C:\Users\cring\AppData\Local\Temp\ccSaPXYf.s 			page 14


 461              	.LVL85:
 462 0180 8046     		mov	r8, r0
 463 0182 8946     		mov	r9, r1
 464              	.LVL86:
 273:LEDcontrol.c  ****     b = b*256.0-1;
 465              		.loc 1 273 0
 466 0184 0022     		movs	r2, #0
 467 0186 244B     		ldr	r3, .L36+12
 468 0188 DDE90001 		ldrd	r0, [sp]
 469 018c FFF7FEFF 		bl	__aeabi_dmul
 470              	.LVL87:
 471 0190 0022     		movs	r2, #0
 472 0192 204B     		ldr	r3, .L36+8
 473 0194 FFF7FEFF 		bl	__aeabi_dsub
 474              	.LVL88:
 475 0198 CDE90001 		strd	r0, [sp]
 476              	.LVL89:
 274:LEDcontrol.c  ****     
 275:LEDcontrol.c  ****     r = r < 0 ? 0 : r;
 477              		.loc 1 275 0
 478 019c 0022     		movs	r2, #0
 479 019e 0023     		movs	r3, #0
 480 01a0 2046     		mov	r0, r4
 481              	.LVL90:
 482 01a2 2946     		mov	r1, r5
 483 01a4 FFF7FEFF 		bl	__aeabi_dcmplt
 484              	.LVL91:
 485 01a8 08B1     		cbz	r0, .L23
 486 01aa 0024     		movs	r4, #0
 487              	.LVL92:
 488 01ac 0025     		movs	r5, #0
 489              	.L23:
 490              	.LVL93:
 276:LEDcontrol.c  ****     g = g < 0 ? 0 : g;
 491              		.loc 1 276 0 discriminator 4
 492 01ae 0022     		movs	r2, #0
 493 01b0 0023     		movs	r3, #0
 494 01b2 4046     		mov	r0, r8
 495 01b4 4946     		mov	r1, r9
 496 01b6 FFF7FEFF 		bl	__aeabi_dcmplt
 497              	.LVL94:
 498 01ba 18B1     		cbz	r0, .L25
 499              		.loc 1 276 0 is_stmt 0
 500 01bc 4FF00008 		mov	r8, #0
 501              	.LVL95:
 502 01c0 4FF00009 		mov	r9, #0
 503              	.L25:
 504              	.LVL96:
 277:LEDcontrol.c  ****     b = b < 0 ? 0 : b;
 505              		.loc 1 277 0 is_stmt 1 discriminator 4
 506 01c4 0022     		movs	r2, #0
 507 01c6 0023     		movs	r3, #0
 508 01c8 DDE90001 		ldrd	r0, [sp]
 509 01cc FFF7FEFF 		bl	__aeabi_dcmplt
 510              	.LVL97:
 511 01d0 18B1     		cbz	r0, .L27
 512              		.loc 1 277 0 is_stmt 0
ARM GAS  C:\Users\cring\AppData\Local\Temp\ccSaPXYf.s 			page 15


 513 01d2 0022     		movs	r2, #0
 514 01d4 0023     		movs	r3, #0
 515 01d6 CDE90023 		strd	r2, [sp]
 516              	.LVL98:
 517              	.L27:
 278:LEDcontrol.c  ****     
 279:LEDcontrol.c  ****     (rgbLED + LED)->green = g;
 518              		.loc 1 279 0 is_stmt 1 discriminator 4
 519 01da 5823     		movs	r3, #88
 520 01dc 03FB06F6 		mul	r6, r3, r6
 521 01e0 0AEB0607 		add	r7, r10, r6
 522              	.LVL99:
 523 01e4 4046     		mov	r0, r8
 524 01e6 4946     		mov	r1, r9
 525 01e8 FFF7FEFF 		bl	__aeabi_d2iz
 526              	.LVL100:
 527 01ec 7860     		str	r0, [r7, #4]
 280:LEDcontrol.c  ****     (rgbLED + LED)->red = r;
 528              		.loc 1 280 0 discriminator 4
 529 01ee 2046     		mov	r0, r4
 530 01f0 2946     		mov	r1, r5
 531 01f2 FFF7FEFF 		bl	__aeabi_d2iz
 532              	.LVL101:
 533 01f6 4AF80600 		str	r0, [r10, r6]
 281:LEDcontrol.c  ****     (rgbLED + LED)->blue = b;
 534              		.loc 1 281 0 discriminator 4
 535 01fa DDE90001 		ldrd	r0, [sp]
 536 01fe FFF7FEFF 		bl	__aeabi_d2iz
 537              	.LVL102:
 538 0202 B860     		str	r0, [r7, #8]
 539              	.LVL103:
 540              	.L11:
 282:LEDcontrol.c  ****     return;
 283:LEDcontrol.c  ****     
 284:LEDcontrol.c  **** }
 541              		.loc 1 284 0
 542 0204 04B0     		add	sp, sp, #16
 543              		.cfi_def_cfa_offset 32
 544              		@ sp needed
 545 0206 BDE8F087 		pop	{r4, r5, r6, r7, r8, r9, r10, pc}
 546              	.LVL104:
 547              	.L37:
 548 020a 00BF     		.align	2
 549              	.L36:
 550 020c 00807640 		.word	1081507840
 551 0210 00004E40 		.word	1078853632
 552 0214 0000F03F 		.word	1072693248
 553 0218 00007040 		.word	1081081856
 554              		.cfi_endproc
 555              	.LFE76:
 556              		.size	hsv2rgb, .-hsv2rgb
 557              		.section	.text.UpdateLED,"ax",%progbits
 558              		.align	2
 559              		.global	UpdateLED
 560              		.thumb
 561              		.thumb_func
 562              		.type	UpdateLED, %function
ARM GAS  C:\Users\cring\AppData\Local\Temp\ccSaPXYf.s 			page 16


 563              	UpdateLED:
 564              	.LFB77:
 285:LEDcontrol.c  **** 
 286:LEDcontrol.c  **** void UpdateLED(LEDctrl *rgbLED)
 287:LEDcontrol.c  **** {
 565              		.loc 1 287 0
 566              		.cfi_startproc
 567              		@ args = 0, pretend = 0, frame = 0
 568              		@ frame_needed = 0, uses_anonymous_args = 0
 569              	.LVL105:
 570 0000 70B5     		push	{r4, r5, r6, lr}
 571              		.cfi_def_cfa_offset 16
 572              		.cfi_offset 4, -16
 573              		.cfi_offset 5, -12
 574              		.cfi_offset 6, -8
 575              		.cfi_offset 14, -4
 576 0002 0646     		mov	r6, r0
 288:LEDcontrol.c  ****     if(rgbLED->pin == 1){ //Hvis LED strip til pin 1 skiftes SPIM til at output til LEDdata2
 577              		.loc 1 288 0
 578 0004 436C     		ldr	r3, [r0, #68]
 579 0006 012B     		cmp	r3, #1
 580 0008 04D1     		bne	.L39
 289:LEDcontrol.c  ****         SPIMOutCtrl_Write(1);
 581              		.loc 1 289 0
 582 000a 0120     		movs	r0, #1
 583              	.LVL106:
 584 000c FFF7FEFF 		bl	SPIMOutCtrl_Write
 585              	.LVL107:
 586              	.L42:
 287:LEDcontrol.c  ****     if(rgbLED->pin == 1){ //Hvis LED strip til pin 1 skiftes SPIM til at output til LEDdata2
 587              		.loc 1 287 0 discriminator 1
 588 0010 0025     		movs	r5, #0
 589 0012 1BE0     		b	.L40
 590              	.LVL108:
 591              	.L39:
 290:LEDcontrol.c  ****     }else if (rgbLED->pin == 2){ //Hvis LEd stip til pin 2 skiftes SPIM til at output til LEDdata
 592              		.loc 1 290 0
 593 0014 022B     		cmp	r3, #2
 594 0016 1CD1     		bne	.L38
 291:LEDcontrol.c  ****         SPIMOutCtrl_Write(0);
 595              		.loc 1 291 0
 596 0018 0020     		movs	r0, #0
 597              	.LVL109:
 598 001a FFF7FEFF 		bl	SPIMOutCtrl_Write
 599              	.LVL110:
 600 001e F7E7     		b	.L42
 601              	.LVL111:
 602              	.L43:
 603              	.LBB2:
 292:LEDcontrol.c  ****     }else{
 293:LEDcontrol.c  ****         return;
 294:LEDcontrol.c  ****     }
 295:LEDcontrol.c  ****     for(int i = 0; i < rgbLED->LEDlength; i++) //Sender data til LED strip
 296:LEDcontrol.c  ****     {
 297:LEDcontrol.c  ****         //8bit grøn farve
 298:LEDcontrol.c  ****         SPIM_1_WriteTxData((rgbLED + i)->green1);
 604              		.loc 1 298 0 discriminator 3
ARM GAS  C:\Users\cring\AppData\Local\Temp\ccSaPXYf.s 			page 17


 605 0020 5824     		movs	r4, #88
 606 0022 04FB0564 		mla	r4, r4, r5, r6
 607 0026 208D     		ldrh	r0, [r4, #40]
 608 0028 FFF7FEFF 		bl	SPIM_1_WriteTxData
 609              	.LVL112:
 299:LEDcontrol.c  ****         SPIM_1_WriteTxData((rgbLED + i)->green2);
 610              		.loc 1 299 0 discriminator 3
 611 002c A08D     		ldrh	r0, [r4, #44]
 612 002e FFF7FEFF 		bl	SPIM_1_WriteTxData
 613              	.LVL113:
 300:LEDcontrol.c  ****         
 301:LEDcontrol.c  ****         //8bit rød farve
 302:LEDcontrol.c  ****         SPIM_1_WriteTxData((rgbLED + i)->red1);
 614              		.loc 1 302 0 discriminator 3
 615 0032 208E     		ldrh	r0, [r4, #48]
 616 0034 FFF7FEFF 		bl	SPIM_1_WriteTxData
 617              	.LVL114:
 303:LEDcontrol.c  ****         SPIM_1_WriteTxData((rgbLED + i)->red2);
 618              		.loc 1 303 0 discriminator 3
 619 0038 A08E     		ldrh	r0, [r4, #52]
 620 003a FFF7FEFF 		bl	SPIM_1_WriteTxData
 621              	.LVL115:
 304:LEDcontrol.c  ****         
 305:LEDcontrol.c  ****         //8bit blå farve
 306:LEDcontrol.c  ****         SPIM_1_WriteTxData((rgbLED + i)->blue1);
 622              		.loc 1 306 0 discriminator 3
 623 003e 208F     		ldrh	r0, [r4, #56]
 624 0040 FFF7FEFF 		bl	SPIM_1_WriteTxData
 625              	.LVL116:
 307:LEDcontrol.c  ****         SPIM_1_WriteTxData((rgbLED + i)->blue2);
 626              		.loc 1 307 0 discriminator 3
 627 0044 A08F     		ldrh	r0, [r4, #60]
 628 0046 FFF7FEFF 		bl	SPIM_1_WriteTxData
 629              	.LVL117:
 295:LEDcontrol.c  ****     {
 630              		.loc 1 295 0 discriminator 3
 631 004a 0135     		adds	r5, r5, #1
 632              	.LVL118:
 633              	.L40:
 295:LEDcontrol.c  ****     {
 634              		.loc 1 295 0 is_stmt 0 discriminator 1
 635 004c 336C     		ldr	r3, [r6, #64]
 636 004e 9D42     		cmp	r5, r3
 637 0050 E6DB     		blt	.L43
 638              	.LVL119:
 639              	.L38:
 640 0052 70BD     		pop	{r4, r5, r6, pc}
 641              	.LBE2:
 642              		.cfi_endproc
 643              	.LFE77:
 644              		.size	UpdateLED, .-UpdateLED
 645              		.section	.text.isr_refreshrate,"ax",%progbits
 646              		.align	2
 647              		.global	isr_refreshrate
 648              		.thumb
 649              		.thumb_func
 650              		.type	isr_refreshrate, %function
ARM GAS  C:\Users\cring\AppData\Local\Temp\ccSaPXYf.s 			page 18


 651              	isr_refreshrate:
 652              	.LFB64:
  29:LEDcontrol.c  ****     if (rgbLED1 != NULL)
 653              		.loc 1 29 0 is_stmt 1
 654              		.cfi_startproc
 655              		@ args = 0, pretend = 0, frame = 0
 656              		@ frame_needed = 0, uses_anonymous_args = 0
 657 0000 08B5     		push	{r3, lr}
 658              		.cfi_def_cfa_offset 8
 659              		.cfi_offset 3, -8
 660              		.cfi_offset 14, -4
  30:LEDcontrol.c  ****     {
 661              		.loc 1 30 0
 662 0002 074B     		ldr	r3, .L49
 663 0004 1868     		ldr	r0, [r3]
 664 0006 08B1     		cbz	r0, .L46
  32:LEDcontrol.c  ****     }
 665              		.loc 1 32 0
 666 0008 FFF7FEFF 		bl	UpdateLED
 667              	.LVL120:
 668              	.L46:
  34:LEDcontrol.c  ****     if (rgbLED2 != NULL)
 669              		.loc 1 34 0
 670 000c C820     		movs	r0, #200
 671 000e FFF7FEFF 		bl	CyDelayUs
 672              	.LVL121:
  35:LEDcontrol.c  ****     {
 673              		.loc 1 35 0
 674 0012 034B     		ldr	r3, .L49
 675 0014 5868     		ldr	r0, [r3, #4]
 676 0016 08B1     		cbz	r0, .L45
  37:LEDcontrol.c  ****     }
 677              		.loc 1 37 0
 678 0018 FFF7FEFF 		bl	UpdateLED
 679              	.LVL122:
 680              	.L45:
 681 001c 08BD     		pop	{r3, pc}
 682              	.L50:
 683 001e 00BF     		.align	2
 684              	.L49:
 685 0020 00000000 		.word	.LANCHOR0
 686              		.cfi_endproc
 687              	.LFE64:
 688              		.size	isr_refreshrate, .-isr_refreshrate
 689              		.section	.text.setcolorLED,"ax",%progbits
 690              		.align	2
 691              		.global	setcolorLED
 692              		.thumb
 693              		.thumb_func
 694              		.type	setcolorLED, %function
 695              	setcolorLED:
 696              	.LFB78:
 308:LEDcontrol.c  ****     }
 309:LEDcontrol.c  **** }
 310:LEDcontrol.c  **** 
 311:LEDcontrol.c  **** void setcolorLED(double h, double s, double v, int LED, LEDctrl *rgbLED)
 312:LEDcontrol.c  **** {
ARM GAS  C:\Users\cring\AppData\Local\Temp\ccSaPXYf.s 			page 19


 697              		.loc 1 312 0
 698              		.cfi_startproc
 699              		@ args = 16, pretend = 0, frame = 48
 700              		@ frame_needed = 0, uses_anonymous_args = 0
 701              	.LVL123:
 702 0000 F0B5     		push	{r4, r5, r6, r7, lr}
 703              		.cfi_def_cfa_offset 20
 704              		.cfi_offset 4, -20
 705              		.cfi_offset 5, -16
 706              		.cfi_offset 6, -12
 707              		.cfi_offset 7, -8
 708              		.cfi_offset 14, -4
 709 0002 91B0     		sub	sp, sp, #68
 710              		.cfi_def_cfa_offset 88
 711 0004 189D     		ldr	r5, [sp, #96]
 712 0006 199C     		ldr	r4, [sp, #100]
 313:LEDcontrol.c  ****     int Red, Green, Blue;
 314:LEDcontrol.c  ****     
 315:LEDcontrol.c  ****     hsv2rgb(h,s,v,LED, rgbLED); //hsv konverteres til RGB og gemmes i rgbLED's red, green blue
 713              		.loc 1 315 0
 714 0008 0394     		str	r4, [sp, #12]
 715 000a 0295     		str	r5, [sp, #8]
 716 000c DDE91667 		ldrd	r6, [sp, #88]
 717 0010 CDE90067 		strd	r6, [sp]
 718 0014 FFF7FEFF 		bl	hsv2rgb
 719              	.LVL124:
 316:LEDcontrol.c  ****     
 317:LEDcontrol.c  ****     Red = (rgbLED + LED)->red;
 720              		.loc 1 317 0
 721 0018 5823     		movs	r3, #88
 722 001a 03FB05F3 		mul	r3, r3, r5
 723 001e E518     		adds	r5, r4, r3
 724 0020 E158     		ldr	r1, [r4, r3]
 725              	.LVL125:
 318:LEDcontrol.c  ****     Green = (rgbLED + LED)->green;
 726              		.loc 1 318 0
 727 0022 6868     		ldr	r0, [r5, #4]
 728              	.LVL126:
 319:LEDcontrol.c  ****     Blue = (rgbLED + LED)->blue;
 729              		.loc 1 319 0
 730 0024 AA68     		ldr	r2, [r5, #8]
 731              	.LVL127:
 732              	.LBB3:
 320:LEDcontrol.c  ****  
 321:LEDcontrol.c  ****     int x = Green;
 322:LEDcontrol.c  ****     int buf[12];
 323:LEDcontrol.c  ****     
 324:LEDcontrol.c  ****     for (int i = 0; i<8; i++) //Hver farve er 8bit lang derfor konvertes hver bit til det delay som
 733              		.loc 1 324 0
 734 0026 0023     		movs	r3, #0
 735 0028 11E0     		b	.L52
 736              	.LVL128:
 737              	.L55:
 325:LEDcontrol.c  ****     {
 326:LEDcontrol.c  ****         if(x & 128)     //Tjekker om det bittet på bit plads 7 er 1
 738              		.loc 1 326 0
 739 002a 10F0800F 		tst	r0, #128
ARM GAS  C:\Users\cring\AppData\Local\Temp\ccSaPXYf.s 			page 20


 740 002e 06D0     		beq	.L53
 327:LEDcontrol.c  ****         {
 328:LEDcontrol.c  ****             buf[i] = 0b110; //Konverterer 1 til det tilsvarende delay
 741              		.loc 1 328 0
 742 0030 0626     		movs	r6, #6
 743 0032 10AC     		add	r4, sp, #64
 744 0034 04EB8304 		add	r4, r4, r3, lsl #2
 745 0038 44F8306C 		str	r6, [r4, #-48]
 746 003c 05E0     		b	.L54
 747              	.L53:
 329:LEDcontrol.c  ****         }else{
 330:LEDcontrol.c  ****             buf[i] = 0b100; //Konverterer 0 til det tilsvarende delay
 748              		.loc 1 330 0
 749 003e 0426     		movs	r6, #4
 750 0040 10AC     		add	r4, sp, #64
 751 0042 04EB8304 		add	r4, r4, r3, lsl #2
 752 0046 44F8306C 		str	r6, [r4, #-48]
 753              	.L54:
 331:LEDcontrol.c  ****         }
 332:LEDcontrol.c  ****         x = x<<1;   //Flytter alle bit i x til venstre, så næste bit gang tjekkes
 754              		.loc 1 332 0 discriminator 2
 755 004a 4000     		lsls	r0, r0, #1
 756              	.LVL129:
 324:LEDcontrol.c  ****     {
 757              		.loc 1 324 0 discriminator 2
 758 004c 0133     		adds	r3, r3, #1
 759              	.LVL130:
 760              	.L52:
 324:LEDcontrol.c  ****     {
 761              		.loc 1 324 0 is_stmt 0 discriminator 1
 762 004e 072B     		cmp	r3, #7
 763 0050 EBDD     		ble	.L55
 764              	.LBE3:
 333:LEDcontrol.c  ****     }
 334:LEDcontrol.c  ****     //Da SPI komponenten maks kan sende 16bit af gange og der skal sendes 24bit for hver farve dele
 335:LEDcontrol.c  ****     (rgbLED + LED)->green1 = (buf[0]<<9) + (buf[1]<<6) + (buf[2]<<3) + buf[3];
 765              		.loc 1 335 0 is_stmt 1
 766 0052 059B     		ldr	r3, [sp, #20]
 767              	.LVL131:
 768 0054 9B01     		lsls	r3, r3, #6
 769 0056 0498     		ldr	r0, [sp, #16]
 770              	.LVL132:
 771 0058 03EB4023 		add	r3, r3, r0, lsl #9
 772 005c 0698     		ldr	r0, [sp, #24]
 773 005e 03EBC003 		add	r3, r3, r0, lsl #3
 774 0062 0798     		ldr	r0, [sp, #28]
 775 0064 0344     		add	r3, r3, r0
 776 0066 AB62     		str	r3, [r5, #40]
 336:LEDcontrol.c  ****     (rgbLED + LED)->green2 = (buf[4]<<9) + (buf[5]<<6) + (buf[6]<<3) + buf[7];
 777              		.loc 1 336 0
 778 0068 099B     		ldr	r3, [sp, #36]
 779 006a 9B01     		lsls	r3, r3, #6
 780 006c 0898     		ldr	r0, [sp, #32]
 781 006e 03EB4023 		add	r3, r3, r0, lsl #9
 782 0072 0A98     		ldr	r0, [sp, #40]
 783 0074 03EBC003 		add	r3, r3, r0, lsl #3
 784 0078 0B98     		ldr	r0, [sp, #44]
ARM GAS  C:\Users\cring\AppData\Local\Temp\ccSaPXYf.s 			page 21


 785 007a 0344     		add	r3, r3, r0
 786 007c EB62     		str	r3, [r5, #44]
 787              	.LVL133:
 788              	.LBB4:
 337:LEDcontrol.c  ****     
 338:LEDcontrol.c  ****     x = Red;
 339:LEDcontrol.c  ****     for (int i = 0; i<8; i++)
 789              		.loc 1 339 0
 790 007e 0023     		movs	r3, #0
 791 0080 11E0     		b	.L56
 792              	.LVL134:
 793              	.L59:
 340:LEDcontrol.c  ****     {
 341:LEDcontrol.c  ****         if(x & 128)
 794              		.loc 1 341 0
 795 0082 11F0800F 		tst	r1, #128
 796 0086 06D0     		beq	.L57
 342:LEDcontrol.c  ****         {
 343:LEDcontrol.c  ****             buf[i] = 0b110;
 797              		.loc 1 343 0
 798 0088 0624     		movs	r4, #6
 799 008a 10A8     		add	r0, sp, #64
 800 008c 00EB8300 		add	r0, r0, r3, lsl #2
 801 0090 40F8304C 		str	r4, [r0, #-48]
 802 0094 05E0     		b	.L58
 803              	.L57:
 344:LEDcontrol.c  ****         }else{
 345:LEDcontrol.c  ****             buf[i] = 0b100;
 804              		.loc 1 345 0
 805 0096 0424     		movs	r4, #4
 806 0098 10A8     		add	r0, sp, #64
 807 009a 00EB8300 		add	r0, r0, r3, lsl #2
 808 009e 40F8304C 		str	r4, [r0, #-48]
 809              	.L58:
 346:LEDcontrol.c  ****         }
 347:LEDcontrol.c  ****         x = x<<1;
 810              		.loc 1 347 0 discriminator 2
 811 00a2 4900     		lsls	r1, r1, #1
 812              	.LVL135:
 339:LEDcontrol.c  ****     {
 813              		.loc 1 339 0 discriminator 2
 814 00a4 0133     		adds	r3, r3, #1
 815              	.LVL136:
 816              	.L56:
 339:LEDcontrol.c  ****     {
 817              		.loc 1 339 0 is_stmt 0 discriminator 1
 818 00a6 072B     		cmp	r3, #7
 819 00a8 EBDD     		ble	.L59
 820              	.LBE4:
 348:LEDcontrol.c  ****     }
 349:LEDcontrol.c  ****     (rgbLED + LED)->red1 = (buf[0]<<9) + (buf[1]<<6) + (buf[2]<<3) + buf[3];
 821              		.loc 1 349 0 is_stmt 1
 822 00aa 059B     		ldr	r3, [sp, #20]
 823              	.LVL137:
 824 00ac 9B01     		lsls	r3, r3, #6
 825 00ae 0499     		ldr	r1, [sp, #16]
 826              	.LVL138:
ARM GAS  C:\Users\cring\AppData\Local\Temp\ccSaPXYf.s 			page 22


 827 00b0 03EB4123 		add	r3, r3, r1, lsl #9
 828 00b4 0699     		ldr	r1, [sp, #24]
 829 00b6 03EBC103 		add	r3, r3, r1, lsl #3
 830 00ba 0799     		ldr	r1, [sp, #28]
 831 00bc 0B44     		add	r3, r3, r1
 832 00be 2B63     		str	r3, [r5, #48]
 350:LEDcontrol.c  ****     (rgbLED + LED)->red2 = (buf[4]<<9) + (buf[5]<<6) + (buf[6]<<3) + buf[7];
 833              		.loc 1 350 0
 834 00c0 099B     		ldr	r3, [sp, #36]
 835 00c2 9B01     		lsls	r3, r3, #6
 836 00c4 0899     		ldr	r1, [sp, #32]
 837 00c6 03EB4123 		add	r3, r3, r1, lsl #9
 838 00ca 0A99     		ldr	r1, [sp, #40]
 839 00cc 03EBC103 		add	r3, r3, r1, lsl #3
 840 00d0 0B99     		ldr	r1, [sp, #44]
 841 00d2 0B44     		add	r3, r3, r1
 842 00d4 6B63     		str	r3, [r5, #52]
 843              	.LVL139:
 844              	.LBB5:
 351:LEDcontrol.c  ****     
 352:LEDcontrol.c  ****     x = Blue;
 353:LEDcontrol.c  ****     for (int i = 0; i<8; i++)
 845              		.loc 1 353 0
 846 00d6 0023     		movs	r3, #0
 847 00d8 11E0     		b	.L60
 848              	.LVL140:
 849              	.L63:
 354:LEDcontrol.c  ****     {
 355:LEDcontrol.c  ****         if(x & 128)
 850              		.loc 1 355 0
 851 00da 12F0800F 		tst	r2, #128
 852 00de 06D0     		beq	.L61
 356:LEDcontrol.c  ****         {
 357:LEDcontrol.c  ****             buf[i] = 0b110;
 853              		.loc 1 357 0
 854 00e0 0620     		movs	r0, #6
 855 00e2 10A9     		add	r1, sp, #64
 856 00e4 01EB8301 		add	r1, r1, r3, lsl #2
 857 00e8 41F8300C 		str	r0, [r1, #-48]
 858 00ec 05E0     		b	.L62
 859              	.L61:
 358:LEDcontrol.c  ****         }else{
 359:LEDcontrol.c  ****             buf[i] = 0b100;
 860              		.loc 1 359 0
 861 00ee 0420     		movs	r0, #4
 862 00f0 10A9     		add	r1, sp, #64
 863 00f2 01EB8301 		add	r1, r1, r3, lsl #2
 864 00f6 41F8300C 		str	r0, [r1, #-48]
 865              	.L62:
 360:LEDcontrol.c  ****         }
 361:LEDcontrol.c  ****         x = x<<1;
 866              		.loc 1 361 0 discriminator 2
 867 00fa 5200     		lsls	r2, r2, #1
 868              	.LVL141:
 353:LEDcontrol.c  ****     {
 869              		.loc 1 353 0 discriminator 2
 870 00fc 0133     		adds	r3, r3, #1
ARM GAS  C:\Users\cring\AppData\Local\Temp\ccSaPXYf.s 			page 23


 871              	.LVL142:
 872              	.L60:
 353:LEDcontrol.c  ****     {
 873              		.loc 1 353 0 is_stmt 0 discriminator 1
 874 00fe 072B     		cmp	r3, #7
 875 0100 EBDD     		ble	.L63
 876              	.LBE5:
 362:LEDcontrol.c  ****     }
 363:LEDcontrol.c  ****     (rgbLED + LED)->blue1 = (buf[0]<<9) + (buf[1]<<6) + (buf[2]<<3) + buf[3];
 877              		.loc 1 363 0 is_stmt 1
 878 0102 059B     		ldr	r3, [sp, #20]
 879              	.LVL143:
 880 0104 9B01     		lsls	r3, r3, #6
 881 0106 049A     		ldr	r2, [sp, #16]
 882              	.LVL144:
 883 0108 03EB4223 		add	r3, r3, r2, lsl #9
 884 010c 069A     		ldr	r2, [sp, #24]
 885 010e 03EBC203 		add	r3, r3, r2, lsl #3
 886 0112 079A     		ldr	r2, [sp, #28]
 887 0114 1344     		add	r3, r3, r2
 888 0116 AB63     		str	r3, [r5, #56]
 364:LEDcontrol.c  ****     (rgbLED + LED)->blue2 = (buf[4]<<9) + (buf[5]<<6) + (buf[6]<<3) + buf[7];
 889              		.loc 1 364 0
 890 0118 099B     		ldr	r3, [sp, #36]
 891 011a 9B01     		lsls	r3, r3, #6
 892 011c 089A     		ldr	r2, [sp, #32]
 893 011e 03EB4223 		add	r3, r3, r2, lsl #9
 894 0122 0A9A     		ldr	r2, [sp, #40]
 895 0124 03EBC203 		add	r3, r3, r2, lsl #3
 896 0128 0B9A     		ldr	r2, [sp, #44]
 897 012a 1344     		add	r3, r3, r2
 898 012c EB63     		str	r3, [r5, #60]
 365:LEDcontrol.c  **** 
 366:LEDcontrol.c  **** }
 899              		.loc 1 366 0
 900 012e 11B0     		add	sp, sp, #68
 901              		.cfi_def_cfa_offset 20
 902              		@ sp needed
 903 0130 F0BD     		pop	{r4, r5, r6, r7, pc}
 904              		.cfi_endproc
 905              	.LFE78:
 906              		.size	setcolorLED, .-setcolorLED
 907 0132 00BF     		.section	.text.fillcolor,"ax",%progbits
 908              		.align	2
 909              		.global	fillcolor
 910              		.thumb
 911              		.thumb_func
 912              		.type	fillcolor, %function
 913              	fillcolor:
 914              	.LFB72:
 177:LEDcontrol.c  ****     for(int i = 0; i < rgbLED->LEDlength; i++)
 915              		.loc 1 177 0
 916              		.cfi_startproc
 917              		@ args = 12, pretend = 0, frame = 0
 918              		@ frame_needed = 0, uses_anonymous_args = 0
 919              	.LVL145:
 920 0000 2DE9F04F 		push	{r4, r5, r6, r7, r8, r9, r10, fp, lr}
ARM GAS  C:\Users\cring\AppData\Local\Temp\ccSaPXYf.s 			page 24


 921              		.cfi_def_cfa_offset 36
 922              		.cfi_offset 4, -36
 923              		.cfi_offset 5, -32
 924              		.cfi_offset 6, -28
 925              		.cfi_offset 7, -24
 926              		.cfi_offset 8, -20
 927              		.cfi_offset 9, -16
 928              		.cfi_offset 10, -12
 929              		.cfi_offset 11, -8
 930              		.cfi_offset 14, -4
 931 0004 85B0     		sub	sp, sp, #20
 932              		.cfi_def_cfa_offset 56
 933 0006 8046     		mov	r8, r0
 934 0008 8946     		mov	r9, r1
 935 000a 9246     		mov	r10, r2
 936 000c 9B46     		mov	fp, r3
 937 000e DDE90E45 		ldrd	r4, [sp, #56]
 938 0012 109F     		ldr	r7, [sp, #64]
 939              	.LVL146:
 940              	.LBB6:
 178:LEDcontrol.c  ****     {
 941              		.loc 1 178 0
 942 0014 0026     		movs	r6, #0
 943 0016 0AE0     		b	.L66
 944              	.LVL147:
 945              	.L67:
 180:LEDcontrol.c  ****     }
 946              		.loc 1 180 0 discriminator 3
 947 0018 0397     		str	r7, [sp, #12]
 948 001a 0296     		str	r6, [sp, #8]
 949 001c CDE90045 		strd	r4, [sp]
 950 0020 5246     		mov	r2, r10
 951 0022 5B46     		mov	r3, fp
 952 0024 4046     		mov	r0, r8
 953 0026 4946     		mov	r1, r9
 954 0028 FFF7FEFF 		bl	setcolorLED
 955              	.LVL148:
 178:LEDcontrol.c  ****     {
 956              		.loc 1 178 0 discriminator 3
 957 002c 0136     		adds	r6, r6, #1
 958              	.LVL149:
 959              	.L66:
 178:LEDcontrol.c  ****     {
 960              		.loc 1 178 0 is_stmt 0 discriminator 1
 961 002e 3B6C     		ldr	r3, [r7, #64]
 962 0030 9E42     		cmp	r6, r3
 963 0032 F1DB     		blt	.L67
 964              	.LBE6:
 182:LEDcontrol.c  **** 
 965              		.loc 1 182 0 is_stmt 1
 966 0034 05B0     		add	sp, sp, #20
 967              		.cfi_def_cfa_offset 36
 968              		@ sp needed
 969 0036 BDE8F08F 		pop	{r4, r5, r6, r7, r8, r9, r10, fp, pc}
 970              		.cfi_endproc
 971              	.LFE72:
 972              		.size	fillcolor, .-fillcolor
ARM GAS  C:\Users\cring\AppData\Local\Temp\ccSaPXYf.s 			page 25


 973              		.global	__aeabi_f2d
 974              		.global	__aeabi_d2f
 975              		.global	__aeabi_fcmplt
 976              		.global	__aeabi_dadd
 977              		.global	__aeabi_fcmpeq
 978 003a 00BF     		.section	.text.isr_LED_pulse,"ax",%progbits
 979              		.align	2
 980              		.global	isr_LED_pulse
 981              		.thumb
 982              		.thumb_func
 983              		.type	isr_LED_pulse, %function
 984              	isr_LED_pulse:
 985              	.LFB66:
  70:LEDcontrol.c  ****     
 986              		.loc 1 70 0
 987              		.cfi_startproc
 988              		@ args = 0, pretend = 0, frame = 0
 989              		@ frame_needed = 0, uses_anonymous_args = 0
 990 0000 F0B5     		push	{r4, r5, r6, r7, lr}
 991              		.cfi_def_cfa_offset 20
 992              		.cfi_offset 4, -20
 993              		.cfi_offset 5, -16
 994              		.cfi_offset 6, -12
 995              		.cfi_offset 7, -8
 996              		.cfi_offset 14, -4
 997 0002 85B0     		sub	sp, sp, #20
 998              		.cfi_def_cfa_offset 40
  72:LEDcontrol.c  ****     {
 999              		.loc 1 72 0
 1000 0004 464B     		ldr	r3, .L81+8
 1001 0006 9B68     		ldr	r3, [r3, #8]
 1002 0008 002B     		cmp	r3, #0
 1003 000a 40D1     		bne	.L70
  74:LEDcontrol.c  ****         if (rgbLED2->pulse == 1)fillcolor(rgbLED2->h,rgbLED2->s,index2, rgbLED2);
 1004              		.loc 1 74 0
 1005 000c 444B     		ldr	r3, .L81+8
 1006 000e 1B68     		ldr	r3, [r3]
 1007 0010 DA6C     		ldr	r2, [r3, #76]
 1008 0012 012A     		cmp	r2, #1
 1009 0014 10D1     		bne	.L71
  74:LEDcontrol.c  ****         if (rgbLED2->pulse == 1)fillcolor(rgbLED2->h,rgbLED2->s,index2, rgbLED2);
 1010              		.loc 1 74 0 is_stmt 0 discriminator 1
 1011 0016 D3E90667 		ldrd	r6, [r3, #24]
 1012 001a D3E90445 		ldrd	r4, [r3, #16]
 1013 001e 0293     		str	r3, [sp, #8]
 1014 0020 404B     		ldr	r3, .L81+12
 1015 0022 1868     		ldr	r0, [r3]	@ float
 1016 0024 FFF7FEFF 		bl	__aeabi_f2d
 1017              	.LVL150:
 1018 0028 CDE90001 		strd	r0, [sp]
 1019 002c 3246     		mov	r2, r6
 1020 002e 3B46     		mov	r3, r7
 1021 0030 2046     		mov	r0, r4
 1022 0032 2946     		mov	r1, r5
 1023 0034 FFF7FEFF 		bl	fillcolor
 1024              	.LVL151:
 1025              	.L71:
ARM GAS  C:\Users\cring\AppData\Local\Temp\ccSaPXYf.s 			page 26


  75:LEDcontrol.c  ****         index2 = index2-0.01;
 1026              		.loc 1 75 0 is_stmt 1
 1027 0038 394B     		ldr	r3, .L81+8
 1028 003a 5B68     		ldr	r3, [r3, #4]
 1029 003c DA6C     		ldr	r2, [r3, #76]
 1030 003e 012A     		cmp	r2, #1
 1031 0040 10D1     		bne	.L72
  75:LEDcontrol.c  ****         index2 = index2-0.01;
 1032              		.loc 1 75 0 is_stmt 0 discriminator 1
 1033 0042 D3E90667 		ldrd	r6, [r3, #24]
 1034 0046 D3E90445 		ldrd	r4, [r3, #16]
 1035 004a 0293     		str	r3, [sp, #8]
 1036 004c 354B     		ldr	r3, .L81+12
 1037 004e 1868     		ldr	r0, [r3]	@ float
 1038 0050 FFF7FEFF 		bl	__aeabi_f2d
 1039              	.LVL152:
 1040 0054 CDE90001 		strd	r0, [sp]
 1041 0058 3246     		mov	r2, r6
 1042 005a 3B46     		mov	r3, r7
 1043 005c 2046     		mov	r0, r4
 1044 005e 2946     		mov	r1, r5
 1045 0060 FFF7FEFF 		bl	fillcolor
 1046              	.LVL153:
 1047              	.L72:
  76:LEDcontrol.c  ****         if (index2 < 0)count = 1;
 1048              		.loc 1 76 0 is_stmt 1
 1049 0064 2F4C     		ldr	r4, .L81+12
 1050 0066 2068     		ldr	r0, [r4]	@ float
 1051 0068 FFF7FEFF 		bl	__aeabi_f2d
 1052              	.LVL154:
 1053 006c 2AA3     		adr	r3, .L81
 1054 006e D3E90023 		ldrd	r2, [r3]
 1055 0072 FFF7FEFF 		bl	__aeabi_dsub
 1056              	.LVL155:
 1057 0076 FFF7FEFF 		bl	__aeabi_d2f
 1058              	.LVL156:
 1059 007a 2060     		str	r0, [r4]	@ float
  77:LEDcontrol.c  ****     }else if(count == 1){
 1060              		.loc 1 77 0
 1061 007c 0021     		movs	r1, #0
 1062 007e FFF7FEFF 		bl	__aeabi_fcmplt
 1063              	.LVL157:
 1064 0082 0028     		cmp	r0, #0
 1065 0084 45D0     		beq	.L69
  77:LEDcontrol.c  ****     }else if(count == 1){
 1066              		.loc 1 77 0 is_stmt 0 discriminator 1
 1067 0086 0122     		movs	r2, #1
 1068 0088 254B     		ldr	r3, .L81+8
 1069 008a 9A60     		str	r2, [r3, #8]
 1070 008c 41E0     		b	.L69
 1071              	.L70:
  78:LEDcontrol.c  ****         if (rgbLED1->pulse == 1)fillcolor(rgbLED1->h,rgbLED1->s,index2, rgbLED1);
 1072              		.loc 1 78 0 is_stmt 1
 1073 008e 012B     		cmp	r3, #1
 1074 0090 3FD1     		bne	.L69
  79:LEDcontrol.c  ****         if (rgbLED2->pulse == 1)fillcolor(rgbLED2->h,rgbLED2->s,index2, rgbLED2);
 1075              		.loc 1 79 0
ARM GAS  C:\Users\cring\AppData\Local\Temp\ccSaPXYf.s 			page 27


 1076 0092 234B     		ldr	r3, .L81+8
 1077 0094 1B68     		ldr	r3, [r3]
 1078 0096 DA6C     		ldr	r2, [r3, #76]
 1079 0098 012A     		cmp	r2, #1
 1080 009a 10D1     		bne	.L75
  79:LEDcontrol.c  ****         if (rgbLED2->pulse == 1)fillcolor(rgbLED2->h,rgbLED2->s,index2, rgbLED2);
 1081              		.loc 1 79 0 is_stmt 0 discriminator 1
 1082 009c D3E90667 		ldrd	r6, [r3, #24]
 1083 00a0 D3E90445 		ldrd	r4, [r3, #16]
 1084 00a4 0293     		str	r3, [sp, #8]
 1085 00a6 1F4B     		ldr	r3, .L81+12
 1086 00a8 1868     		ldr	r0, [r3]	@ float
 1087 00aa FFF7FEFF 		bl	__aeabi_f2d
 1088              	.LVL158:
 1089 00ae CDE90001 		strd	r0, [sp]
 1090 00b2 3246     		mov	r2, r6
 1091 00b4 3B46     		mov	r3, r7
 1092 00b6 2046     		mov	r0, r4
 1093 00b8 2946     		mov	r1, r5
 1094 00ba FFF7FEFF 		bl	fillcolor
 1095              	.LVL159:
 1096              	.L75:
  80:LEDcontrol.c  ****         index2 = index2+0.01;
 1097              		.loc 1 80 0 is_stmt 1
 1098 00be 184B     		ldr	r3, .L81+8
 1099 00c0 5B68     		ldr	r3, [r3, #4]
 1100 00c2 DA6C     		ldr	r2, [r3, #76]
 1101 00c4 012A     		cmp	r2, #1
 1102 00c6 10D1     		bne	.L76
  80:LEDcontrol.c  ****         index2 = index2+0.01;
 1103              		.loc 1 80 0 is_stmt 0 discriminator 1
 1104 00c8 D3E90667 		ldrd	r6, [r3, #24]
 1105 00cc D3E90445 		ldrd	r4, [r3, #16]
 1106 00d0 0293     		str	r3, [sp, #8]
 1107 00d2 144B     		ldr	r3, .L81+12
 1108 00d4 1868     		ldr	r0, [r3]	@ float
 1109 00d6 FFF7FEFF 		bl	__aeabi_f2d
 1110              	.LVL160:
 1111 00da CDE90001 		strd	r0, [sp]
 1112 00de 3246     		mov	r2, r6
 1113 00e0 3B46     		mov	r3, r7
 1114 00e2 2046     		mov	r0, r4
 1115 00e4 2946     		mov	r1, r5
 1116 00e6 FFF7FEFF 		bl	fillcolor
 1117              	.LVL161:
 1118              	.L76:
  81:LEDcontrol.c  ****         if (index2 == 1)count = 0;
 1119              		.loc 1 81 0 is_stmt 1
 1120 00ea 0E4C     		ldr	r4, .L81+12
 1121 00ec 2068     		ldr	r0, [r4]	@ float
 1122 00ee FFF7FEFF 		bl	__aeabi_f2d
 1123              	.LVL162:
 1124 00f2 09A3     		adr	r3, .L81
 1125 00f4 D3E90023 		ldrd	r2, [r3]
 1126 00f8 FFF7FEFF 		bl	__aeabi_dadd
 1127              	.LVL163:
 1128 00fc FFF7FEFF 		bl	__aeabi_d2f
ARM GAS  C:\Users\cring\AppData\Local\Temp\ccSaPXYf.s 			page 28


 1129              	.LVL164:
 1130 0100 2060     		str	r0, [r4]	@ float
  82:LEDcontrol.c  ****     }
 1131              		.loc 1 82 0
 1132 0102 4FF07E51 		mov	r1, #1065353216
 1133 0106 FFF7FEFF 		bl	__aeabi_fcmpeq
 1134              	.LVL165:
 1135 010a 10B1     		cbz	r0, .L69
  82:LEDcontrol.c  ****     }
 1136              		.loc 1 82 0 is_stmt 0 discriminator 1
 1137 010c 0022     		movs	r2, #0
 1138 010e 044B     		ldr	r3, .L81+8
 1139 0110 9A60     		str	r2, [r3, #8]
 1140              	.L69:
  85:LEDcontrol.c  **** 
 1141              		.loc 1 85 0 is_stmt 1
 1142 0112 05B0     		add	sp, sp, #20
 1143              		.cfi_def_cfa_offset 20
 1144              		@ sp needed
 1145 0114 F0BD     		pop	{r4, r5, r6, r7, pc}
 1146              	.L82:
 1147 0116 00BF     		.align	3
 1148              	.L81:
 1149 0118 7B14AE47 		.word	1202590843
 1150 011c E17A843F 		.word	1065646817
 1151 0120 00000000 		.word	.LANCHOR0
 1152 0124 00000000 		.word	.LANCHOR1
 1153              		.cfi_endproc
 1154              	.LFE66:
 1155              		.size	isr_LED_pulse, .-isr_LED_pulse
 1156              		.section	.text.isr_BlinkLED,"ax",%progbits
 1157              		.align	2
 1158              		.global	isr_BlinkLED
 1159              		.thumb
 1160              		.thumb_func
 1161              		.type	isr_BlinkLED, %function
 1162              	isr_BlinkLED:
 1163              	.LFB67:
  88:LEDcontrol.c  ****     if(rgbLED1->blink == 1)
 1164              		.loc 1 88 0
 1165              		.cfi_startproc
 1166              		@ args = 0, pretend = 0, frame = 0
 1167              		@ frame_needed = 0, uses_anonymous_args = 0
 1168 0000 30B5     		push	{r4, r5, lr}
 1169              		.cfi_def_cfa_offset 12
 1170              		.cfi_offset 4, -12
 1171              		.cfi_offset 5, -8
 1172              		.cfi_offset 14, -4
 1173 0002 85B0     		sub	sp, sp, #20
 1174              		.cfi_def_cfa_offset 32
  89:LEDcontrol.c  ****     {
 1175              		.loc 1 89 0
 1176 0004 2D4B     		ldr	r3, .L91
 1177 0006 1B68     		ldr	r3, [r3]
 1178 0008 1A6D     		ldr	r2, [r3, #80]
 1179 000a 012A     		cmp	r2, #1
 1180 000c 27D1     		bne	.L84
ARM GAS  C:\Users\cring\AppData\Local\Temp\ccSaPXYf.s 			page 29


  91:LEDcontrol.c  ****         {
 1181              		.loc 1 91 0
 1182 000e 2B4A     		ldr	r2, .L91
 1183 0010 D268     		ldr	r2, [r2, #12]
 1184 0012 12B1     		cbz	r2, .L85
 1185 0014 012A     		cmp	r2, #1
 1186 0016 12D0     		beq	.L86
 1187 0018 21E0     		b	.L84
 1188              	.L85:
  95:LEDcontrol.c  ****                 count3++;
 1189              		.loc 1 95 0
 1190 001a D3E90645 		ldrd	r4, [r3, #24]
 1191 001e D3E90401 		ldrd	r0, [r3, #16]
 1192 0022 0293     		str	r3, [sp, #8]
 1193 0024 0022     		movs	r2, #0
 1194 0026 264B     		ldr	r3, .L91+4
 1195 0028 CDE90023 		strd	r2, [sp]
 1196 002c 2246     		mov	r2, r4
 1197 002e 2B46     		mov	r3, r5
 1198 0030 FFF7FEFF 		bl	fillcolor
 1199              	.LVL166:
  96:LEDcontrol.c  ****             }
 1200              		.loc 1 96 0
 1201 0034 214A     		ldr	r2, .L91
 1202 0036 D368     		ldr	r3, [r2, #12]
 1203 0038 0133     		adds	r3, r3, #1
 1204 003a D360     		str	r3, [r2, #12]
  98:LEDcontrol.c  ****             case 1:
 1205              		.loc 1 98 0
 1206 003c 0FE0     		b	.L84
 1207              	.L86:
 101:LEDcontrol.c  ****                 count3 = 0;
 1208              		.loc 1 101 0
 1209 003e D3E90645 		ldrd	r4, [r3, #24]
 1210 0042 D3E90401 		ldrd	r0, [r3, #16]
 1211 0046 0293     		str	r3, [sp, #8]
 1212 0048 0022     		movs	r2, #0
 1213 004a 0023     		movs	r3, #0
 1214 004c CDE90023 		strd	r2, [sp]
 1215 0050 2246     		mov	r2, r4
 1216 0052 2B46     		mov	r3, r5
 1217 0054 FFF7FEFF 		bl	fillcolor
 1218              	.LVL167:
 102:LEDcontrol.c  ****             }
 1219              		.loc 1 102 0
 1220 0058 0022     		movs	r2, #0
 1221 005a 184B     		ldr	r3, .L91
 1222 005c DA60     		str	r2, [r3, #12]
 1223              	.L84:
 107:LEDcontrol.c  ****     {
 1224              		.loc 1 107 0
 1225 005e 174B     		ldr	r3, .L91
 1226 0060 5B68     		ldr	r3, [r3, #4]
 1227 0062 1A6D     		ldr	r2, [r3, #80]
 1228 0064 012A     		cmp	r2, #1
 1229 0066 27D1     		bne	.L83
 109:LEDcontrol.c  ****         {
ARM GAS  C:\Users\cring\AppData\Local\Temp\ccSaPXYf.s 			page 30


 1230              		.loc 1 109 0
 1231 0068 144A     		ldr	r2, .L91
 1232 006a D268     		ldr	r2, [r2, #12]
 1233 006c 12B1     		cbz	r2, .L88
 1234 006e 012A     		cmp	r2, #1
 1235 0070 12D0     		beq	.L89
 1236 0072 21E0     		b	.L83
 1237              	.L88:
 113:LEDcontrol.c  ****                 count3++;
 1238              		.loc 1 113 0
 1239 0074 D3E90645 		ldrd	r4, [r3, #24]
 1240 0078 D3E90401 		ldrd	r0, [r3, #16]
 1241 007c 0293     		str	r3, [sp, #8]
 1242 007e 0022     		movs	r2, #0
 1243 0080 0F4B     		ldr	r3, .L91+4
 1244 0082 CDE90023 		strd	r2, [sp]
 1245 0086 2246     		mov	r2, r4
 1246 0088 2B46     		mov	r3, r5
 1247 008a FFF7FEFF 		bl	fillcolor
 1248              	.LVL168:
 114:LEDcontrol.c  ****             }
 1249              		.loc 1 114 0
 1250 008e 0B4A     		ldr	r2, .L91
 1251 0090 D368     		ldr	r3, [r2, #12]
 1252 0092 0133     		adds	r3, r3, #1
 1253 0094 D360     		str	r3, [r2, #12]
 116:LEDcontrol.c  ****             case 1:
 1254              		.loc 1 116 0
 1255 0096 0FE0     		b	.L83
 1256              	.L89:
 119:LEDcontrol.c  ****                 count3 = 0;
 1257              		.loc 1 119 0
 1258 0098 D3E90645 		ldrd	r4, [r3, #24]
 1259 009c D3E90401 		ldrd	r0, [r3, #16]
 1260 00a0 0293     		str	r3, [sp, #8]
 1261 00a2 0022     		movs	r2, #0
 1262 00a4 0023     		movs	r3, #0
 1263 00a6 CDE90023 		strd	r2, [sp]
 1264 00aa 2246     		mov	r2, r4
 1265 00ac 2B46     		mov	r3, r5
 1266 00ae FFF7FEFF 		bl	fillcolor
 1267              	.LVL169:
 120:LEDcontrol.c  ****             }
 1268              		.loc 1 120 0
 1269 00b2 0022     		movs	r2, #0
 1270 00b4 014B     		ldr	r3, .L91
 1271 00b6 DA60     		str	r2, [r3, #12]
 1272              	.L83:
 125:LEDcontrol.c  **** 
 1273              		.loc 1 125 0
 1274 00b8 05B0     		add	sp, sp, #20
 1275              		.cfi_def_cfa_offset 12
 1276              		@ sp needed
 1277 00ba 30BD     		pop	{r4, r5, pc}
 1278              	.L92:
 1279              		.align	2
 1280              	.L91:
ARM GAS  C:\Users\cring\AppData\Local\Temp\ccSaPXYf.s 			page 31


 1281 00bc 00000000 		.word	.LANCHOR0
 1282 00c0 0000F03F 		.word	1072693248
 1283              		.cfi_endproc
 1284              	.LFE67:
 1285              		.size	isr_BlinkLED, .-isr_BlinkLED
 1286              		.section	.text.isr_LED_ring,"ax",%progbits
 1287              		.align	2
 1288              		.global	isr_LED_ring
 1289              		.thumb
 1290              		.thumb_func
 1291              		.type	isr_LED_ring, %function
 1292              	isr_LED_ring:
 1293              	.LFB65:
  42:LEDcontrol.c  ****     if((rgbLED1->ring == 0) && (rgbLED2->ring == 0)) return;
 1294              		.loc 1 42 0
 1295              		.cfi_startproc
 1296              		@ args = 0, pretend = 0, frame = 0
 1297              		@ frame_needed = 0, uses_anonymous_args = 0
 1298 0000 2DE9F043 		push	{r4, r5, r6, r7, r8, r9, lr}
 1299              		.cfi_def_cfa_offset 28
 1300              		.cfi_offset 4, -28
 1301              		.cfi_offset 5, -24
 1302              		.cfi_offset 6, -20
 1303              		.cfi_offset 7, -16
 1304              		.cfi_offset 8, -12
 1305              		.cfi_offset 9, -8
 1306              		.cfi_offset 14, -4
 1307 0004 85B0     		sub	sp, sp, #20
 1308              		.cfi_def_cfa_offset 48
  43:LEDcontrol.c  ****     if(rgbLED1->ring == 1) fillcolor(0,0,0,rgbLED1);
 1309              		.loc 1 43 0
 1310 0006 404B     		ldr	r3, .L112
 1311 0008 1A68     		ldr	r2, [r3]
 1312 000a 936C     		ldr	r3, [r2, #72]
 1313 000c 23B9     		cbnz	r3, .L94
  43:LEDcontrol.c  ****     if(rgbLED1->ring == 1) fillcolor(0,0,0,rgbLED1);
 1314              		.loc 1 43 0 is_stmt 0 discriminator 1
 1315 000e 3E49     		ldr	r1, .L112
 1316 0010 4968     		ldr	r1, [r1, #4]
 1317 0012 896C     		ldr	r1, [r1, #72]
 1318 0014 0029     		cmp	r1, #0
 1319 0016 73D0     		beq	.L93
 1320              	.L94:
  44:LEDcontrol.c  ****     if(rgbLED2->ring == 1) fillcolor(0,0,0,rgbLED2);
 1321              		.loc 1 44 0 is_stmt 1
 1322 0018 012B     		cmp	r3, #1
 1323 001a 08D1     		bne	.L96
  44:LEDcontrol.c  ****     if(rgbLED2->ring == 1) fillcolor(0,0,0,rgbLED2);
 1324              		.loc 1 44 0 is_stmt 0 discriminator 1
 1325 001c 0020     		movs	r0, #0
 1326 001e 0021     		movs	r1, #0
 1327 0020 0292     		str	r2, [sp, #8]
 1328 0022 CDE90001 		strd	r0, [sp]
 1329 0026 0246     		mov	r2, r0
 1330 0028 0B46     		mov	r3, r1
 1331 002a FFF7FEFF 		bl	fillcolor
 1332              	.LVL170:
ARM GAS  C:\Users\cring\AppData\Local\Temp\ccSaPXYf.s 			page 32


 1333              	.L96:
  45:LEDcontrol.c  ****     
 1334              		.loc 1 45 0 is_stmt 1
 1335 002e 364B     		ldr	r3, .L112
 1336 0030 5B68     		ldr	r3, [r3, #4]
 1337 0032 9A6C     		ldr	r2, [r3, #72]
 1338 0034 012A     		cmp	r2, #1
 1339 0036 08D1     		bne	.L97
  45:LEDcontrol.c  ****     
 1340              		.loc 1 45 0 is_stmt 0 discriminator 1
 1341 0038 0020     		movs	r0, #0
 1342 003a 0021     		movs	r1, #0
 1343 003c 0293     		str	r3, [sp, #8]
 1344 003e CDE90001 		strd	r0, [sp]
 1345 0042 0246     		mov	r2, r0
 1346 0044 0B46     		mov	r3, r1
 1347 0046 FFF7FEFF 		bl	fillcolor
 1348              	.LVL171:
 1349              	.L97:
 1350              	.LBB7:
  47:LEDcontrol.c  ****         {
 1351              		.loc 1 47 0 is_stmt 1
 1352 004a 2F4B     		ldr	r3, .L112
 1353 004c 1C69     		ldr	r4, [r3, #16]
 1354              	.LVL172:
 1355 004e 38E0     		b	.L98
 1356              	.L103:
  49:LEDcontrol.c  ****             {
 1357              		.loc 1 49 0
 1358 0050 2D4B     		ldr	r3, .L112
 1359 0052 1B68     		ldr	r3, [r3]
 1360 0054 9A6C     		ldr	r2, [r3, #72]
 1361 0056 012A     		cmp	r2, #1
 1362 0058 16D1     		bne	.L99
 1363              	.LBB8:
  51:LEDcontrol.c  ****                 setcolorLED((rgbLED1 + x)->h, (rgbLED1 + x)->s, (rgbLED1 + x)->v, x, rgbLED1);
 1364              		.loc 1 51 0
 1365 005a 1D6C     		ldr	r5, [r3, #64]
 1366 005c AC42     		cmp	r4, r5
 1367 005e 01DB     		blt	.L107
  51:LEDcontrol.c  ****                 setcolorLED((rgbLED1 + x)->h, (rgbLED1 + x)->s, (rgbLED1 + x)->v, x, rgbLED1);
 1368              		.loc 1 51 0 is_stmt 0 discriminator 1
 1369 0060 651B     		subs	r5, r4, r5
 1370 0062 00E0     		b	.L100
 1371              	.L107:
  51:LEDcontrol.c  ****                 setcolorLED((rgbLED1 + x)->h, (rgbLED1 + x)->s, (rgbLED1 + x)->v, x, rgbLED1);
 1372              		.loc 1 51 0
 1373 0064 2546     		mov	r5, r4
 1374              	.L100:
 1375              	.LVL173:
  52:LEDcontrol.c  ****             }
 1376              		.loc 1 52 0 is_stmt 1 discriminator 4
 1377 0066 5822     		movs	r2, #88
 1378 0068 02FB0532 		mla	r2, r2, r5, r3
 1379 006c D2E90689 		ldrd	r8, [r2, #24]
 1380 0070 D2E90401 		ldrd	r0, [r2, #16]
 1381 0074 0393     		str	r3, [sp, #12]
ARM GAS  C:\Users\cring\AppData\Local\Temp\ccSaPXYf.s 			page 33


 1382 0076 0295     		str	r5, [sp, #8]
 1383 0078 D2E90867 		ldrd	r6, [r2, #32]
 1384 007c CDE90067 		strd	r6, [sp]
 1385 0080 4246     		mov	r2, r8
 1386 0082 4B46     		mov	r3, r9
 1387 0084 FFF7FEFF 		bl	setcolorLED
 1388              	.LVL174:
 1389              	.L99:
 1390              	.LBE8:
  54:LEDcontrol.c  ****             {
 1391              		.loc 1 54 0
 1392 0088 1F4B     		ldr	r3, .L112
 1393 008a 5B68     		ldr	r3, [r3, #4]
 1394 008c 9A6C     		ldr	r2, [r3, #72]
 1395 008e 012A     		cmp	r2, #1
 1396 0090 16D1     		bne	.L101
 1397              	.LBB9:
  56:LEDcontrol.c  ****                 setcolorLED((rgbLED2 + x)->h, (rgbLED2 + x)->s, (rgbLED2 + x)->v, x, rgbLED2);  
 1398              		.loc 1 56 0
 1399 0092 1D6C     		ldr	r5, [r3, #64]
 1400 0094 AC42     		cmp	r4, r5
 1401 0096 01DB     		blt	.L108
  56:LEDcontrol.c  ****                 setcolorLED((rgbLED2 + x)->h, (rgbLED2 + x)->s, (rgbLED2 + x)->v, x, rgbLED2);  
 1402              		.loc 1 56 0 is_stmt 0 discriminator 1
 1403 0098 651B     		subs	r5, r4, r5
 1404 009a 00E0     		b	.L102
 1405              	.L108:
  56:LEDcontrol.c  ****                 setcolorLED((rgbLED2 + x)->h, (rgbLED2 + x)->s, (rgbLED2 + x)->v, x, rgbLED2);  
 1406              		.loc 1 56 0
 1407 009c 2546     		mov	r5, r4
 1408              	.L102:
 1409              	.LVL175:
  57:LEDcontrol.c  ****             }
 1410              		.loc 1 57 0 is_stmt 1 discriminator 4
 1411 009e 5822     		movs	r2, #88
 1412 00a0 02FB0532 		mla	r2, r2, r5, r3
 1413 00a4 D2E90689 		ldrd	r8, [r2, #24]
 1414 00a8 D2E90401 		ldrd	r0, [r2, #16]
 1415 00ac 0393     		str	r3, [sp, #12]
 1416 00ae 0295     		str	r5, [sp, #8]
 1417 00b0 D2E90867 		ldrd	r6, [r2, #32]
 1418 00b4 CDE90067 		strd	r6, [sp]
 1419 00b8 4246     		mov	r2, r8
 1420 00ba 4B46     		mov	r3, r9
 1421 00bc FFF7FEFF 		bl	setcolorLED
 1422              	.LVL176:
 1423              	.L101:
 1424              	.LBE9:
  47:LEDcontrol.c  ****         {
 1425              		.loc 1 47 0 discriminator 2
 1426 00c0 0134     		adds	r4, r4, #1
 1427              	.LVL177:
 1428              	.L98:
  47:LEDcontrol.c  ****         {
 1429              		.loc 1 47 0 is_stmt 0 discriminator 1
 1430 00c2 114B     		ldr	r3, .L112
 1431 00c4 1A69     		ldr	r2, [r3, #16]
ARM GAS  C:\Users\cring\AppData\Local\Temp\ccSaPXYf.s 			page 34


 1432 00c6 5B69     		ldr	r3, [r3, #20]
 1433 00c8 1344     		add	r3, r3, r2
 1434 00ca 9C42     		cmp	r4, r3
 1435 00cc C0DB     		blt	.L103
 1436              	.LBE7:
  60:LEDcontrol.c  ****     {
 1437              		.loc 1 60 0 is_stmt 1
 1438 00ce 0E4B     		ldr	r3, .L112
 1439 00d0 1B68     		ldr	r3, [r3]
 1440 00d2 4BB1     		cbz	r3, .L104
  62:LEDcontrol.c  ****         return;
 1441              		.loc 1 62 0
 1442 00d4 1B6C     		ldr	r3, [r3, #64]
 1443 00d6 013B     		subs	r3, r3, #1
 1444 00d8 9A42     		cmp	r2, r3
 1445 00da 01DA     		bge	.L109
  62:LEDcontrol.c  ****         return;
 1446              		.loc 1 62 0 is_stmt 0 discriminator 1
 1447 00dc 0132     		adds	r2, r2, #1
 1448 00de 00E0     		b	.L105
 1449              	.L109:
  62:LEDcontrol.c  ****         return;
 1450              		.loc 1 62 0
 1451 00e0 0022     		movs	r2, #0
 1452              	.L105:
  62:LEDcontrol.c  ****         return;
 1453              		.loc 1 62 0 discriminator 4
 1454 00e2 094B     		ldr	r3, .L112
 1455 00e4 1A61     		str	r2, [r3, #16]
  63:LEDcontrol.c  ****     }else if (rgbLED2 != NULL){
 1456              		.loc 1 63 0 is_stmt 1 discriminator 4
 1457 00e6 0BE0     		b	.L93
 1458              	.L104:
  64:LEDcontrol.c  ****         index_ = index_ < (rgbLED2->LEDlength-1) ? index_ + 1 : 0;
 1459              		.loc 1 64 0
 1460 00e8 074B     		ldr	r3, .L112
 1461 00ea 5B68     		ldr	r3, [r3, #4]
 1462 00ec 43B1     		cbz	r3, .L93
  65:LEDcontrol.c  ****     }
 1463              		.loc 1 65 0
 1464 00ee 1B6C     		ldr	r3, [r3, #64]
 1465 00f0 013B     		subs	r3, r3, #1
 1466 00f2 9A42     		cmp	r2, r3
 1467 00f4 01DA     		bge	.L110
  65:LEDcontrol.c  ****     }
 1468              		.loc 1 65 0 is_stmt 0 discriminator 1
 1469 00f6 0132     		adds	r2, r2, #1
 1470 00f8 00E0     		b	.L106
 1471              	.L110:
  65:LEDcontrol.c  ****     }
 1472              		.loc 1 65 0
 1473 00fa 0022     		movs	r2, #0
 1474              	.L106:
  65:LEDcontrol.c  ****     }
 1475              		.loc 1 65 0 discriminator 4
 1476 00fc 024B     		ldr	r3, .L112
 1477 00fe 1A61     		str	r2, [r3, #16]
ARM GAS  C:\Users\cring\AppData\Local\Temp\ccSaPXYf.s 			page 35


 1478              	.LVL178:
 1479              	.L93:
  67:LEDcontrol.c  **** 
 1480              		.loc 1 67 0 is_stmt 1
 1481 0100 05B0     		add	sp, sp, #20
 1482              		.cfi_def_cfa_offset 28
 1483              		@ sp needed
 1484 0102 BDE8F083 		pop	{r4, r5, r6, r7, r8, r9, pc}
 1485              	.L113:
 1486 0106 00BF     		.align	2
 1487              	.L112:
 1488 0108 00000000 		.word	.LANCHOR0
 1489              		.cfi_endproc
 1490              	.LFE65:
 1491              		.size	isr_LED_ring, .-isr_LED_ring
 1492              		.section	.text.LEDOff,"ax",%progbits
 1493              		.align	2
 1494              		.global	LEDOff
 1495              		.thumb
 1496              		.thumb_func
 1497              		.type	LEDOff, %function
 1498              	LEDOff:
 1499              	.LFB79:
 367:LEDcontrol.c  **** 
 368:LEDcontrol.c  **** void LEDOff(LEDctrl *rgbLED)
 369:LEDcontrol.c  **** {
 1500              		.loc 1 369 0
 1501              		.cfi_startproc
 1502              		@ args = 0, pretend = 0, frame = 0
 1503              		@ frame_needed = 0, uses_anonymous_args = 0
 1504              		@ link register save eliminated.
 1505              	.LVL179:
 370:LEDcontrol.c  ****     rgbLED->ring = 0;
 1506              		.loc 1 370 0
 1507 0000 0023     		movs	r3, #0
 1508 0002 8364     		str	r3, [r0, #72]
 371:LEDcontrol.c  ****     rgbLED->pulse = 0;
 1509              		.loc 1 371 0
 1510 0004 C364     		str	r3, [r0, #76]
 372:LEDcontrol.c  ****     rgbLED->blink = 0;
 1511              		.loc 1 372 0
 1512 0006 0365     		str	r3, [r0, #80]
 1513 0008 7047     		bx	lr
 1514              		.cfi_endproc
 1515              	.LFE79:
 1516              		.size	LEDOff, .-LEDOff
 1517 000a 00BF     		.section	.text.addLEDstrip,"ax",%progbits
 1518              		.align	2
 1519              		.global	addLEDstrip
 1520              		.thumb
 1521              		.thumb_func
 1522              		.type	addLEDstrip, %function
 1523              	addLEDstrip:
 1524              	.LFB70:
 140:LEDcontrol.c  ****     if (strip == 1)
 1525              		.loc 1 140 0
 1526              		.cfi_startproc
ARM GAS  C:\Users\cring\AppData\Local\Temp\ccSaPXYf.s 			page 36


 1527              		@ args = 0, pretend = 0, frame = 0
 1528              		@ frame_needed = 0, uses_anonymous_args = 0
 1529              	.LVL180:
 1530 0000 30B5     		push	{r4, r5, lr}
 1531              		.cfi_def_cfa_offset 12
 1532              		.cfi_offset 4, -12
 1533              		.cfi_offset 5, -8
 1534              		.cfi_offset 14, -4
 1535 0002 85B0     		sub	sp, sp, #20
 1536              		.cfi_def_cfa_offset 32
 1537 0004 0D46     		mov	r5, r1
 141:LEDcontrol.c  ****     {
 1538              		.loc 1 141 0
 1539 0006 012A     		cmp	r2, #1
 1540 0008 02D1     		bne	.L116
 143:LEDcontrol.c  ****     }else{
 1541              		.loc 1 143 0
 1542 000a 0E4B     		ldr	r3, .L121
 1543 000c 1960     		str	r1, [r3]
 1544 000e 01E0     		b	.L117
 1545              	.L116:
 145:LEDcontrol.c  ****     }
 1546              		.loc 1 145 0
 1547 0010 0C4B     		ldr	r3, .L121
 1548 0012 5960     		str	r1, [r3, #4]
 1549              	.L117:
 148:LEDcontrol.c  ****     rgbLED_->pin = strip;
 1550              		.loc 1 148 0
 1551 0014 2864     		str	r0, [r5, #64]
 149:LEDcontrol.c  ****     LEDOff(rgbLED_);
 1552              		.loc 1 149 0
 1553 0016 6A64     		str	r2, [r5, #68]
 150:LEDcontrol.c  ****     
 1554              		.loc 1 150 0
 1555 0018 2846     		mov	r0, r5
 1556              	.LVL181:
 1557 001a FFF7FEFF 		bl	LEDOff
 1558              	.LVL182:
 1559              	.LBB10:
 152:LEDcontrol.c  ****     {
 1560              		.loc 1 152 0
 1561 001e 0024     		movs	r4, #0
 1562 0020 0AE0     		b	.L118
 1563              	.LVL183:
 1564              	.L119:
 154:LEDcontrol.c  ****     }
 1565              		.loc 1 154 0 discriminator 3
 1566 0022 0020     		movs	r0, #0
 1567 0024 0021     		movs	r1, #0
 1568 0026 0395     		str	r5, [sp, #12]
 1569 0028 0294     		str	r4, [sp, #8]
 1570 002a CDE90001 		strd	r0, [sp]
 1571 002e 0246     		mov	r2, r0
 1572 0030 0B46     		mov	r3, r1
 1573 0032 FFF7FEFF 		bl	setcolorLED
 1574              	.LVL184:
 152:LEDcontrol.c  ****     {
ARM GAS  C:\Users\cring\AppData\Local\Temp\ccSaPXYf.s 			page 37


 1575              		.loc 1 152 0 discriminator 3
 1576 0036 0134     		adds	r4, r4, #1
 1577              	.LVL185:
 1578              	.L118:
 152:LEDcontrol.c  ****     {
 1579              		.loc 1 152 0 is_stmt 0 discriminator 1
 1580 0038 2B6C     		ldr	r3, [r5, #64]
 1581 003a 9C42     		cmp	r4, r3
 1582 003c F1DB     		blt	.L119
 1583              	.LBE10:
 156:LEDcontrol.c  **** 
 1584              		.loc 1 156 0 is_stmt 1
 1585 003e 05B0     		add	sp, sp, #20
 1586              		.cfi_def_cfa_offset 12
 1587              		@ sp needed
 1588 0040 30BD     		pop	{r4, r5, pc}
 1589              	.LVL186:
 1590              	.L122:
 1591 0042 00BF     		.align	2
 1592              	.L121:
 1593 0044 00000000 		.word	.LANCHOR0
 1594              		.cfi_endproc
 1595              	.LFE70:
 1596              		.size	addLEDstrip, .-addLEDstrip
 1597              		.section	.text.pulseLED,"ax",%progbits
 1598              		.align	2
 1599              		.global	pulseLED
 1600              		.thumb
 1601              		.thumb_func
 1602              		.type	pulseLED, %function
 1603              	pulseLED:
 1604              	.LFB73:
 185:LEDcontrol.c  ****     LEDOff(rgbLED);
 1605              		.loc 1 185 0
 1606              		.cfi_startproc
 1607              		@ args = 12, pretend = 0, frame = 0
 1608              		@ frame_needed = 0, uses_anonymous_args = 0
 1609              	.LVL187:
 1610 0000 2DE9F047 		push	{r4, r5, r6, r7, r8, r9, r10, lr}
 1611              		.cfi_def_cfa_offset 32
 1612              		.cfi_offset 4, -32
 1613              		.cfi_offset 5, -28
 1614              		.cfi_offset 6, -24
 1615              		.cfi_offset 7, -20
 1616              		.cfi_offset 8, -16
 1617              		.cfi_offset 9, -12
 1618              		.cfi_offset 10, -8
 1619              		.cfi_offset 14, -4
 1620 0004 84B0     		sub	sp, sp, #16
 1621              		.cfi_def_cfa_offset 48
 1622 0006 0446     		mov	r4, r0
 1623 0008 0D46     		mov	r5, r1
 1624 000a 1646     		mov	r6, r2
 1625 000c 1F46     		mov	r7, r3
 1626 000e DDE90C89 		ldrd	r8, [sp, #48]
 1627 0012 DDF838A0 		ldr	r10, [sp, #56]
 186:LEDcontrol.c  ****     rgbLED->pulse = 1;
ARM GAS  C:\Users\cring\AppData\Local\Temp\ccSaPXYf.s 			page 38


 1628              		.loc 1 186 0
 1629 0016 5046     		mov	r0, r10
 1630              	.LVL188:
 1631 0018 FFF7FEFF 		bl	LEDOff
 1632              	.LVL189:
 187:LEDcontrol.c  ****     
 1633              		.loc 1 187 0
 1634 001c 0123     		movs	r3, #1
 1635 001e CAF84C30 		str	r3, [r10, #76]
 189:LEDcontrol.c  ****     rgbLED->s = s1;
 1636              		.loc 1 189 0
 1637 0022 CAE90445 		strd	r4, [r10, #16]
 190:LEDcontrol.c  ****     rgbLED->v = v1;
 1638              		.loc 1 190 0
 1639 0026 CAE90667 		strd	r6, [r10, #24]
 191:LEDcontrol.c  ****     fillcolor(h1,s1,v1, rgbLED);
 1640              		.loc 1 191 0
 1641 002a CAE90889 		strd	r8, [r10, #32]
 192:LEDcontrol.c  **** }
 1642              		.loc 1 192 0
 1643 002e CDF808A0 		str	r10, [sp, #8]
 1644 0032 CDE90089 		strd	r8, [sp]
 1645 0036 3246     		mov	r2, r6
 1646 0038 3B46     		mov	r3, r7
 1647 003a 2046     		mov	r0, r4
 1648 003c 2946     		mov	r1, r5
 1649 003e FFF7FEFF 		bl	fillcolor
 1650              	.LVL190:
 193:LEDcontrol.c  **** 
 1651              		.loc 1 193 0
 1652 0042 04B0     		add	sp, sp, #16
 1653              		.cfi_def_cfa_offset 32
 1654              		@ sp needed
 1655 0044 BDE8F087 		pop	{r4, r5, r6, r7, r8, r9, r10, pc}
 1656              		.cfi_endproc
 1657              	.LFE73:
 1658              		.size	pulseLED, .-pulseLED
 1659              		.section	.text.ringLED,"ax",%progbits
 1660              		.align	2
 1661              		.global	ringLED
 1662              		.thumb
 1663              		.thumb_func
 1664              		.type	ringLED, %function
 1665              	ringLED:
 1666              	.LFB75:
 203:LEDcontrol.c  ****     pulselength_ = pulselength;
 1667              		.loc 1 203 0
 1668              		.cfi_startproc
 1669              		@ args = 20, pretend = 0, frame = 0
 1670              		@ frame_needed = 0, uses_anonymous_args = 0
 1671              	.LVL191:
 1672 0000 2DE9F047 		push	{r4, r5, r6, r7, r8, r9, r10, lr}
 1673              		.cfi_def_cfa_offset 32
 1674              		.cfi_offset 4, -32
 1675              		.cfi_offset 5, -28
 1676              		.cfi_offset 6, -24
 1677              		.cfi_offset 7, -20
ARM GAS  C:\Users\cring\AppData\Local\Temp\ccSaPXYf.s 			page 39


 1678              		.cfi_offset 8, -16
 1679              		.cfi_offset 9, -12
 1680              		.cfi_offset 10, -8
 1681              		.cfi_offset 14, -4
 1682 0004 9046     		mov	r8, r2
 1683 0006 9946     		mov	r9, r3
 1684 0008 DDE90867 		ldrd	r6, [sp, #32]
 1685 000c DDE90A45 		ldrd	r4, [sp, #40]
 1686 0010 DDF830A0 		ldr	r10, [sp, #48]
 204:LEDcontrol.c  ****     LEDOff(rgbLED);
 1687              		.loc 1 204 0
 1688 0014 0C4B     		ldr	r3, .L129
 1689 0016 5861     		str	r0, [r3, #20]
 205:LEDcontrol.c  ****     rgbLED->ring = 1;
 1690              		.loc 1 205 0
 1691 0018 5046     		mov	r0, r10
 1692              	.LVL192:
 1693 001a FFF7FEFF 		bl	LEDOff
 1694              	.LVL193:
 206:LEDcontrol.c  ****     
 1695              		.loc 1 206 0
 1696 001e 0123     		movs	r3, #1
 1697 0020 CAF84830 		str	r3, [r10, #72]
 1698              	.LVL194:
 1699              	.LBB11:
 208:LEDcontrol.c  ****     {
 1700              		.loc 1 208 0
 1701 0024 0022     		movs	r2, #0
 1702 0026 09E0     		b	.L126
 1703              	.LVL195:
 1704              	.L127:
 210:LEDcontrol.c  ****         (rgbLED + i)->s = s1;
 1705              		.loc 1 210 0 discriminator 3
 1706 0028 5823     		movs	r3, #88
 1707 002a 03FB02A3 		mla	r3, r3, r2, r10
 1708 002e C3E90489 		strd	r8, [r3, #16]
 211:LEDcontrol.c  ****         (rgbLED + i)->v = v1;
 1709              		.loc 1 211 0 discriminator 3
 1710 0032 C3E90667 		strd	r6, [r3, #24]
 212:LEDcontrol.c  ****     }
 1711              		.loc 1 212 0 discriminator 3
 1712 0036 C3E90845 		strd	r4, [r3, #32]
 208:LEDcontrol.c  ****     {
 1713              		.loc 1 208 0 discriminator 3
 1714 003a 0132     		adds	r2, r2, #1
 1715              	.LVL196:
 1716              	.L126:
 208:LEDcontrol.c  ****     {
 1717              		.loc 1 208 0 is_stmt 0 discriminator 1
 1718 003c DAF84030 		ldr	r3, [r10, #64]
 1719 0040 9A42     		cmp	r2, r3
 1720 0042 F1DB     		blt	.L127
 1721              	.LBE11:
 214:LEDcontrol.c  **** 
 1722              		.loc 1 214 0 is_stmt 1
 1723 0044 BDE8F087 		pop	{r4, r5, r6, r7, r8, r9, r10, pc}
 1724              	.LVL197:
ARM GAS  C:\Users\cring\AppData\Local\Temp\ccSaPXYf.s 			page 40


 1725              	.L130:
 1726              		.align	2
 1727              	.L129:
 1728 0048 00000000 		.word	.LANCHOR0
 1729              		.cfi_endproc
 1730              	.LFE75:
 1731              		.size	ringLED, .-ringLED
 1732              		.section	.text.BlinkLED,"ax",%progbits
 1733              		.align	2
 1734              		.global	BlinkLED
 1735              		.thumb
 1736              		.thumb_func
 1737              		.type	BlinkLED, %function
 1738              	BlinkLED:
 1739              	.LFB80:
 373:LEDcontrol.c  **** }
 374:LEDcontrol.c  **** 
 375:LEDcontrol.c  **** void BlinkLED(double h1, double s1, double v1, LEDctrl *rgbLED)
 376:LEDcontrol.c  **** {
 1740              		.loc 1 376 0
 1741              		.cfi_startproc
 1742              		@ args = 12, pretend = 0, frame = 0
 1743              		@ frame_needed = 0, uses_anonymous_args = 0
 1744              	.LVL198:
 1745 0000 2DE9F047 		push	{r4, r5, r6, r7, r8, r9, r10, lr}
 1746              		.cfi_def_cfa_offset 32
 1747              		.cfi_offset 4, -32
 1748              		.cfi_offset 5, -28
 1749              		.cfi_offset 6, -24
 1750              		.cfi_offset 7, -20
 1751              		.cfi_offset 8, -16
 1752              		.cfi_offset 9, -12
 1753              		.cfi_offset 10, -8
 1754              		.cfi_offset 14, -4
 1755 0004 8046     		mov	r8, r0
 1756 0006 8946     		mov	r9, r1
 1757 0008 1646     		mov	r6, r2
 1758 000a 1F46     		mov	r7, r3
 1759 000c DDE90845 		ldrd	r4, [sp, #32]
 1760 0010 DDF828A0 		ldr	r10, [sp, #40]
 377:LEDcontrol.c  ****     LEDOff(rgbLED);
 1761              		.loc 1 377 0
 1762 0014 5046     		mov	r0, r10
 1763              	.LVL199:
 1764 0016 FFF7FEFF 		bl	LEDOff
 1765              	.LVL200:
 1766              	.LBB12:
 378:LEDcontrol.c  ****     
 379:LEDcontrol.c  ****     for(int i = 0; i<rgbLED->LEDlength; i++)
 1767              		.loc 1 379 0
 1768 001a 0022     		movs	r2, #0
 1769 001c 09E0     		b	.L132
 1770              	.LVL201:
 1771              	.L133:
 380:LEDcontrol.c  ****     {
 381:LEDcontrol.c  ****         (rgbLED + i)->h = h1;
 1772              		.loc 1 381 0 discriminator 3
ARM GAS  C:\Users\cring\AppData\Local\Temp\ccSaPXYf.s 			page 41


 1773 001e 5823     		movs	r3, #88
 1774 0020 03FB02A3 		mla	r3, r3, r2, r10
 1775 0024 C3E90489 		strd	r8, [r3, #16]
 382:LEDcontrol.c  ****         (rgbLED + i)->s = s1;
 1776              		.loc 1 382 0 discriminator 3
 1777 0028 C3E90667 		strd	r6, [r3, #24]
 383:LEDcontrol.c  ****         (rgbLED + i)->v = v1;
 1778              		.loc 1 383 0 discriminator 3
 1779 002c C3E90845 		strd	r4, [r3, #32]
 379:LEDcontrol.c  ****     {
 1780              		.loc 1 379 0 discriminator 3
 1781 0030 0132     		adds	r2, r2, #1
 1782              	.LVL202:
 1783              	.L132:
 379:LEDcontrol.c  ****     {
 1784              		.loc 1 379 0 is_stmt 0 discriminator 1
 1785 0032 DAF84030 		ldr	r3, [r10, #64]
 1786 0036 9A42     		cmp	r2, r3
 1787 0038 F1DB     		blt	.L133
 1788              	.LBE12:
 384:LEDcontrol.c  ****     }
 385:LEDcontrol.c  ****     
 386:LEDcontrol.c  ****     rgbLED->blink = 1;
 1789              		.loc 1 386 0 is_stmt 1
 1790 003a 0123     		movs	r3, #1
 1791 003c CAF85030 		str	r3, [r10, #80]
 1792 0040 BDE8F087 		pop	{r4, r5, r6, r7, r8, r9, r10, pc}
 1793              		.cfi_endproc
 1794              	.LFE80:
 1795              		.size	BlinkLED, .-BlinkLED
 1796              		.section	.text.LEDinitSeq,"ax",%progbits
 1797              		.align	2
 1798              		.global	LEDinitSeq
 1799              		.thumb
 1800              		.thumb_func
 1801              		.type	LEDinitSeq, %function
 1802              	LEDinitSeq:
 1803              	.LFB81:
 387:LEDcontrol.c  **** }
 388:LEDcontrol.c  **** 
 389:LEDcontrol.c  **** 
 390:LEDcontrol.c  **** //Forskellige sekvenser til LED OBS ordforklaringer er i system arkitketur
 391:LEDcontrol.c  **** void LEDinitSeq(LEDctrl *rgbLED)    //Initieringssekvens
 392:LEDcontrol.c  **** {
 1804              		.loc 1 392 0
 1805              		.cfi_startproc
 1806              		@ args = 0, pretend = 0, frame = 0
 1807              		@ frame_needed = 0, uses_anonymous_args = 0
 1808              	.LVL203:
 1809 0000 00B5     		push	{lr}
 1810              		.cfi_def_cfa_offset 4
 1811              		.cfi_offset 14, -4
 1812 0002 87B0     		sub	sp, sp, #28
 1813              		.cfi_def_cfa_offset 32
 393:LEDcontrol.c  ****     ringLED(3, 191, 1.0, 0.5, rgbLED);
 1814              		.loc 1 393 0
 1815 0004 0490     		str	r0, [sp, #16]
ARM GAS  C:\Users\cring\AppData\Local\Temp\ccSaPXYf.s 			page 42


 1816 0006 0022     		movs	r2, #0
 1817 0008 094B     		ldr	r3, .L137+8
 1818 000a CDE90223 		strd	r2, [sp, #8]
 1819 000e 0022     		movs	r2, #0
 1820 0010 084B     		ldr	r3, .L137+12
 1821 0012 CDE90023 		strd	r2, [sp]
 1822 0016 04A3     		adr	r3, .L137
 1823 0018 D3E90023 		ldrd	r2, [r3]
 1824 001c 0320     		movs	r0, #3
 1825              	.LVL204:
 1826 001e FFF7FEFF 		bl	ringLED
 1827              	.LVL205:
 394:LEDcontrol.c  **** }
 1828              		.loc 1 394 0
 1829 0022 07B0     		add	sp, sp, #28
 1830              		.cfi_def_cfa_offset 4
 1831              		@ sp needed
 1832 0024 5DF804FB 		ldr	pc, [sp], #4
 1833              	.L138:
 1834              		.align	3
 1835              	.L137:
 1836 0028 00000000 		.word	0
 1837 002c 00E06740 		.word	1080549376
 1838 0030 0000E03F 		.word	1071644672
 1839 0034 0000F03F 		.word	1072693248
 1840              		.cfi_endproc
 1841              	.LFE81:
 1842              		.size	LEDinitSeq, .-LEDinitSeq
 1843              		.section	.text.idleSeq,"ax",%progbits
 1844              		.align	2
 1845              		.global	idleSeq
 1846              		.thumb
 1847              		.thumb_func
 1848              		.type	idleSeq, %function
 1849              	idleSeq:
 1850              	.LFB82:
 395:LEDcontrol.c  **** 
 396:LEDcontrol.c  **** void idleSeq(LEDctrl *rgbLED)      //Idle-sekvens
 397:LEDcontrol.c  **** {
 1851              		.loc 1 397 0
 1852              		.cfi_startproc
 1853              		@ args = 0, pretend = 0, frame = 0
 1854              		@ frame_needed = 0, uses_anonymous_args = 0
 1855              	.LVL206:
 1856 0000 00B5     		push	{lr}
 1857              		.cfi_def_cfa_offset 4
 1858              		.cfi_offset 14, -4
 1859 0002 85B0     		sub	sp, sp, #20
 1860              		.cfi_def_cfa_offset 24
 398:LEDcontrol.c  ****     pulseLED(307, 1.0, 0.85, rgbLED);
 1861              		.loc 1 398 0
 1862 0004 0290     		str	r0, [sp, #8]
 1863 0006 08A3     		adr	r3, .L141
 1864 0008 D3E90023 		ldrd	r2, [r3]
 1865 000c CDE90023 		strd	r2, [sp]
 1866 0010 0022     		movs	r2, #0
 1867 0012 094B     		ldr	r3, .L141+16
ARM GAS  C:\Users\cring\AppData\Local\Temp\ccSaPXYf.s 			page 43


 1868 0014 06A1     		adr	r1, .L141+8
 1869 0016 D1E90001 		ldrd	r0, [r1]
 1870              	.LVL207:
 1871 001a FFF7FEFF 		bl	pulseLED
 1872              	.LVL208:
 399:LEDcontrol.c  **** }
 1873              		.loc 1 399 0
 1874 001e 05B0     		add	sp, sp, #20
 1875              		.cfi_def_cfa_offset 4
 1876              		@ sp needed
 1877 0020 5DF804FB 		ldr	pc, [sp], #4
 1878              	.L142:
 1879 0024 AFF30080 		.align	3
 1880              	.L141:
 1881 0028 33333333 		.word	858993459
 1882 002c 3333EB3F 		.word	1072378675
 1883 0030 00000000 		.word	0
 1884 0034 00307340 		.word	1081290752
 1885 0038 0000F03F 		.word	1072693248
 1886              		.cfi_endproc
 1887              	.LFE82:
 1888              		.size	idleSeq, .-idleSeq
 1889              		.section	.text.loserSeq,"ax",%progbits
 1890              		.align	2
 1891              		.global	loserSeq
 1892              		.thumb
 1893              		.thumb_func
 1894              		.type	loserSeq, %function
 1895              	loserSeq:
 1896              	.LFB83:
 400:LEDcontrol.c  **** 
 401:LEDcontrol.c  **** void loserSeq(LEDctrl *rgbLED)     //Tabersekvens
 402:LEDcontrol.c  **** {
 1897              		.loc 1 402 0
 1898              		.cfi_startproc
 1899              		@ args = 0, pretend = 0, frame = 0
 1900              		@ frame_needed = 0, uses_anonymous_args = 0
 1901              	.LVL209:
 1902 0000 10B5     		push	{r4, lr}
 1903              		.cfi_def_cfa_offset 8
 1904              		.cfi_offset 4, -8
 1905              		.cfi_offset 14, -4
 1906 0002 84B0     		sub	sp, sp, #16
 1907              		.cfi_def_cfa_offset 24
 1908 0004 0446     		mov	r4, r0
 403:LEDcontrol.c  ****     LEDOff(rgbLED);
 1909              		.loc 1 403 0
 1910 0006 FFF7FEFF 		bl	LEDOff
 1911              	.LVL210:
 404:LEDcontrol.c  ****     fillcolor(3, 1.0, 0.83, rgbLED);
 1912              		.loc 1 404 0
 1913 000a 0294     		str	r4, [sp, #8]
 1914 000c 06A3     		adr	r3, .L145
 1915 000e D3E90023 		ldrd	r2, [r3]
 1916 0012 CDE90023 		strd	r2, [sp]
 1917 0016 0022     		movs	r2, #0
 1918 0018 054B     		ldr	r3, .L145+8
ARM GAS  C:\Users\cring\AppData\Local\Temp\ccSaPXYf.s 			page 44


 1919 001a 0020     		movs	r0, #0
 1920 001c 0549     		ldr	r1, .L145+12
 1921 001e FFF7FEFF 		bl	fillcolor
 1922              	.LVL211:
 405:LEDcontrol.c  ****     
 406:LEDcontrol.c  **** }
 1923              		.loc 1 406 0
 1924 0022 04B0     		add	sp, sp, #16
 1925              		.cfi_def_cfa_offset 8
 1926              		@ sp needed
 1927 0024 10BD     		pop	{r4, pc}
 1928              	.LVL212:
 1929              	.L146:
 1930 0026 00BF     		.align	3
 1931              	.L145:
 1932 0028 8FC2F528 		.word	687194767
 1933 002c 5C8FEA3F 		.word	1072336732
 1934 0030 0000F03F 		.word	1072693248
 1935 0034 00000840 		.word	1074266112
 1936              		.cfi_endproc
 1937              	.LFE83:
 1938              		.size	loserSeq, .-loserSeq
 1939              		.section	.text.zeroCalibrateSeq,"ax",%progbits
 1940              		.align	2
 1941              		.global	zeroCalibrateSeq
 1942              		.thumb
 1943              		.thumb_func
 1944              		.type	zeroCalibrateSeq, %function
 1945              	zeroCalibrateSeq:
 1946              	.LFB84:
 407:LEDcontrol.c  **** 
 408:LEDcontrol.c  **** void zeroCalibrateSeq(LEDctrl *rgbLED) //Kalibreringssekvens
 409:LEDcontrol.c  **** {
 1947              		.loc 1 409 0
 1948              		.cfi_startproc
 1949              		@ args = 0, pretend = 0, frame = 0
 1950              		@ frame_needed = 0, uses_anonymous_args = 0
 1951              	.LVL213:
 1952 0000 00B5     		push	{lr}
 1953              		.cfi_def_cfa_offset 4
 1954              		.cfi_offset 14, -4
 1955 0002 85B0     		sub	sp, sp, #20
 1956              		.cfi_def_cfa_offset 24
 410:LEDcontrol.c  ****     pulseLED(65, 1, 1, rgbLED);
 1957              		.loc 1 410 0
 1958 0004 0022     		movs	r2, #0
 1959 0006 054B     		ldr	r3, .L149
 1960 0008 0290     		str	r0, [sp, #8]
 1961 000a CDE90023 		strd	r2, [sp]
 1962 000e 0020     		movs	r0, #0
 1963              	.LVL214:
 1964 0010 0349     		ldr	r1, .L149+4
 1965 0012 FFF7FEFF 		bl	pulseLED
 1966              	.LVL215:
 411:LEDcontrol.c  **** }
 1967              		.loc 1 411 0
 1968 0016 05B0     		add	sp, sp, #20
ARM GAS  C:\Users\cring\AppData\Local\Temp\ccSaPXYf.s 			page 45


 1969              		.cfi_def_cfa_offset 4
 1970              		@ sp needed
 1971 0018 5DF804FB 		ldr	pc, [sp], #4
 1972              	.L150:
 1973              		.align	2
 1974              	.L149:
 1975 001c 0000F03F 		.word	1072693248
 1976 0020 00405040 		.word	1079001088
 1977              		.cfi_endproc
 1978              	.LFE84:
 1979              		.size	zeroCalibrateSeq, .-zeroCalibrateSeq
 1980              		.section	.text.checkSeq,"ax",%progbits
 1981              		.align	2
 1982              		.global	checkSeq
 1983              		.thumb
 1984              		.thumb_func
 1985              		.type	checkSeq, %function
 1986              	checkSeq:
 1987              	.LFB85:
 412:LEDcontrol.c  **** 
 413:LEDcontrol.c  **** void checkSeq(LEDctrl *rgbLED) //Tjek vægt sekvens
 414:LEDcontrol.c  **** {
 1988              		.loc 1 414 0
 1989              		.cfi_startproc
 1990              		@ args = 0, pretend = 0, frame = 0
 1991              		@ frame_needed = 0, uses_anonymous_args = 0
 1992              	.LVL216:
 1993 0000 00B5     		push	{lr}
 1994              		.cfi_def_cfa_offset 4
 1995              		.cfi_offset 14, -4
 1996 0002 87B0     		sub	sp, sp, #28
 1997              		.cfi_def_cfa_offset 32
 415:LEDcontrol.c  ****     ringLED(3, 65, 1, 1, rgbLED);
 1998              		.loc 1 415 0
 1999 0004 0490     		str	r0, [sp, #16]
 2000 0006 0022     		movs	r2, #0
 2001 0008 064B     		ldr	r3, .L153
 2002 000a CDE90223 		strd	r2, [sp, #8]
 2003 000e CDE90023 		strd	r2, [sp]
 2004 0012 0022     		movs	r2, #0
 2005 0014 044B     		ldr	r3, .L153+4
 2006 0016 0320     		movs	r0, #3
 2007              	.LVL217:
 2008 0018 FFF7FEFF 		bl	ringLED
 2009              	.LVL218:
 416:LEDcontrol.c  **** }
 2010              		.loc 1 416 0
 2011 001c 07B0     		add	sp, sp, #28
 2012              		.cfi_def_cfa_offset 4
 2013              		@ sp needed
 2014 001e 5DF804FB 		ldr	pc, [sp], #4
 2015              	.L154:
 2016 0022 00BF     		.align	2
 2017              	.L153:
 2018 0024 0000F03F 		.word	1072693248
 2019 0028 00405040 		.word	1079001088
 2020              		.cfi_endproc
ARM GAS  C:\Users\cring\AppData\Local\Temp\ccSaPXYf.s 			page 46


 2021              	.LFE85:
 2022              		.size	checkSeq, .-checkSeq
 2023              		.section	.text.weightapprovedSeq,"ax",%progbits
 2024              		.align	2
 2025              		.global	weightapprovedSeq
 2026              		.thumb
 2027              		.thumb_func
 2028              		.type	weightapprovedSeq, %function
 2029              	weightapprovedSeq:
 2030              	.LFB86:
 417:LEDcontrol.c  **** 
 418:LEDcontrol.c  **** void weightapprovedSeq(LEDctrl *rgbLED) //Vægt godkendt sekvens
 419:LEDcontrol.c  **** {
 2031              		.loc 1 419 0
 2032              		.cfi_startproc
 2033              		@ args = 0, pretend = 0, frame = 0
 2034              		@ frame_needed = 0, uses_anonymous_args = 0
 2035              	.LVL219:
 2036 0000 10B5     		push	{r4, lr}
 2037              		.cfi_def_cfa_offset 8
 2038              		.cfi_offset 4, -8
 2039              		.cfi_offset 14, -4
 2040 0002 84B0     		sub	sp, sp, #16
 2041              		.cfi_def_cfa_offset 24
 2042 0004 0446     		mov	r4, r0
 420:LEDcontrol.c  ****     LEDOff(rgbLED);
 2043              		.loc 1 420 0
 2044 0006 FFF7FEFF 		bl	LEDOff
 2045              	.LVL220:
 421:LEDcontrol.c  ****     fillcolor(116, 1, 1.0, rgbLED);
 2046              		.loc 1 421 0
 2047 000a 0022     		movs	r2, #0
 2048 000c 044B     		ldr	r3, .L157
 2049 000e 0294     		str	r4, [sp, #8]
 2050 0010 CDE90023 		strd	r2, [sp]
 2051 0014 0020     		movs	r0, #0
 2052 0016 0349     		ldr	r1, .L157+4
 2053 0018 FFF7FEFF 		bl	fillcolor
 2054              	.LVL221:
 422:LEDcontrol.c  **** }
 2055              		.loc 1 422 0
 2056 001c 04B0     		add	sp, sp, #16
 2057              		.cfi_def_cfa_offset 8
 2058              		@ sp needed
 2059 001e 10BD     		pop	{r4, pc}
 2060              	.LVL222:
 2061              	.L158:
 2062              		.align	2
 2063              	.L157:
 2064 0020 0000F03F 		.word	1072693248
 2065 0024 00005D40 		.word	1079836672
 2066              		.cfi_endproc
 2067              	.LFE86:
 2068              		.size	weightapprovedSeq, .-weightapprovedSeq
 2069              		.section	.text.startSeq,"ax",%progbits
 2070              		.align	2
 2071              		.global	startSeq
ARM GAS  C:\Users\cring\AppData\Local\Temp\ccSaPXYf.s 			page 47


 2072              		.thumb
 2073              		.thumb_func
 2074              		.type	startSeq, %function
 2075              	startSeq:
 2076              	.LFB87:
 423:LEDcontrol.c  **** 
 424:LEDcontrol.c  **** int startSeq(LEDctrl *rgbLED_1, LEDctrl *rgbLED_2) //Start sekvens
 425:LEDcontrol.c  **** {
 2077              		.loc 1 425 0
 2078              		.cfi_startproc
 2079              		@ args = 0, pretend = 0, frame = 0
 2080              		@ frame_needed = 0, uses_anonymous_args = 0
 2081              	.LVL223:
 2082 0000 2DE9F04B 		push	{r4, r5, r6, r7, r8, r9, fp, lr}
 2083              		.cfi_def_cfa_offset 32
 2084              		.cfi_offset 4, -32
 2085              		.cfi_offset 5, -28
 2086              		.cfi_offset 6, -24
 2087              		.cfi_offset 7, -20
 2088              		.cfi_offset 8, -16
 2089              		.cfi_offset 9, -12
 2090              		.cfi_offset 11, -8
 2091              		.cfi_offset 14, -4
 2092 0004 84B0     		sub	sp, sp, #16
 2093              		.cfi_def_cfa_offset 48
 2094 0006 8046     		mov	r8, r0
 2095 0008 8B46     		mov	fp, r1
 426:LEDcontrol.c  ****     LEDOff(rgbLED_1);
 2096              		.loc 1 426 0
 2097 000a FFF7FEFF 		bl	LEDOff
 2098              	.LVL224:
 427:LEDcontrol.c  ****     LEDOff(rgbLED_2);
 2099              		.loc 1 427 0
 2100 000e 5846     		mov	r0, fp
 2101 0010 FFF7FEFF 		bl	LEDOff
 2102              	.LVL225:
 428:LEDcontrol.c  ****     switch (count2)
 2103              		.loc 1 428 0
 2104 0014 424B     		ldr	r3, .L169+8
 2105 0016 9C69     		ldr	r4, [r3, #24]
 2106 0018 042C     		cmp	r4, #4
 2107 001a 76D8     		bhi	.L167
 2108 001c DFE804F0 		tbb	[pc, r4]
 2109              	.L162:
 2110 0020 03       		.byte	(.L161-.L162)/2
 2111 0021 20       		.byte	(.L163-.L162)/2
 2112 0022 3A       		.byte	(.L164-.L162)/2
 2113 0023 54       		.byte	(.L165-.L162)/2
 2114 0024 6E       		.byte	(.L166-.L162)/2
 2115 0025 00       		.p2align 1
 2116              	.L161:
 429:LEDcontrol.c  ****     {
 430:LEDcontrol.c  ****         case 0:
 431:LEDcontrol.c  ****         {
 432:LEDcontrol.c  ****             fillcolor(3, 1.0, 0.83, rgbLED_1);
 2117              		.loc 1 432 0
 2118 0026 0026     		movs	r6, #0
ARM GAS  C:\Users\cring\AppData\Local\Temp\ccSaPXYf.s 			page 48


 2119 0028 3E4F     		ldr	r7, .L169+12
 2120 002a CDF80880 		str	r8, [sp, #8]
 2121 002e 0FF2E809 		adr	r9, .L169
 2122 0032 D9E90089 		ldrd	r8, [r9]
 2123              	.LVL226:
 2124 0036 CDE90089 		strd	r8, [sp]
 2125 003a 3246     		mov	r2, r6
 2126 003c 3B46     		mov	r3, r7
 2127 003e 0020     		movs	r0, #0
 2128 0040 3949     		ldr	r1, .L169+16
 2129 0042 FFF7FEFF 		bl	fillcolor
 2130              	.LVL227:
 433:LEDcontrol.c  ****             fillcolor(3, 1.0, 0.83, rgbLED_2);
 2131              		.loc 1 433 0
 2132 0046 CDF808B0 		str	fp, [sp, #8]
 2133 004a CDE90089 		strd	r8, [sp]
 2134 004e 3246     		mov	r2, r6
 2135 0050 3B46     		mov	r3, r7
 2136 0052 0020     		movs	r0, #0
 2137 0054 3449     		ldr	r1, .L169+16
 2138 0056 FFF7FEFF 		bl	fillcolor
 2139              	.LVL228:
 434:LEDcontrol.c  ****             Timer5_Start();
 2140              		.loc 1 434 0
 2141 005a FFF7FEFF 		bl	Timer5_Start
 2142              	.LVL229:
 435:LEDcontrol.c  ****         }
 436:LEDcontrol.c  ****         break;
 2143              		.loc 1 436 0
 2144 005e 55E0     		b	.L160
 2145              	.LVL230:
 2146              	.L163:
 437:LEDcontrol.c  ****         case 1:
 438:LEDcontrol.c  ****         {
 439:LEDcontrol.c  ****             fillcolor(65, 1, 1, rgbLED_1);
 2147              		.loc 1 439 0
 2148 0060 0024     		movs	r4, #0
 2149 0062 304D     		ldr	r5, .L169+12
 2150 0064 0026     		movs	r6, #0
 2151 0066 314F     		ldr	r7, .L169+20
 2152 0068 CDF80880 		str	r8, [sp, #8]
 2153 006c CDE90045 		strd	r4, [sp]
 2154 0070 2246     		mov	r2, r4
 2155 0072 2B46     		mov	r3, r5
 2156 0074 3046     		mov	r0, r6
 2157 0076 3946     		mov	r1, r7
 2158 0078 FFF7FEFF 		bl	fillcolor
 2159              	.LVL231:
 440:LEDcontrol.c  ****             fillcolor(65, 1, 1, rgbLED_2);
 2160              		.loc 1 440 0
 2161 007c CDF808B0 		str	fp, [sp, #8]
 2162 0080 CDE90045 		strd	r4, [sp]
 2163 0084 2246     		mov	r2, r4
 2164 0086 2B46     		mov	r3, r5
 2165 0088 3046     		mov	r0, r6
 2166 008a 3946     		mov	r1, r7
 2167 008c FFF7FEFF 		bl	fillcolor
ARM GAS  C:\Users\cring\AppData\Local\Temp\ccSaPXYf.s 			page 49


 2168              	.LVL232:
 441:LEDcontrol.c  ****         }
 442:LEDcontrol.c  ****         break;
 443:LEDcontrol.c  ****         case 2:
 444:LEDcontrol.c  ****         {
 445:LEDcontrol.c  ****             fillcolor(65, 1, 1, rgbLED_1);
 446:LEDcontrol.c  ****             fillcolor(65, 1, 1, rgbLED_2);
 447:LEDcontrol.c  ****         }
 448:LEDcontrol.c  ****         break;
 449:LEDcontrol.c  ****         case 3:
 450:LEDcontrol.c  ****         {
 451:LEDcontrol.c  ****             fillcolor(116, 1, 1.0, rgbLED_1);
 452:LEDcontrol.c  ****             fillcolor(116, 1, 1.0, rgbLED_2);
 453:LEDcontrol.c  ****         }
 454:LEDcontrol.c  ****         break;
 455:LEDcontrol.c  ****         case 4:
 456:LEDcontrol.c  ****         {
 457:LEDcontrol.c  ****             Timer5_Stop();
 458:LEDcontrol.c  ****             count = 0;
 459:LEDcontrol.c  ****             return 1;
 460:LEDcontrol.c  ****         }
 461:LEDcontrol.c  ****         break;
 462:LEDcontrol.c  ****     }
 463:LEDcontrol.c  ****     return 0;
 2169              		.loc 1 463 0
 2170 0090 0024     		movs	r4, #0
 442:LEDcontrol.c  ****         case 2:
 2171              		.loc 1 442 0
 2172 0092 3BE0     		b	.L160
 2173              	.L164:
 445:LEDcontrol.c  ****             fillcolor(65, 1, 1, rgbLED_2);
 2174              		.loc 1 445 0
 2175 0094 0024     		movs	r4, #0
 2176 0096 234D     		ldr	r5, .L169+12
 2177 0098 0026     		movs	r6, #0
 2178 009a 244F     		ldr	r7, .L169+20
 2179 009c CDF80880 		str	r8, [sp, #8]
 2180 00a0 CDE90045 		strd	r4, [sp]
 2181 00a4 2246     		mov	r2, r4
 2182 00a6 2B46     		mov	r3, r5
 2183 00a8 3046     		mov	r0, r6
 2184 00aa 3946     		mov	r1, r7
 2185 00ac FFF7FEFF 		bl	fillcolor
 2186              	.LVL233:
 446:LEDcontrol.c  ****         }
 2187              		.loc 1 446 0
 2188 00b0 CDF808B0 		str	fp, [sp, #8]
 2189 00b4 CDE90045 		strd	r4, [sp]
 2190 00b8 2246     		mov	r2, r4
 2191 00ba 2B46     		mov	r3, r5
 2192 00bc 3046     		mov	r0, r6
 2193 00be 3946     		mov	r1, r7
 2194 00c0 FFF7FEFF 		bl	fillcolor
 2195              	.LVL234:
 2196              		.loc 1 463 0
 2197 00c4 0024     		movs	r4, #0
 448:LEDcontrol.c  ****         case 3:
ARM GAS  C:\Users\cring\AppData\Local\Temp\ccSaPXYf.s 			page 50


 2198              		.loc 1 448 0
 2199 00c6 21E0     		b	.L160
 2200              	.L165:
 451:LEDcontrol.c  ****             fillcolor(116, 1, 1.0, rgbLED_2);
 2201              		.loc 1 451 0
 2202 00c8 0024     		movs	r4, #0
 2203 00ca 164D     		ldr	r5, .L169+12
 2204 00cc 0026     		movs	r6, #0
 2205 00ce 184F     		ldr	r7, .L169+24
 2206 00d0 CDF80880 		str	r8, [sp, #8]
 2207 00d4 CDE90045 		strd	r4, [sp]
 2208 00d8 2246     		mov	r2, r4
 2209 00da 2B46     		mov	r3, r5
 2210 00dc 3046     		mov	r0, r6
 2211 00de 3946     		mov	r1, r7
 2212 00e0 FFF7FEFF 		bl	fillcolor
 2213              	.LVL235:
 452:LEDcontrol.c  ****         }
 2214              		.loc 1 452 0
 2215 00e4 CDF808B0 		str	fp, [sp, #8]
 2216 00e8 CDE90045 		strd	r4, [sp]
 2217 00ec 2246     		mov	r2, r4
 2218 00ee 2B46     		mov	r3, r5
 2219 00f0 3046     		mov	r0, r6
 2220 00f2 3946     		mov	r1, r7
 2221 00f4 FFF7FEFF 		bl	fillcolor
 2222              	.LVL236:
 2223              		.loc 1 463 0
 2224 00f8 0024     		movs	r4, #0
 454:LEDcontrol.c  ****         case 4:
 2225              		.loc 1 454 0
 2226 00fa 07E0     		b	.L160
 2227              	.L166:
 457:LEDcontrol.c  ****             count = 0;
 2228              		.loc 1 457 0
 2229 00fc FFF7FEFF 		bl	Timer5_Stop
 2230              	.LVL237:
 458:LEDcontrol.c  ****             return 1;
 2231              		.loc 1 458 0
 2232 0100 0022     		movs	r2, #0
 2233 0102 074B     		ldr	r3, .L169+8
 2234 0104 9A60     		str	r2, [r3, #8]
 459:LEDcontrol.c  ****         }
 2235              		.loc 1 459 0
 2236 0106 0124     		movs	r4, #1
 2237 0108 00E0     		b	.L160
 2238              	.L167:
 2239              		.loc 1 463 0
 2240 010a 0024     		movs	r4, #0
 2241              	.LVL238:
 2242              	.L160:
 464:LEDcontrol.c  **** }
 2243              		.loc 1 464 0
 2244 010c 2046     		mov	r0, r4
 2245 010e 04B0     		add	sp, sp, #16
 2246              		.cfi_def_cfa_offset 32
 2247              		@ sp needed
ARM GAS  C:\Users\cring\AppData\Local\Temp\ccSaPXYf.s 			page 51


 2248 0110 BDE8F08B 		pop	{r4, r5, r6, r7, r8, r9, fp, pc}
 2249              	.LVL239:
 2250              	.L170:
 2251 0114 AFF30080 		.align	3
 2252              	.L169:
 2253 0118 8FC2F528 		.word	687194767
 2254 011c 5C8FEA3F 		.word	1072336732
 2255 0120 00000000 		.word	.LANCHOR0
 2256 0124 0000F03F 		.word	1072693248
 2257 0128 00000840 		.word	1074266112
 2258 012c 00405040 		.word	1079001088
 2259 0130 00005D40 		.word	1079836672
 2260              		.cfi_endproc
 2261              	.LFE87:
 2262              		.size	startSeq, .-startSeq
 2263              		.section	.text.isr_delay,"ax",%progbits
 2264              		.align	2
 2265              		.global	isr_delay
 2266              		.thumb
 2267              		.thumb_func
 2268              		.type	isr_delay, %function
 2269              	isr_delay:
 2270              	.LFB68:
 128:LEDcontrol.c  ****     count2++;
 2271              		.loc 1 128 0
 2272              		.cfi_startproc
 2273              		@ args = 0, pretend = 0, frame = 0
 2274              		@ frame_needed = 0, uses_anonymous_args = 0
 2275 0000 08B5     		push	{r3, lr}
 2276              		.cfi_def_cfa_offset 8
 2277              		.cfi_offset 3, -8
 2278              		.cfi_offset 14, -4
 129:LEDcontrol.c  ****     startSeq(rgbLED1, rgbLED2);
 2279              		.loc 1 129 0
 2280 0002 044B     		ldr	r3, .L173
 2281 0004 9A69     		ldr	r2, [r3, #24]
 2282 0006 0132     		adds	r2, r2, #1
 2283 0008 9A61     		str	r2, [r3, #24]
 130:LEDcontrol.c  **** }
 2284              		.loc 1 130 0
 2285 000a 5968     		ldr	r1, [r3, #4]
 2286 000c 1868     		ldr	r0, [r3]
 2287 000e FFF7FEFF 		bl	startSeq
 2288              	.LVL240:
 2289 0012 08BD     		pop	{r3, pc}
 2290              	.L174:
 2291              		.align	2
 2292              	.L173:
 2293 0014 00000000 		.word	.LANCHOR0
 2294              		.cfi_endproc
 2295              	.LFE68:
 2296              		.size	isr_delay, .-isr_delay
 2297              		.section	.text.errorSeq,"ax",%progbits
 2298              		.align	2
 2299              		.global	errorSeq
 2300              		.thumb
 2301              		.thumb_func
ARM GAS  C:\Users\cring\AppData\Local\Temp\ccSaPXYf.s 			page 52


 2302              		.type	errorSeq, %function
 2303              	errorSeq:
 2304              	.LFB88:
 465:LEDcontrol.c  **** 
 466:LEDcontrol.c  **** void errorSeq(LEDctrl *rgbLED) //Fejl sekvens
 467:LEDcontrol.c  **** {
 2305              		.loc 1 467 0
 2306              		.cfi_startproc
 2307              		@ args = 0, pretend = 0, frame = 0
 2308              		@ frame_needed = 0, uses_anonymous_args = 0
 2309              	.LVL241:
 2310 0000 00B5     		push	{lr}
 2311              		.cfi_def_cfa_offset 4
 2312              		.cfi_offset 14, -4
 2313 0002 85B0     		sub	sp, sp, #20
 2314              		.cfi_def_cfa_offset 24
 468:LEDcontrol.c  ****     BlinkLED(3, 1.0, 0.83, rgbLED);
 2315              		.loc 1 468 0
 2316 0004 0290     		str	r0, [sp, #8]
 2317 0006 08A3     		adr	r3, .L177
 2318 0008 D3E90023 		ldrd	r2, [r3]
 2319 000c CDE90023 		strd	r2, [sp]
 2320 0010 0022     		movs	r2, #0
 2321 0012 074B     		ldr	r3, .L177+8
 2322 0014 0020     		movs	r0, #0
 2323              	.LVL242:
 2324 0016 0749     		ldr	r1, .L177+12
 2325 0018 FFF7FEFF 		bl	BlinkLED
 2326              	.LVL243:
 469:LEDcontrol.c  **** }
 2327              		.loc 1 469 0
 2328 001c 05B0     		add	sp, sp, #20
 2329              		.cfi_def_cfa_offset 4
 2330              		@ sp needed
 2331 001e 5DF804FB 		ldr	pc, [sp], #4
 2332              	.L178:
 2333 0022 00BFAFF3 		.align	3
 2333      0080
 2334              	.L177:
 2335 0028 8FC2F528 		.word	687194767
 2336 002c 5C8FEA3F 		.word	1072336732
 2337 0030 0000F03F 		.word	1072693248
 2338 0034 00000840 		.word	1074266112
 2339              		.cfi_endproc
 2340              	.LFE88:
 2341              		.size	errorSeq, .-errorSeq
 2342              		.section	.text.winnerSeq,"ax",%progbits
 2343              		.align	2
 2344              		.global	winnerSeq
 2345              		.thumb
 2346              		.thumb_func
 2347              		.type	winnerSeq, %function
 2348              	winnerSeq:
 2349              	.LFB89:
 470:LEDcontrol.c  **** 
 471:LEDcontrol.c  **** void winnerSeq(LEDctrl *rgbLED)   //Vindersekvens
 472:LEDcontrol.c  **** {
ARM GAS  C:\Users\cring\AppData\Local\Temp\ccSaPXYf.s 			page 53


 2350              		.loc 1 472 0
 2351              		.cfi_startproc
 2352              		@ args = 0, pretend = 0, frame = 0
 2353              		@ frame_needed = 0, uses_anonymous_args = 0
 2354              	.LVL244:
 2355 0000 10B5     		push	{r4, lr}
 2356              		.cfi_def_cfa_offset 8
 2357              		.cfi_offset 4, -8
 2358              		.cfi_offset 14, -4
 2359 0002 84B0     		sub	sp, sp, #16
 2360              		.cfi_def_cfa_offset 24
 2361 0004 0446     		mov	r4, r0
 473:LEDcontrol.c  ****     LEDOff(rgbLED);
 2362              		.loc 1 473 0
 2363 0006 FFF7FEFF 		bl	LEDOff
 2364              	.LVL245:
 474:LEDcontrol.c  ****     fillcolor(116, 1, 1.0, rgbLED);
 2365              		.loc 1 474 0
 2366 000a 0022     		movs	r2, #0
 2367 000c 044B     		ldr	r3, .L181
 2368 000e 0294     		str	r4, [sp, #8]
 2369 0010 CDE90023 		strd	r2, [sp]
 2370 0014 0020     		movs	r0, #0
 2371 0016 0349     		ldr	r1, .L181+4
 2372 0018 FFF7FEFF 		bl	fillcolor
 2373              	.LVL246:
 475:LEDcontrol.c  **** }
 2374              		.loc 1 475 0
 2375 001c 04B0     		add	sp, sp, #16
 2376              		.cfi_def_cfa_offset 8
 2377              		@ sp needed
 2378 001e 10BD     		pop	{r4, pc}
 2379              	.LVL247:
 2380              	.L182:
 2381              		.align	2
 2382              	.L181:
 2383 0020 0000F03F 		.word	1072693248
 2384 0024 00005D40 		.word	1079836672
 2385              		.cfi_endproc
 2386              	.LFE89:
 2387              		.size	winnerSeq, .-winnerSeq
 2388              		.global	rgbLED2
 2389              		.global	rgbLED1
 2390              		.data
 2391              		.align	2
 2392              		.set	.LANCHOR1,. + 0
 2393              		.type	index2, %object
 2394              		.size	index2, 4
 2395              	index2:
 2396 0000 0000803F 		.word	1065353216
 2397              		.bss
 2398              		.align	2
 2399              		.set	.LANCHOR0,. + 0
 2400              		.type	rgbLED1, %object
 2401              		.size	rgbLED1, 4
 2402              	rgbLED1:
 2403 0000 00000000 		.space	4
ARM GAS  C:\Users\cring\AppData\Local\Temp\ccSaPXYf.s 			page 54


 2404              		.type	rgbLED2, %object
 2405              		.size	rgbLED2, 4
 2406              	rgbLED2:
 2407 0004 00000000 		.space	4
 2408              		.type	count, %object
 2409              		.size	count, 4
 2410              	count:
 2411 0008 00000000 		.space	4
 2412              		.type	count3, %object
 2413              		.size	count3, 4
 2414              	count3:
 2415 000c 00000000 		.space	4
 2416              		.type	index_, %object
 2417              		.size	index_, 4
 2418              	index_:
 2419 0010 00000000 		.space	4
 2420              		.type	pulselength_, %object
 2421              		.size	pulselength_, 4
 2422              	pulselength_:
 2423 0014 00000000 		.space	4
 2424              		.type	count2, %object
 2425              		.size	count2, 4
 2426              	count2:
 2427 0018 00000000 		.space	4
 2428              		.text
 2429              	.Letext0:
 2430              		.file 2 "d:\\psoc\\psoc creator\\4.3\\psoc creator\\import\\gnu\\arm\\5.4.1\\arm-none-eabi\\includ
 2431              		.file 3 "d:\\psoc\\psoc creator\\4.3\\psoc creator\\import\\gnu\\arm\\5.4.1\\arm-none-eabi\\includ
 2432              		.file 4 "LEDcontrol.h"
 2433              		.file 5 "Generated_Source\\PSoC5/core_cm3.h"
 2434              		.file 6 "Generated_Source\\PSoC5/Timer1.h"
 2435              		.file 7 "Generated_Source\\PSoC5/isr_LED_refreshrate.h"
 2436              		.file 8 "Generated_Source\\PSoC5/isr_LED_ring.h"
 2437              		.file 9 "Generated_Source\\PSoC5/isr_LED_pulse.h"
 2438              		.file 10 "Generated_Source\\PSoC5/isr_BlinkLED.h"
 2439              		.file 11 "Generated_Source\\PSoC5/isr_delay.h"
 2440              		.file 12 "Generated_Source\\PSoC5/SPIM_1.h"
 2441              		.file 13 "Generated_Source\\PSoC5/Timer2.h"
 2442              		.file 14 "Generated_Source\\PSoC5/Timer3.h"
 2443              		.file 15 "Generated_Source\\PSoC5/Timer4.h"
 2444              		.file 16 "Generated_Source\\PSoC5/SPIMOutCtrl.h"
 2445              		.file 17 "Generated_Source\\PSoC5/CyLib.h"
 2446              		.file 18 "Generated_Source\\PSoC5/Timer5.h"