ARM GAS  C:\Users\cring\AppData\Local\Temp\ccSaPXYf.s 			page 1


   1              		.syntax unified
   2              		.cpu cortex-m3
   3              		.fpu softvfp
   4              		.eabi_attribute 20, 1
   5              		.eabi_attribute 21, 1
   6              		.eabi_attribute 23, 3
   7              		.eabi_attribute 24, 1
   8              		.eabi_attribute 25, 1
   9              		.eabi_attribute 26, 1
  10              		.eabi_attribute 30, 1
  11              		.eabi_attribute 34, 1
  12              		.eabi_attribute 18, 4
  13              		.thumb
  14              		.syntax unified
  15              		.file	"LEDcontrol.c"
  16              		.text
  17              	.Ltext0:
  18              		.cfi_sections	.debug_frame
  19              		.global	__aeabi_i2f
  20              		.global	__aeabi_fdiv
  21              		.global	__aeabi_fmul
  22              		.global	__aeabi_f2iz
  23              		.section	.text.setrefreshrate,"ax",%progbits
  24              		.align	2
  25              		.global	setrefreshrate
  26              		.thumb
  27              		.thumb_func
  28              		.type	setrefreshrate, %function
  29              	setrefreshrate:
  30              	.LFB69:
  31              		.file 1 "LEDcontrol.c"
   1:LEDcontrol.c  **** /* ========================================
   2:LEDcontrol.c  ****  *
   3:LEDcontrol.c  ****  * Copyright YOUR COMPANY, THE YEAR
   4:LEDcontrol.c  ****  * All Rights Reserved
   5:LEDcontrol.c  ****  * UNPUBLISHED, LICENSED SOFTWARE.
   6:LEDcontrol.c  ****  *
   7:LEDcontrol.c  ****  * CONFIDENTIAL AND PROPRIETARY INFORMATION
   8:LEDcontrol.c  ****  * WHICH IS THE PROPERTY OF your company.
   9:LEDcontrol.c  ****  *
  10:LEDcontrol.c  ****  * ========================================
  11:LEDcontrol.c  **** */
  12:LEDcontrol.c  **** 
  13:LEDcontrol.c  **** /* [] END OF FILE */
  14:LEDcontrol.c  **** 
  15:LEDcontrol.c  **** #include "LEDcontrol.h"
  16:LEDcontrol.c  **** 
  17:LEDcontrol.c  **** static int pulselength_ = 0;
  18:LEDcontrol.c  **** static int index_ = 0;
  19:LEDcontrol.c  **** static float index2 = 1;
  20:LEDcontrol.c  **** static int count = 0;
  21:LEDcontrol.c  **** static int count2 = 0;
  22:LEDcontrol.c  **** static int count3 = 0;
  23:LEDcontrol.c  **** 
  24:LEDcontrol.c  **** LEDctrl *rgbLED1 = NULL;
  25:LEDcontrol.c  **** LEDctrl *rgbLED2 = NULL;
  26:LEDcontrol.c  **** 
ARM GAS  C:\Users\cring\AppData\Local\Temp\ccSaPXYf.s 			page 2


  27:LEDcontrol.c  **** 
  28:LEDcontrol.c  **** CY_ISR(isr_refreshrate)
  29:LEDcontrol.c  **** {
  30:LEDcontrol.c  ****     if (rgbLED1 != NULL)
  31:LEDcontrol.c  ****     {
  32:LEDcontrol.c  ****     UpdateLED(rgbLED1);
  33:LEDcontrol.c  ****     }
  34:LEDcontrol.c  ****     CyDelayUs(200);
  35:LEDcontrol.c  ****     if (rgbLED2 != NULL)
  36:LEDcontrol.c  ****     {
  37:LEDcontrol.c  ****     UpdateLED(rgbLED2);
  38:LEDcontrol.c  ****     }
  39:LEDcontrol.c  **** }
  40:LEDcontrol.c  **** 
  41:LEDcontrol.c  **** CY_ISR(isr_LED_ring)
  42:LEDcontrol.c  **** {
  43:LEDcontrol.c  ****     if((rgbLED1->ring == 0) && (rgbLED2->ring == 0)) return;
  44:LEDcontrol.c  ****     if(rgbLED1->ring == 1) fillcolor(0,0,0,rgbLED1);
  45:LEDcontrol.c  ****     if(rgbLED2->ring == 1) fillcolor(0,0,0,rgbLED2);
  46:LEDcontrol.c  ****     
  47:LEDcontrol.c  ****         for(int i2 = index_; i2 < pulselength_+index_; i2++)
  48:LEDcontrol.c  ****         {
  49:LEDcontrol.c  ****             if(rgbLED1->ring == 1)
  50:LEDcontrol.c  ****             {
  51:LEDcontrol.c  ****                 int x = i2 >= rgbLED1->LEDlength ? i2 - rgbLED1->LEDlength : i2;
  52:LEDcontrol.c  ****                 setcolorLED((rgbLED1 + x)->h, (rgbLED1 + x)->s, (rgbLED1 + x)->v, x, rgbLED1);
  53:LEDcontrol.c  ****             }
  54:LEDcontrol.c  ****             if(rgbLED2->ring == 1)
  55:LEDcontrol.c  ****             {
  56:LEDcontrol.c  ****                 int x = i2 >= rgbLED2->LEDlength ? i2 - rgbLED2->LEDlength : i2;
  57:LEDcontrol.c  ****                 setcolorLED((rgbLED2 + x)->h, (rgbLED2 + x)->s, (rgbLED2 + x)->v, x, rgbLED2);  
  58:LEDcontrol.c  ****             }
  59:LEDcontrol.c  ****         }
  60:LEDcontrol.c  ****     if (rgbLED1 != NULL)
  61:LEDcontrol.c  ****     {
  62:LEDcontrol.c  ****         index_ = index_ < (rgbLED1->LEDlength-1) ? index_ + 1 : 0;
  63:LEDcontrol.c  ****         return;
  64:LEDcontrol.c  ****     }else if (rgbLED2 != NULL){
  65:LEDcontrol.c  ****         index_ = index_ < (rgbLED2->LEDlength-1) ? index_ + 1 : 0;
  66:LEDcontrol.c  ****     }
  67:LEDcontrol.c  **** }
  68:LEDcontrol.c  **** 
  69:LEDcontrol.c  **** CY_ISR(isr_LED_pulse)
  70:LEDcontrol.c  **** {
  71:LEDcontrol.c  ****     
  72:LEDcontrol.c  ****     if(count == 0)
  73:LEDcontrol.c  ****     {
  74:LEDcontrol.c  ****         if (rgbLED1->pulse == 1)fillcolor(rgbLED1->h,rgbLED1->s,index2, rgbLED1);
  75:LEDcontrol.c  ****         if (rgbLED2->pulse == 1)fillcolor(rgbLED2->h,rgbLED2->s,index2, rgbLED2);
  76:LEDcontrol.c  ****         index2 = index2-0.01;
  77:LEDcontrol.c  ****         if (index2 < 0)count = 1;
  78:LEDcontrol.c  ****     }else if(count == 1){
  79:LEDcontrol.c  ****         if (rgbLED1->pulse == 1)fillcolor(rgbLED1->h,rgbLED1->s,index2, rgbLED1);
  80:LEDcontrol.c  ****         if (rgbLED2->pulse == 1)fillcolor(rgbLED2->h,rgbLED2->s,index2, rgbLED2);
  81:LEDcontrol.c  ****         index2 = index2+0.01;
  82:LEDcontrol.c  ****         if (index2 == 1)count = 0;
  83:LEDcontrol.c  ****     }
ARM GAS  C:\Users\cring\AppData\Local\Temp\ccSaPXYf.s 			page 3


  84:LEDcontrol.c  ****     
  85:LEDcontrol.c  **** }
  86:LEDcontrol.c  **** 
  87:LEDcontrol.c  **** CY_ISR(isr_BlinkLED)
  88:LEDcontrol.c  **** {
  89:LEDcontrol.c  ****     if(rgbLED1->blink == 1)
  90:LEDcontrol.c  ****     {
  91:LEDcontrol.c  ****         switch (count3)
  92:LEDcontrol.c  ****         {
  93:LEDcontrol.c  ****             case 0:
  94:LEDcontrol.c  ****             {
  95:LEDcontrol.c  ****                 fillcolor(rgbLED1->h, rgbLED1->s,1, rgbLED1);
  96:LEDcontrol.c  ****                 count3++;
  97:LEDcontrol.c  ****             }
  98:LEDcontrol.c  ****             break;
  99:LEDcontrol.c  ****             case 1:
 100:LEDcontrol.c  ****             {
 101:LEDcontrol.c  ****                 fillcolor(rgbLED1->h, rgbLED1->s,0, rgbLED1);
 102:LEDcontrol.c  ****                 count3 = 0;
 103:LEDcontrol.c  ****             }
 104:LEDcontrol.c  ****             break;
 105:LEDcontrol.c  ****         }
 106:LEDcontrol.c  ****     }
 107:LEDcontrol.c  ****     if(rgbLED2->blink == 1)
 108:LEDcontrol.c  ****     {
 109:LEDcontrol.c  ****         switch (count3)
 110:LEDcontrol.c  ****         {
 111:LEDcontrol.c  ****             case 0:
 112:LEDcontrol.c  ****             {
 113:LEDcontrol.c  ****                 fillcolor(rgbLED2->h, rgbLED2->s,1, rgbLED2);
 114:LEDcontrol.c  ****                 count3++;
 115:LEDcontrol.c  ****             }
 116:LEDcontrol.c  ****             break;
 117:LEDcontrol.c  ****             case 1:
 118:LEDcontrol.c  ****             {
 119:LEDcontrol.c  ****                 fillcolor(rgbLED2->h, rgbLED2->s,0, rgbLED2);
 120:LEDcontrol.c  ****                 count3 = 0;
 121:LEDcontrol.c  ****             }
 122:LEDcontrol.c  ****             break;
 123:LEDcontrol.c  ****         }
 124:LEDcontrol.c  ****     }
 125:LEDcontrol.c  **** }
 126:LEDcontrol.c  **** 
 127:LEDcontrol.c  **** CY_ISR(isr_delay)
 128:LEDcontrol.c  **** {
 129:LEDcontrol.c  ****     count2++;
 130:LEDcontrol.c  ****     startSeq(rgbLED1, rgbLED2);
 131:LEDcontrol.c  **** }
 132:LEDcontrol.c  **** 
 133:LEDcontrol.c  **** void setrefreshrate(int Hz)
 134:LEDcontrol.c  **** {
  32              		.loc 1 134 0
  33              		.cfi_startproc
  34              		@ args = 0, pretend = 0, frame = 0
  35              		@ frame_needed = 0, uses_anonymous_args = 0
  36              	.LVL0:
  37 0000 08B5     		push	{r3, lr}
ARM GAS  C:\Users\cring\AppData\Local\Temp\ccSaPXYf.s 			page 4


  38              		.cfi_def_cfa_offset 8
  39              		.cfi_offset 3, -8
  40              		.cfi_offset 14, -4
 135:LEDcontrol.c  ****     Hz = 1/(float)Hz*1000*10;
  41              		.loc 1 135 0
  42 0002 FFF7FEFF 		bl	__aeabi_i2f
  43              	.LVL1:
  44 0006 0146     		mov	r1, r0
  45 0008 4FF07E50 		mov	r0, #1065353216
  46 000c FFF7FEFF 		bl	__aeabi_fdiv
  47              	.LVL2:
  48 0010 0549     		ldr	r1, .L3
  49 0012 FFF7FEFF 		bl	__aeabi_fmul
  50              	.LVL3:
  51 0016 0549     		ldr	r1, .L3+4
  52 0018 FFF7FEFF 		bl	__aeabi_fmul
  53              	.LVL4:
  54 001c FFF7FEFF 		bl	__aeabi_f2iz
  55              	.LVL5:
 136:LEDcontrol.c  ****     Timer1_WritePeriod(Hz);
  56              		.loc 1 136 0
  57 0020 80B2     		uxth	r0, r0
  58              	.LVL6:
  59 0022 FFF7FEFF 		bl	Timer1_WritePeriod
  60              	.LVL7:
  61 0026 08BD     		pop	{r3, pc}
  62              	.L4:
  63              		.align	2
  64              	.L3:
  65 0028 00007A44 		.word	1148846080
  66 002c 00002041 		.word	1092616192
  67              		.cfi_endproc
  68              	.LFE69:
  69              		.size	setrefreshrate, .-setrefreshrate
  70              		.section	.text.initLED,"ax",%progbits
  71              		.align	2
  72              		.global	initLED
  73              		.thumb
  74              		.thumb_func
  75              		.type	initLED, %function
  76              	initLED:
  77              	.LFB71:
 137:LEDcontrol.c  **** }
 138:LEDcontrol.c  **** 
 139:LEDcontrol.c  **** void addLEDstrip(int LEDlength_, LEDctrl *rgbLED_, int strip)
 140:LEDcontrol.c  **** {
 141:LEDcontrol.c  ****     if (strip == 1)
 142:LEDcontrol.c  ****     {
 143:LEDcontrol.c  ****         rgbLED1 = rgbLED_;
 144:LEDcontrol.c  ****     }else{
 145:LEDcontrol.c  ****         rgbLED2 = rgbLED_;
 146:LEDcontrol.c  ****     }
 147:LEDcontrol.c  ****     
 148:LEDcontrol.c  ****     rgbLED_->LEDlength = LEDlength_;
 149:LEDcontrol.c  ****     rgbLED_->pin = strip;
 150:LEDcontrol.c  ****     LEDOff(rgbLED_);
 151:LEDcontrol.c  ****     
ARM GAS  C:\Users\cring\AppData\Local\Temp\ccSaPXYf.s 			page 5


 152:LEDcontrol.c  ****     for(int i = 0; i < rgbLED_->LEDlength; i++)
 153:LEDcontrol.c  ****     {
 154:LEDcontrol.c  ****         setcolorLED(0,0,0,i, rgbLED_);
 155:LEDcontrol.c  ****     }
 156:LEDcontrol.c  **** }
 157:LEDcontrol.c  **** 
 158:LEDcontrol.c  **** void initLED(int Hz)
 159:LEDcontrol.c  **** {    
  78              		.loc 1 159 0
  79              		.cfi_startproc
  80              		@ args = 0, pretend = 0, frame = 0
  81              		@ frame_needed = 0, uses_anonymous_args = 0
  82              	.LVL8:
  83 0000 10B5     		push	{r4, lr}
  84              		.cfi_def_cfa_offset 8
  85              		.cfi_offset 4, -8
  86              		.cfi_offset 14, -4
  87 0002 0446     		mov	r4, r0
 160:LEDcontrol.c  ****     isr_LED_refreshrate_StartEx(isr_refreshrate);
  88              		.loc 1 160 0
  89 0004 0E48     		ldr	r0, .L7
  90              	.LVL9:
  91 0006 FFF7FEFF 		bl	isr_LED_refreshrate_StartEx
  92              	.LVL10:
 161:LEDcontrol.c  ****     isr_LED_ring_StartEx(isr_LED_ring);
  93              		.loc 1 161 0
  94 000a 0E48     		ldr	r0, .L7+4
  95 000c FFF7FEFF 		bl	isr_LED_ring_StartEx
  96              	.LVL11:
 162:LEDcontrol.c  ****     isr_LED_pulse_StartEx(isr_LED_pulse);
  97              		.loc 1 162 0
  98 0010 0D48     		ldr	r0, .L7+8
  99 0012 FFF7FEFF 		bl	isr_LED_pulse_StartEx
 100              	.LVL12:
 163:LEDcontrol.c  ****     isr_BlinkLED_StartEx(isr_BlinkLED);
 101              		.loc 1 163 0
 102 0016 0D48     		ldr	r0, .L7+12
 103 0018 FFF7FEFF 		bl	isr_BlinkLED_StartEx
 104              	.LVL13:
 164:LEDcontrol.c  ****     isr_delay_StartEx(isr_delay);
 105              		.loc 1 164 0
 106 001c 0C48     		ldr	r0, .L7+16
 107 001e FFF7FEFF 		bl	isr_delay_StartEx
 108              	.LVL14:
 165:LEDcontrol.c  ****     
 166:LEDcontrol.c  ****     SPIM_1_Start();
 109              		.loc 1 166 0
 110 0022 FFF7FEFF 		bl	SPIM_1_Start
 111              	.LVL15:
 167:LEDcontrol.c  ****     Timer1_Start();
 112              		.loc 1 167 0
 113 0026 FFF7FEFF 		bl	Timer1_Start
 114              	.LVL16:
 168:LEDcontrol.c  ****     Timer2_Start();
 115              		.loc 1 168 0
 116 002a FFF7FEFF 		bl	Timer2_Start
 117              	.LVL17:
ARM GAS  C:\Users\cring\AppData\Local\Temp\ccSaPXYf.s 			page 6


 169:LEDcontrol.c  ****     Timer3_Start();
 118              		.loc 1 169 0
 119 002e FFF7FEFF 		bl	Timer3_Start
 120              	.LVL18:
 170:LEDcontrol.c  ****     Timer4_Start();
 121              		.loc 1 170 0
 122 0032 FFF7FEFF 		bl	Timer4_Start
 123              	.LVL19:
 171:LEDcontrol.c  ****     
 172:LEDcontrol.c  ****     setrefreshrate(Hz);
 124              		.loc 1 172 0
 125 0036 2046     		mov	r0, r4
 126 0038 FFF7FEFF 		bl	setrefreshrate
 127              	.LVL20:
 128 003c 10BD     		pop	{r4, pc}
 129              	.LVL21:
 130              	.L8:
 131 003e 00BF     		.align	2
 132              	.L7:
 133 0040 00000000 		.word	isr_refreshrate
 134 0044 00000000 		.word	isr_LED_ring
 135 0048 00000000 		.word	isr_LED_pulse
 136 004c 00000000 		.word	isr_BlinkLED
 137 0050 00000000 		.word	isr_delay
 138              		.cfi_endproc
 139              	.LFE71:
 140              		.size	initLED, .-initLED
 141              		.section	.text.setspeed,"ax",%progbits
 142              		.align	2
 143              		.global	setspeed
 144              		.thumb
 145              		.thumb_func
 146              		.type	setspeed, %function
 147              	setspeed:
 148              	.LFB74:
 173:LEDcontrol.c  **** }
 174:LEDcontrol.c  **** 
 175:LEDcontrol.c  **** 
 176:LEDcontrol.c  **** void fillcolor(double h, double s, double v, LEDctrl *rgbLED)
 177:LEDcontrol.c  **** {
 178:LEDcontrol.c  ****     for(int i = 0; i < rgbLED->LEDlength; i++)
 179:LEDcontrol.c  ****     {
 180:LEDcontrol.c  ****         setcolorLED(h, s, v, i, rgbLED);
 181:LEDcontrol.c  ****     }
 182:LEDcontrol.c  **** }
 183:LEDcontrol.c  **** 
 184:LEDcontrol.c  **** void pulseLED(double h1, double s1, double v1, LEDctrl *rgbLED)
 185:LEDcontrol.c  **** {
 186:LEDcontrol.c  ****     LEDOff(rgbLED);
 187:LEDcontrol.c  ****     rgbLED->pulse = 1;
 188:LEDcontrol.c  ****     
 189:LEDcontrol.c  ****     rgbLED->h = h1;
 190:LEDcontrol.c  ****     rgbLED->s = s1;
 191:LEDcontrol.c  ****     rgbLED->v = v1;
 192:LEDcontrol.c  ****     fillcolor(h1,s1,v1, rgbLED);
 193:LEDcontrol.c  **** }
 194:LEDcontrol.c  **** 
ARM GAS  C:\Users\cring\AppData\Local\Temp\ccSaPXYf.s 			page 7


 195:LEDcontrol.c  **** void setspeed(int ms_ring, int ms_pulse, int ms_blink)
 196:LEDcontrol.c  **** {
 149              		.loc 1 196 0
 150              		.cfi_startproc
 151              		@ args = 0, pretend = 0, frame = 0
 152              		@ frame_needed = 0, uses_anonymous_args = 0
 153              	.LVL22:
 154 0000 38B5     		push	{r3, r4, r5, lr}
 155              		.cfi_def_cfa_offset 16
 156              		.cfi_offset 3, -16
 157              		.cfi_offset 4, -12
 158              		.cfi_offset 5, -8
 159              		.cfi_offset 14, -4
 160 0002 0546     		mov	r5, r0
 161 0004 1446     		mov	r4, r2
 197:LEDcontrol.c  ****     Timer2_WritePeriod(ms_pulse*10);
 162              		.loc 1 197 0
 163 0006 01EB8101 		add	r1, r1, r1, lsl #2
 164              	.LVL23:
 165 000a 4800     		lsls	r0, r1, #1
 166              	.LVL24:
 167 000c 80B2     		uxth	r0, r0
 168 000e FFF7FEFF 		bl	Timer2_WritePeriod
 169              	.LVL25:
 198:LEDcontrol.c  ****     Timer3_WritePeriod(ms_ring*10);
 170              		.loc 1 198 0
 171 0012 05EB8505 		add	r5, r5, r5, lsl #2
 172              	.LVL26:
 173 0016 6800     		lsls	r0, r5, #1
 174 0018 80B2     		uxth	r0, r0
 175 001a FFF7FEFF 		bl	Timer3_WritePeriod
 176              	.LVL27:
 199:LEDcontrol.c  ****     Timer4_WritePeriod(ms_blink*10);
 177              		.loc 1 199 0
 178 001e 04EB8404 		add	r4, r4, r4, lsl #2
 179              	.LVL28:
 180 0022 6000     		lsls	r0, r4, #1
 181 0024 80B2     		uxth	r0, r0
 182 0026 FFF7FEFF 		bl	Timer4_WritePeriod
 183              	.LVL29:
 184 002a 38BD     		pop	{r3, r4, r5, pc}
 185              		.cfi_endproc
 186              	.LFE74:
 187              		.size	setspeed, .-setspeed
 188              		.global	__aeabi_dcmple
 189              		.global	__aeabi_d2iz
 190              		.global	__aeabi_dcmpge
 191              		.global	__aeabi_ddiv
 192              		.global	__aeabi_i2d
 193              		.global	__aeabi_dsub
 194              		.global	__aeabi_dmul
 195              		.global	__aeabi_dcmplt
 196              		.section	.text.hsv2rgb,"ax",%progbits
 197              		.align	2
 198              		.global	hsv2rgb
 199              		.thumb
 200              		.thumb_func
ARM GAS  C:\Users\cring\AppData\Local\Temp\ccSaPXYf.s 			page 8


 201              		.type	hsv2rgb, %function
 202              	hsv2rgb:
 203              	.LFB76:
 200:LEDcontrol.c  **** }
 201:LEDcontrol.c  **** 
 202:LEDcontrol.c  **** void ringLED(int pulselength, double h1, double s1, double v1, LEDctrl *rgbLED)
 203:LEDcontrol.c  **** {
 204:LEDcontrol.c  ****     pulselength_ = pulselength;
 205:LEDcontrol.c  ****     LEDOff(rgbLED);
 206:LEDcontrol.c  ****     rgbLED->ring = 1;
 207:LEDcontrol.c  ****     
 208:LEDcontrol.c  ****     for(int i = 0; i<rgbLED->LEDlength; i++)
 209:LEDcontrol.c  ****     {
 210:LEDcontrol.c  ****         (rgbLED + i)->h = h1;
 211:LEDcontrol.c  ****         (rgbLED + i)->s = s1;
 212:LEDcontrol.c  ****         (rgbLED + i)->v = v1;
 213:LEDcontrol.c  ****     }
 214:LEDcontrol.c  **** }
 215:LEDcontrol.c  **** 
 216:LEDcontrol.c  **** void hsv2rgb(double h, double s, double v, int LED, LEDctrl *rgbLED)
 217:LEDcontrol.c  **** {
 204              		.loc 1 217 0
 205              		.cfi_startproc
 206              		@ args = 16, pretend = 0, frame = 16
 207              		@ frame_needed = 0, uses_anonymous_args = 0
 208              	.LVL30:
 209 0000 2DE9F047 		push	{r4, r5, r6, r7, r8, r9, r10, lr}
 210              		.cfi_def_cfa_offset 32
 211              		.cfi_offset 4, -32
 212              		.cfi_offset 5, -28
 213              		.cfi_offset 6, -24
 214              		.cfi_offset 7, -20
 215              		.cfi_offset 8, -16
 216              		.cfi_offset 9, -12
 217              		.cfi_offset 10, -8
 218              		.cfi_offset 14, -4
 219 0004 84B0     		sub	sp, sp, #16
 220              		.cfi_def_cfa_offset 48
 221 0006 0446     		mov	r4, r0
 222 0008 0D46     		mov	r5, r1
 223 000a 9046     		mov	r8, r2
 224 000c 9946     		mov	r9, r3
 225 000e 0E9E     		ldr	r6, [sp, #56]
 226 0010 DDF83CA0 		ldr	r10, [sp, #60]
 218:LEDcontrol.c  ****     double      hh, p, q, t, ff, r, g, b;
 219:LEDcontrol.c  ****     long        i;
 220:LEDcontrol.c  **** 
 221:LEDcontrol.c  ****     if(s <= 0.0) {       // < is bogus, just shuts up warnings
 227              		.loc 1 221 0
 228 0014 0022     		movs	r2, #0
 229              	.LVL31:
 230 0016 0023     		movs	r3, #0
 231 0018 4046     		mov	r0, r8
 232              	.LVL32:
 233 001a 4946     		mov	r1, r9
 234 001c FFF7FEFF 		bl	__aeabi_dcmple
 235              	.LVL33:
ARM GAS  C:\Users\cring\AppData\Local\Temp\ccSaPXYf.s 			page 9


 236 0020 68B1     		cbz	r0, .L34
 222:LEDcontrol.c  ****         (rgbLED + LED)->green = v;
 237              		.loc 1 222 0
 238 0022 5823     		movs	r3, #88
 239 0024 03FB06F6 		mul	r6, r3, r6
 240 0028 0AEB0604 		add	r4, r10, r6
 241 002c DDE90C01 		ldrd	r0, [sp, #48]
 242 0030 FFF7FEFF 		bl	__aeabi_d2iz
 243              	.LVL34:
 244 0034 6060     		str	r0, [r4, #4]
 223:LEDcontrol.c  ****         (rgbLED + LED)->red = v;
 245              		.loc 1 223 0
 246 0036 4AF80600 		str	r0, [r10, r6]
 224:LEDcontrol.c  ****         (rgbLED + LED)->blue = v;
 247              		.loc 1 224 0
 248 003a A060     		str	r0, [r4, #8]
 225:LEDcontrol.c  ****         return;
 249              		.loc 1 225 0
 250 003c E2E0     		b	.L11
 251              	.L34:
 252              	.LVL35:
 226:LEDcontrol.c  ****     }
 227:LEDcontrol.c  ****     
 228:LEDcontrol.c  ****     hh = h;
 229:LEDcontrol.c  ****     if(hh >= 360.0) hh = 0.0;
 253              		.loc 1 229 0
 254 003e 0022     		movs	r2, #0
 255 0040 724B     		ldr	r3, .L36
 256 0042 2046     		mov	r0, r4
 257 0044 2946     		mov	r1, r5
 258 0046 FFF7FEFF 		bl	__aeabi_dcmpge
 259              	.LVL36:
 260 004a 08B1     		cbz	r0, .L15
 261 004c 0024     		movs	r4, #0
 262              	.LVL37:
 263 004e 0025     		movs	r5, #0
 264              	.L15:
 265              	.LVL38:
 230:LEDcontrol.c  ****     hh /= 60.0;
 266              		.loc 1 230 0
 267 0050 0022     		movs	r2, #0
 268 0052 6F4B     		ldr	r3, .L36+4
 269 0054 2046     		mov	r0, r4
 270 0056 2946     		mov	r1, r5
 271 0058 FFF7FEFF 		bl	__aeabi_ddiv
 272              	.LVL39:
 273 005c 0446     		mov	r4, r0
 274              	.LVL40:
 275 005e 0D46     		mov	r5, r1
 276              	.LVL41:
 231:LEDcontrol.c  ****     i = (long)hh;
 277              		.loc 1 231 0
 278 0060 FFF7FEFF 		bl	__aeabi_d2iz
 279              	.LVL42:
 280 0064 0746     		mov	r7, r0
 281              	.LVL43:
 232:LEDcontrol.c  ****     ff = hh - i;
ARM GAS  C:\Users\cring\AppData\Local\Temp\ccSaPXYf.s 			page 10


 282              		.loc 1 232 0
 283 0066 FFF7FEFF 		bl	__aeabi_i2d
 284              	.LVL44:
 285 006a 0246     		mov	r2, r0
 286 006c 0B46     		mov	r3, r1
 287 006e 2046     		mov	r0, r4
 288 0070 2946     		mov	r1, r5
 289 0072 FFF7FEFF 		bl	__aeabi_dsub
 290              	.LVL45:
 291 0076 0446     		mov	r4, r0
 292              	.LVL46:
 293 0078 0D46     		mov	r5, r1
 294              	.LVL47:
 233:LEDcontrol.c  ****     p = v * (1.0 - s);
 295              		.loc 1 233 0
 296 007a 4246     		mov	r2, r8
 297 007c 4B46     		mov	r3, r9
 298 007e 0020     		movs	r0, #0
 299 0080 6449     		ldr	r1, .L36+8
 300 0082 FFF7FEFF 		bl	__aeabi_dsub
 301              	.LVL48:
 302 0086 0246     		mov	r2, r0
 303 0088 0B46     		mov	r3, r1
 304 008a DDE90C01 		ldrd	r0, [sp, #48]
 305 008e FFF7FEFF 		bl	__aeabi_dmul
 306              	.LVL49:
 307 0092 CDE90001 		strd	r0, [sp]
 308              	.LVL50:
 234:LEDcontrol.c  ****     q = v * (1.0 - (s * ff));
 309              		.loc 1 234 0
 310 0096 CDE90245 		strd	r4, [sp, #8]
 311 009a 2246     		mov	r2, r4
 312 009c 2B46     		mov	r3, r5
 313 009e 4046     		mov	r0, r8
 314              	.LVL51:
 315 00a0 4946     		mov	r1, r9
 316 00a2 FFF7FEFF 		bl	__aeabi_dmul
 317              	.LVL52:
 318 00a6 0246     		mov	r2, r0
 319 00a8 0B46     		mov	r3, r1
 320 00aa 0020     		movs	r0, #0
 321 00ac 5949     		ldr	r1, .L36+8
 322 00ae FFF7FEFF 		bl	__aeabi_dsub
 323              	.LVL53:
 324 00b2 0246     		mov	r2, r0
 325 00b4 0B46     		mov	r3, r1
 326 00b6 DDE90C01 		ldrd	r0, [sp, #48]
 327 00ba FFF7FEFF 		bl	__aeabi_dmul
 328              	.LVL54:
 329 00be 0446     		mov	r4, r0
 330              	.LVL55:
 331 00c0 0D46     		mov	r5, r1
 332              	.LVL56:
 235:LEDcontrol.c  ****     t = v * (1.0 - (s * (1.0 - ff)));
 333              		.loc 1 235 0
 334 00c2 DDE90223 		ldrd	r2, [sp, #8]
 335 00c6 0020     		movs	r0, #0
ARM GAS  C:\Users\cring\AppData\Local\Temp\ccSaPXYf.s 			page 11


 336 00c8 5249     		ldr	r1, .L36+8
 337 00ca FFF7FEFF 		bl	__aeabi_dsub
 338              	.LVL57:
 339 00ce 0246     		mov	r2, r0
 340 00d0 0B46     		mov	r3, r1
 341 00d2 4046     		mov	r0, r8
 342 00d4 4946     		mov	r1, r9
 343 00d6 FFF7FEFF 		bl	__aeabi_dmul
 344              	.LVL58:
 345 00da 0246     		mov	r2, r0
 346 00dc 0B46     		mov	r3, r1
 347 00de 0020     		movs	r0, #0
 348 00e0 4C49     		ldr	r1, .L36+8
 349 00e2 FFF7FEFF 		bl	__aeabi_dsub
 350              	.LVL59:
 351 00e6 0246     		mov	r2, r0
 352 00e8 0B46     		mov	r3, r1
 353 00ea DDE90C01 		ldrd	r0, [sp, #48]
 354 00ee FFF7FEFF 		bl	__aeabi_dmul
 355              	.LVL60:
 236:LEDcontrol.c  **** 
 237:LEDcontrol.c  ****     switch(i) {
 356              		.loc 1 237 0
 357 00f2 042F     		cmp	r7, #4
 358 00f4 24D8     		bhi	.L16
 359 00f6 DFE807F0 		tbb	[pc, r7]
 360              	.L18:
 361 00fa 03       		.byte	(.L17-.L18)/2
 362 00fb 2D       		.byte	(.L19-.L18)/2
 363 00fc 08       		.byte	(.L20-.L18)/2
 364 00fd 0D       		.byte	(.L21-.L18)/2
 365 00fe 18       		.byte	(.L22-.L18)/2
 366 00ff 00       		.p2align 1
 367              	.L17:
 238:LEDcontrol.c  ****     case 0:
 239:LEDcontrol.c  ****         r = v;
 368              		.loc 1 239 0
 369 0100 DDE90C45 		ldrd	r4, [sp, #48]
 370              	.LVL61:
 240:LEDcontrol.c  ****         g = t;
 371              		.loc 1 240 0
 372 0104 CDE90C01 		strd	r0, [sp, #48]
 373 0108 24E0     		b	.L19
 374              	.LVL62:
 375              	.L20:
 241:LEDcontrol.c  ****         b = p;
 242:LEDcontrol.c  ****         break;
 243:LEDcontrol.c  ****     case 1:
 244:LEDcontrol.c  ****         r = q;
 245:LEDcontrol.c  ****         g = v;
 246:LEDcontrol.c  ****         b = p;
 247:LEDcontrol.c  ****         break;
 248:LEDcontrol.c  ****     case 2:
 249:LEDcontrol.c  ****         r = p;
 376              		.loc 1 249 0
 377 010a DDE90045 		ldrd	r4, [sp]
 378              	.LVL63:
ARM GAS  C:\Users\cring\AppData\Local\Temp\ccSaPXYf.s 			page 12


 250:LEDcontrol.c  ****         g = v;
 251:LEDcontrol.c  ****         b = t;
 379              		.loc 1 251 0
 380 010e CDE90001 		strd	r0, [sp]
 381              	.LVL64:
 252:LEDcontrol.c  ****         break;
 382              		.loc 1 252 0
 383 0112 1FE0     		b	.L19
 384              	.LVL65:
 385              	.L21:
 253:LEDcontrol.c  **** 
 254:LEDcontrol.c  ****     case 3:
 255:LEDcontrol.c  ****         r = p;
 256:LEDcontrol.c  ****         g = q;
 257:LEDcontrol.c  ****         b = v;
 258:LEDcontrol.c  ****         break;
 386              		.loc 1 258 0
 387 0114 2246     		mov	r2, r4
 388 0116 2B46     		mov	r3, r5
 255:LEDcontrol.c  ****         g = q;
 389              		.loc 1 255 0
 390 0118 DDE90045 		ldrd	r4, [sp]
 391              	.LVL66:
 257:LEDcontrol.c  ****         break;
 392              		.loc 1 257 0
 393 011c DDE90C01 		ldrd	r0, [sp, #48]
 394              	.LVL67:
 395 0120 CDE90001 		strd	r0, [sp]
 396              	.LVL68:
 256:LEDcontrol.c  ****         b = v;
 397              		.loc 1 256 0
 398 0124 CDE90C23 		strd	r2, [sp, #48]
 399              	.LVL69:
 400              		.loc 1 258 0
 401 0128 14E0     		b	.L19
 402              	.LVL70:
 403              	.L22:
 259:LEDcontrol.c  ****     case 4:
 260:LEDcontrol.c  ****         r = t;
 261:LEDcontrol.c  ****         g = p;
 262:LEDcontrol.c  ****         b = v;
 263:LEDcontrol.c  ****         break;
 404              		.loc 1 263 0
 405 012a DDE90C23 		ldrd	r2, [sp, #48]
 261:LEDcontrol.c  ****         b = v;
 406              		.loc 1 261 0
 407 012e DDE90045 		ldrd	r4, [sp]
 408              	.LVL71:
 409 0132 CDE90C45 		strd	r4, [sp, #48]
 410              	.LVL72:
 262:LEDcontrol.c  ****         break;
 411              		.loc 1 262 0
 412 0136 CDE90023 		strd	r2, [sp]
 413              	.LVL73:
 260:LEDcontrol.c  ****         g = p;
 414              		.loc 1 260 0
 415 013a 0446     		mov	r4, r0
ARM GAS  C:\Users\cring\AppData\Local\Temp\ccSaPXYf.s 			page 13


 416              	.LVL74:
 417 013c 0D46     		mov	r5, r1
 418              		.loc 1 263 0
 419 013e 09E0     		b	.L19
 420              	.LVL75:
 421              	.L16:
 264:LEDcontrol.c  ****     case 5:
 265:LEDcontrol.c  ****     default:
 266:LEDcontrol.c  ****         r = v;
 267:LEDcontrol.c  ****         g = p;
 268:LEDcontrol.c  ****         b = q;
 269:LEDcontrol.c  ****         break;
 422              		.loc 1 269 0
 423 0140 2246     		mov	r2, r4
 424 0142 2B46     		mov	r3, r5
 266:LEDcontrol.c  ****         g = p;
 425              		.loc 1 266 0
 426 0144 DDE90C45 		ldrd	r4, [sp, #48]
 427              	.LVL76:
 267:LEDcontrol.c  ****         b = q;
 428              		.loc 1 267 0
 429 0148 DDE90001 		ldrd	r0, [sp]
 430              	.LVL77:
 431 014c CDE90C01 		strd	r0, [sp, #48]
 432              	.LVL78:
 268:LEDcontrol.c  ****         break;
 433              		.loc 1 268 0
 434 0150 CDE90023 		strd	r2, [sp]
 435              	.LVL79:
 436              	.L19:
 270:LEDcontrol.c  ****     }
 271:LEDcontrol.c  ****     r = r*256.0-1;
 437              		.loc 1 271 0
 438 0154 0022     		movs	r2, #0
 439 0156 304B     		ldr	r3, .L36+12
 440 0158 2046     		mov	r0, r4
 441 015a 2946     		mov	r1, r5
 442 015c FFF7FEFF 		bl	__aeabi_dmul
 443              	.LVL80:
 444 0160 0022     		movs	r2, #0
 445 0162 2C4B     		ldr	r3, .L36+8
 446 0164 FFF7FEFF 		bl	__aeabi_dsub
 447              	.LVL81:
 448 0168 0446     		mov	r4, r0
 449              	.LVL82:
 450 016a 0D46     		mov	r5, r1
 451              	.LVL83:
 272:LEDcontrol.c  ****     g = g*256.0-1;
 452              		.loc 1 272 0
 453 016c 0022     		movs	r2, #0
 454 016e 2A4B     		ldr	r3, .L36+12
 455 0170 DDE90C01 		ldrd	r0, [sp, #48]
 456 0174 FFF7FEFF 		bl	__aeabi_dmul
 457              	.LVL84:
 458 0178 0022     		movs	r2, #0
 459 017a 264B     		ldr	r3, .L36+8
 460 017c FFF7FEFF 		bl	__aeabi_dsub
ARM GAS  C:\Users\cring\AppData\Local\Temp\ccSaPXYf.s 			page 14


 461              	.LVL85:
 462 0180 8046     		mov	r8, r0
 463 0182 8946     		mov	r9, r1
 464              	.LVL86:
 273:LEDcontrol.c  ****     b = b*256.0-1;
 465              		.loc 1 273 0
 466 0184 0022     		movs	r2, #0
 467 0186 244B     		ldr	r3, .L36+12
 468 0188 DDE90001 		ldrd	r0, [sp]
 469 018c FFF7FEFF 		bl	__aeabi_dmul
 470              	.LVL87:
 471 0190 0022     		movs	r2, #0
 472 0192 204B     		ldr	r3, .L36+8
 473 0194 FFF7FEFF 		bl	__aeabi_dsub
 474              	.LVL88:
 475 0198 CDE90001 		strd	r0, [sp]
 476              	.LVL89:
 274:LEDcontrol.c  ****     
 275:LEDcontrol.c  ****     r = r < 0 ? 0 : r;
 477              		.loc 1 275 0
 478 019c 0022     		movs	r2, #0
 479 019e 0023     		movs	r3, #0
 480 01a0 2046     		mov	r0, r4
 481              	.LVL90:
 482 01a2 2946     		mov	r1, r5
 483 01a4 FFF7FEFF 		bl	__aeabi_dcmplt
 484              	.LVL91:
 485 01a8 08B1     		cbz	r0, .L23
 486 01aa 0024     		movs	r4, #0
 487              	.LVL92:
 488 01ac 0025     		movs	r5, #0
 489              	.L23:
 490              	.LVL93:
 276:LEDcontrol.c  ****     g = g < 0 ? 0 : g;
 491              		.loc 1 276 0 discriminator 4
 492 01ae 0022     		movs	r2, #0
 493 01b0 0023     		movs	r3, #0
 494 01b2 4046     		mov	r0, r8
 495 01b4 4946     		mov	r1, r9
 496 01b6 FFF7FEFF 		bl	__aeabi_dcmplt
 497              	.LVL94:
 498 01ba 18B1     		cbz	r0, .L25
 499              		.loc 1 276 0 is_stmt 0
 500 01bc 4FF00008 		mov	r8, #0
 501              	.LVL95:
 502 01c0 4FF00009 		mov	r9, #0
 503              	.L25:
 504              	.LVL96:
 277:LEDcontrol.c  ****     b = b < 0 ? 0 : b;
 505              		.loc 1 277 0 is_stmt 1 discriminator 4
 506 01c4 0022     		movs	r2, #0
 507 01c6 0023     		movs	r3, #0
 508 01c8 DDE90001 		ldrd	r0, [sp]
 509 01cc FFF7FEFF 		bl	__aeabi_dcmplt
 510              	.LVL97:
 511 01d0 18B1     		cbz	r0, .L27
 512              		.loc 1 277 0 is_stmt 0
ARM GAS  C:\Users\cring\AppData\Local\Temp\ccSaPXYf.s 			page 15


 513 01d2 0022     		movs	r2, #0
 514 01d4 0023     		movs	r3, #0
 515 01d6 CDE90023 		strd	r2, [sp]
 516              	.LVL98:
 517              	.L27:
 278:LEDcontrol.c  ****     
 279:LEDcontrol.c  ****     (rgbLED + LED)->green = g;
 518              		.loc 1 279 0 is_stmt 1 discriminator 4
 519 01da 5823     		movs	r3, #88
 520 01dc 03FB06F6 		mul	r6, r3, r6
 521 01e0 0AEB0607 		add	r7, r10, r6
 522              	.LVL99:
 523 01e4 4046     		mov	r0, r8
 524 01e6 4946     		mov	r1, r9
 525 01e8 FFF7FEFF 		bl	__aeabi_d2iz
 526              	.LVL100:
 527 01ec 7860     		str	r0, [r7, #4]
 280:LEDcontrol.c  ****     (rgbLED + LED)->red = r;
 528              		.loc 1 280 0 discriminator 4
 529 01ee 2046     		mov	r0, r4
 530 01f0 2946     		mov	r1, r5
 531 01f2 FFF7FEFF 		bl	__aeabi_d2iz
 532              	.LVL101:
 533 01f6 4AF80600 		str	r0, [r10, r6]
 281:LEDcontrol.c  ****     (rgbLED + LED)->blue = b;
 534              		.loc 1 281 0 discriminator 4
 535 01fa DDE90001 		ldrd	r0, [sp]
 536 01fe FFF7FEFF 		bl	__aeabi_d2iz
 537              	.LVL102:
 538 0202 B860     		str	r0, [r7, #8]
 539              	.LVL103:
 540              	.L11:
 282:LEDcontrol.c  ****     return;
 283:LEDcontrol.c  ****     
 284:LEDcontrol.c  **** }
 541              		.loc 1 284 0
 542 0204 04B0     		add	sp, sp, #16
 543              		.cfi_def_cfa_offset 32
 544              		@ sp needed
 545 0206 BDE8F087 		pop	{r4, r5, r6, r7, r8, r9, r10, pc}
 546              	.LVL104:
 547              	.L37:
 548 020a 00BF     		.align	2
 549              	.L36:
 550 020c 00807640 		.word	1081507840
 551 0210 00004E40 		.word	1078853632
 552 0214 0000F03F 		.word	1072693248
 553 0218 00007040 		.word	1081081856
 554              		.cfi_endproc
 555              	.LFE76:
 556              		.size	hsv2rgb, .-hsv2rgb
 557              		.section	.text.UpdateLED,"ax",%progbits
 558              		.align	2
 559              		.global	UpdateLED
 560              		.thumb
 561              		.thumb_func
 562              		.type	UpdateLED, %function
ARM GAS  C:\Users\cring\AppData\Local\Temp\ccSaPXYf.s 			page 16


 563              	UpdateLED:
 564              	.LFB77:
 285:LEDcontrol.c  **** 
 286:LEDcontrol.c  **** void UpdateLED(LEDctrl *rgbLED)
 287:LEDcontrol.c  **** {
 565              		.loc 1 287 0
 566              		.cfi_startproc
 567              		@ args = 0, pretend = 0, frame = 0
 568              		@ frame_needed = 0, uses_anonymous_args = 0
 569              	.LVL105:
 570 0000 70B5     		push	{r4, r5, r6, lr}
 571              		.cfi_def_cfa_offset 16
 572              		.cfi_offset 4, -16
 573              		.cfi_offset 5, -12
 574              		.cfi_offset 6, -8
 575              		.cfi_offset 14, -4
 576 0002 0646     		mov	r6, r0
 288:LEDcontrol.c  ****     if(rgbLED->pin == 1){ //Hvis LED strip til pin 1 skiftes SPIM til at output til LEDdata2
 577              		.loc 1 288 0
 578 0004 436C     		ldr	r3, [r0, #68]
 579 0006 012B     		cmp	r3, #1
 580 0008 04D1     		bne	.L39
 289:LEDcontrol.c  ****         SPIMOutCtrl_Write(1);
 581              		.loc 1 289 0
 582 000a 0120     		movs	r0, #1
 583              	.LVL106:
 584 000c FFF7FEFF 		bl	SPIMOutCtrl_Write
 585              	.LVL107:
 586              	.L42:
 287:LEDcontrol.c  ****     if(rgbLED->pin == 1){ //Hvis LED strip til pin 1 skiftes SPIM til at output til LEDdata2
 587              		.loc 1 287 0 discriminator 1
 588 0010 0025     		movs	r5, #0
 589 0012 1BE0     		b	.L40
 590              	.LVL108:
 591              	.L39:
 290:LEDcontrol.c  ****     }else if (rgbLED->pin == 2){ //Hvis LEd stip til pin 2 skiftes SPIM til at output til LEDdata
 592              		.loc 1 290 0
 593 0014 022B     		cmp	r3, #2
 594 0016 1CD1     		bne	.L38
 291:LEDcontrol.c  ****         SPIMOutCtrl_Write(0);
 595              		.loc 1 291 0
 596 0018 0020     		movs	r0, #0
 597              	.LVL109:
 598 001a FFF7FEFF 		bl	SPIMOutCtrl_Write
 599              	.LVL110:
 600 001e F7E7     		b	.L42
 601              	.LVL111:
 602              	.L43:
 603              	.LBB2:
 292:LEDcontrol.c  ****     }else{
 293:LEDcontrol.c  ****         return;
 294:LEDcontrol.c  ****     }
 295:LEDcontrol.c  ****     for(int i = 0; i < rgbLED->LEDlength; i++) //Sender data til LED strip
 296:LEDcontrol.c  ****     {
 297:LEDcontrol.c  ****         //8bit grøn farve
 298:LEDcontrol.c  ****         SPIM_1_WriteTxData((rgbLED + i)->green1);
 604              		.loc 1 298 0 discriminator 3
ARM GAS  C:\Users\cring\AppData\Local\Temp\ccSaPXYf.s 			page 17


 605 0020 5824     		movs	r4, #88
 606 0022 04FB0564 		mla	r4, r4, r5, r6
 607 0026 208D     		ldrh	r0, [r4, #40]
 608 0028 FFF7FEFF 		bl	SPIM_1_WriteTxData
 609              	.LVL112:
 299:LEDcontrol.c  ****         SPIM_1_WriteTxData((rgbLED + i)->green2);
 610              		.loc 1 299 0 discriminator 3
 611 002c A08D     		ldrh	r0, [r4, #44]
 612 002e FFF7FEFF 		bl	SPIM_1_WriteTxData
 613              	.LVL113:
 300:LEDcontrol.c  ****         
 301:LEDcontrol.c  ****         //8bit rød farve
 302:LEDcontrol.c  ****         SPIM_1_WriteTxData((rgbLED + i)->red1);
 614              		.loc 1 302 0 discriminator 3
 615 0032 208E     		ldrh	r0, [r4, #48]
 616 0034 FFF7FEFF 		bl	SPIM_1_WriteTxData
 617              	.LVL114:
 303:LEDcontrol.c  ****         SPIM_1_WriteTxData((rgbLED + i)->red2);
 618              		.loc 1 303 0 discriminator 3
 619 0038 A08E     		ldrh	r0, [r4, #52]
 620 003a FFF7FEFF 		bl	SPIM_1_WriteTxData
 621              	.LVL115:
 304:LEDcontrol.c  ****         
 305:LEDcontrol.c  ****         //8bit blå farve
 306:LEDcontrol.c  ****         SPIM_1_WriteTxData((rgbLED + i)->blue1);
 622              		.loc 1 306 0 discriminator 3
 623 003e 208F     		ldrh	r0, [r4, #56]
 624 0040 FFF7FEFF 		bl	SPIM_1_WriteTxData
 625              	.LVL116:
 307:LEDcontrol.c  ****         SPIM_1_WriteTxData((rgbLED + i)->blue2);
 626              		.loc 1 307 0 discriminator 3
 627 0044 A08F     		ldrh	r0, [r4, #60]
 628 0046 FFF7FEFF 		bl	SPIM_1_WriteTxData
 629              	.LVL117:
 295:LEDcontrol.c  ****     {
 630              		.loc 1 295 0 discriminator 3
 631 004a 0135     		adds	r5, r5, #1
 632              	.LVL118:
 633              	.L40:
 295:LEDcontrol.c  ****     {
 634              		.loc 1 295 0 is_stmt 0 discriminator 1
 635 004c 336C     		ldr	r3, [r6, #64]
 636 004e 9D42     		cmp	r5, r3
 637 0050 E6DB     		blt	.L43
 638              	.LVL119:
 639              	.L38:
 640 0052 70BD     		pop	{r4, r5, r6, pc}
 641              	.LBE2:
 642              		.cfi_endproc
 643              	.LFE77:
 644              		.size	UpdateLED, .-UpdateLED
 645              		.section	.text.isr_refreshrate,"ax",%progbits
 646              		.align	2
 647              		.global	isr_refreshrate
 648              		.thumb
 649              		.thumb_func
 650              		.type	isr_refreshrate, %function
ARM GAS  C:\Users\cring\AppData\Local\Temp\ccSaPXYf.s 			page 18


 651              	isr_refreshrate:
 652              	.LFB64:
  29:LEDcontrol.c  ****     if (rgbLED1 != NULL)
 653              		.loc 1 29 0 is_stmt 1
 654              		.cfi_startproc
 655              		@ args = 0, pretend = 0, frame = 0
 656              		@ frame_needed = 0, uses_anonymous_args = 0
 657 0000 08B5     		push	{r3, lr}
 658              		.cfi_def_cfa_offset 8
 659              		.cfi_offset 3, -8
 660              		.cfi_offset 14, -4
  30:LEDcontrol.c  ****     {
 661              		.loc 1 30 0
 662 0002 074B     		ldr	r3, .L49
 663 0004 1868     		ldr	r0, [r3]
 664 0006 08B1     		cbz	r0, .L46
  32:LEDcontrol.c  ****     }
 665              		.loc 1 32 0
 666 0008 FFF7FEFF 		bl	UpdateLED
 667              	.LVL120:
 668              	.L46:
  34:LEDcontrol.c  ****     if (rgbLED2 != NULL)
 669              		.loc 1 34 0
 670 000c C820     		movs	r0, #200
 671 000e FFF7FEFF 		bl	CyDelayUs
 672              	.LVL121:
  35:LEDcontrol.c  ****     {
 673              		.loc 1 35 0
 674 0012 034B     		ldr	r3, .L49
 675 0014 5868     		ldr	r0, [r3, #4]
 676 0016 08B1     		cbz	r0, .L45
  37:LEDcontrol.c  ****     }
 677              		.loc 1 37 0
 678 0018 FFF7FEFF 		bl	UpdateLED
 679              	.LVL122:
 680              	.L45:
 681 001c 08BD     		pop	{r3, pc}
 682              	.L50:
 683 001e 00BF     		.align	2
 684              	.L49:
 685 0020 00000000 		.word	.LANCHOR0
 686              		.cfi_endproc
 687              	.LFE64:
 688              		.size	isr_refreshrate, .-isr_refreshrate
 689              		.section	.text.setcolorLED,"ax",%progbits
 690              		.align	2
 691              		.global	setcolorLED
 692              		.thumb
 693              		.thumb_func
 694              		.type	setcolorLED, %function
 695              	setcolorLED:
 696              	.LFB78:
 308:LEDcontrol.c  ****     }
 309:LEDcontrol.c  **** }
 310:LEDcontrol.c  **** 
 311:LEDcontrol.c  **** void setcolorLED(double h, double s, double v, int LED, LEDctrl *rgbLED)
 312:LEDcontrol.c  **** {
ARM GAS  C:\Users\cring\AppData\Local\Temp\ccSaPXYf.s 			page 19


 697              		.loc 1 312 0
 698              		.cfi_startproc
 699              		@ args = 16, pretend = 0, frame = 48
 700              		@ frame_needed = 0, uses_anonymous_args = 0
 701              	.LVL123:
 702 0000 F0B5     		push	{r4, r5, r6, r7, lr}
 703              		.cfi_def_cfa_offset 20
 704              		.cfi_offset 4, -20
 705              		.cfi_offset 5, -16
 706              		.cfi_offset 6, -12
 707              		.cfi_offset 7, -8
 708              		.cfi_offset 14, -4
 709 0002 91B0     		sub	sp, sp, #68
 710              		.cfi_def_cfa_offset 88
 711 0004 189D     		ldr	r5, [sp, #96]
 712 0006 199C     		ldr	r4, [sp, #100]
 313:LEDcontrol.c  ****     int Red, Green, Blue;
 314:LEDcontrol.c  ****     
 315:LEDcontrol.c  ****     hsv2rgb(h,s,v,LED, rgbLED); //hsv konverteres til RGB og gemmes i rgbLED's red, green blue
 713              		.loc 1 315 0
 714 0008 0394     		str	r4, [sp, #12]
 715 000a 0295     		str	r5, [sp, #8]
 716 000c DDE91667 		ldrd	r6, [sp, #88]
 717 0010 CDE90067 		strd	r6, [sp]
 718 0014 FFF7FEFF 		bl	hsv2rgb
 719              	.LVL124:
 316:LEDcontrol.c  ****     
 317:LEDcontrol.c  ****     Red = (rgbLED + LED)->red;
 720              		.loc 1 317 0
 721 0018 5823     		movs	r3, #88
 722 001a 03FB05F3 		mul	r3, r3, r5
 723 001e E518     		adds	r5, r4, r3
 724 0020 E158     		ldr	r1, [r4, r3]
 725              	.LVL125:
 318:LEDcontrol.c  ****     Green = (rgbLED + LED)->green;
 726              		.loc 1 318 0
 727 0022 6868     		ldr	r0, [r5, #4]
 728              	.LVL126:
 319:LEDcontrol.c  ****     Blue = (rgbLED + LED)->blue;
 729              		.loc 1 319 0
 730 0024 AA68     		ldr	r2, [r5, #8]
 731              	.LVL127:
 732              	.LBB3:
 320:LEDcontrol.c  ****  
 321:LEDcontrol.c  ****     int x = Green;
 322:LEDcontrol.c  ****     int buf[12];
 323:LEDcontrol.c  ****     
 324:LEDcontrol.c  ****     for (int i = 0; i<8; i++) //Hver farve er 8bit lang derfor konvertes hver bit til det delay som
 733              		.loc 1 324 0
 734 0026 0023     		movs	r3, #0
 735 0028 11E0     		b	.L52
 736              	.LVL128:
 737              	.L55:
 325:LEDcontrol.c  ****     {
 326:LEDcontrol.c  ****         if(x & 128)     //Tjekker om det bittet på bit plads 7 er 1
 738              		.loc 1 326 0
 739 002a 10F0800F 		tst	r0, #128
ARM GAS  C:\Users\cring\AppData\Local\Temp\ccSaPXYf.s 			page 20


 740 002e 06D0     		beq	.L53
 327:LEDcontrol.c  ****         {
 328:LEDcontrol.c  ****             buf[i] = 0b110; //Konverterer 1 til det tilsvarende delay
 741              		.loc 1 328 0
 742 0030 0626     		movs	r6, #6
 743 0032 10AC     		add	r4, sp, #64
 744 0034 04EB8304 		add	r4, r4, r3, lsl #2
 745 0038 44F8306C 		str	r6, [r4, #-48]
 746 003c 05E0     		b	.L54
 747              	.L53:
 329:LEDcontrol.c  ****         }else{
 330:LEDcontrol.c  ****             buf[i] = 0b100; //Konverterer 0 til det tilsvarende delay
 748              		.loc 1 330 0
 749 003e 0426     		movs	r6, #4
 750 0040 10AC     		add	r4, sp, #64
 751 0042 04EB8304 		add	r4, r4, r3, lsl #2
 752 0046 44F8306C 		str	r6, [r4, #-48]
 753              	.L54:
 331:LEDcontrol.c  ****         }
 332:LEDcontrol.c  ****         x = x<<1;   //Flytter alle bit i x til venstre, så næste bit gang tjekkes
 754              		.loc 1 332 0 discriminator 2
 755 004a 4000     		lsls	r0, r0, #1
 756              	.LVL129:
 324:LEDcontrol.c  ****     {
 757              		.loc 1 324 0 discriminator 2
 758 004c 0133     		adds	r3, r3, #1
 759              	.LVL130:
 760              	.L52:
 324:LEDcontrol.c  ****     {
 761              		.loc 1 324 0 is_stmt 0 discriminator 1
 762 004e 072B     		cmp	r3, #7
 763 0050 EBDD     		ble	.L55
 764              	.LBE3:
 333:LEDcontrol.c  ****     }
 334:LEDcontrol.c  ****     //Da SPI komponenten maks kan sende 16bit af gange og der skal sendes 24bit for hver farve dele
 335:LEDcontrol.c  ****     (rgbLED + LED)->green1 = (buf[0]<<9) + (buf[1]<<6) + (buf[2]<<3) + buf[3];
 765              		.loc 1 335 0 is_stmt 1
 766 0052 059B     		ldr	r3, [sp, #20]
 767              	.LVL131:
 768 0054 9B01     		lsls	r3, r3, #6
 769 0056 0498     		ldr	r0, [sp, #16]
 770              	.LVL132:
 771 0058 03EB4023 		add	r3, r3, r0, lsl #9
 772 005c 0698     		ldr	r0, [sp, #24]
 773 005e 03EBC003 		add	r3, r3, r0, lsl #3
 774 0062 0798     		ldr	r0, [sp, #28]
 775 0064 0344     		add	r3, r3, r0
 776 0066 AB62     		str	r3, [r5, #40]
 336:LEDcontrol.c  ****     (rgbLED + LED)->green2 = (buf[4]<<9) + (buf[5]<<6) + (buf[6]<<3) + buf[7];
 777              		.loc 1 336 0
 778 0068 099B     		ldr	r3, [sp, #36]
 779 006a 9B01     		lsls	r3, r3, #6
 780 006c 0898     		ldr	r0, [sp, #32]
 781 006e 03EB4023 		add	r3, r3, r0, lsl #9
 782 0072 0A98     		ldr	r0, [sp, #40]
 783 0074 03EBC003 		add	r3, r3, r0, lsl #3
 784 0078 0B98     		ldr	r0, [sp, #44]
ARM GAS  C:\Users\cring\AppData\Local\Temp\ccSaPXYf.s 			page 21


 785 007a 0344     		add	r3, r3, r0
 786 007c EB62     		str	r3, [r5, #44]
 787              	.LVL133:
 788              	.LBB4:
 337:LEDcontrol.c  ****     
 338:LEDcontrol.c  ****     x = Red;
 339:LEDcontrol.c  ****     for (int i = 0; i<8; i++)
 789              		.loc 1 339 0
 790 007e 0023     		movs	r3, #0
 791 0080 11E0     		b	.L56
 792              	.LVL134:
 793              	.L59:
 340:LEDcontrol.c  ****     {
 341:LEDcontrol.c  ****         if(x & 128)
 794              		.loc 1 341 0
 795 0082 11F0800F 		tst	r1, #128
 796 0086 06D0     		beq	.L57
 342:LEDcontrol.c  ****         {
 343:LEDcontrol.c  ****             buf[i] = 0b110;
 797              		.loc 1 343 0
 798 0088 0624     		movs	r4, #6
 799 008a 10A8     		add	r0, sp, #64
 800 008c 00EB8300 		add	r0, r0, r3, lsl #2
 801 0090 40F8304C 		str	r4, [r0, #-48]
 802 0094 05E0     		b	.L58
 803              	.L57:
 344:LEDcontrol.c  ****         }else{
 345:LEDcontrol.c  ****             buf[i] = 0b100;
 804              		.loc 1 345 0
 805 0096 0424     		movs	r4, #4
 806 0098 10A8     		add	r0, sp, #64
 807 009a 00EB8300 		add	r0, r0, r3, lsl #2
 808 009e 40F8304C 		str	r4, [r0, #-48]
 809              	.L58:
 346:LEDcontrol.c  ****         }
 347:LEDcontrol.c  ****         x = x<<1;
 810              		.loc 1 347 0 discriminator 2
 811 00a2 4900     		lsls	r1, r1, #1
 812              	.LVL135:
 339:LEDcontrol.c  ****     {
 813              		.loc 1 339 0 discriminator 2
 814 00a4 0133     		adds	r3, r3, #1
 815              	.LVL136:
 816              	.L56:
 339:LEDcontrol.c  ****     {
 817              		.loc 1 339 0 is_stmt 0 discriminator 1
 818 00a6 072B     		cmp	r3, #7
 819 00a8 EBDD     		ble	.L59
 820              	.LBE4:
 348:LEDcontrol.c  ****     }
 349:LEDcontrol.c  ****     (rgbLED + LED)->red1 = (buf[0]<<9) + (buf[1]<<6) + (buf[2]<<3) + buf[3];
 821              		.loc 1 349 0 is_stmt 1
 822 00aa 059B     		ldr	r3, [sp, #20]
 823              	.LVL137:
 824 00ac 9B01     		lsls	r3, r3, #6
 825 00ae 0499     		ldr	r1, [sp, #16]
 826              	.LVL138:
ARM GAS  C:\Users\cring\AppData\Local\Temp\ccSaPXYf.s 			page 22


 827 00b0 03EB4123 		add	r3, r3, r1, lsl #9
 828 00b4 0699     		ldr	r1, [sp, #24]
 829 00b6 03EBC103 		add	r3, r3, r1, lsl #3
 830 00ba 0799     		ldr	r1, [sp, #28]
 831 00bc 0B44     		add	r3, r3, r1
 832 00be 2B63     		str	r3, [r5, #48]
 350:LEDcontrol.c  ****     (rgbLED + LED)->red2 = (buf[4]<<9) + (buf[5]<<6) + (buf[6]<<3) + buf[7];
 833              		.loc 1 350 0
 834 00c0 099B     		ldr	r3, [sp, #36]
 835 00c2 9B01     		lsls	r3, r3, #6
 836 00c4 0899     		ldr	r1, [sp, #32]
 837 00c6 03EB4123 		add	r3, r3, r1, lsl #9
 838 00ca 0A99     		ldr	r1, [sp, #40]
 839 00cc 03EBC103 		add	r3, r3, r1, lsl #3
 840 00d0 0B99     		ldr	r1, [sp, #44]
 841 00d2 0B44     		add	r3, r3, r1
 842 00d4 6B63     		str	r3, [r5, #52]
 843              	.LVL139:
 844              	.LBB5:
 351:LEDcontrol.c  ****     
 352:LEDcontrol.c  ****     x = Blue;
 353:LEDcontrol.c  ****     for (int i = 0; i<8; i++)
 845              		.loc 1 353 0
 846 00d6 0023     		movs	r3, #0
 847 00d8 11E0     		b	.L60
 848              	.LVL140:
 849              	.L63:
 354:LEDcontrol.c  ****     {
 355:LEDcontrol.c  ****         if(x & 128)
 850              		.loc 1 355 0
 851 00da 12F0800F 		tst	r2, #128
 852 00de 06D0     		beq	.L61
 356:LEDcontrol.c  ****         {
 357:LEDcontrol.c  ****             buf[i] = 0b110;
 853              		.loc 1 357 0
 854 00e0 0620     		movs	r0, #6
 855 00e2 10A9     		add	r1, sp, #64
 856 00e4 01EB8301 		add	r1, r1, r3, lsl #2
 857 00e8 41F8300C 		str	r0, [r1, #-48]
 858 00ec 05E0     		b	.L62
 859              	.L61:
 358:LEDcontrol.c  ****         }else{
 359:LEDcontrol.c  ****             buf[i] = 0b100;
 860              		.loc 1 359 0
 861 00ee 0420     		movs	r0, #4
 862 00f0 10A9     		add	r1, sp, #64
 863 00f2 01EB8301 		add	r1, r1, r3, lsl #2
 864 00f6 41F8300C 		str	r0, [r1, #-48]
 865              	.L62:
 360:LEDcontrol.c  ****         }
 361:LEDcontrol.c  ****         x = x<<1;
 866              		.loc 1 361 0 discriminator 2
 867 00fa 5200     		lsls	r2, r2, #1
 868              	.LVL141:
 353:LEDcontrol.c  ****     {
 869              		.loc 1 353 0 discriminator 2
 870 00fc 0133     		adds	r3, r3, #1
ARM GAS  C:\Users\cring\AppData\Local\Temp\ccSaPXYf.s 			page 23


 871              	.LVL142:
 872              	.L60:
 353:LEDcontrol.c  ****     {
 873              		.loc 1 353 0 is_stmt 0 discriminator 1
 874 00fe 072B     		cmp	r3, #7
 875 0100 EBDD     		ble	.L63
 876              	.LBE5:
 362:LEDcontrol.c  ****     }
 363:LEDcontrol.c  ****     (rgbLED + LED)->blue1 = (buf[0]<<9) + (buf[1]<<6) + (buf[2]<<3) + buf[3];
 877              		.loc 1 363 0 is_stmt 1
 878 0102 059B     		ldr	r3, [sp, #20]
 879              	.LVL143:
 880 0104 9B01     		lsls	r3, r3, #6
 881 0106 049A     		ldr	r2, [sp, #16]
 882              	.LVL144:
 883 0108 03EB4223 		add	r3, r3, r2, lsl #9
 884 010c 069A     		ldr	r2, [sp, #24]
 885 010e 03EBC203 		add	r3, r3, r2, lsl #3
 886 0112 079A     		ldr	r2, [sp, #28]
 887 0114 1344     		add	r3, r3, r2
 888 0116 AB63     		str	r3, [r5, #56]
 364:LEDcontrol.c  ****     (rgbLED + LED)->blue2 = (buf[4]<<9) + (buf[5]<<6) + (buf[6]<<3) + buf[7];
 889              		.loc 1 364 0
 890 0118 099B     		ldr	r3, [sp, #36]
 891 011a 9B01     		lsls	r3, r3, #6
 892 011c 089A     		ldr	r2, [sp, #32]
 893 011e 03EB4223 		add	r3, r3, r2, lsl #9
 894 0122 0A9A     		ldr	r2, [sp, #40]
 895 0124 03EBC203 		add	r3, r3, r2, lsl #3
 896 0128 0B9A     		ldr	r2, [sp, #44]
 897 012a 1344     		add	r3, r3, r2
 898 012c EB63     		str	r3, [r5, #60]
 365:LEDcontrol.c  **** 
 366:LEDcontrol.c  **** }
 899              		.loc 1 366 0
 900 012e 11B0     		add	sp, sp, #68
 901              		.cfi_def_cfa_offset 20
 902              		@ sp needed
 903 0130 F0BD     		pop	{r4, r5, r6, r7, pc}
 904              		.cfi_endproc
 905              	.LFE78:
 906              		.size	setcolorLED, .-setcolorLED
 907 0132 00BF     		.section	.text.fillcolor,"ax",%progbits
 908              		.align	2
 909              		.global	fillcolor
 910              		.thumb
 911              		.thumb_func
 912              		.type	fillcolor, %function
 913              	fillcolor:
 914              	.LFB72:
 177:LEDcontrol.c  ****     for(int i = 0; i < rgbLED->LEDlength; i++)
 915              		.loc 1 177 0
 916              		.cfi_startproc
 917              		@ args = 12, pretend = 0, frame = 0
 918              		@ frame_needed = 0, uses_anonymous_args = 0
 919              	.LVL145:
 920 0000 2DE9F04F 		push	{r4, r5, r6, r7, r8, r9, r10, fp, lr}
ARM GAS  C:\Users\cring\AppData\Local\Temp\ccSaPXYf.s 			page 24


 921              		.cfi_def_cfa_offset 36
 922              		.cfi_offset 4, -36
 923              		.cfi_offset 5, -32
 924              		.cfi_offset 6, -28
 925              		.cfi_offset 7, -24
 926              		.cfi_offset 8, -20
 927              		.cfi_offset 9, -16
 928              		.cfi_offset 10, -12
 929              		.cfi_offset 11, -8
 930              		.cfi_offset 14, -4
 931 0004 85B0     		sub	sp, sp, #20
 932              		.cfi_def_cfa_offset 56
 933 0006 8046     		mov	r8, r0
 934 0008 8946     		mov	r9, r1
 935 000a 9246     		mov	r10, r2
 936 000c 9B46     		mov	fp, r3
 937 000e DDE90E45 		ldrd	r4, [sp, #56]
 938 0012 109F     		ldr	r7, [sp, #64]
 939              	.LVL146:
 940              	.LBB6:
 178:LEDcontrol.c  ****     {
 941              		.loc 1 178 0
 942 0014 0026     		movs	r6, #0
 943 0016 0AE0     		b	.L66
 944              	.LVL147:
 945              	.L67:
 180:LEDcontrol.c  ****     }
 946              		.loc 1 180 0 discriminator 3
 947 0018 0397     		str	r7, [sp, #12]
 948 001a 0296     		str	r6, [sp, #8]
 949 001c CDE90045 		strd	r4, [sp]
 950 0020 5246     		mov	r2, r10
 951 0022 5B46     		mov	r3, fp
 952 0024 4046     		mov	r0, r8
 953 0026 4946     		mov	r1, r9
 954 0028 FFF7FEFF 		bl	setcolorLED
 955              	.LVL148:
 178:LEDcontrol.c  ****     {
 956              		.loc 1 178 0 discriminator 3
 957 002c 0136     		adds	r6, r6, #1
 958              	.LVL149:
 959              	.L66:
 178:LEDcontrol.c  ****     {
 960              		.loc 1 178 0 is_stmt 0 discriminator 1
 961 002e 3B6C     		ldr	r3, [r7, #64]
 962 0030 9E42     		cmp	r6, r3
 963 0032 F1DB     		blt	.L67
 964              	.LBE6:
 182:LEDcontrol.c  **** 
 965              		.loc 1 182 0 is_stmt 1
 966 0034 05B0     		add	sp, sp, #20
 967              		.cfi_def_cfa_offset 36
 968              		@ sp needed
 969 0036 BDE8F08F 		pop	{r4, r5, r6, r7, r8, r9, r10, fp, pc}
 970              		.cfi_endproc
 971              	.LFE72:
 972              		.size	fillcolor, .-fillcolor
ARM GAS  C:\Users\cring\AppData\Local\Temp\ccSaPXYf.s 			page 25


 973              		.global	__aeabi_f2d
 974              		.global	__aeabi_d2f
 975              		.global	__aeabi_fcmplt
 976              		.global	__aeabi_dadd
 977              		.global	__aeabi_fcmpeq
 978 003a 00BF     		.section	.text.isr_LED_pulse,"ax",%progbits
 979              		.align	2
 980              		.global	isr_LED_pulse
 981              		.thumb
 982              		.thumb_func
 983              		.type	isr_LED_pulse, %function
 984              	isr_LED_pulse:
 985              	.LFB66:
  70:LEDcontrol.c  ****     
 986              		.loc 1 70 0
 987              		.cfi_startproc
 988              		@ args = 0, pretend = 0, frame = 0
 989              		@ frame_needed = 0, uses_anonymous_args = 0
 990 0000 F0B5     		push	{r4, r5, r6, r7, lr}
 991              		.cfi_def_cfa_offset 20
 992              		.cfi_offset 4, -20
 993              		.cfi_offset 5, -16
 994              		.cfi_offset 6, -12
 995              		.cfi_offset 7, -8
 996              		.cfi_offset 14, -4
 997 0002 85B0     		sub	sp, sp, #20
 998              		.cfi_def_cfa_offset 40
  72:LEDcontrol.c  ****     {
 999              		.loc 1 72 0
 1000 0004 464B     		ldr	r3, .L81+8
 1001 0006 9B68     		ldr	r3, [r3, #8]
 1002 0008 002B     		cmp	r3, #0
 1003 000a 40D1     		bne	.L70
  74:LEDcontrol.c  ****         if (rgbLED2->pulse == 1)fillcolor(rgbLED2->h,rgbLED2->s,index2, rgbLED2);
 1004              		.loc 1 74 0
 1005 000c 444B     		ldr	r3, .L81+8
 1006 000e 1B68     		ldr	r3, [r3]
 1007 0010 DA6C     		ldr	r2, [r3, #76]
 1008 0012 012A     		cmp	r2, #1
 1009 0014 10D1     		bne	.L71
  74:LEDcontrol.c  ****         if (rgbLED2->pulse == 1)fillcolor(rgbLED2->h,rgbLED2->s,index2, rgbLED2);
 1010              		.loc 1 74 0 is_stmt 0 discriminator 1
 1011 0016 D3E90667 		ldrd	r6, [r3, #24]
 1012 001a D3E90445 		ldrd	r4, [r3, #16]
 1013 001e 0293     		str	r3, [sp, #8]
 1014 0020 404B     		ldr	r3, .L81+12
 1015 0022 1868     		ldr	r0, [r3]	@ float
 1016 0024 FFF7FEFF 		bl	__aeabi_f2d
 1017              	.LVL150:
 1018 0028 CDE90001 		strd	r0, [sp]
 1019 002c 3246     		mov	r2, r6
 1020 002e 3B46     		mov	r3, r7
 1021 0030 2046     		mov	r0, r4
 1022 0032 2946     		mov	r1, r5
 1023 0034 FFF7FEFF 		bl	fillcolor
 1024              	.LVL151:
 1025              	.L71:
ARM GAS  C:\Users\cring\AppData\Local\Temp\ccSaPXYf.s 			page 26


  75:LEDcontrol.c  ****         index2 = index2-0.01;
 1026              		.loc 1 75 0 is_stmt 1
 1027 0038 394B     		ldr	r3, .L81+8
 1028 003a 5B68     		ldr	r3, [r3, #4]
 1029 003c DA6C     		ldr	r2, [r3, #76]
 1030 003e 012A     		cmp	r2, #1
 1031 0040 10D1     		bne	.L72
  75:LEDcontrol.c  ****         index2 = index2-0.01;
 1032              		.loc 1 75 0 is_stmt 0 discriminator 1
 1033 0042 D3E90667 		ldrd	r6, [r3, #24]
 1034 0046 D3E90445 		ldrd	r4, [r3, #16]
 1035 004a 0293     		str	r3, [sp, #8]
 1036 004c 354B     		ldr	r3, .L81+12
 1037 004e 1868     		ldr	r0, [r3]	@ float
 1038 0050 FFF7FEFF 		bl	__aeabi_f2d
 1039              	.LVL152:
 1040 0054 CDE90001 		strd	r0, [sp]
 1041 0058 3246     		mov	r2, r6
 1042 005a 3B46     		mov	r3, r7
 1043 005c 2046     		mov	r0, r4
 1044 005e 2946     		mov	r1, r5
 1045 0060 FFF7FEFF 		bl	fillcolor
 1046              	.LVL153:
 1047              	.L72:
  76:LEDcontrol.c  ****         if (index2 < 0)count = 1;
 1048              		.loc 1 76 0 is_stmt 1
 1049 0064 2F4C     		ldr	r4, .L81+12
 1050 0066 2068     		ldr	r0, [r4]	@ float
 1051 0068 FFF7FEFF 		bl	__aeabi_f2d
 1052              	.LVL154:
 1053 006c 2AA3     		adr	r3, .L81
 1054 006e D3E90023 		ldrd	r2, [r3]
 1055 0072 FFF7FEFF 		bl	__aeabi_dsub
 1056              	.LVL155:
 1057 0076 FFF7FEFF 		bl	__aeabi_d2f
 1058              	.LVL156:
 1059 007a 2060     		str	r0, [r4]	@ float
  77:LEDcontrol.c  ****     }else if(count == 1){
 1060              		.loc 1 77 0
 1061 007c 0021     		movs	r1, #0
 1062 007e FFF7FEFF 		bl	__aeabi_fcmplt
 1063              	.LVL157:
 1064 0082 0028     		cmp	r0, #0
 1065 0084 45D0     		beq	.L69
  77:LEDcontrol.c  ****     }else if(count == 1){
 1066              		.loc 1 77 0 is_stmt 0 discriminator 1
 1067 0086 0122     		movs	r2, #1
 1068 0088 254B     		ldr	r3, .L81+8
 1069 008a 9A60     		str	r2, [r3, #8]
 1070 008c 41E0     		b	.L69
 1071              	.L70:
  78:LEDcontrol.c  ****         if (rgbLED1->pulse == 1)fillcolor(rgbLED1->h,rgbLED1->s,index2, rgbLED1);
 1072              		.loc 1 78 0 is_stmt 1
 1073 008e 012B     		cmp	r3, #1
 1074 0090 3FD1     		bne	.L69
  79:LEDcontrol.c  ****         if (rgbLED2->pulse == 1)fillcolor(rgbLED2->h,rgbLED2->s,index2, rgbLED2);
 1075              		.loc 1 79 0
ARM GAS  C:\Users\cring\AppData\Local\Temp\ccSaPXYf.s 			page 27


 1076 0092 234B     		ldr	r3, .L81+8
 1077 0094 1B68     		ldr	r3, [r3]
 1078 0096 DA6C     		ldr	r2, [r3, #76]
 1079 0098 012A     		cmp	r2, #1
 1080 009a 10D1     		bne	.L75
  79:LEDcontrol.c  ****         if (rgbLED2->pulse == 1)fillcolor(rgbLED2->h,rgbLED2->s,index2, rgbLED2);
 1081              		.loc 1 79 0 is_stmt 0 discriminator 1
 1082 009c D3E90667 		ldrd	r6, [r3, #24]
 1083 00a0 D3E90445 		ldrd	r4, [r3, #16]
 1084 00a4 0293     		str	r3, [sp, #8]
 1085 00a6 1F4B     		ldr	r3, .L81+12
 1086 00a8 1868     		ldr	r0, [r3]	@ float
 1087 00aa FFF7FEFF 		bl	__aeabi_f2d
 1088              	.LVL158:
 1089 00ae CDE90001 		strd	r0, [sp]
 1090 00b2 3246     		mov	r2, r6
 1091 00b4 3B46     		mov	r3, r7
 1092 00b6 2046     		mov	r0, r4
 1093 00b8 2946     		mov	r1, r5
 1094 00ba FFF7FEFF 		bl	fillcolor
 1095              	.LVL159:
 1096              	.L75:
  80:LEDcontrol.c  ****         index2 = index2+0.01;
 1097              		.loc 1 80 0 is_stmt 1
 1098 00be 184B     		ldr	r3, .L81+8
 1099 00c0 5B68     		ldr	r3, [r3, #4]
 1100 00c2 DA6C     		ldr	r2, [r3, #76]
 1101 00c4 012A     		cmp	r2, #1
 1102 00c6 10D1     		bne	.L76
  80:LEDcontrol.c  ****         index2 = index2+0.01;
 1103              		.loc 1 80 0 is_stmt 0 discriminator 1
 1104 00c8 D3E90667 		ldrd	r6, [r3, #24]
 1105 00cc D3E90445 		ldrd	r4, [r3, #16]
 1106 00d0 0293     		str	r3, [sp, #8]
 1107 00d2 144B     		ldr	r3, .L81+12
 1108 00d4 1868     		ldr	r0, [r3]	@ float
 1109 00d6 FFF7FEFF 		bl	__aeabi_f2d
 1110              	.LVL160:
 1111 00da CDE90001 		strd	r0, [sp]
 1112 00de 3246     		mov	r2, r6
 1113 00e0 3B46     		mov	r3, r7
 1114 00e2 2046     		mov	r0, r4
 1115 00e4 2946     		mov	r1, r5
 1116 00e6 FFF7FEFF 		bl	fillcolor
 1117              	.LVL161:
 1118              	.L76:
  81:LEDcontrol.c  ****         if (index2 == 1)count = 0;
 1119              		.loc 1 81 0 is_stmt 1
 1120 00ea 0E4C     		ldr	r4, .L81+12
 1121 00ec 2068     		ldr	r0, [r4]	@ float
 1122 00ee FFF7FEFF 		bl	__aeabi_f2d
 1123              	.LVL162:
 1124 00f2 09A3     		adr	r3, .L81
 1125 00f4 D3E90023 		ldrd	r2, [r3]
 1126 00f8 FFF7FEFF 		bl	__aeabi_dadd
 1127              	.LVL163:
 1128 00fc FFF7FEFF 		bl	__aeabi_d2f
ARM GAS  C:\Users\cring\AppData\Local\Temp\ccSaPXYf.s 			page 28


 1129              	.LVL164:
 1130 0100 2060     		str	r0, [r4]	@ float
  82:LEDcontrol.c  ****     }
 1131              		.loc 1 82 0
 1132 0102 4FF07E51 		mov	r1, #1065353216
 1133 0106 FFF7FEFF 		bl	__aeabi_fcmpeq
 1134              	.LVL165:
 1135 010a 10B1     		cbz	r0, .L69
  82:LEDcontrol.c  ****     }
 1136              		.loc 1 82 0 is_stmt 0 discriminator 1
 1137 010c 0022     		movs	r2, #0
 1138 010e 044B     		ldr	r3, .L81+8
 1139 0110 9A60     		str	r2, [r3, #8]
 1140              	.L69:
  85:LEDcontrol.c  **** 
 1141              		.loc 1 85 0 is_stmt 1
 1142 0112 05B0     		add	sp, sp, #20
 1143              		.cfi_def_cfa_offset 20
 1144              		@ sp needed
 1145 0114 F0BD     		pop	{r4, r5, r6, r7, pc}
 1146              	.L82:
 1147 0116 00BF     		.align	3
 1148              	.L81:
 1149 0118 7B14AE47 		.word	1202590843
 1150 011c E17A843F 		.word	1065646817
 1151 0120 00000000 		.word	.LANCHOR0
 1152 0124 00000000 		.word	.LANCHOR1
 1153              		.cfi_endproc
 1154              	.LFE66:
 1155              		.size	isr_LED_pulse, .-isr_LED_pulse
 1156              		.section	.text.isr_BlinkLED,"ax",%progbits
 1157              		.align	2
 1158              		.global	isr_BlinkLED
 1159              		.thumb
 1160              		.thumb_func
 1161              		.type	isr_BlinkLED, %function
 1162              	isr_BlinkLED:
 1163              	.LFB67:
  88:LEDcontrol.c  ****     if(rgbLED1->blink == 1)
 1164              		.loc 1 88 0
 1165              		.cfi_startproc
 1166              		@ args = 0, pretend = 0, frame = 0
 1167              		@ frame_needed = 0, uses_anonymous_args = 0
 1168 0000 30B5     		push	{r4, r5, lr}
 1169              		.cfi_def_cfa_offset 12
 1170              		.cfi_offset 4, -12
 1171              		.cfi_offset 5, -8
 1172              		.cfi_offset 14, -4
 1173 0002 85B0     		sub	sp, sp, #20
 1174              		.cfi_def_cfa_offset 32
  89:LEDcontrol.c  ****     {
 1175              		.loc 1 89 0
 1176 0004 2D4B     		ldr	r3, .L91
 1177 0006 1B68     		ldr	r3, [r3]
 1178 0008 1A6D     		ldr	r2, [r3, #80]
 1179 000a 012A     		cmp	r2, #1
 1180 000c 27D1     		bne	.L84
ARM GAS  C:\Users\cring\AppData\Local\Temp\ccSaPXYf.s 			page 29


  91:LEDcontrol.c  ****         {
 1181              		.loc 1 91 0
 1182 000e 2B4A     		ldr	r2, .L91
 1183 0010 D268     		ldr	r2, [r2, #12]
 1184 0012 12B1     		cbz	r2, .L85
 1185 0014 012A     		cmp	r2, #1
 1186 0016 12D0     		beq	.L86
 1187 0018 21E0     		b	.L84
 1188              	.L85:
  95:LEDcontrol.c  ****                 count3++;
 1189              		.loc 1 95 0
 1190 001a D3E90645 		ldrd	r4, [r3, #24]
 1191 001e D3E90401 		ldrd	r0, [r3, #16]
 1192 0022 0293     		str	r3, [sp, #8]
 1193 0024 0022     		movs	r2, #0
 1194 0026 264B     		ldr	r3, .L91+4
 1195 0028 CDE90023 		strd	r2, [sp]
 1196 002c 2246     		mov	r2, r4
 1197 002e 2B46     		mov	r3, r5
 1198 0030 FFF7FEFF 		bl	fillcolor
 1199              	.LVL166:
  96:LEDcontrol.c  ****             }
 1200              		.loc 1 96 0
 1201 0034 214A     		ldr	r2, .L91
 1202 0036 D368     		ldr	r3, [r2, #12]
 1203 0038 0133     		adds	r3, r3, #1
 1204 003a D360     		str	r3, [r2, #12]
  98:LEDcontrol.c  ****             case 1:
 1205              		.loc 1 98 0
 1206 003c 0FE0     		b	.L84
 1207              	.L86:
 101:LEDcontrol.c  ****                 count3 = 0;
 1208              		.loc 1 101 0
 1209 003e D3E90645 		ldrd	r4, [r3, #24]
 1210 0042 D3E90401 		ldrd	r0, [r3, #16]
 1211 0046 0293     		str	r3, [sp, #8]
 1212 0048 0022     		movs	r2, #0
 1213 004a 0023     		movs	r3, #0
 1214 004c CDE90023 		strd	r2, [sp]
 1215 0050 2246     		mov	r2, r4
 1216 0052 2B46     		mov	r3, r5
 1217 0054 FFF7FEFF 		bl	fillcolor
 1218              	.LVL167:
 102:LEDcontrol.c  ****             }
 1219              		.loc 1 102 0
 1220 0058 0022     		movs	r2, #0
 1221 005a 184B     		ldr	r3, .L91
 1222 005c DA60     		str	r2, [r3, #12]
 1223              	.L84:
 107:LEDcontrol.c  ****     {
 1224              		.loc 1 107 0
 1225 005e 174B     		ldr	r3, .L91
 1226 0060 5B68     		ldr	r3, [r3, #4]
 1227 0062 1A6D     		ldr	r2, [r3, #80]
 1228 0064 012A     		cmp	r2, #1
 1229 0066 27D1     		bne	.L83
 109:LEDcontrol.c  ****         {
ARM GAS  C:\Users\cring\AppData\Local\Temp\ccSaPXYf.s 			page 30


 1230              		.loc 1 109 0
 1231 0068 144A     		ldr	r2, .L91
 1232 006a D268     		ldr	r2, [r2, #12]
 1233 006c 12B1     		cbz	r2, .L88
 1234 006e 012A     		cmp	r2, #1
 1235 0070 12D0     		beq	.L89
 1236 0072 21E0     		b	.L83
 1237              	.L88:
 113:LEDcontrol.c  ****                 count3++;
 1238              		.loc 1 113 0
 1239 0074 D3E90645 		ldrd	r4, [r3, #24]
 1240 0078 D3E90401 		ldrd	r0, [r3, #16]
 1241 007c 0293     		str	r3, [sp, #8]
 1242 007e 0022     		movs	r2, #0
 1243 0080 0F4B     		ldr	r3, .L91+4
 1244 0082 CDE90023 		strd	r2, [sp]
 1245 0086 2246     		mov	r2, r4
 1246 0088 2B46     		mov	r3, r5
 1247 008a FFF7FEFF 		bl	fillcolor
 1248              	.LVL168:
 114:LEDcontrol.c  ****             }
 1249              		.loc 1 114 0
 1250 008e 0B4A     		ldr	r2, .L91
 1251 0090 D368     		ldr	r3, [r2, #12]
 1252 0092 0133     		adds	r3, r3, #1
 1253 0094 D360     		str	r3, [r2, #12]
 116:LEDcontrol.c  ****             case 1:
 1254              		.loc 1 116 0
 1255 0096 0FE0     		b	.L83
 1256              	.L89:
 119:LEDcontrol.c  ****                 count3 = 0;
 1257              		.loc 1 119 0
 1258 0098 D3E90645 		ldrd	r4, [r3, #24]
 1259 009c D3E90401 		ldrd	r0, [r3, #16]
 1260 00a0 0293     		str	r3, [sp, #8]
 1261 00a2 0022     		movs	r2, #0
 1262 00a4 0023     		movs	r3, #0
 1263 00a6 CDE90023 		strd	r2, [sp]
 1264 00aa 2246     		mov	r2, r4
 1265 00ac 2B46     		mov	r3, r5
 1266 00ae FFF7FEFF 		bl	fillcolor
 1267              	.LVL169:
 120:LEDcontrol.c  ****             }
 1268              		.loc 1 120 0
 1269 00b2 0022     		movs	r2, #0
 1270 00b4 014B     		ldr	r3, .L91
 1271 00b6 DA60     		str	r2, [r3, #12]
 1272              	.L83:
 125:LEDcontrol.c  **** 
 1273              		.loc 1 125 0
 1274 00b8 05B0     		add	sp, sp, #20
 1275              		.cfi_def_cfa_offset 12
 1276              		@ sp needed
 1277 00ba 30BD     		pop	{r4, r5, pc}
 1278              	.L92:
 1279              		.align	2
 1280              	.L91:
ARM GAS  C:\Users\cring\AppData\Local\Temp\ccSaPXYf.s 			page 31


 1281 00bc 00000000 		.word	.LANCHOR0
 1282 00c0 0000F03F 		.word	1072693248
 1283              		.cfi_endproc
 1284              	.LFE67:
 1285              		.size	isr_BlinkLED, .-isr_BlinkLED
 1286              		.section	.text.isr_LED_ring,"ax",%progbits
 1287              		.align	2
 1288              		.global	isr_LED_ring
 1289              		.thumb
 1290              		.thumb_func
 1291              		.type	isr_LED_ring, %function
 1292              	isr_LED_ring:
 1293              	.LFB65:
  42:LEDcontrol.c  ****     if((rgbLED1->ring == 0) && (rgbLED2->ring == 0)) return;
 1294              		.loc 1 42 0
 1295              		.cfi_startproc
 1296              		@ args = 0, pretend = 0, frame = 0
 1297              		@ frame_needed = 0, uses_anonymous_args = 0
 1298 0000 2DE9F043 		push	{r4, r5, r6, r7, r8, r9, lr}
 1299              		.cfi_def_cfa_offset 28
 1300              		.cfi_offset 4, -28
 1301              		.cfi_offset 5, -24
 1302              		.cfi_offset 6, -20
 1303              		.cfi_offset 7, -16
 1304              		.cfi_offset 8, -12
 1305              		.cfi_offset 9, -8
 1306              		.cfi_offset 14, -4
 1307 0004 85B0     		sub	sp, sp, #20
 1308              		.cfi_def_cfa_offset 48
  43:LEDcontrol.c  ****     if(rgbLED1->ring == 1) fillcolor(0,0,0,rgbLED1);
 1309              		.loc 1 43 0
 1310 0006 404B     		ldr	r3, .L112
 1311 0008 1A68     		ldr	r2, [r3]
 1312 000a 936C     		ldr	r3, [r2, #72]
 1313 000c 23B9     		cbnz	r3, .L94
  43:LEDcontrol.c  ****     if(rgbLED1->ring == 1) fillcolor(0,0,0,rgbLED1);
 1314              		.loc 1 43 0 is_stmt 0 discriminator 1
 1315 000e 3E49     		ldr	r1, .L112
 1316 0010 4968     		ldr	r1, [r1, #4]
 1317 0012 896C     		ldr	r1, [r1, #72]
 1318 0014 0029     		cmp	r1, #0
 1319 0016 73D0     		beq	.L93
 1320              	.L94:
  44:LEDcontrol.c  ****     if(rgbLED2->ring == 1) fillcolor(0,0,0,rgbLED2);
 1321              		.loc 1 44 0 is_stmt 1
 1322 0018 012B     		cmp	r3, #1
 1323 001a 08D1     		bne	.L96
  44:LEDcontrol.c  ****     if(rgbLED2->ring == 1) fillcolor(0,0,0,rgbLED2);
 1324              		.loc 1 44 0 is_stmt 0 discriminator 1
 1325 001c 0020     		movs	r0, #0
 1326 001e 0021     		movs	r1, #0
 1327 0020 0292     		str	r2, [sp, #8]
 1328 0022 CDE90001 		strd	r0, [sp]
 1329 0026 0246     		mov	r2, r0
 1330 0028 0B46     		mov	r3, r1
 1331 002a FFF7FEFF 		bl	fillcolor
 1332              	.LVL170:
ARM GAS  C:\Users\cring\AppData\Local\Temp\ccSaPXYf.s 			page 32


 1333              	.L96:
  45:LEDcontrol.c  ****     
 1334              		.loc 1 45 0 is_stmt 1
 1335 002e 364B     		ldr	r3, .L112
 1336 0030 5B68     		ldr	r3, [r3, #4]
 1337 0032 9A6C     		ldr	r2, [r3, #72]
 1338 0034 012A     		cmp	r2, #1
 1339 0036 08D1     		bne	.L97
  45:LEDcontrol.c  ****     
 1340              		.loc 1 45 0 is_stmt 0 discriminator 1
 1341 0038 0020     		movs	r0, #0
 1342 003a 0021     		movs	r1, #0
 1343 003c 0293     		str	r3, [sp, #8]
 1344 003e CDE90001 		strd	r0, [sp]
 1345 0042 0246     		mov	r2, r0
 1346 0044 0B46     		mov	r3, r1
 1347 0046 FFF7FEFF 		bl	fillcolor
 1348              	.LVL171:
 1349              	.L97:
 1350              	.LBB7:
  47:LEDcontrol.c  ****         {
 1351              		.loc 1 47 0 is_stmt 1
 1352 004a 2F4B     		ldr	r3, .L112
 1353 004c 1C69     		ldr	r4, [r3, #16]
 1354              	.LVL172:
 1355 004e 38E0     		b	.L98
 1356              	.L103:
  49:LEDcontrol.c  ****             {
 1357              		.loc 1 49 0
 1358 0050 2D4B     		ldr	r3, .L112
 1359 0052 1B68     		ldr	r3, [r3]
 1360 0054 9A6C     		ldr	r2, [r3, #72]
 1361 0056 012A     		cmp	r2, #1
 1362 0058 16D1     		bne	.L99
 1363              	.LBB8:
  51:LEDcontrol.c  ****                 setcolorLED((rgbLED1 + x)->h, (rgbLED1 + x)->s, (rgbLED1 + x)->v, x, rgbLED1);
 1364              		.loc 1 51 0
 1365 005a 1D6C     		ldr	r5, [r3, #64]
 1366 005c AC42     		cmp	r4, r5
 1367 005e 01DB     		blt	.L107
  51:LEDcontrol.c  ****                 setcolorLED((rgbLED1 + x)->h, (rgbLED1 + x)->s, (rgbLED1 + x)->v, x, rgbLED1);
 1368              		.loc 1 51 0 is_stmt 0 discriminator 1
 1369 0060 651B     		subs	r5, r4, r5
 1370 0062 00E0     		b	.L100
 1371              	.L107:
  51:LEDcontrol.c  ****                 setcolorLED((rgbLED1 + x)->h, (rgbLED1 + x)->s, (rgbLED1 + x)->v, x, rgbLED1);
 1372              		.loc 1 51 0
 1373 0064 2546     		mov	r5, r4
 1374              	.L100:
 1375              	.LVL173:
  52:LEDcontrol.c  ****             }
 1376              		.loc 1 52 0 is_stmt 1 discriminator 4
 1377 0066 5822     		movs	r2, #88
 1378 0068 02FB0532 		mla	r2, r2, r5, r3
 1379 006c D2E90689 		ldrd	r8, [r2, #24]
 1380 0070 D2E90401 		ldrd	r0, [r2, #16]
 1381 0074 0393     		str	r3, [sp, #12]
ARM GAS  C:\Users\cring\AppData\Local\Temp\ccSaPXYf.s 			page 33


 1382 0076 0295     		str	r5, [sp, #8]
 1383 0078 D2E90867 		ldrd	r6, [r2, #32]
 1384 007c CDE90067 		strd	r6, [sp]
 1385 0080 4246     		mov	r2, r8
 1386 0082 4B46     		mov	r3, r9
 1387 0084 FFF7FEFF 		bl	setcolorLED
 1388              	.LVL174:
 1389              	.L99:
 1390              	.LBE8:
  54:LEDcontrol.c  ****             {
 1391              		.loc 1 54 0
 1392 0088 1F4B     		ldr	r3, .L112
 1393 008a 5B68     		ldr	r3, [r3, #4]
 1394 008c 9A6C     		ldr	r2, [r3, #72]
 1395 008e 012A     		cmp	r2, #1
 1396 0090 16D1     		bne	.L101
 1397              	.LBB9:
  56:LEDcontrol.c  ****                 setcolorLED((rgbLED2 + x)->h, (rgbLED2 + x)->s, (rgbLED2 + x)->v, x, rgbLED2);  
 1398              		.loc 1 56 0
 1399 0092 1D6C     		ldr	r5, [r3, #64]
 1400 0094 AC42     		cmp	r4, r5
 1401 0096 01DB     		blt	.L108
  56:LEDcontrol.c  ****                 setcolorLED((rgbLED2 + x)->h, (rgbLED2 + x)->s, (rgbLED2 + x)->v, x, rgbLED2);  
 1402              		.loc 1 56 0 is_stmt 0 discriminator 1
 1403 0098 651B     		subs	r5, r4, r5
 1404 009a 00E0     		b	.L102
 1405              	.L108:
  56:LEDcontrol.c  ****                 setcolorLED((rgbLED2 + x)->h, (rgbLED2 + x)->s, (rgbLED2 + x)->v, x, rgbLED2);  
 1406              		.loc 1 56 0
 1407 009c 2546     		mov	r5, r4
 1408              	.L102:
 1409              	.LVL175:
  57:LEDcontrol.c  ****             }
 1410              		.loc 1 57 0 is_stmt 1 discriminator 4
 1411 009e 5822     		movs	r2, #88
 1412 00a0 02FB0532 		mla	r2, r2, r5, r3
 1413 00a4 D2E90689 		ldrd	r8, [r2, #24]
 1414 00a8 D2E90401 		ldrd	r0, [r2, #16]
 1415 00ac 0393     		str	r3, [sp, #12]
 1416 00ae 0295     		str	r5, [sp, #8]
 1417 00b0 D2E90867 		ldrd	r6, [r2, #32]
 1418 00b4 CDE90067 		strd	r6, [sp]
 1419 00b8 4246     		mov	r2, r8
 1420 00ba 4B46     		mov	r3, r9
 1421 00bc FFF7FEFF 		bl	setcolorLED
 1422              	.LVL176:
 1423              	.L101:
 1424              	.LBE9:
  47:LEDcontrol.c  ****         {
 1425              		.loc 1 47 0 discriminator 2
 1426 00c0 0134     		adds	r4, r4, #1
 1427              	.LVL177:
 1428              	.L98:
  47:LEDcontrol.c  ****         {
 1429              		.loc 1 47 0 is_stmt 0 discriminator 1
 1430 00c2 114B     		ldr	r3, .L112
 1431 00c4 1A69     		ldr	r2, [r3, #16]
ARM GAS  C:\Users\cring\AppData\Local\Temp\ccSaPXYf.s 			page 34


 1432 00c6 5B69     		ldr	r3, [r3, #20]
 1433 00c8 1344     		add	r3, r3, r2
 1434 00ca 9C42     		cmp	r4, r3
 1435 00cc C0DB     		blt	.L103
 1436              	.LBE7:
  60:LEDcontrol.c  ****     {
 1437              		.loc 1 60 0 is_stmt 1
 1438 00ce 0E4B     		ldr	r3, .L112
 1439 00d0 1B68     		ldr	r3, [r3]
 1440 00d2 4BB1     		cbz	r3, .L104
  62:LEDcontrol.c  ****         return;
 1441              		.loc 1 62 0
 1442 00d4 1B6C     		ldr	r3, [r3, #64]
 1443 00d6 013B     		subs	r3, r3, #1
 1444 00d8 9A42     		cmp	r2, r3
 1445 00da 01DA     		bge	.L109
  62:LEDcontrol.c  ****         return;
 1446              		.loc 1 62 0 is_stmt 0 discriminator 1
 1447 00dc 0132     		adds	r2, r2, #1
 1448 00de 00E0     		b	.L105
 1449              	.L109:
  62:LEDcontrol.c  ****         return;
 1450              		.loc 1 62 0
 1451 00e0 0022     		movs	r2, #0
 1452              	.L105:
  62:LEDcontrol.c  ****         return;
 1453              		.loc 1 62 0 discriminator 4
 1454 00e2 094B     		ldr	r3, .L112
 1455 00e4 1A61     		str	r2, [r3, #16]
  63:LEDcontrol.c  ****     }else if (rgbLED2 != NULL){
 1456              		.loc 1 63 0 is_stmt 1 discriminator 4
 1457 00e6 0BE0     		b	.L93
 1458              	.L104:
  64:LEDcontrol.c  ****         index_ = index_ < (rgbLED2->LEDlength-1) ? index_ + 1 : 0;
 1459              		.loc 1 64 0
 1460 00e8 074B     		ldr	r3, .L112
 1461 00ea 5B68     		ldr	r3, [r3, #4]
 1462 00ec 43B1     		cbz	r3, .L93
  65:LEDcontrol.c  ****     }
 1463              		.loc 1 65 0
 1464 00ee 1B6C     		ldr	r3, [r3, #64]
 1465 00f0 013B     		subs	r3, r3, #1
 1466 00f2 9A42     		cmp	r2, r3
 1467 00f4 01DA     		bge	.L110
  65:LEDcontrol.c  ****     }
 1468              		.loc 1 65 0 is_stmt 0 discriminator 1
 1469 00f6 0132     		adds	r2, r2, #1
 1470 00f8 00E0     		b	.L106
 1471              	.L110:
  65:LEDcontrol.c  ****     }
 1472              		.loc 1 65 0
 1473 00fa 0022     		movs	r2, #0
 1474              	.L106:
  65:LEDcontrol.c  ****     }
 1475              		.loc 1 65 0 discriminator 4
 1476 00fc 024B     		ldr	r3, .L112
 1477 00fe 1A61     		str	r2, [r3, #16]
ARM GAS  C:\Users\cring\AppData\Local\Temp\ccSaPXYf.s 			page 35


 1478              	.LVL178:
 1479              	.L93:
  67:LEDcontrol.c  **** 
 1480              		.loc 1 67 0 is_stmt 1
 1481 0100 05B0     		add	sp, sp, #20
 1482              		.cfi_def_cfa_offset 28
 1483              		@ sp needed
 1484 0102 BDE8F083 		pop	{r4, r5, r6, r7, r8, r9, pc}
 1485              	.L113:
 1486 0106 00BF     		.align	2
 1487              	.L112:
 1488 0108 00000000 		.word	.LANCHOR0
 1489              		.cfi_endproc
 1490              	.LFE65:
 1491              		.size	isr_LED_ring, .-isr_LED_ring
 1492              		.section	.text.LEDOff,"ax",%progbits
 1493              		.align	2
 1494              		.global	LEDOff
 1495              		.thumb
 1496              		.thumb_func
 1497              		.type	LEDOff, %function
 1498              	LEDOff:
 1499              	.LFB79:
 367:LEDcontrol.c  **** 
 368:LEDcontrol.c  **** void LEDOff(LEDctrl *rgbLED)
 369:LEDcontrol.c  **** {
 1500              		.loc 1 369 0
 1501              		.cfi_startproc
 1502              		@ args = 0, pretend = 0, frame = 0
 1503              		@ frame_needed = 0, uses_anonymous_args = 0
 1504              		@ link register save eliminated.
 1505              	.LVL179:
 370:LEDcontrol.c  ****     rgbLED->ring = 0;
 1506              		.loc 1 370 0
 1507 0000 0023     		movs	r3, #0
 1508 0002 8364     		str	r3, [r0, #72]
 371:LEDcontrol.c  ****     rgbLED->pulse = 0;
 1509              		.loc 1 371 0
 1510 0004 C364     		str	r3, [r0, #76]
 372:LEDcontrol.c  ****     rgbLED->blink = 0;
 1511              		.loc 1 372 0
 1512 0006 0365     		str	r3, [r0, #80]
 1513 0008 7047     		bx	lr
 1514              		.cfi_endproc
 1515              	.LFE79:
 1516              		.size	LEDOff, .-LEDOff
 1517 000a 00BF     		.section	.text.addLEDstrip,"ax",%progbits
 1518              		.align	2
 1519              		.global	addLEDstrip
 1520              		.thumb
 1521              		.thumb_func
 1522              		.type	addLEDstrip, %function
 1523              	addLEDstrip:
 1524              	.LFB70:
 140:LEDcontrol.c  ****     if (strip == 1)
 1525              		.loc 1 140 0
 1526              		.cfi_startproc
ARM GAS  C:\Users\cring\AppData\Local\Temp\ccSaPXYf.s 			page 36


 1527              		@ args = 0, pretend = 0, frame = 0
 1528              		@ frame_needed = 0, uses_anonymous_args = 0
 1529              	.LVL180:
 1530 0000 30B5     		push	{r4, r5, lr}
 1531              		.cfi_def_cfa_offset 12
 1532              		.cfi_offset 4, -12
 1533              		.cfi_offset 5, -8
 1534              		.cfi_offset 14, -4
 1535 0002 85B0     		sub	sp, sp, #20
 1536              		.cfi_def_cfa_offset 32
 1537 0004 0D46     		mov	r5, r1
 141:LEDcontrol.c  ****     {
 1538              		.loc 1 141 0
 1539 0006 012A     		cmp	r2, #1
 1540 0008 02D1     		bne	.L116
 143:LEDcontrol.c  ****     }else{
 1541              		.loc 1 143 0
 1542 000a 0E4B     		ldr	r3, .L121
 1543 000c 1960     		str	r1, [r3]
 1544 000e 01E0     		b	.L117
 1545              	.L116:
 145:LEDcontrol.c  ****     }
 1546              		.loc 1 145 0
 1547 0010 0C4B     		ldr	r3, .L121
 1548 0012 5960     		str	r1, [r3, #4]
 1549              	.L117:
 148:LEDcontrol.c  ****     rgbLED_->pin = strip;
 1550              		.loc 1 148 0
 1551 0014 2864     		str	r0, [r5, #64]
 149:LEDcontrol.c  ****     LEDOff(rgbLED_);
 1552              		.loc 1 149 0
 1553 0016 6A64     		str	r2, [r5, #68]
 150:LEDcontrol.c  ****     
 1554              		.loc 1 150 0
 1555 0018 2846     		mov	r0, r5
 1556              	.LVL181:
 1557 001a FFF7FEFF 		bl	LEDOff
 1558              	.LVL182:
 1559              	.LBB10:
 152:LEDcontrol.c  ****     {
 1560              		.loc 1 152 0
 1561 001e 0024     		movs	r4, #0
 1562 0020 0AE0     		b	.L118
 1563              	.LVL183:
 1564              	.L119:
 154:LEDcontrol.c  ****     }
 1565              		.loc 1 154 0 discriminator 3
 1566 0022 0020     		movs	r0, #0
 1567 0024 0021     		movs	r1, #0
 1568 0026 0395     		str	r5, [sp, #12]
 1569 0028 0294     		str	r4, [sp, #8]
 1570 002a CDE90001 		strd	r0, [sp]
 1571 002e 0246     		mov	r2, r0
 1572 0030 0B46     		mov	r3, r1
 1573 0032 FFF7FEFF 		bl	setcolorLED
 1574              	.LVL184:
 152:LEDcontrol.c  ****     {
ARM GAS  C:\Users\cring\AppData\Local\Temp\ccSaPXYf.s 			page 37


 1575              		.loc 1 152 0 discriminator 3
 1576 0036 0134     		adds	r4, r4, #1
 1577              	.LVL185:
 1578              	.L118:
 152:LEDcontrol.c  ****     {
 1579              		.loc 1 152 0 is_stmt 0 discriminator 1
 1580 0038 2B6C     		ldr	r3, [r5, #64]
 1581 003a 9C42     		cmp	r4, r3
 1582 003c F1DB     		blt	.L119
 1583              	.LBE10:
 156:LEDcontrol.c  **** 
 1584              		.loc 1 156 0 is_stmt 1
 1585 003e 05B0     		add	sp, sp, #20
 1586              		.cfi_def_cfa_offset 12
 1587              		@ sp needed
 1588 0040 30BD     		pop	{r4, r5, pc}
 1589              	.LVL186:
 1590              	.L122:
 1591 0042 00BF     		.align	2
 1592              	.L121:
 1593 0044 00000000 		.word	.LANCHOR0
 1594              		.cfi_endproc
 1595              	.LFE70:
 1596              		.size	addLEDstrip, .-addLEDstrip
 1597              		.section	.text.pulseLED,"ax",%progbits
 1598              		.align	2
 1599              		.global	pulseLED
 1600              		.thumb
 1601              		.thumb_func
 1602              		.type	pulseLED, %function
 1603              	pulseLED:
 1604              	.LFB73:
 185:LEDcontrol.c  ****     LEDOff(rgbLED);
 1605              		.loc 1 185 0
 1606              		.cfi_startproc
 1607              		@ args = 12, pretend = 0, frame = 0
 1608              		@ frame_needed = 0, uses_anonymous_args = 0
 1609              	.LVL187:
 1610 0000 2DE9F047 		push	{r4, r5, r6, r7, r8, r9, r10, lr}
 1611              		.cfi_def_cfa_offset 32
 1612              		.cfi_offset 4, -32
 1613              		.cfi_offset 5, -28
 1614              		.cfi_offset 6, -24
 1615              		.cfi_offset 7, -20
 1616              		.cfi_offset 8, -16
 1617              		.cfi_offset 9, -12
 1618              		.cfi_offset 10, -8
 1619              		.cfi_offset 14, -4
 1620 0004 84B0     		sub	sp, sp, #16
 1621              		.cfi_def_cfa_offset 48
 1622 0006 0446     		mov	r4, r0
 1623 0008 0D46     		mov	r5, r1
 1624 000a 1646     		mov	r6, r2
 1625 000c 1F46     		mov	r7, r3
 1626 000e DDE90C89 		ldrd	r8, [sp, #48]
 1627 0012 DDF838A0 		ldr	r10, [sp, #56]
 186:LEDcontrol.c  ****     rgbLED->pulse = 1;
ARM GAS  C:\Users\cring\AppData\Local\Temp\ccSaPXYf.s 			page 38


 1628              		.loc 1 186 0
 1629 0016 5046     		mov	r0, r10
 1630              	.LVL188:
 1631 0018 FFF7FEFF 		bl	LEDOff
 1632              	.LVL189:
 187:LEDcontrol.c  ****     
 1633              		.loc 1 187 0
 1634 001c 0123     		movs	r3, #1
 1635 001e CAF84C30 		str	r3, [r10, #76]
 189:LEDcontrol.c  ****     rgbLED->s = s1;
 1636              		.loc 1 189 0
 1637 0022 CAE90445 		strd	r4, [r10, #16]
 190:LEDcontrol.c  ****     rgbLED->v = v1;
 1638              		.loc 1 190 0
 1639 0026 CAE90667 		strd	r6, [r10, #24]
 191:LEDcontrol.c  ****     fillcolor(h1,s1,v1, rgbLED);
 1640              		.loc 1 191 0
 1641 002a CAE90889 		strd	r8, [r10, #32]
 192:LEDcontrol.c  **** }
 1642              		.loc 1 192 0
 1643 002e CDF808A0 		str	r10, [sp, #8]
 1644 0032 CDE90089 		strd	r8, [sp]
 1645 0036 3246     		mov	r2, r6
 1646 0038 3B46     		mov	r3, r7
 1647 003a 2046     		mov	r0, r4
 1648 003c 2946     		mov	r1, r5
 1649 003e FFF7FEFF 		bl	fillcolor
 1650              	.LVL190:
 193:LEDcontrol.c  **** 
 1651              		.loc 1 193 0
 1652 0042 04B0     		add	sp, sp, #16
 1653              		.cfi_def_cfa_offset 32
 1654              		@ sp needed
 1655 0044 BDE8F087 		pop	{r4, r5, r6, r7, r8, r9, r10, pc}
 1656              		.cfi_endproc
 1657              	.LFE73:
 1658              		.size	pulseLED, .-pulseLED
 1659              		.section	.text.ringLED,"ax",%progbits
 1660              		.align	2
 1661              		.global	ringLED
 1662              		.thumb
 1663              		.thumb_func
 1664              		.type	ringLED, %function
 1665              	ringLED:
 1666              	.LFB75:
 203:LEDcontrol.c  ****     pulselength_ = pulselength;
 1667              		.loc 1 203 0
 1668              		.cfi_startproc
 1669              		@ args = 20, pretend = 0, frame = 0
 1670              		@ frame_needed = 0, uses_anonymous_args = 0
 1671              	.LVL191:
 1672 0000 2DE9F047 		push	{r4, r5, r6, r7, r8, r9, r10, lr}
 1673              		.cfi_def_cfa_offset 32
 1674              		.cfi_offset 4, -32
 1675              		.cfi_offset 5, -28
 1676              		.cfi_offset 6, -24
 1677              		.cfi_offset 7, -20
ARM GAS  C:\Users\cring\AppData\Local\Temp\ccSaPXYf.s 			page 39


 1678              		.cfi_offset 8, -16
 1679              		.cfi_offset 9, -12
 1680              		.cfi_offset 10, -8
 1681              		.cfi_offset 14, -4
 1682 0004 9046     		mov	r8, r2
 1683 0006 9946     		mov	r9, r3
 1684 0008 DDE90867 		ldrd	r6, [sp, #32]
 1685 000c DDE90A45 		ldrd	r4, [sp, #40]
 1686 0010 DDF830A0 		ldr	r10, [sp, #48]
 204:LEDcontrol.c  ****     LEDOff(rgbLED);
 1687              		.loc 1 204 0
 1688 0014 0C4B     		ldr	r3, .L129
 1689 0016 5861     		str	r0, [r3, #20]
 205:LEDcontrol.c  ****     rgbLED->ring = 1;
 1690              		.loc 1 205 0
 1691 0018 5046     		mov	r0, r10
 1692              	.LVL192:
 1693 001a FFF7FEFF 		bl	LEDOff
 1694              	.LVL193:
 206:LEDcontrol.c  ****     
 1695              		.loc 1 206 0
 1696 001e 0123     		movs	r3, #1
 1697 0020 CAF84830 		str	r3, [r10, #72]
 1698              	.LVL194:
 1699              	.LBB11:
 208:LEDcontrol.c  ****     {
 1700              		.loc 1 208 0
 1701 0024 0022     		movs	r2, #0
 1702 0026 09E0     		b	.L126
 1703              	.LVL195:
 1704              	.L127:
 210:LEDcontrol.c  ****         (rgbLED + i)->s = s1;
 1705              		.loc 1 210 0 discriminator 3
 1706 0028 5823     		movs	r3, #88
 1707 002a 03FB02A3 		mla	r3, r3, r2, r10
 1708 002e C3E90489 		strd	r8, [r3, #16]
 211:LEDcontrol.c  ****         (rgbLED + i)->v = v1;
 1709              		.loc 1 211 0 discriminator 3
 1710 0032 C3E90667 		strd	r6, [r3, #24]
 212:LEDcontrol.c  ****     }
 1711              		.loc 1 212 0 discriminator 3
 1712 0036 C3E90845 		strd	r4, [r3, #32]
 208:LEDcontrol.c  ****     {
 1713              		.loc 1 208 0 discriminator 3
 1714 003a 0132     		adds	r2, r2, #1
 1715              	.LVL196:
 1716              	.L126:
 208:LEDcontrol.c  ****     {
 1717              		.loc 1 208 0 is_stmt 0 discriminator 1
 1718 003c DAF84030 		ldr	r3, [r10, #64]
 1719 0040 9A42     		cmp	r2, r3
 1720 0042 F1DB     		blt	.L127
 1721              	.LBE11:
 214:LEDcontrol.c  **** 
 1722              		.loc 1 214 0 is_stmt 1
 1723 0044 BDE8F087 		pop	{r4, r5, r6, r7, r8, r9, r10, pc}
 1724              	.LVL197:
ARM GAS  C:\Users\cring\AppData\Local\Temp\ccSaPXYf.s 			page 40


 1725              	.L130:
 1726              		.align	2
 1727              	.L129:
 1728 0048 00000000 		.word	.LANCHOR0
 1729              		.cfi_endproc
 1730              	.LFE75:
 1731              		.size	ringLED, .-ringLED
 1732              		.section	.text.BlinkLED,"ax",%progbits
 1733              		.align	2
 1734              		.global	BlinkLED
 1735              		.thumb
 1736              		.thumb_func
 1737              		.type	BlinkLED, %function
 1738              	BlinkLED:
 1739              	.LFB80:
 373:LEDcontrol.c  **** }
 374:LEDcontrol.c  **** 
 375:LEDcontrol.c  **** void BlinkLED(double h1, double s1, double v1, LEDctrl *rgbLED)
 376:LEDcontrol.c  **** {
 1740              		.loc 1 376 0
 1741              		.cfi_startproc
 1742              		@ args = 12, pretend = 0, frame = 0
 1743              		@ frame_needed = 0, uses_anonymous_args = 0
 1744              	.LVL198:
 1745 0000 2DE9F047 		push	{r4, r5, r6, r7, r8, r9, r10, lr}
 1746              		.cfi_def_cfa_offset 32
 1747              		.cfi_offset 4, -32
 1748              		.cfi_offset 5, -28
 1749              		.cfi_offset 6, -24
 1750              		.cfi_offset 7, -20
 1751              		.cfi_offset 8, -16
 1752              		.cfi_offset 9, -12
 1753              		.cfi_offset 10, -8
 1754              		.cfi_offset 14, -4
 1755 0004 8046     		mov	r8, r0
 1756 0006 8946     		mov	r9, r1
 1757 0008 1646     		mov	r6, r2
 1758 000a 1F46     		mov	r7, r3
 1759 000c DDE90845 		ldrd	r4, [sp, #32]
 1760 0010 DDF828A0 		ldr	r10, [sp, #40]
 377:LEDcontrol.c  ****     LEDOff(rgbLED);
 1761              		.loc 1 377 0
 1762 0014 5046     		mov	r0, r10
 1763              	.LVL199:
 1764 0016 FFF7FEFF 		bl	LEDOff
 1765              	.LVL200:
 1766              	.LBB12:
 378:LEDcontrol.c  ****     
 379:LEDcontrol.c  ****     for(int i = 0; i<rgbLED->LEDlength; i++)
 1767              		.loc 1 379 0
 1768 001a 0022     		movs	r2, #0
 1769 001c 09E0     		b	.L132
 1770              	.LVL201:
 1771              	.L133:
 380:LEDcontrol.c  ****     {
 381:LEDcontrol.c  ****         (rgbLED + i)->h = h1;
 1772              		.loc 1 381 0 discriminator 3
ARM GAS  C:\Users\cring\AppData\Local\Temp\ccSaPXYf.s 			page 41


 1773 001e 5823     		movs	r3, #88
 1774 0020 03FB02A3 		mla	r3, r3, r2, r10
 1775 0024 C3E90489 		strd	r8, [r3, #16]
 382:LEDcontrol.c  ****         (rgbLED + i)->s = s1;
 1776              		.loc 1 382 0 discriminator 3
 1777 0028 C3E90667 		strd	r6, [r3, #24]
 383:LEDcontrol.c  ****         (rgbLED + i)->v = v1;
 1778              		.loc 1 383 0 discriminator 3
 1779 002c C3E90845 		strd	r4, [r3, #32]
 379:LEDcontrol.c  ****     {
 1780              		.loc 1 379 0 discriminator 3
 1781 0030 0132     		adds	r2, r2, #1
 1782              	.LVL202:
 1783              	.L132:
 379:LEDcontrol.c  ****     {
 1784              		.loc 1 379 0 is_stmt 0 discriminator 1
 1785 0032 DAF84030 		ldr	r3, [r10, #64]
 1786 0036 9A42     		cmp	r2, r3
 1787 0038 F1DB     		blt	.L133
 1788              	.LBE12:
 384:LEDcontrol.c  ****     }
 385:LEDcontrol.c  ****     
 386:LEDcontrol.c  ****     rgbLED->blink = 1;
 1789              		.loc 1 386 0 is_stmt 1
 1790 003a 0123     		movs	r3, #1
 1791 003c CAF85030 		str	r3, [r10, #80]
 1792 0040 BDE8F087 		pop	{r4, r5, r6, r7, r8, r9, r10, pc}
 1793              		.cfi_endproc
 1794              	.LFE80:
 1795              		.size	BlinkLED, .-BlinkLED
 1796              		.section	.text.LEDinitSeq,"ax",%progbits
 1797              		.align	2
 1798              		.global	LEDinitSeq
 1799              		.thumb
 1800              		.thumb_func
 1801              		.type	LEDinitSeq, %function
 1802              	LEDinitSeq:
 1803              	.LFB81:
 387:LEDcontrol.c  **** }
 388:LEDcontrol.c  **** 
 389:LEDcontrol.c  **** 
 390:LEDcontrol.c  **** //Forskellige sekvenser til LED OBS ordforklaringer er i system arkitketur
 391:LEDcontrol.c  **** void LEDinitSeq(LEDctrl *rgbLED)    //Initieringssekvens
 392:LEDcontrol.c  **** {
 1804              		.loc 1 392 0
 1805              		.cfi_startproc
 1806              		@ args = 0, pretend = 0, frame = 0
 1807              		@ frame_needed = 0, uses_anonymous_args = 0
 1808              	.LVL203:
 1809 0000 00B5     		push	{lr}
 1810              		.cfi_def_cfa_offset 4
 1811              		.cfi_offset 14, -4
 1812 0002 87B0     		sub	sp, sp, #28
 1813              		.cfi_def_cfa_offset 32
 393:LEDcontrol.c  ****     ringLED(3, 191, 1.0, 0.5, rgbLED);
 1814              		.loc 1 393 0
 1815 0004 0490     		str	r0, [sp, #16]
ARM GAS  C:\Users\cring\AppData\Local\Temp\ccSaPXYf.s 			page 42


 1816 0006 0022     		movs	r2, #0
 1817 0008 094B     		ldr	r3, .L137+8
 1818 000a CDE90223 		strd	r2, [sp, #8]
 1819 000e 0022     		movs	r2, #0
 1820 0010 084B     		ldr	r3, .L137+12
 1821 0012 CDE90023 		strd	r2, [sp]
 1822 0016 04A3     		adr	r3, .L137
 1823 0018 D3E90023 		ldrd	r2, [r3]
 1824 001c 0320     		movs	r0, #3
 1825              	.LVL204:
 1826 001e FFF7FEFF 		bl	ringLED
 1827              	.LVL205:
 394:LEDcontrol.c  **** }
 1828              		.loc 1 394 0
 1829 0022 07B0     		add	sp, sp, #28
 1830              		.cfi_def_cfa_offset 4
 1831              		@ sp needed
 1832 0024 5DF804FB 		ldr	pc, [sp], #4
 1833              	.L138:
 1834              		.align	3
 1835              	.L137:
 1836 0028 00000000 		.word	0
 1837 002c 00E06740 		.word	1080549376
 1838 0030 0000E03F 		.word	1071644672
 1839 0034 0000F03F 		.word	1072693248
 1840              		.cfi_endproc
 1841              	.LFE81:
 1842              		.size	LEDinitSeq, .-LEDinitSeq
 1843              		.section	.text.idleSeq,"ax",%progbits
 1844              		.align	2
 1845              		.global	idleSeq
 1846              		.thumb
 1847              		.thumb_func
 1848              		.type	idleSeq, %function
 1849              	idleSeq:
 1850              	.LFB82:
 395:LEDcontrol.c  **** 
 396:LEDcontrol.c  **** void idleSeq(LEDctrl *rgbLED)      //Idle-sekvens
 397:LEDcontrol.c  **** {
 1851              		.loc 1 397 0
 1852              		.cfi_startproc
 1853              		@ args = 0, pretend = 0, frame = 0
 1854              		@ frame_needed = 0, uses_anonymous_args = 0
 1855              	.LVL206:
 1856 0000 00B5     		push	{lr}
 1857              		.cfi_def_cfa_offset 4
 1858              		.cfi_offset 14, -4
 1859 0002 85B0     		sub	sp, sp, #20
 1860              		.cfi_def_cfa_offset 24
 398:LEDcontrol.c  ****     pulseLED(307, 1.0, 0.85, rgbLED);
 1861              		.loc 1 398 0
 1862 0004 0290     		str	r0, [sp, #8]
 1863 0006 08A3     		adr	r3, .L141
 1864 0008 D3E90023 		ldrd	r2, [r3]
 1865 000c CDE90023 		strd	r2, [sp]
 1866 0010 0022     		movs	r2, #0
 1867 0012 094B     		ldr	r3, .L141+16
ARM GAS  C:\Users\cring\AppData\Local\Temp\ccSaPXYf.s 			page 43


 1868 0014 06A1     		adr	r1, .L141+8
 1869 0016 D1E90001 		ldrd	r0, [r1]
 1870              	.LVL207:
 1871 001a FFF7FEFF 		bl	pulseLED
 1872              	.LVL208:
 399:LEDcontrol.c  **** }
 1873              		.loc 1 399 0
 1874 001e 05B0     		add	sp, sp, #20
 1875              		.cfi_def_cfa_offset 4
 1876              		@ sp needed
 1877 0020 5DF804FB 		ldr	pc, [sp], #4
 1878              	.L142:
 1879 0024 AFF30080 		.align	3
 1880              	.L141:
 1881 0028 33333333 		.word	858993459
 1882 002c 3333EB3F 		.word	1072378675
 1883 0030 00000000 		.word	0
 1884 0034 00307340 		.word	1081290752
 1885 0038 0000F03F 		.word	1072693248
 1886              		.cfi_endproc
 1887              	.LFE82:
 1888              		.size	idleSeq, .-idleSeq
 1889              		.section	.text.loserSeq,"ax",%progbits
 1890              		.align	2
 1891              		.global	loserSeq
 1892              		.thumb
 1893              		.thumb_func
 1894              		.type	loserSeq, %function
 1895              	loserSeq:
 1896              	.LFB83:
 400:LEDcontrol.c  **** 
 401:LEDcontrol.c  **** void loserSeq(LEDctrl *rgbLED)     //Tabersekvens
 402:LEDcontrol.c  **** {
 1897              		.loc 1 402 0
 1898              		.cfi_startproc
 1899              		@ args = 0, pretend = 0, frame = 0
 1900              		@ frame_needed = 0, uses_anonymous_args = 0
 1901              	.LVL209:
 1902 0000 10B5     		push	{r4, lr}
 1903              		.cfi_def_cfa_offset 8
 1904              		.cfi_offset 4, -8
 1905              		.cfi_offset 14, -4
 1906 0002 84B0     		sub	sp, sp, #16
 1907              		.cfi_def_cfa_offset 24
 1908 0004 0446     		mov	r4, r0
 403:LEDcontrol.c  ****     LEDOff(rgbLED);
 1909              		.loc 1 403 0
 1910 0006 FFF7FEFF 		bl	LEDOff
 1911              	.LVL210:
 404:LEDcontrol.c  ****     fillcolor(3, 1.0, 0.83, rgbLED);
 1912              		.loc 1 404 0
 1913 000a 0294     		str	r4, [sp, #8]
 1914 000c 06A3     		adr	r3, .L145
 1915 000e D3E90023 		ldrd	r2, [r3]
 1916 0012 CDE90023 		strd	r2, [sp]
 1917 0016 0022     		movs	r2, #0
 1918 0018 054B     		ldr	r3, .L145+8
ARM GAS  C:\Users\cring\AppData\Local\Temp\ccSaPXYf.s 			page 44


 1919 001a 0020     		movs	r0, #0
 1920 001c 0549     		ldr	r1, .L145+12
 1921 001e FFF7FEFF 		bl	fillcolor
 1922              	.LVL211:
 405:LEDcontrol.c  ****     
 406:LEDcontrol.c  **** }
 1923              		.loc 1 406 0
 1924 0022 04B0     		add	sp, sp, #16
 1925              		.cfi_def_cfa_offset 8
 1926              		@ sp needed
 1927 0024 10BD     		pop	{r4, pc}
 1928              	.LVL212:
 1929              	.L146:
 1930 0026 00BF     		.align	3
 1931              	.L145:
 1932 0028 8FC2F528 		.word	687194767
 1933 002c 5C8FEA3F 		.word	1072336732
 1934 0030 0000F03F 		.word	1072693248
 1935 0034 00000840 		.word	1074266112
 1936              		.cfi_endproc
 1937              	.LFE83:
 1938              		.size	loserSeq, .-loserSeq
 1939              		.section	.text.zeroCalibrateSeq,"ax",%progbits
 1940              		.align	2
 1941              		.global	zeroCalibrateSeq
 1942              		.thumb
 1943              		.thumb_func
 1944              		.type	zeroCalibrateSeq, %function
 1945              	zeroCalibrateSeq:
 1946              	.LFB84:
 407:LEDcontrol.c  **** 
 408:LEDcontrol.c  **** void zeroCalibrateSeq(LEDctrl *rgbLED) //Kalibreringssekvens
 409:LEDcontrol.c  **** {
 1947              		.loc 1 409 0
 1948              		.cfi_startproc
 1949              		@ args = 0, pretend = 0, frame = 0
 1950              		@ frame_needed = 0, uses_anonymous_args = 0
 1951              	.LVL213:
 1952 0000 00B5     		push	{lr}
 1953              		.cfi_def_cfa_offset 4
 1954              		.cfi_offset 14, -4
 1955 0002 85B0     		sub	sp, sp, #20
 1956              		.cfi_def_cfa_offset 24
 410:LEDcontrol.c  ****     pulseLED(65, 1, 1, rgbLED);
 1957              		.loc 1 410 0
 1958 0004 0022     		movs	r2, #0
 1959 0006 054B     		ldr	r3, .L149
 1960 0008 0290     		str	r0, [sp, #8]
 1961 000a CDE90023 		strd	r2, [sp]
 1962 000e 0020     		movs	r0, #0
 1963              	.LVL214:
 1964 0010 0349     		ldr	r1, .L149+4
 1965 0012 FFF7FEFF 		bl	pulseLED
 1966              	.LVL215:
 411:LEDcontrol.c  **** }
 1967              		.loc 1 411 0
 1968 0016 05B0     		add	sp, sp, #20
ARM GAS  C:\Users\cring\AppData\Local\Temp\ccSaPXYf.s 			page 45


 1969              		.cfi_def_cfa_offset 4
 1970              		@ sp needed
 1971 0018 5DF804FB 		ldr	pc, [sp], #4
 1972              	.L150:
 1973              		.align	2
 1974              	.L149:
 1975 001c 0000F03F 		.word	1072693248
 1976 0020 00405040 		.word	1079001088
 1977              		.cfi_endproc
 1978              	.LFE84:
 1979              		.size	zeroCalibrateSeq, .-zeroCalibrateSeq
 1980              		.section	.text.checkSeq,"ax",%progbits
 1981              		.align	2
 1982              		.global	checkSeq
 1983              		.thumb
 1984              		.thumb_func
 1985              		.type	checkSeq, %function
 1986              	checkSeq:
 1987              	.LFB85:
 412:LEDcontrol.c  **** 
 413:LEDcontrol.c  **** void checkSeq(LEDctrl *rgbLED) //Tjek vægt sekvens
 414:LEDcontrol.c  **** {
 1988              		.loc 1 414 0
 1989              		.cfi_startproc
 1990              		@ args = 0, pretend = 0, frame = 0
 1991              		@ frame_needed = 0, uses_anonymous_args = 0
 1992              	.LVL216:
 1993 0000 00B5     		push	{lr}
 1994              		.cfi_def_cfa_offset 4
 1995              		.cfi_offset 14, -4
 1996 0002 87B0     		sub	sp, sp, #28
 1997              		.cfi_def_cfa_offset 32
 415:LEDcontrol.c  ****     ringLED(3, 65, 1, 1, rgbLED);
 1998              		.loc 1 415 0
 1999 0004 0490     		str	r0, [sp, #16]
 2000 0006 0022     		movs	r2, #0
 2001 0008 064B     		ldr	r3, .L153
 2002 000a CDE90223 		strd	r2, [sp, #8]
 2003 000e CDE90023 		strd	r2, [sp]
 2004 0012 0022     		movs	r2, #0
 2005 0014 044B     		ldr	r3, .L153+4
 2006 0016 0320     		movs	r0, #3
 2007              	.LVL217:
 2008 0018 FFF7FEFF 		bl	ringLED
 2009              	.LVL218:
 416:LEDcontrol.c  **** }
 2010              		.loc 1 416 0
 2011 001c 07B0     		add	sp, sp, #28
 2012              		.cfi_def_cfa_offset 4
 2013              		@ sp needed
 2014 001e 5DF804FB 		ldr	pc, [sp], #4
 2015              	.L154:
 2016 0022 00BF     		.align	2
 2017              	.L153:
 2018 0024 0000F03F 		.word	1072693248
 2019 0028 00405040 		.word	1079001088
 2020              		.cfi_endproc
ARM GAS  C:\Users\cring\AppData\Local\Temp\ccSaPXYf.s 			page 46


 2021              	.LFE85:
 2022              		.size	checkSeq, .-checkSeq
 2023              		.section	.text.weightapprovedSeq,"ax",%progbits
 2024              		.align	2
 2025              		.global	weightapprovedSeq
 2026              		.thumb
 2027              		.thumb_func
 2028              		.type	weightapprovedSeq, %function
 2029              	weightapprovedSeq:
 2030              	.LFB86:
 417:LEDcontrol.c  **** 
 418:LEDcontrol.c  **** void weightapprovedSeq(LEDctrl *rgbLED) //Vægt godkendt sekvens
 419:LEDcontrol.c  **** {
 2031              		.loc 1 419 0
 2032              		.cfi_startproc
 2033              		@ args = 0, pretend = 0, frame = 0
 2034              		@ frame_needed = 0, uses_anonymous_args = 0
 2035              	.LVL219:
 2036 0000 10B5     		push	{r4, lr}
 2037              		.cfi_def_cfa_offset 8
 2038              		.cfi_offset 4, -8
 2039              		.cfi_offset 14, -4
 2040 0002 84B0     		sub	sp, sp, #16
 2041              		.cfi_def_cfa_offset 24
 2042 0004 0446     		mov	r4, r0
 420:LEDcontrol.c  ****     LEDOff(rgbLED);
 2043              		.loc 1 420 0
 2044 0006 FFF7FEFF 		bl	LEDOff
 2045              	.LVL220:
 421:LEDcontrol.c  ****     fillcolor(116, 1, 1.0, rgbLED);
 2046              		.loc 1 421 0
 2047 000a 0022     		movs	r2, #0
 2048 000c 044B     		ldr	r3, .L157
 2049 000e 0294     		str	r4, [sp, #8]
 2050 0010 CDE90023 		strd	r2, [sp]
 2051 0014 0020     		movs	r0, #0
 2052 0016 0349     		ldr	r1, .L157+4
 2053 0018 FFF7FEFF 		bl	fillcolor
 2054              	.LVL221:
 422:LEDcontrol.c  **** }
 2055              		.loc 1 422 0
 2056 001c 04B0     		add	sp, sp, #16
 2057              		.cfi_def_cfa_offset 8
 2058              		@ sp needed
 2059 001e 10BD     		pop	{r4, pc}
 2060              	.LVL222:
 2061              	.L158:
 2062              		.align	2
 2063              	.L157:
 2064 0020 0000F03F 		.word	1072693248
 2065 0024 00005D40 		.word	1079836672
 2066              		.cfi_endproc
 2067              	.LFE86:
 2068              		.size	weightapprovedSeq, .-weightapprovedSeq
 2069              		.section	.text.startSeq,"ax",%progbits
 2070              		.align	2
 2071              		.global	startSeq
ARM GAS  C:\Users\cring\AppData\Local\Temp\ccSaPXYf.s 			page 47


 2072              		.thumb
 2073              		.thumb_func
 2074              		.type	startSeq, %function
 2075              	startSeq:
 2076              	.LFB87:
 423:LEDcontrol.c  **** 
 424:LEDcontrol.c  **** int startSeq(LEDctrl *rgbLED_1, LEDctrl *rgbLED_2) //Start sekvens
 425:LEDcontrol.c  **** {
 2077              		.loc 1 425 0
 2078              		.cfi_startproc
 2079              		@ args = 0, pretend = 0, frame = 0
 2080              		@ frame_needed = 0, uses_anonymous_args = 0
 2081              	.LVL223:
 2082 0000 2DE9F04B 		push	{r4, r5, r6, r7, r8, r9, fp, lr}
 2083              		.cfi_def_cfa_offset 32
 2084              		.cfi_offset 4, -32
 2085              		.cfi_offset 5, -28
 2086              		.cfi_offset 6, -24
 2087              		.cfi_offset 7, -20
 2088              		.cfi_offset 8, -16
 2089              		.cfi_offset 9, -12
 2090              		.cfi_offset 11, -8
 2091              		.cfi_offset 14, -4
 2092 0004 84B0     		sub	sp, sp, #16
 2093              		.cfi_def_cfa_offset 48
 2094 0006 8046     		mov	r8, r0
 2095 0008 8B46     		mov	fp, r1
 426:LEDcontrol.c  ****     LEDOff(rgbLED_1);
 2096              		.loc 1 426 0
 2097 000a FFF7FEFF 		bl	LEDOff
 2098              	.LVL224:
 427:LEDcontrol.c  ****     LEDOff(rgbLED_2);
 2099              		.loc 1 427 0
 2100 000e 5846     		mov	r0, fp
 2101 0010 FFF7FEFF 		bl	LEDOff
 2102              	.LVL225:
 428:LEDcontrol.c  ****     switch (count2)
 2103              		.loc 1 428 0
 2104 0014 424B     		ldr	r3, .L169+8
 2105 0016 9C69     		ldr	r4, [r3, #24]
 2106 0018 042C     		cmp	r4, #4
 2107 001a 76D8     		bhi	.L167
 2108 001c DFE804F0 		tbb	[pc, r4]
 2109              	.L162:
 2110 0020 03       		.byte	(.L161-.L162)/2
 2111 0021 20       		.byte	(.L163-.L162)/2
 2112 0022 3A       		.byte	(.L164-.L162)/2
 2113 0023 54       		.byte	(.L165-.L162)/2
 2114 0024 6E       		.byte	(.L166-.L162)/2
 2115 0025 00       		.p2align 1
 2116              	.L161:
 429:LEDcontrol.c  ****     {
 430:LEDcontrol.c  ****         case 0:
 431:LEDcontrol.c  ****         {
 432:LEDcontrol.c  ****             fillcolor(3, 1.0, 0.83, rgbLED_1);
 2117              		.loc 1 432 0
 2118 0026 0026     		movs	r6, #0
ARM GAS  C:\Users\cring\AppData\Local\Temp\ccSaPXYf.s 			page 48


 2119 0028 3E4F     		ldr	r7, .L169+12
 2120 002a CDF80880 		str	r8, [sp, #8]
 2121 002e 0FF2E809 		adr	r9, .L169
 2122 0032 D9E90089 		ldrd	r8, [r9]
 2123              	.LVL226:
 2124 0036 CDE90089 		strd	r8, [sp]
 2125 003a 3246     		mov	r2, r6
 2126 003c 3B46     		mov	r3, r7
 2127 003e 0020     		movs	r0, #0
 2128 0040 3949     		ldr	r1, .L169+16
 2129 0042 FFF7FEFF 		bl	fillcolor
 2130              	.LVL227:
 433:LEDcontrol.c  ****             fillcolor(3, 1.0, 0.83, rgbLED_2);
 2131              		.loc 1 433 0
 2132 0046 CDF808B0 		str	fp, [sp, #8]
 2133 004a CDE90089 		strd	r8, [sp]
 2134 004e 3246     		mov	r2, r6
 2135 0050 3B46     		mov	r3, r7
 2136 0052 0020     		movs	r0, #0
 2137 0054 3449     		ldr	r1, .L169+16
 2138 0056 FFF7FEFF 		bl	fillcolor
 2139              	.LVL228:
 434:LEDcontrol.c  ****             Timer5_Start();
 2140              		.loc 1 434 0
 2141 005a FFF7FEFF 		bl	Timer5_Start
 2142              	.LVL229:
 435:LEDcontrol.c  ****         }
 436:LEDcontrol.c  ****         break;
 2143              		.loc 1 436 0
 2144 005e 55E0     		b	.L160
 2145              	.LVL230:
 2146              	.L163:
 437:LEDcontrol.c  ****         case 1:
 438:LEDcontrol.c  ****         {
 439:LEDcontrol.c  ****             fillcolor(65, 1, 1, rgbLED_1);
 2147              		.loc 1 439 0
 2148 0060 0024     		movs	r4, #0
 2149 0062 304D     		ldr	r5, .L169+12
 2150 0064 0026     		movs	r6, #0
 2151 0066 314F     		ldr	r7, .L169+20
 2152 0068 CDF80880 		str	r8, [sp, #8]
 2153 006c CDE90045 		strd	r4, [sp]
 2154 0070 2246     		mov	r2, r4
 2155 0072 2B46     		mov	r3, r5
 2156 0074 3046     		mov	r0, r6
 2157 0076 3946     		mov	r1, r7
 2158 0078 FFF7FEFF 		bl	fillcolor
 2159              	.LVL231:
 440:LEDcontrol.c  ****             fillcolor(65, 1, 1, rgbLED_2);
 2160              		.loc 1 440 0
 2161 007c CDF808B0 		str	fp, [sp, #8]
 2162 0080 CDE90045 		strd	r4, [sp]
 2163 0084 2246     		mov	r2, r4
 2164 0086 2B46     		mov	r3, r5
 2165 0088 3046     		mov	r0, r6
 2166 008a 3946     		mov	r1, r7
 2167 008c FFF7FEFF 		bl	fillcolor
ARM GAS  C:\Users\cring\AppData\Local\Temp\ccSaPXYf.s 			page 49


 2168              	.LVL232:
 441:LEDcontrol.c  ****         }
 442:LEDcontrol.c  ****         break;
 443:LEDcontrol.c  ****         case 2:
 444:LEDcontrol.c  ****         {
 445:LEDcontrol.c  ****             fillcolor(65, 1, 1, rgbLED_1);
 446:LEDcontrol.c  ****             fillcolor(65, 1, 1, rgbLED_2);
 447:LEDcontrol.c  ****         }
 448:LEDcontrol.c  ****         break;
 449:LEDcontrol.c  ****         case 3:
 450:LEDcontrol.c  ****         {
 451:LEDcontrol.c  ****             fillcolor(116, 1, 1.0, rgbLED_1);
 452:LEDcontrol.c  ****             fillcolor(116, 1, 1.0, rgbLED_2);
 453:LEDcontrol.c  ****         }
 454:LEDcontrol.c  ****         break;
 455:LEDcontrol.c  ****         case 4:
 456:LEDcontrol.c  ****         {
 457:LEDcontrol.c  ****             Timer5_Stop();
 458:LEDcontrol.c  ****             count = 0;
 459:LEDcontrol.c  ****             return 1;
 460:LEDcontrol.c  ****         }
 461:LEDcontrol.c  ****         break;
 462:LEDcontrol.c  ****     }
 463:LEDcontrol.c  ****     return 0;
 2169              		.loc 1 463 0
 2170 0090 0024     		movs	r4, #0
 442:LEDcontrol.c  ****         case 2:
 2171              		.loc 1 442 0
 2172 0092 3BE0     		b	.L160
 2173              	.L164:
 445:LEDcontrol.c  ****             fillcolor(65, 1, 1, rgbLED_2);
 2174              		.loc 1 445 0
 2175 0094 0024     		movs	r4, #0
 2176 0096 234D     		ldr	r5, .L169+12
 2177 0098 0026     		movs	r6, #0
 2178 009a 244F     		ldr	r7, .L169+20
 2179 009c CDF80880 		str	r8, [sp, #8]
 2180 00a0 CDE90045 		strd	r4, [sp]
 2181 00a4 2246     		mov	r2, r4
 2182 00a6 2B46     		mov	r3, r5
 2183 00a8 3046     		mov	r0, r6
 2184 00aa 3946     		mov	r1, r7
 2185 00ac FFF7FEFF 		bl	fillcolor
 2186              	.LVL233:
 446:LEDcontrol.c  ****         }
 2187              		.loc 1 446 0
 2188 00b0 CDF808B0 		str	fp, [sp, #8]
 2189 00b4 CDE90045 		strd	r4, [sp]
 2190 00b8 2246     		mov	r2, r4
 2191 00ba 2B46     		mov	r3, r5
 2192 00bc 3046     		mov	r0, r6
 2193 00be 3946     		mov	r1, r7
 2194 00c0 FFF7FEFF 		bl	fillcolor
 2195              	.LVL234:
 2196              		.loc 1 463 0
 2197 00c4 0024     		movs	r4, #0
 448:LEDcontrol.c  ****         case 3:
ARM GAS  C:\Users\cring\AppData\Local\Temp\ccSaPXYf.s 			page 50


 2198              		.loc 1 448 0
 2199 00c6 21E0     		b	.L160
 2200              	.L165:
 451:LEDcontrol.c  ****             fillcolor(116, 1, 1.0, rgbLED_2);
 2201              		.loc 1 451 0
 2202 00c8 0024     		movs	r4, #0
 2203 00ca 164D     		ldr	r5, .L169+12
 2204 00cc 0026     		movs	r6, #0
 2205 00ce 184F     		ldr	r7, .L169+24
 2206 00d0 CDF80880 		str	r8, [sp, #8]
 2207 00d4 CDE90045 		strd	r4, [sp]
 2208 00d8 2246     		mov	r2, r4
 2209 00da 2B46     		mov	r3, r5
 2210 00dc 3046     		mov	r0, r6
 2211 00de 3946     		mov	r1, r7
 2212 00e0 FFF7FEFF 		bl	fillcolor
 2213              	.LVL235:
 452:LEDcontrol.c  ****         }
 2214              		.loc 1 452 0
 2215 00e4 CDF808B0 		str	fp, [sp, #8]
 2216 00e8 CDE90045 		strd	r4, [sp]
 2217 00ec 2246     		mov	r2, r4
 2218 00ee 2B46     		mov	r3, r5
 2219 00f0 3046     		mov	r0, r6
 2220 00f2 3946     		mov	r1, r7
 2221 00f4 FFF7FEFF 		bl	fillcolor
 2222              	.LVL236:
 2223              		.loc 1 463 0
 2224 00f8 0024     		movs	r4, #0
 454:LEDcontrol.c  ****         case 4:
 2225              		.loc 1 454 0
 2226 00fa 07E0     		b	.L160
 2227              	.L166:
 457:LEDcontrol.c  ****             count = 0;
 2228              		.loc 1 457 0
 2229 00fc FFF7FEFF 		bl	Timer5_Stop
 2230              	.LVL237:
 458:LEDcontrol.c  ****             return 1;
 2231              		.loc 1 458 0
 2232 0100 0022     		movs	r2, #0
 2233 0102 074B     		ldr	r3, .L169+8
 2234 0104 9A60     		str	r2, [r3, #8]
 459:LEDcontrol.c  ****         }
 2235              		.loc 1 459 0
 2236 0106 0124     		movs	r4, #1
 2237 0108 00E0     		b	.L160
 2238              	.L167:
 2239              		.loc 1 463 0
 2240 010a 0024     		movs	r4, #0
 2241              	.LVL238:
 2242              	.L160:
 464:LEDcontrol.c  **** }
 2243              		.loc 1 464 0
 2244 010c 2046     		mov	r0, r4
 2245 010e 04B0     		add	sp, sp, #16
 2246              		.cfi_def_cfa_offset 32
 2247              		@ sp needed
ARM GAS  C:\Users\cring\AppData\Local\Temp\ccSaPXYf.s 			page 51


 2248 0110 BDE8F08B 		pop	{r4, r5, r6, r7, r8, r9, fp, pc}
 2249              	.LVL239:
 2250              	.L170:
 2251 0114 AFF30080 		.align	3
 2252              	.L169:
 2253 0118 8FC2F528 		.word	687194767
 2254 011c 5C8FEA3F 		.word	1072336732
 2255 0120 00000000 		.word	.LANCHOR0
 2256 0124 0000F03F 		.word	1072693248
 2257 0128 00000840 		.word	1074266112
 2258 012c 00405040 		.word	1079001088
 2259 0130 00005D40 		.word	1079836672
 2260              		.cfi_endproc
 2261              	.LFE87:
 2262              		.size	startSeq, .-startSeq
 2263              		.section	.text.isr_delay,"ax",%progbits
 2264              		.align	2
 2265              		.global	isr_delay
 2266              		.thumb
 2267              		.thumb_func
 2268              		.type	isr_delay, %function
 2269              	isr_delay:
 2270              	.LFB68:
 128:LEDcontrol.c  ****     count2++;
 2271              		.loc 1 128 0
 2272              		.cfi_startproc
 2273              		@ args = 0, pretend = 0, frame = 0
 2274              		@ frame_needed = 0, uses_anonymous_args = 0
 2275 0000 08B5     		push	{r3, lr}
 2276              		.cfi_def_cfa_offset 8
 2277              		.cfi_offset 3, -8
 2278              		.cfi_offset 14, -4
 129:LEDcontrol.c  ****     startSeq(rgbLED1, rgbLED2);
 2279              		.loc 1 129 0
 2280 0002 044B     		ldr	r3, .L173
 2281 0004 9A69     		ldr	r2, [r3, #24]
 2282 0006 0132     		adds	r2, r2, #1
 2283 0008 9A61     		str	r2, [r3, #24]
 130:LEDcontrol.c  **** }
 2284              		.loc 1 130 0
 2285 000a 5968     		ldr	r1, [r3, #4]
 2286 000c 1868     		ldr	r0, [r3]
 2287 000e FFF7FEFF 		bl	startSeq
 2288              	.LVL240:
 2289 0012 08BD     		pop	{r3, pc}
 2290              	.L174:
 2291              		.align	2
 2292              	.L173:
 2293 0014 00000000 		.word	.LANCHOR0
 2294              		.cfi_endproc
 2295              	.LFE68:
 2296              		.size	isr_delay, .-isr_delay
 2297              		.section	.text.errorSeq,"ax",%progbits
 2298              		.align	2
 2299              		.global	errorSeq
 2300              		.thumb
 2301              		.thumb_func
ARM GAS  C:\Users\cring\AppData\Local\Temp\ccSaPXYf.s 			page 52


 2302              		.type	errorSeq, %function
 2303              	errorSeq:
 2304              	.LFB88:
 465:LEDcontrol.c  **** 
 466:LEDcontrol.c  **** void errorSeq(LEDctrl *rgbLED) //Fejl sekvens
 467:LEDcontrol.c  **** {
 2305              		.loc 1 467 0
 2306              		.cfi_startproc
 2307              		@ args = 0, pretend = 0, frame = 0
 2308              		@ frame_needed = 0, uses_anonymous_args = 0
 2309              	.LVL241:
 2310 0000 00B5     		push	{lr}
 2311              		.cfi_def_cfa_offset 4
 2312              		.cfi_offset 14, -4
 2313 0002 85B0     		sub	sp, sp, #20
 2314              		.cfi_def_cfa_offset 24
 468:LEDcontrol.c  ****     BlinkLED(3, 1.0, 0.83, rgbLED);
 2315              		.loc 1 468 0
 2316 0004 0290     		str	r0, [sp, #8]
 2317 0006 08A3     		adr	r3, .L177
 2318 0008 D3E90023 		ldrd	r2, [r3]
 2319 000c CDE90023 		strd	r2, [sp]
 2320 0010 0022     		movs	r2, #0
 2321 0012 074B     		ldr	r3, .L177+8
 2322 0014 0020     		movs	r0, #0
 2323              	.LVL242:
 2324 0016 0749     		ldr	r1, .L177+12
 2325 0018 FFF7FEFF 		bl	BlinkLED
 2326              	.LVL243:
 469:LEDcontrol.c  **** }
 2327              		.loc 1 469 0
 2328 001c 05B0     		add	sp, sp, #20
 2329              		.cfi_def_cfa_offset 4
 2330              		@ sp needed
 2331 001e 5DF804FB 		ldr	pc, [sp], #4
 2332              	.L178:
 2333 0022 00BFAFF3 		.align	3
 2333      0080
 2334              	.L177:
 2335 0028 8FC2F528 		.word	687194767
 2336 002c 5C8FEA3F 		.word	1072336732
 2337 0030 0000F03F 		.word	1072693248
 2338 0034 00000840 		.word	1074266112
 2339              		.cfi_endproc
 2340              	.LFE88:
 2341              		.size	errorSeq, .-errorSeq
 2342              		.section	.text.winnerSeq,"ax",%progbits
 2343              		.align	2
 2344              		.global	winnerSeq
 2345              		.thumb
 2346              		.thumb_func
 2347              		.type	winnerSeq, %function
 2348              	winnerSeq:
 2349              	.LFB89:
 470:LEDcontrol.c  **** 
 471:LEDcontrol.c  **** void winnerSeq(LEDctrl *rgbLED)   //Vindersekvens
 472:LEDcontrol.c  **** {
ARM GAS  C:\Users\cring\AppData\Local\Temp\ccSaPXYf.s 			page 53


 2350              		.loc 1 472 0
 2351              		.cfi_startproc
 2352              		@ args = 0, pretend = 0, frame = 0
 2353              		@ frame_needed = 0, uses_anonymous_args = 0
 2354              	.LVL244:
 2355 0000 10B5     		push	{r4, lr}
 2356              		.cfi_def_cfa_offset 8
 2357              		.cfi_offset 4, -8
 2358              		.cfi_offset 14, -4
 2359 0002 84B0     		sub	sp, sp, #16
 2360              		.cfi_def_cfa_offset 24
 2361 0004 0446     		mov	r4, r0
 473:LEDcontrol.c  ****     LEDOff(rgbLED);
 2362              		.loc 1 473 0
 2363 0006 FFF7FEFF 		bl	LEDOff
 2364              	.LVL245:
 474:LEDcontrol.c  ****     fillcolor(116, 1, 1.0, rgbLED);
 2365              		.loc 1 474 0
 2366 000a 0022     		movs	r2, #0
 2367 000c 044B     		ldr	r3, .L181
 2368 000e 0294     		str	r4, [sp, #8]
 2369 0010 CDE90023 		strd	r2, [sp]
 2370 0014 0020     		movs	r0, #0
 2371 0016 0349     		ldr	r1, .L181+4
 2372 0018 FFF7FEFF 		bl	fillcolor
 2373              	.LVL246:
 475:LEDcontrol.c  **** }
 2374              		.loc 1 475 0
 2375 001c 04B0     		add	sp, sp, #16
 2376              		.cfi_def_cfa_offset 8
 2377              		@ sp needed
 2378 001e 10BD     		pop	{r4, pc}
 2379              	.LVL247:
 2380              	.L182:
 2381              		.align	2
 2382              	.L181:
 2383 0020 0000F03F 		.word	1072693248
 2384 0024 00005D40 		.word	1079836672
 2385              		.cfi_endproc
 2386              	.LFE89:
 2387              		.size	winnerSeq, .-winnerSeq
 2388              		.global	rgbLED2
 2389              		.global	rgbLED1
 2390              		.data
 2391              		.align	2
 2392              		.set	.LANCHOR1,. + 0
 2393              		.type	index2, %object
 2394              		.size	index2, 4
 2395              	index2:
 2396 0000 0000803F 		.word	1065353216
 2397              		.bss
 2398              		.align	2
 2399              		.set	.LANCHOR0,. + 0
 2400              		.type	rgbLED1, %object
 2401              		.size	rgbLED1, 4
 2402              	rgbLED1:
 2403 0000 00000000 		.space	4
ARM GAS  C:\Users\cring\AppData\Local\Temp\ccSaPXYf.s 			page 54


 2404              		.type	rgbLED2, %object
 2405              		.size	rgbLED2, 4
 2406              	rgbLED2:
 2407 0004 00000000 		.space	4
 2408              		.type	count, %object
 2409              		.size	count, 4
 2410              	count:
 2411 0008 00000000 		.space	4
 2412              		.type	count3, %object
 2413              		.size	count3, 4
 2414              	count3:
 2415 000c 00000000 		.space	4
 2416              		.type	index_, %object
 2417              		.size	index_, 4
 2418              	index_:
 2419 0010 00000000 		.space	4
 2420              		.type	pulselength_, %object
 2421              		.size	pulselength_, 4
 2422              	pulselength_:
 2423 0014 00000000 		.space	4
 2424              		.type	count2, %object
 2425              		.size	count2, 4
 2426              	count2:
 2427 0018 00000000 		.space	4
 2428              		.text
 2429              	.Letext0:
 2430              		.file 2 "d:\\psoc\\psoc creator\\4.3\\psoc creator\\import\\gnu\\arm\\5.4.1\\arm-none-eabi\\includ
 2431              		.file 3 "d:\\psoc\\psoc creator\\4.3\\psoc creator\\import\\gnu\\arm\\5.4.1\\arm-none-eabi\\includ
 2432              		.file 4 "LEDcontrol.h"
 2433              		.file 5 "Generated_Source\\PSoC5/core_cm3.h"
 2434              		.file 6 "Generated_Source\\PSoC5/Timer1.h"
 2435              		.file 7 "Generated_Source\\PSoC5/isr_LED_refreshrate.h"
 2436              		.file 8 "Generated_Source\\PSoC5/isr_LED_ring.h"
 2437              		.file 9 "Generated_Source\\PSoC5/isr_LED_pulse.h"
 2438              		.file 10 "Generated_Source\\PSoC5/isr_BlinkLED.h"
 2439              		.file 11 "Generated_Source\\PSoC5/isr_delay.h"
 2440              		.file 12 "Generated_Source\\PSoC5/SPIM_1.h"
 2441              		.file 13 "Generated_Source\\PSoC5/Timer2.h"
 2442              		.file 14 "Generated_Source\\PSoC5/Timer3.h"
 2443              		.file 15 "Generated_Source\\PSoC5/Timer4.h"
 2444              		.file 16 "Generated_Source\\PSoC5/SPIMOutCtrl.h"
 2445              		.file 17 "Generated_Source\\PSoC5/CyLib.h"
 2446              		.file 18 "Generated_Source\\PSoC5/Timer5.h"
 2447              		.section	.debug_info,"",%progbits
 2448              	.Ldebug_info0:
 2449 0000 160F0000 		.4byte	0xf16
 2450 0004 0400     		.2byte	0x4
 2451 0006 00000000 		.4byte	.Ldebug_abbrev0
 2452 000a 04       		.byte	0x4
 2453 000b 01       		.uleb128 0x1
 2454 000c 3F040000 		.4byte	.LASF94
 2455 0010 0C       		.byte	0xc
 2456 0011 0C000000 		.4byte	.LASF95
 2457 0015 A7000000 		.4byte	.LASF96
 2458 0019 00000000 		.4byte	.Ldebug_ranges0+0
 2459 001d 00000000 		.4byte	0
 2460 0021 00000000 		.4byte	.Ldebug_line0
ARM GAS  C:\Users\cring\AppData\Local\Temp\ccSaPXYf.s 			page 55


 2461 0025 02       		.uleb128 0x2
 2462 0026 08       		.byte	0x8
 2463 0027 04       		.byte	0x4
 2464 0028 77030000 		.4byte	.LASF0
 2465 002c 02       		.uleb128 0x2
 2466 002d 01       		.byte	0x1
 2467 002e 06       		.byte	0x6
 2468 002f 30020000 		.4byte	.LASF1
 2469 0033 02       		.uleb128 0x2
 2470 0034 01       		.byte	0x1
 2471 0035 08       		.byte	0x8
 2472 0036 E1010000 		.4byte	.LASF2
 2473 003a 02       		.uleb128 0x2
 2474 003b 02       		.byte	0x2
 2475 003c 05       		.byte	0x5
 2476 003d 3F000000 		.4byte	.LASF3
 2477 0041 02       		.uleb128 0x2
 2478 0042 02       		.byte	0x2
 2479 0043 07       		.byte	0x7
 2480 0044 90030000 		.4byte	.LASF4
 2481 0048 03       		.uleb128 0x3
 2482 0049 DE030000 		.4byte	.LASF10
 2483 004d 02       		.byte	0x2
 2484 004e 3F       		.byte	0x3f
 2485 004f 53000000 		.4byte	0x53
 2486 0053 02       		.uleb128 0x2
 2487 0054 04       		.byte	0x4
 2488 0055 05       		.byte	0x5
 2489 0056 B6010000 		.4byte	.LASF5
 2490 005a 02       		.uleb128 0x2
 2491 005b 04       		.byte	0x4
 2492 005c 07       		.byte	0x7
 2493 005d 5D030000 		.4byte	.LASF6
 2494 0061 02       		.uleb128 0x2
 2495 0062 08       		.byte	0x8
 2496 0063 05       		.byte	0x5
 2497 0064 76000000 		.4byte	.LASF7
 2498 0068 02       		.uleb128 0x2
 2499 0069 08       		.byte	0x8
 2500 006a 07       		.byte	0x7
 2501 006b 3C020000 		.4byte	.LASF8
 2502 006f 04       		.uleb128 0x4
 2503 0070 04       		.byte	0x4
 2504 0071 05       		.byte	0x5
 2505 0072 696E7400 		.ascii	"int\000"
 2506 0076 02       		.uleb128 0x2
 2507 0077 04       		.byte	0x4
 2508 0078 07       		.byte	0x7
 2509 0079 60020000 		.4byte	.LASF9
 2510 007d 03       		.uleb128 0x3
 2511 007e DB020000 		.4byte	.LASF11
 2512 0082 03       		.byte	0x3
 2513 0083 2C       		.byte	0x2c
 2514 0084 48000000 		.4byte	0x48
 2515 0088 02       		.uleb128 0x2
 2516 0089 04       		.byte	0x4
 2517 008a 04       		.byte	0x4
ARM GAS  C:\Users\cring\AppData\Local\Temp\ccSaPXYf.s 			page 56


 2518 008b 6B010000 		.4byte	.LASF12
 2519 008f 02       		.uleb128 0x2
 2520 0090 01       		.byte	0x1
 2521 0091 08       		.byte	0x8
 2522 0092 B1010000 		.4byte	.LASF13
 2523 0096 02       		.uleb128 0x2
 2524 0097 08       		.byte	0x8
 2525 0098 04       		.byte	0x4
 2526 0099 EF010000 		.4byte	.LASF14
 2527 009d 02       		.uleb128 0x2
 2528 009e 04       		.byte	0x4
 2529 009f 07       		.byte	0x7
 2530 00a0 49000000 		.4byte	.LASF15
 2531 00a4 05       		.uleb128 0x5
 2532 00a5 74020000 		.4byte	.LASF97
 2533 00a9 58       		.byte	0x58
 2534 00aa 04       		.byte	0x4
 2535 00ab 13       		.byte	0x13
 2536 00ac 77010000 		.4byte	0x177
 2537 00b0 06       		.uleb128 0x6
 2538 00b1 72656400 		.ascii	"red\000"
 2539 00b5 04       		.byte	0x4
 2540 00b6 15       		.byte	0x15
 2541 00b7 6F000000 		.4byte	0x6f
 2542 00bb 00       		.byte	0
 2543 00bc 07       		.uleb128 0x7
 2544 00bd D2010000 		.4byte	.LASF16
 2545 00c1 04       		.byte	0x4
 2546 00c2 16       		.byte	0x16
 2547 00c3 6F000000 		.4byte	0x6f
 2548 00c7 04       		.byte	0x4
 2549 00c8 07       		.uleb128 0x7
 2550 00c9 0D010000 		.4byte	.LASF17
 2551 00cd 04       		.byte	0x4
 2552 00ce 17       		.byte	0x17
 2553 00cf 6F000000 		.4byte	0x6f
 2554 00d3 08       		.byte	0x8
 2555 00d4 06       		.uleb128 0x6
 2556 00d5 6800     		.ascii	"h\000"
 2557 00d7 04       		.byte	0x4
 2558 00d8 19       		.byte	0x19
 2559 00d9 25000000 		.4byte	0x25
 2560 00dd 10       		.byte	0x10
 2561 00de 06       		.uleb128 0x6
 2562 00df 7300     		.ascii	"s\000"
 2563 00e1 04       		.byte	0x4
 2564 00e2 1A       		.byte	0x1a
 2565 00e3 25000000 		.4byte	0x25
 2566 00e7 18       		.byte	0x18
 2567 00e8 06       		.uleb128 0x6
 2568 00e9 7600     		.ascii	"v\000"
 2569 00eb 04       		.byte	0x4
 2570 00ec 1B       		.byte	0x1b
 2571 00ed 25000000 		.4byte	0x25
 2572 00f1 20       		.byte	0x20
 2573 00f2 07       		.uleb128 0x7
 2574 00f3 BF020000 		.4byte	.LASF18
ARM GAS  C:\Users\cring\AppData\Local\Temp\ccSaPXYf.s 			page 57


 2575 00f7 04       		.byte	0x4
 2576 00f8 1D       		.byte	0x1d
 2577 00f9 6F000000 		.4byte	0x6f
 2578 00fd 28       		.byte	0x28
 2579 00fe 07       		.uleb128 0x7
 2580 00ff 6D020000 		.4byte	.LASF19
 2581 0103 04       		.byte	0x4
 2582 0104 1E       		.byte	0x1e
 2583 0105 6F000000 		.4byte	0x6f
 2584 0109 2C       		.byte	0x2c
 2585 010a 07       		.uleb128 0x7
 2586 010b 0D030000 		.4byte	.LASF20
 2587 010f 04       		.byte	0x4
 2588 0110 1F       		.byte	0x1f
 2589 0111 6F000000 		.4byte	0x6f
 2590 0115 30       		.byte	0x30
 2591 0116 07       		.uleb128 0x7
 2592 0117 2D040000 		.4byte	.LASF21
 2593 011b 04       		.byte	0x4
 2594 011c 20       		.byte	0x20
 2595 011d 6F000000 		.4byte	0x6f
 2596 0121 34       		.byte	0x34
 2597 0122 07       		.uleb128 0x7
 2598 0123 00000000 		.4byte	.LASF22
 2599 0127 04       		.byte	0x4
 2600 0128 21       		.byte	0x21
 2601 0129 6F000000 		.4byte	0x6f
 2602 012d 38       		.byte	0x38
 2603 012e 07       		.uleb128 0x7
 2604 012f 27040000 		.4byte	.LASF23
 2605 0133 04       		.byte	0x4
 2606 0134 22       		.byte	0x22
 2607 0135 6F000000 		.4byte	0x6f
 2608 0139 3C       		.byte	0x3c
 2609 013a 07       		.uleb128 0x7
 2610 013b 8D020000 		.4byte	.LASF24
 2611 013f 04       		.byte	0x4
 2612 0140 24       		.byte	0x24
 2613 0141 6F000000 		.4byte	0x6f
 2614 0145 40       		.byte	0x40
 2615 0146 06       		.uleb128 0x6
 2616 0147 70696E00 		.ascii	"pin\000"
 2617 014b 04       		.byte	0x4
 2618 014c 25       		.byte	0x25
 2619 014d 6F000000 		.4byte	0x6f
 2620 0151 44       		.byte	0x44
 2621 0152 07       		.uleb128 0x7
 2622 0153 95010000 		.4byte	.LASF25
 2623 0157 04       		.byte	0x4
 2624 0158 27       		.byte	0x27
 2625 0159 6F000000 		.4byte	0x6f
 2626 015d 48       		.byte	0x48
 2627 015e 07       		.uleb128 0x7
 2628 015f 3E010000 		.4byte	.LASF26
 2629 0163 04       		.byte	0x4
 2630 0164 28       		.byte	0x28
 2631 0165 6F000000 		.4byte	0x6f
ARM GAS  C:\Users\cring\AppData\Local\Temp\ccSaPXYf.s 			page 58


 2632 0169 4C       		.byte	0x4c
 2633 016a 07       		.uleb128 0x7
 2634 016b 06000000 		.4byte	.LASF27
 2635 016f 04       		.byte	0x4
 2636 0170 29       		.byte	0x29
 2637 0171 6F000000 		.4byte	0x6f
 2638 0175 50       		.byte	0x50
 2639 0176 00       		.byte	0
 2640 0177 03       		.uleb128 0x3
 2641 0178 27010000 		.4byte	.LASF28
 2642 017c 04       		.byte	0x4
 2643 017d 2A       		.byte	0x2a
 2644 017e A4000000 		.4byte	0xa4
 2645 0182 08       		.uleb128 0x8
 2646 0183 E8030000 		.4byte	.LASF29
 2647 0187 01       		.byte	0x1
 2648 0188 85       		.byte	0x85
 2649 0189 00000000 		.4byte	.LFB69
 2650 018d 30000000 		.4byte	.LFE69-.LFB69
 2651 0191 01       		.uleb128 0x1
 2652 0192 9C       		.byte	0x9c
 2653 0193 AF010000 		.4byte	0x1af
 2654 0197 09       		.uleb128 0x9
 2655 0198 487A00   		.ascii	"Hz\000"
 2656 019b 01       		.byte	0x1
 2657 019c 85       		.byte	0x85
 2658 019d 6F000000 		.4byte	0x6f
 2659 01a1 00000000 		.4byte	.LLST0
 2660 01a5 0A       		.uleb128 0xa
 2661 01a6 26000000 		.4byte	.LVL7
 2662 01aa 480E0000 		.4byte	0xe48
 2663 01ae 00       		.byte	0
 2664 01af 0B       		.uleb128 0xb
 2665 01b0 10020000 		.4byte	.LASF30
 2666 01b4 01       		.byte	0x1
 2667 01b5 9E       		.byte	0x9e
 2668 01b6 00000000 		.4byte	.LFB71
 2669 01ba 54000000 		.4byte	.LFE71-.LFB71
 2670 01be 01       		.uleb128 0x1
 2671 01bf 9C       		.byte	0x9c
 2672 01c0 83020000 		.4byte	0x283
 2673 01c4 09       		.uleb128 0x9
 2674 01c5 487A00   		.ascii	"Hz\000"
 2675 01c8 01       		.byte	0x1
 2676 01c9 9E       		.byte	0x9e
 2677 01ca 6F000000 		.4byte	0x6f
 2678 01ce 2C000000 		.4byte	.LLST1
 2679 01d2 0C       		.uleb128 0xc
 2680 01d3 0A000000 		.4byte	.LVL10
 2681 01d7 530E0000 		.4byte	0xe53
 2682 01db E9010000 		.4byte	0x1e9
 2683 01df 0D       		.uleb128 0xd
 2684 01e0 01       		.uleb128 0x1
 2685 01e1 50       		.byte	0x50
 2686 01e2 05       		.uleb128 0x5
 2687 01e3 03       		.byte	0x3
 2688 01e4 00000000 		.4byte	isr_refreshrate
ARM GAS  C:\Users\cring\AppData\Local\Temp\ccSaPXYf.s 			page 59


 2689 01e8 00       		.byte	0
 2690 01e9 0C       		.uleb128 0xc
 2691 01ea 10000000 		.4byte	.LVL11
 2692 01ee 5E0E0000 		.4byte	0xe5e
 2693 01f2 00020000 		.4byte	0x200
 2694 01f6 0D       		.uleb128 0xd
 2695 01f7 01       		.uleb128 0x1
 2696 01f8 50       		.byte	0x50
 2697 01f9 05       		.uleb128 0x5
 2698 01fa 03       		.byte	0x3
 2699 01fb 00000000 		.4byte	isr_LED_ring
 2700 01ff 00       		.byte	0
 2701 0200 0C       		.uleb128 0xc
 2702 0201 16000000 		.4byte	.LVL12
 2703 0205 690E0000 		.4byte	0xe69
 2704 0209 17020000 		.4byte	0x217
 2705 020d 0D       		.uleb128 0xd
 2706 020e 01       		.uleb128 0x1
 2707 020f 50       		.byte	0x50
 2708 0210 05       		.uleb128 0x5
 2709 0211 03       		.byte	0x3
 2710 0212 00000000 		.4byte	isr_LED_pulse
 2711 0216 00       		.byte	0
 2712 0217 0C       		.uleb128 0xc
 2713 0218 1C000000 		.4byte	.LVL13
 2714 021c 740E0000 		.4byte	0xe74
 2715 0220 2E020000 		.4byte	0x22e
 2716 0224 0D       		.uleb128 0xd
 2717 0225 01       		.uleb128 0x1
 2718 0226 50       		.byte	0x50
 2719 0227 05       		.uleb128 0x5
 2720 0228 03       		.byte	0x3
 2721 0229 00000000 		.4byte	isr_BlinkLED
 2722 022d 00       		.byte	0
 2723 022e 0C       		.uleb128 0xc
 2724 022f 22000000 		.4byte	.LVL14
 2725 0233 7F0E0000 		.4byte	0xe7f
 2726 0237 45020000 		.4byte	0x245
 2727 023b 0D       		.uleb128 0xd
 2728 023c 01       		.uleb128 0x1
 2729 023d 50       		.byte	0x50
 2730 023e 05       		.uleb128 0x5
 2731 023f 03       		.byte	0x3
 2732 0240 00000000 		.4byte	isr_delay
 2733 0244 00       		.byte	0
 2734 0245 0A       		.uleb128 0xa
 2735 0246 26000000 		.4byte	.LVL15
 2736 024a 8A0E0000 		.4byte	0xe8a
 2737 024e 0A       		.uleb128 0xa
 2738 024f 2A000000 		.4byte	.LVL16
 2739 0253 950E0000 		.4byte	0xe95
 2740 0257 0A       		.uleb128 0xa
 2741 0258 2E000000 		.4byte	.LVL17
 2742 025c A00E0000 		.4byte	0xea0
 2743 0260 0A       		.uleb128 0xa
 2744 0261 32000000 		.4byte	.LVL18
 2745 0265 AB0E0000 		.4byte	0xeab
ARM GAS  C:\Users\cring\AppData\Local\Temp\ccSaPXYf.s 			page 60


 2746 0269 0A       		.uleb128 0xa
 2747 026a 36000000 		.4byte	.LVL19
 2748 026e B60E0000 		.4byte	0xeb6
 2749 0272 0E       		.uleb128 0xe
 2750 0273 3C000000 		.4byte	.LVL20
 2751 0277 82010000 		.4byte	0x182
 2752 027b 0D       		.uleb128 0xd
 2753 027c 01       		.uleb128 0x1
 2754 027d 50       		.byte	0x50
 2755 027e 02       		.uleb128 0x2
 2756 027f 74       		.byte	0x74
 2757 0280 00       		.sleb128 0
 2758 0281 00       		.byte	0
 2759 0282 00       		.byte	0
 2760 0283 0B       		.uleb128 0xb
 2761 0284 35010000 		.4byte	.LASF31
 2762 0288 01       		.byte	0x1
 2763 0289 C3       		.byte	0xc3
 2764 028a 00000000 		.4byte	.LFB74
 2765 028e 2C000000 		.4byte	.LFE74-.LFB74
 2766 0292 01       		.uleb128 0x1
 2767 0293 9C       		.byte	0x9c
 2768 0294 0B030000 		.4byte	0x30b
 2769 0298 0F       		.uleb128 0xf
 2770 0299 F7030000 		.4byte	.LASF32
 2771 029d 01       		.byte	0x1
 2772 029e C3       		.byte	0xc3
 2773 029f 6F000000 		.4byte	0x6f
 2774 02a3 58000000 		.4byte	.LLST2
 2775 02a7 0F       		.uleb128 0xf
 2776 02a8 20000000 		.4byte	.LASF33
 2777 02ac 01       		.byte	0x1
 2778 02ad C3       		.byte	0xc3
 2779 02ae 6F000000 		.4byte	0x6f
 2780 02b2 84000000 		.4byte	.LLST3
 2781 02b6 0F       		.uleb128 0xf
 2782 02b7 FF030000 		.4byte	.LASF34
 2783 02bb 01       		.byte	0x1
 2784 02bc C3       		.byte	0xc3
 2785 02bd 6F000000 		.4byte	0x6f
 2786 02c1 A5000000 		.4byte	.LLST4
 2787 02c5 0C       		.uleb128 0xc
 2788 02c6 12000000 		.4byte	.LVL25
 2789 02ca C10E0000 		.4byte	0xec1
 2790 02ce E2020000 		.4byte	0x2e2
 2791 02d2 0D       		.uleb128 0xd
 2792 02d3 01       		.uleb128 0x1
 2793 02d4 50       		.byte	0x50
 2794 02d5 0B       		.uleb128 0xb
 2795 02d6 F3       		.byte	0xf3
 2796 02d7 01       		.uleb128 0x1
 2797 02d8 51       		.byte	0x51
 2798 02d9 32       		.byte	0x32
 2799 02da 24       		.byte	0x24
 2800 02db F3       		.byte	0xf3
 2801 02dc 01       		.uleb128 0x1
 2802 02dd 51       		.byte	0x51
ARM GAS  C:\Users\cring\AppData\Local\Temp\ccSaPXYf.s 			page 61


 2803 02de 22       		.byte	0x22
 2804 02df 31       		.byte	0x31
 2805 02e0 24       		.byte	0x24
 2806 02e1 00       		.byte	0
 2807 02e2 0C       		.uleb128 0xc
 2808 02e3 1E000000 		.4byte	.LVL27
 2809 02e7 CC0E0000 		.4byte	0xecc
 2810 02eb F8020000 		.4byte	0x2f8
 2811 02ef 0D       		.uleb128 0xd
 2812 02f0 01       		.uleb128 0x1
 2813 02f1 50       		.byte	0x50
 2814 02f2 04       		.uleb128 0x4
 2815 02f3 75       		.byte	0x75
 2816 02f4 00       		.sleb128 0
 2817 02f5 31       		.byte	0x31
 2818 02f6 24       		.byte	0x24
 2819 02f7 00       		.byte	0
 2820 02f8 0E       		.uleb128 0xe
 2821 02f9 2A000000 		.4byte	.LVL29
 2822 02fd D70E0000 		.4byte	0xed7
 2823 0301 0D       		.uleb128 0xd
 2824 0302 01       		.uleb128 0x1
 2825 0303 50       		.byte	0x50
 2826 0304 04       		.uleb128 0x4
 2827 0305 74       		.byte	0x74
 2828 0306 00       		.sleb128 0
 2829 0307 31       		.byte	0x31
 2830 0308 24       		.byte	0x24
 2831 0309 00       		.byte	0
 2832 030a 00       		.byte	0
 2833 030b 08       		.uleb128 0x8
 2834 030c 05030000 		.4byte	.LASF35
 2835 0310 01       		.byte	0x1
 2836 0311 D8       		.byte	0xd8
 2837 0312 00000000 		.4byte	.LFB76
 2838 0316 1C020000 		.4byte	.LFE76-.LFB76
 2839 031a 01       		.uleb128 0x1
 2840 031b 9C       		.byte	0x9c
 2841 031c DD030000 		.4byte	0x3dd
 2842 0320 09       		.uleb128 0x9
 2843 0321 6800     		.ascii	"h\000"
 2844 0323 01       		.byte	0x1
 2845 0324 D8       		.byte	0xd8
 2846 0325 25000000 		.4byte	0x25
 2847 0329 D1000000 		.4byte	.LLST5
 2848 032d 09       		.uleb128 0x9
 2849 032e 7300     		.ascii	"s\000"
 2850 0330 01       		.byte	0x1
 2851 0331 D8       		.byte	0xd8
 2852 0332 25000000 		.4byte	0x25
 2853 0336 F9000000 		.4byte	.LLST6
 2854 033a 09       		.uleb128 0x9
 2855 033b 7600     		.ascii	"v\000"
 2856 033d 01       		.byte	0x1
 2857 033e D8       		.byte	0xd8
 2858 033f 25000000 		.4byte	0x25
 2859 0343 21010000 		.4byte	.LLST7
ARM GAS  C:\Users\cring\AppData\Local\Temp\ccSaPXYf.s 			page 62


 2860 0347 09       		.uleb128 0x9
 2861 0348 4C454400 		.ascii	"LED\000"
 2862 034c 01       		.byte	0x1
 2863 034d D8       		.byte	0xd8
 2864 034e 6F000000 		.4byte	0x6f
 2865 0352 41010000 		.4byte	.LLST8
 2866 0356 0F       		.uleb128 0xf
 2867 0357 AA010000 		.4byte	.LASF36
 2868 035b 01       		.byte	0x1
 2869 035c D8       		.byte	0xd8
 2870 035d DD030000 		.4byte	0x3dd
 2871 0361 61010000 		.4byte	.LLST9
 2872 0365 10       		.uleb128 0x10
 2873 0366 686800   		.ascii	"hh\000"
 2874 0369 01       		.byte	0x1
 2875 036a DA       		.byte	0xda
 2876 036b 25000000 		.4byte	0x25
 2877 036f 81010000 		.4byte	.LLST10
 2878 0373 10       		.uleb128 0x10
 2879 0374 7000     		.ascii	"p\000"
 2880 0376 01       		.byte	0x1
 2881 0377 DA       		.byte	0xda
 2882 0378 25000000 		.4byte	0x25
 2883 037c B9010000 		.4byte	.LLST11
 2884 0380 10       		.uleb128 0x10
 2885 0381 7100     		.ascii	"q\000"
 2886 0383 01       		.byte	0x1
 2887 0384 DA       		.byte	0xda
 2888 0385 25000000 		.4byte	0x25
 2889 0389 01020000 		.4byte	.LLST12
 2890 038d 10       		.uleb128 0x10
 2891 038e 7400     		.ascii	"t\000"
 2892 0390 01       		.byte	0x1
 2893 0391 DA       		.byte	0xda
 2894 0392 25000000 		.4byte	0x25
 2895 0396 59020000 		.4byte	.LLST13
 2896 039a 10       		.uleb128 0x10
 2897 039b 666600   		.ascii	"ff\000"
 2898 039e 01       		.byte	0x1
 2899 039f DA       		.byte	0xda
 2900 03a0 25000000 		.4byte	0x25
 2901 03a4 81020000 		.4byte	.LLST14
 2902 03a8 10       		.uleb128 0x10
 2903 03a9 7200     		.ascii	"r\000"
 2904 03ab 01       		.byte	0x1
 2905 03ac DA       		.byte	0xda
 2906 03ad 25000000 		.4byte	0x25
 2907 03b1 A5020000 		.4byte	.LLST15
 2908 03b5 10       		.uleb128 0x10
 2909 03b6 6700     		.ascii	"g\000"
 2910 03b8 01       		.byte	0x1
 2911 03b9 DA       		.byte	0xda
 2912 03ba 25000000 		.4byte	0x25
 2913 03be 31030000 		.4byte	.LLST16
 2914 03c2 10       		.uleb128 0x10
 2915 03c3 6200     		.ascii	"b\000"
 2916 03c5 01       		.byte	0x1
ARM GAS  C:\Users\cring\AppData\Local\Temp\ccSaPXYf.s 			page 63


 2917 03c6 DA       		.byte	0xda
 2918 03c7 25000000 		.4byte	0x25
 2919 03cb B5030000 		.4byte	.LLST17
 2920 03cf 10       		.uleb128 0x10
 2921 03d0 6900     		.ascii	"i\000"
 2922 03d2 01       		.byte	0x1
 2923 03d3 DB       		.byte	0xdb
 2924 03d4 53000000 		.4byte	0x53
 2925 03d8 3D040000 		.4byte	.LLST18
 2926 03dc 00       		.byte	0
 2927 03dd 11       		.uleb128 0x11
 2928 03de 04       		.byte	0x4
 2929 03df 77010000 		.4byte	0x177
 2930 03e3 12       		.uleb128 0x12
 2931 03e4 78010000 		.4byte	.LASF37
 2932 03e8 01       		.byte	0x1
 2933 03e9 1E01     		.2byte	0x11e
 2934 03eb 00000000 		.4byte	.LFB77
 2935 03ef 54000000 		.4byte	.LFE77-.LFB77
 2936 03f3 01       		.uleb128 0x1
 2937 03f4 9C       		.byte	0x9c
 2938 03f5 7E040000 		.4byte	0x47e
 2939 03f9 13       		.uleb128 0x13
 2940 03fa AA010000 		.4byte	.LASF36
 2941 03fe 01       		.byte	0x1
 2942 03ff 1E01     		.2byte	0x11e
 2943 0401 DD030000 		.4byte	0x3dd
 2944 0405 5B040000 		.4byte	.LLST19
 2945 0409 14       		.uleb128 0x14
 2946 040a 20000000 		.4byte	.LBB2
 2947 040e 34000000 		.4byte	.LBE2-.LBB2
 2948 0412 5B040000 		.4byte	0x45b
 2949 0416 15       		.uleb128 0x15
 2950 0417 6900     		.ascii	"i\000"
 2951 0419 01       		.byte	0x1
 2952 041a 2701     		.2byte	0x127
 2953 041c 6F000000 		.4byte	0x6f
 2954 0420 8F040000 		.4byte	.LLST20
 2955 0424 0A       		.uleb128 0xa
 2956 0425 2C000000 		.4byte	.LVL112
 2957 0429 E20E0000 		.4byte	0xee2
 2958 042d 0A       		.uleb128 0xa
 2959 042e 32000000 		.4byte	.LVL113
 2960 0432 E20E0000 		.4byte	0xee2
 2961 0436 0A       		.uleb128 0xa
 2962 0437 38000000 		.4byte	.LVL114
 2963 043b E20E0000 		.4byte	0xee2
 2964 043f 0A       		.uleb128 0xa
 2965 0440 3E000000 		.4byte	.LVL115
 2966 0444 E20E0000 		.4byte	0xee2
 2967 0448 0A       		.uleb128 0xa
 2968 0449 44000000 		.4byte	.LVL116
 2969 044d E20E0000 		.4byte	0xee2
 2970 0451 0A       		.uleb128 0xa
 2971 0452 4A000000 		.4byte	.LVL117
 2972 0456 E20E0000 		.4byte	0xee2
 2973 045a 00       		.byte	0
ARM GAS  C:\Users\cring\AppData\Local\Temp\ccSaPXYf.s 			page 64


 2974 045b 0C       		.uleb128 0xc
 2975 045c 10000000 		.4byte	.LVL107
 2976 0460 ED0E0000 		.4byte	0xeed
 2977 0464 6E040000 		.4byte	0x46e
 2978 0468 0D       		.uleb128 0xd
 2979 0469 01       		.uleb128 0x1
 2980 046a 50       		.byte	0x50
 2981 046b 01       		.uleb128 0x1
 2982 046c 31       		.byte	0x31
 2983 046d 00       		.byte	0
 2984 046e 0E       		.uleb128 0xe
 2985 046f 1E000000 		.4byte	.LVL110
 2986 0473 ED0E0000 		.4byte	0xeed
 2987 0477 0D       		.uleb128 0xd
 2988 0478 01       		.uleb128 0x1
 2989 0479 50       		.byte	0x50
 2990 047a 01       		.uleb128 0x1
 2991 047b 30       		.byte	0x30
 2992 047c 00       		.byte	0
 2993 047d 00       		.byte	0
 2994 047e 0B       		.uleb128 0xb
 2995 047f 9A010000 		.4byte	.LASF38
 2996 0483 01       		.byte	0x1
 2997 0484 1C       		.byte	0x1c
 2998 0485 00000000 		.4byte	.LFB64
 2999 0489 24000000 		.4byte	.LFE64-.LFB64
 3000 048d 01       		.uleb128 0x1
 3001 048e 9C       		.byte	0x9c
 3002 048f BA040000 		.4byte	0x4ba
 3003 0493 0A       		.uleb128 0xa
 3004 0494 0C000000 		.4byte	.LVL120
 3005 0498 E3030000 		.4byte	0x3e3
 3006 049c 0C       		.uleb128 0xc
 3007 049d 12000000 		.4byte	.LVL121
 3008 04a1 F80E0000 		.4byte	0xef8
 3009 04a5 B0040000 		.4byte	0x4b0
 3010 04a9 0D       		.uleb128 0xd
 3011 04aa 01       		.uleb128 0x1
 3012 04ab 50       		.byte	0x50
 3013 04ac 02       		.uleb128 0x2
 3014 04ad 08       		.byte	0x8
 3015 04ae C8       		.byte	0xc8
 3016 04af 00       		.byte	0
 3017 04b0 0A       		.uleb128 0xa
 3018 04b1 1C000000 		.4byte	.LVL122
 3019 04b5 E3030000 		.4byte	0x3e3
 3020 04b9 00       		.byte	0
 3021 04ba 12       		.uleb128 0x12
 3022 04bb C6020000 		.4byte	.LASF39
 3023 04bf 01       		.byte	0x1
 3024 04c0 3701     		.2byte	0x137
 3025 04c2 00000000 		.4byte	.LFB78
 3026 04c6 32010000 		.4byte	.LFE78-.LFB78
 3027 04ca 01       		.uleb128 0x1
 3028 04cb 9C       		.byte	0x9c
 3029 04cc F6050000 		.4byte	0x5f6
 3030 04d0 16       		.uleb128 0x16
ARM GAS  C:\Users\cring\AppData\Local\Temp\ccSaPXYf.s 			page 65


 3031 04d1 6800     		.ascii	"h\000"
 3032 04d3 01       		.byte	0x1
 3033 04d4 3701     		.2byte	0x137
 3034 04d6 25000000 		.4byte	0x25
 3035 04da A2040000 		.4byte	.LLST21
 3036 04de 16       		.uleb128 0x16
 3037 04df 7300     		.ascii	"s\000"
 3038 04e1 01       		.byte	0x1
 3039 04e2 3701     		.2byte	0x137
 3040 04e4 25000000 		.4byte	0x25
 3041 04e8 CA040000 		.4byte	.LLST22
 3042 04ec 17       		.uleb128 0x17
 3043 04ed 7600     		.ascii	"v\000"
 3044 04ef 01       		.byte	0x1
 3045 04f0 3701     		.2byte	0x137
 3046 04f2 25000000 		.4byte	0x25
 3047 04f6 02       		.uleb128 0x2
 3048 04f7 91       		.byte	0x91
 3049 04f8 00       		.sleb128 0
 3050 04f9 17       		.uleb128 0x17
 3051 04fa 4C454400 		.ascii	"LED\000"
 3052 04fe 01       		.byte	0x1
 3053 04ff 3701     		.2byte	0x137
 3054 0501 6F000000 		.4byte	0x6f
 3055 0505 02       		.uleb128 0x2
 3056 0506 91       		.byte	0x91
 3057 0507 08       		.sleb128 8
 3058 0508 18       		.uleb128 0x18
 3059 0509 AA010000 		.4byte	.LASF36
 3060 050d 01       		.byte	0x1
 3061 050e 3701     		.2byte	0x137
 3062 0510 DD030000 		.4byte	0x3dd
 3063 0514 02       		.uleb128 0x2
 3064 0515 91       		.byte	0x91
 3065 0516 0C       		.sleb128 12
 3066 0517 15       		.uleb128 0x15
 3067 0518 52656400 		.ascii	"Red\000"
 3068 051c 01       		.byte	0x1
 3069 051d 3901     		.2byte	0x139
 3070 051f 6F000000 		.4byte	0x6f
 3071 0523 F2040000 		.4byte	.LLST23
 3072 0527 19       		.uleb128 0x19
 3073 0528 A1000000 		.4byte	.LASF40
 3074 052c 01       		.byte	0x1
 3075 052d 3901     		.2byte	0x139
 3076 052f 6F000000 		.4byte	0x6f
 3077 0533 11050000 		.4byte	.LLST24
 3078 0537 19       		.uleb128 0x19
 3079 0538 22040000 		.4byte	.LASF41
 3080 053c 01       		.byte	0x1
 3081 053d 3901     		.2byte	0x139
 3082 053f 6F000000 		.4byte	0x6f
 3083 0543 30050000 		.4byte	.LLST25
 3084 0547 15       		.uleb128 0x15
 3085 0548 7800     		.ascii	"x\000"
 3086 054a 01       		.byte	0x1
 3087 054b 4101     		.2byte	0x141
ARM GAS  C:\Users\cring\AppData\Local\Temp\ccSaPXYf.s 			page 66


 3088 054d 6F000000 		.4byte	0x6f
 3089 0551 4F050000 		.4byte	.LLST26
 3090 0555 1A       		.uleb128 0x1a
 3091 0556 62756600 		.ascii	"buf\000"
 3092 055a 01       		.byte	0x1
 3093 055b 4201     		.2byte	0x142
 3094 055d F6050000 		.4byte	0x5f6
 3095 0561 03       		.uleb128 0x3
 3096 0562 91       		.byte	0x91
 3097 0563 B87F     		.sleb128 -72
 3098 0565 14       		.uleb128 0x14
 3099 0566 26000000 		.4byte	.LBB3
 3100 056a 2C000000 		.4byte	.LBE3-.LBB3
 3101 056e 81050000 		.4byte	0x581
 3102 0572 15       		.uleb128 0x15
 3103 0573 6900     		.ascii	"i\000"
 3104 0575 01       		.byte	0x1
 3105 0576 4401     		.2byte	0x144
 3106 0578 6F000000 		.4byte	0x6f
 3107 057c 78050000 		.4byte	.LLST27
 3108 0580 00       		.byte	0
 3109 0581 14       		.uleb128 0x14
 3110 0582 7E000000 		.4byte	.LBB4
 3111 0586 2C000000 		.4byte	.LBE4-.LBB4
 3112 058a 9D050000 		.4byte	0x59d
 3113 058e 15       		.uleb128 0x15
 3114 058f 6900     		.ascii	"i\000"
 3115 0591 01       		.byte	0x1
 3116 0592 5301     		.2byte	0x153
 3117 0594 6F000000 		.4byte	0x6f
 3118 0598 97050000 		.4byte	.LLST28
 3119 059c 00       		.byte	0
 3120 059d 14       		.uleb128 0x14
 3121 059e D6000000 		.4byte	.LBB5
 3122 05a2 2C000000 		.4byte	.LBE5-.LBB5
 3123 05a6 B9050000 		.4byte	0x5b9
 3124 05aa 15       		.uleb128 0x15
 3125 05ab 6900     		.ascii	"i\000"
 3126 05ad 01       		.byte	0x1
 3127 05ae 6101     		.2byte	0x161
 3128 05b0 6F000000 		.4byte	0x6f
 3129 05b4 B6050000 		.4byte	.LLST29
 3130 05b8 00       		.byte	0
 3131 05b9 0E       		.uleb128 0xe
 3132 05ba 18000000 		.4byte	.LVL124
 3133 05be 0B030000 		.4byte	0x30b
 3134 05c2 0D       		.uleb128 0xd
 3135 05c3 06       		.uleb128 0x6
 3136 05c4 50       		.byte	0x50
 3137 05c5 93       		.byte	0x93
 3138 05c6 04       		.uleb128 0x4
 3139 05c7 51       		.byte	0x51
 3140 05c8 93       		.byte	0x93
 3141 05c9 04       		.uleb128 0x4
 3142 05ca 05       		.uleb128 0x5
 3143 05cb F3       		.byte	0xf3
 3144 05cc 03       		.uleb128 0x3
ARM GAS  C:\Users\cring\AppData\Local\Temp\ccSaPXYf.s 			page 67


 3145 05cd F5       		.byte	0xf5
 3146 05ce 00       		.uleb128 0
 3147 05cf 25       		.uleb128 0x25
 3148 05d0 0D       		.uleb128 0xd
 3149 05d1 06       		.uleb128 0x6
 3150 05d2 52       		.byte	0x52
 3151 05d3 93       		.byte	0x93
 3152 05d4 04       		.uleb128 0x4
 3153 05d5 53       		.byte	0x53
 3154 05d6 93       		.byte	0x93
 3155 05d7 04       		.uleb128 0x4
 3156 05d8 05       		.uleb128 0x5
 3157 05d9 F3       		.byte	0xf3
 3158 05da 03       		.uleb128 0x3
 3159 05db F5       		.byte	0xf5
 3160 05dc 02       		.uleb128 0x2
 3161 05dd 25       		.uleb128 0x25
 3162 05de 0D       		.uleb128 0xd
 3163 05df 02       		.uleb128 0x2
 3164 05e0 7D       		.byte	0x7d
 3165 05e1 00       		.sleb128 0
 3166 05e2 03       		.uleb128 0x3
 3167 05e3 F5       		.byte	0xf5
 3168 05e4 06       		.uleb128 0x6
 3169 05e5 25       		.uleb128 0x25
 3170 05e6 0D       		.uleb128 0xd
 3171 05e7 02       		.uleb128 0x2
 3172 05e8 7D       		.byte	0x7d
 3173 05e9 08       		.sleb128 8
 3174 05ea 02       		.uleb128 0x2
 3175 05eb 75       		.byte	0x75
 3176 05ec 00       		.sleb128 0
 3177 05ed 0D       		.uleb128 0xd
 3178 05ee 02       		.uleb128 0x2
 3179 05ef 7D       		.byte	0x7d
 3180 05f0 0C       		.sleb128 12
 3181 05f1 02       		.uleb128 0x2
 3182 05f2 74       		.byte	0x74
 3183 05f3 00       		.sleb128 0
 3184 05f4 00       		.byte	0
 3185 05f5 00       		.byte	0
 3186 05f6 1B       		.uleb128 0x1b
 3187 05f7 6F000000 		.4byte	0x6f
 3188 05fb 06060000 		.4byte	0x606
 3189 05ff 1C       		.uleb128 0x1c
 3190 0600 9D000000 		.4byte	0x9d
 3191 0604 0B       		.byte	0xb
 3192 0605 00       		.byte	0
 3193 0606 0B       		.uleb128 0xb
 3194 0607 A3030000 		.4byte	.LASF42
 3195 060b 01       		.byte	0x1
 3196 060c B0       		.byte	0xb0
 3197 060d 00000000 		.4byte	.LFB72
 3198 0611 3A000000 		.4byte	.LFE72-.LFB72
 3199 0615 01       		.uleb128 0x1
 3200 0616 9C       		.byte	0x9c
 3201 0617 87060000 		.4byte	0x687
ARM GAS  C:\Users\cring\AppData\Local\Temp\ccSaPXYf.s 			page 68


 3202 061b 09       		.uleb128 0x9
 3203 061c 6800     		.ascii	"h\000"
 3204 061e 01       		.byte	0x1
 3205 061f B0       		.byte	0xb0
 3206 0620 25000000 		.4byte	0x25
 3207 0624 D5050000 		.4byte	.LLST30
 3208 0628 09       		.uleb128 0x9
 3209 0629 7300     		.ascii	"s\000"
 3210 062b 01       		.byte	0x1
 3211 062c B0       		.byte	0xb0
 3212 062d 25000000 		.4byte	0x25
 3213 0631 FD050000 		.4byte	.LLST31
 3214 0635 1D       		.uleb128 0x1d
 3215 0636 7600     		.ascii	"v\000"
 3216 0638 01       		.byte	0x1
 3217 0639 B0       		.byte	0xb0
 3218 063a 25000000 		.4byte	0x25
 3219 063e 02       		.uleb128 0x2
 3220 063f 91       		.byte	0x91
 3221 0640 00       		.sleb128 0
 3222 0641 1E       		.uleb128 0x1e
 3223 0642 AA010000 		.4byte	.LASF36
 3224 0646 01       		.byte	0x1
 3225 0647 B0       		.byte	0xb0
 3226 0648 DD030000 		.4byte	0x3dd
 3227 064c 02       		.uleb128 0x2
 3228 064d 91       		.byte	0x91
 3229 064e 08       		.sleb128 8
 3230 064f 1F       		.uleb128 0x1f
 3231 0650 14000000 		.4byte	.LBB6
 3232 0654 20000000 		.4byte	.LBE6-.LBB6
 3233 0658 10       		.uleb128 0x10
 3234 0659 6900     		.ascii	"i\000"
 3235 065b 01       		.byte	0x1
 3236 065c B2       		.byte	0xb2
 3237 065d 6F000000 		.4byte	0x6f
 3238 0661 25060000 		.4byte	.LLST32
 3239 0665 0E       		.uleb128 0xe
 3240 0666 2C000000 		.4byte	.LVL148
 3241 066a BA040000 		.4byte	0x4ba
 3242 066e 0D       		.uleb128 0xd
 3243 066f 02       		.uleb128 0x2
 3244 0670 7D       		.byte	0x7d
 3245 0671 00       		.sleb128 0
 3246 0672 03       		.uleb128 0x3
 3247 0673 F5       		.byte	0xf5
 3248 0674 04       		.uleb128 0x4
 3249 0675 25       		.uleb128 0x25
 3250 0676 0D       		.uleb128 0xd
 3251 0677 02       		.uleb128 0x2
 3252 0678 7D       		.byte	0x7d
 3253 0679 08       		.sleb128 8
 3254 067a 02       		.uleb128 0x2
 3255 067b 76       		.byte	0x76
 3256 067c 00       		.sleb128 0
 3257 067d 0D       		.uleb128 0xd
 3258 067e 02       		.uleb128 0x2
ARM GAS  C:\Users\cring\AppData\Local\Temp\ccSaPXYf.s 			page 69


 3259 067f 7D       		.byte	0x7d
 3260 0680 0C       		.sleb128 12
 3261 0681 02       		.uleb128 0x2
 3262 0682 77       		.byte	0x77
 3263 0683 00       		.sleb128 0
 3264 0684 00       		.byte	0
 3265 0685 00       		.byte	0
 3266 0686 00       		.byte	0
 3267 0687 08       		.uleb128 0x8
 3268 0688 97020000 		.4byte	.LASF43
 3269 068c 01       		.byte	0x1
 3270 068d 45       		.byte	0x45
 3271 068e 00000000 		.4byte	.LFB66
 3272 0692 28010000 		.4byte	.LFE66-.LFB66
 3273 0696 01       		.uleb128 0x1
 3274 0697 9C       		.byte	0x9c
 3275 0698 C1060000 		.4byte	0x6c1
 3276 069c 0A       		.uleb128 0xa
 3277 069d 38000000 		.4byte	.LVL151
 3278 06a1 06060000 		.4byte	0x606
 3279 06a5 0A       		.uleb128 0xa
 3280 06a6 64000000 		.4byte	.LVL153
 3281 06aa 06060000 		.4byte	0x606
 3282 06ae 0A       		.uleb128 0xa
 3283 06af BE000000 		.4byte	.LVL159
 3284 06b3 06060000 		.4byte	0x606
 3285 06b7 0A       		.uleb128 0xa
 3286 06b8 EA000000 		.4byte	.LVL161
 3287 06bc 06060000 		.4byte	0x606
 3288 06c0 00       		.byte	0
 3289 06c1 0B       		.uleb128 0xb
 3290 06c2 12030000 		.4byte	.LASF44
 3291 06c6 01       		.byte	0x1
 3292 06c7 57       		.byte	0x57
 3293 06c8 00000000 		.4byte	.LFB67
 3294 06cc C4000000 		.4byte	.LFE67-.LFB67
 3295 06d0 01       		.uleb128 0x1
 3296 06d1 9C       		.byte	0x9c
 3297 06d2 FB060000 		.4byte	0x6fb
 3298 06d6 0A       		.uleb128 0xa
 3299 06d7 34000000 		.4byte	.LVL166
 3300 06db 06060000 		.4byte	0x606
 3301 06df 0A       		.uleb128 0xa
 3302 06e0 58000000 		.4byte	.LVL167
 3303 06e4 06060000 		.4byte	0x606
 3304 06e8 0A       		.uleb128 0xa
 3305 06e9 8E000000 		.4byte	.LVL168
 3306 06ed 06060000 		.4byte	0x606
 3307 06f1 0A       		.uleb128 0xa
 3308 06f2 B2000000 		.4byte	.LVL169
 3309 06f6 06060000 		.4byte	0x606
 3310 06fa 00       		.byte	0
 3311 06fb 0B       		.uleb128 0xb
 3312 06fc 53020000 		.4byte	.LASF45
 3313 0700 01       		.byte	0x1
 3314 0701 29       		.byte	0x29
 3315 0702 00000000 		.4byte	.LFB65
ARM GAS  C:\Users\cring\AppData\Local\Temp\ccSaPXYf.s 			page 70


 3316 0706 0C010000 		.4byte	.LFE65-.LFB65
 3317 070a 01       		.uleb128 0x1
 3318 070b 9C       		.byte	0x9c
 3319 070c A3070000 		.4byte	0x7a3
 3320 0710 14       		.uleb128 0x14
 3321 0711 4A000000 		.4byte	.LBB7
 3322 0715 84000000 		.4byte	.LBE7-.LBB7
 3323 0719 90070000 		.4byte	0x790
 3324 071d 10       		.uleb128 0x10
 3325 071e 693200   		.ascii	"i2\000"
 3326 0721 01       		.byte	0x1
 3327 0722 2F       		.byte	0x2f
 3328 0723 6F000000 		.4byte	0x6f
 3329 0727 44060000 		.4byte	.LLST33
 3330 072b 14       		.uleb128 0x14
 3331 072c 5A000000 		.4byte	.LBB8
 3332 0730 2E000000 		.4byte	.LBE8-.LBB8
 3333 0734 5F070000 		.4byte	0x75f
 3334 0738 10       		.uleb128 0x10
 3335 0739 7800     		.ascii	"x\000"
 3336 073b 01       		.byte	0x1
 3337 073c 33       		.byte	0x33
 3338 073d 6F000000 		.4byte	0x6f
 3339 0741 57060000 		.4byte	.LLST34
 3340 0745 0E       		.uleb128 0xe
 3341 0746 88000000 		.4byte	.LVL174
 3342 074a BA040000 		.4byte	0x4ba
 3343 074e 0D       		.uleb128 0xd
 3344 074f 02       		.uleb128 0x2
 3345 0750 7D       		.byte	0x7d
 3346 0751 00       		.sleb128 0
 3347 0752 03       		.uleb128 0x3
 3348 0753 F5       		.byte	0xf5
 3349 0754 06       		.uleb128 0x6
 3350 0755 25       		.uleb128 0x25
 3351 0756 0D       		.uleb128 0xd
 3352 0757 02       		.uleb128 0x2
 3353 0758 7D       		.byte	0x7d
 3354 0759 08       		.sleb128 8
 3355 075a 02       		.uleb128 0x2
 3356 075b 75       		.byte	0x75
 3357 075c 00       		.sleb128 0
 3358 075d 00       		.byte	0
 3359 075e 00       		.byte	0
 3360 075f 1F       		.uleb128 0x1f
 3361 0760 92000000 		.4byte	.LBB9
 3362 0764 2E000000 		.4byte	.LBE9-.LBB9
 3363 0768 10       		.uleb128 0x10
 3364 0769 7800     		.ascii	"x\000"
 3365 076b 01       		.byte	0x1
 3366 076c 38       		.byte	0x38
 3367 076d 6F000000 		.4byte	0x6f
 3368 0771 6A060000 		.4byte	.LLST35
 3369 0775 0E       		.uleb128 0xe
 3370 0776 C0000000 		.4byte	.LVL176
 3371 077a BA040000 		.4byte	0x4ba
 3372 077e 0D       		.uleb128 0xd
ARM GAS  C:\Users\cring\AppData\Local\Temp\ccSaPXYf.s 			page 71


 3373 077f 02       		.uleb128 0x2
 3374 0780 7D       		.byte	0x7d
 3375 0781 00       		.sleb128 0
 3376 0782 03       		.uleb128 0x3
 3377 0783 F5       		.byte	0xf5
 3378 0784 06       		.uleb128 0x6
 3379 0785 25       		.uleb128 0x25
 3380 0786 0D       		.uleb128 0xd
 3381 0787 02       		.uleb128 0x2
 3382 0788 7D       		.byte	0x7d
 3383 0789 08       		.sleb128 8
 3384 078a 02       		.uleb128 0x2
 3385 078b 75       		.byte	0x75
 3386 078c 00       		.sleb128 0
 3387 078d 00       		.byte	0
 3388 078e 00       		.byte	0
 3389 078f 00       		.byte	0
 3390 0790 0A       		.uleb128 0xa
 3391 0791 2E000000 		.4byte	.LVL170
 3392 0795 06060000 		.4byte	0x606
 3393 0799 0A       		.uleb128 0xa
 3394 079a 4A000000 		.4byte	.LVL171
 3395 079e 06060000 		.4byte	0x606
 3396 07a2 00       		.byte	0
 3397 07a3 12       		.uleb128 0x12
 3398 07a4 A5020000 		.4byte	.LASF46
 3399 07a8 01       		.byte	0x1
 3400 07a9 7001     		.2byte	0x170
 3401 07ab 00000000 		.4byte	.LFB79
 3402 07af 0A000000 		.4byte	.LFE79-.LFB79
 3403 07b3 01       		.uleb128 0x1
 3404 07b4 9C       		.byte	0x9c
 3405 07b5 C8070000 		.4byte	0x7c8
 3406 07b9 18       		.uleb128 0x18
 3407 07ba AA010000 		.4byte	.LASF36
 3408 07be 01       		.byte	0x1
 3409 07bf 7001     		.2byte	0x170
 3410 07c1 DD030000 		.4byte	0x3dd
 3411 07c5 01       		.uleb128 0x1
 3412 07c6 50       		.byte	0x50
 3413 07c7 00       		.byte	0
 3414 07c8 0B       		.uleb128 0xb
 3415 07c9 56010000 		.4byte	.LASF47
 3416 07cd 01       		.byte	0x1
 3417 07ce 8B       		.byte	0x8b
 3418 07cf 00000000 		.4byte	.LFB70
 3419 07d3 48000000 		.4byte	.LFE70-.LFB70
 3420 07d7 01       		.uleb128 0x1
 3421 07d8 9C       		.byte	0x9c
 3422 07d9 4E080000 		.4byte	0x84e
 3423 07dd 0F       		.uleb128 0xf
 3424 07de 05020000 		.4byte	.LASF48
 3425 07e2 01       		.byte	0x1
 3426 07e3 8B       		.byte	0x8b
 3427 07e4 6F000000 		.4byte	0x6f
 3428 07e8 7D060000 		.4byte	.LLST36
 3429 07ec 0F       		.uleb128 0xf
ARM GAS  C:\Users\cring\AppData\Local\Temp\ccSaPXYf.s 			page 72


 3430 07ed 6F030000 		.4byte	.LASF49
 3431 07f1 01       		.byte	0x1
 3432 07f2 8B       		.byte	0x8b
 3433 07f3 DD030000 		.4byte	0x3dd
 3434 07f7 AB060000 		.4byte	.LLST37
 3435 07fb 0F       		.uleb128 0xf
 3436 07fc 2F010000 		.4byte	.LASF50
 3437 0800 01       		.byte	0x1
 3438 0801 8B       		.byte	0x8b
 3439 0802 6F000000 		.4byte	0x6f
 3440 0806 D7060000 		.4byte	.LLST38
 3441 080a 14       		.uleb128 0x14
 3442 080b 1E000000 		.4byte	.LBB10
 3443 080f 20000000 		.4byte	.LBE10-.LBB10
 3444 0813 3D080000 		.4byte	0x83d
 3445 0817 10       		.uleb128 0x10
 3446 0818 6900     		.ascii	"i\000"
 3447 081a 01       		.byte	0x1
 3448 081b 98       		.byte	0x98
 3449 081c 6F000000 		.4byte	0x6f
 3450 0820 F8060000 		.4byte	.LLST39
 3451 0824 0E       		.uleb128 0xe
 3452 0825 36000000 		.4byte	.LVL184
 3453 0829 BA040000 		.4byte	0x4ba
 3454 082d 0D       		.uleb128 0xd
 3455 082e 02       		.uleb128 0x2
 3456 082f 7D       		.byte	0x7d
 3457 0830 08       		.sleb128 8
 3458 0831 02       		.uleb128 0x2
 3459 0832 74       		.byte	0x74
 3460 0833 00       		.sleb128 0
 3461 0834 0D       		.uleb128 0xd
 3462 0835 02       		.uleb128 0x2
 3463 0836 7D       		.byte	0x7d
 3464 0837 0C       		.sleb128 12
 3465 0838 02       		.uleb128 0x2
 3466 0839 75       		.byte	0x75
 3467 083a 00       		.sleb128 0
 3468 083b 00       		.byte	0
 3469 083c 00       		.byte	0
 3470 083d 0E       		.uleb128 0xe
 3471 083e 1E000000 		.4byte	.LVL182
 3472 0842 A3070000 		.4byte	0x7a3
 3473 0846 0D       		.uleb128 0xd
 3474 0847 01       		.uleb128 0x1
 3475 0848 50       		.byte	0x50
 3476 0849 02       		.uleb128 0x2
 3477 084a 75       		.byte	0x75
 3478 084b 00       		.sleb128 0
 3479 084c 00       		.byte	0
 3480 084d 00       		.byte	0
 3481 084e 0B       		.uleb128 0xb
 3482 084f 62010000 		.4byte	.LASF51
 3483 0853 01       		.byte	0x1
 3484 0854 B8       		.byte	0xb8
 3485 0855 00000000 		.4byte	.LFB73
 3486 0859 48000000 		.4byte	.LFE73-.LFB73
ARM GAS  C:\Users\cring\AppData\Local\Temp\ccSaPXYf.s 			page 73


 3487 085d 01       		.uleb128 0x1
 3488 085e 9C       		.byte	0x9c
 3489 085f C8080000 		.4byte	0x8c8
 3490 0863 09       		.uleb128 0x9
 3491 0864 683100   		.ascii	"h1\000"
 3492 0867 01       		.byte	0x1
 3493 0868 B8       		.byte	0xb8
 3494 0869 25000000 		.4byte	0x25
 3495 086d 17070000 		.4byte	.LLST40
 3496 0871 09       		.uleb128 0x9
 3497 0872 733100   		.ascii	"s1\000"
 3498 0875 01       		.byte	0x1
 3499 0876 B8       		.byte	0xb8
 3500 0877 25000000 		.4byte	0x25
 3501 087b 3F070000 		.4byte	.LLST41
 3502 087f 1D       		.uleb128 0x1d
 3503 0880 763100   		.ascii	"v1\000"
 3504 0883 01       		.byte	0x1
 3505 0884 B8       		.byte	0xb8
 3506 0885 25000000 		.4byte	0x25
 3507 0889 02       		.uleb128 0x2
 3508 088a 91       		.byte	0x91
 3509 088b 00       		.sleb128 0
 3510 088c 1E       		.uleb128 0x1e
 3511 088d AA010000 		.4byte	.LASF36
 3512 0891 01       		.byte	0x1
 3513 0892 B8       		.byte	0xb8
 3514 0893 DD030000 		.4byte	0x3dd
 3515 0897 02       		.uleb128 0x2
 3516 0898 91       		.byte	0x91
 3517 0899 08       		.sleb128 8
 3518 089a 0C       		.uleb128 0xc
 3519 089b 1C000000 		.4byte	.LVL189
 3520 089f A3070000 		.4byte	0x7a3
 3521 08a3 AE080000 		.4byte	0x8ae
 3522 08a7 0D       		.uleb128 0xd
 3523 08a8 01       		.uleb128 0x1
 3524 08a9 50       		.byte	0x50
 3525 08aa 02       		.uleb128 0x2
 3526 08ab 7A       		.byte	0x7a
 3527 08ac 00       		.sleb128 0
 3528 08ad 00       		.byte	0
 3529 08ae 0E       		.uleb128 0xe
 3530 08af 42000000 		.4byte	.LVL190
 3531 08b3 06060000 		.4byte	0x606
 3532 08b7 0D       		.uleb128 0xd
 3533 08b8 02       		.uleb128 0x2
 3534 08b9 7D       		.byte	0x7d
 3535 08ba 00       		.sleb128 0
 3536 08bb 03       		.uleb128 0x3
 3537 08bc F5       		.byte	0xf5
 3538 08bd 08       		.uleb128 0x8
 3539 08be 25       		.uleb128 0x25
 3540 08bf 0D       		.uleb128 0xd
 3541 08c0 02       		.uleb128 0x2
 3542 08c1 7D       		.byte	0x7d
 3543 08c2 08       		.sleb128 8
ARM GAS  C:\Users\cring\AppData\Local\Temp\ccSaPXYf.s 			page 74


 3544 08c3 02       		.uleb128 0x2
 3545 08c4 7A       		.byte	0x7a
 3546 08c5 00       		.sleb128 0
 3547 08c6 00       		.byte	0
 3548 08c7 00       		.byte	0
 3549 08c8 0B       		.uleb128 0xb
 3550 08c9 AD030000 		.4byte	.LASF52
 3551 08cd 01       		.byte	0x1
 3552 08ce CA       		.byte	0xca
 3553 08cf 00000000 		.4byte	.LFB75
 3554 08d3 4C000000 		.4byte	.LFE75-.LFB75
 3555 08d7 01       		.uleb128 0x1
 3556 08d8 9C       		.byte	0x9c
 3557 08d9 51090000 		.4byte	0x951
 3558 08dd 0F       		.uleb128 0xf
 3559 08de E3020000 		.4byte	.LASF53
 3560 08e2 01       		.byte	0x1
 3561 08e3 CA       		.byte	0xca
 3562 08e4 6F000000 		.4byte	0x6f
 3563 08e8 67070000 		.4byte	.LLST42
 3564 08ec 09       		.uleb128 0x9
 3565 08ed 683100   		.ascii	"h1\000"
 3566 08f0 01       		.byte	0x1
 3567 08f1 CA       		.byte	0xca
 3568 08f2 25000000 		.4byte	0x25
 3569 08f6 97070000 		.4byte	.LLST43
 3570 08fa 09       		.uleb128 0x9
 3571 08fb 733100   		.ascii	"s1\000"
 3572 08fe 01       		.byte	0x1
 3573 08ff CA       		.byte	0xca
 3574 0900 25000000 		.4byte	0x25
 3575 0904 BF070000 		.4byte	.LLST44
 3576 0908 09       		.uleb128 0x9
 3577 0909 763100   		.ascii	"v1\000"
 3578 090c 01       		.byte	0x1
 3579 090d CA       		.byte	0xca
 3580 090e 25000000 		.4byte	0x25
 3581 0912 DF070000 		.4byte	.LLST45
 3582 0916 0F       		.uleb128 0xf
 3583 0917 AA010000 		.4byte	.LASF36
 3584 091b 01       		.byte	0x1
 3585 091c CA       		.byte	0xca
 3586 091d DD030000 		.4byte	0x3dd
 3587 0921 FF070000 		.4byte	.LLST46
 3588 0925 14       		.uleb128 0x14
 3589 0926 24000000 		.4byte	.LBB11
 3590 092a 20000000 		.4byte	.LBE11-.LBB11
 3591 092e 40090000 		.4byte	0x940
 3592 0932 10       		.uleb128 0x10
 3593 0933 6900     		.ascii	"i\000"
 3594 0935 01       		.byte	0x1
 3595 0936 D0       		.byte	0xd0
 3596 0937 6F000000 		.4byte	0x6f
 3597 093b 1F080000 		.4byte	.LLST47
 3598 093f 00       		.byte	0
 3599 0940 0E       		.uleb128 0xe
 3600 0941 1E000000 		.4byte	.LVL193
ARM GAS  C:\Users\cring\AppData\Local\Temp\ccSaPXYf.s 			page 75


 3601 0945 A3070000 		.4byte	0x7a3
 3602 0949 0D       		.uleb128 0xd
 3603 094a 01       		.uleb128 0x1
 3604 094b 50       		.byte	0x50
 3605 094c 02       		.uleb128 0x2
 3606 094d 7A       		.byte	0x7a
 3607 094e 00       		.sleb128 0
 3608 094f 00       		.byte	0
 3609 0950 00       		.byte	0
 3610 0951 12       		.uleb128 0x12
 3611 0952 D8010000 		.4byte	.LASF54
 3612 0956 01       		.byte	0x1
 3613 0957 7701     		.2byte	0x177
 3614 0959 00000000 		.4byte	.LFB80
 3615 095d 44000000 		.4byte	.LFE80-.LFB80
 3616 0961 01       		.uleb128 0x1
 3617 0962 9C       		.byte	0x9c
 3618 0963 CF090000 		.4byte	0x9cf
 3619 0967 16       		.uleb128 0x16
 3620 0968 683100   		.ascii	"h1\000"
 3621 096b 01       		.byte	0x1
 3622 096c 7701     		.2byte	0x177
 3623 096e 25000000 		.4byte	0x25
 3624 0972 3E080000 		.4byte	.LLST48
 3625 0976 16       		.uleb128 0x16
 3626 0977 733100   		.ascii	"s1\000"
 3627 097a 01       		.byte	0x1
 3628 097b 7701     		.2byte	0x177
 3629 097d 25000000 		.4byte	0x25
 3630 0981 66080000 		.4byte	.LLST49
 3631 0985 17       		.uleb128 0x17
 3632 0986 763100   		.ascii	"v1\000"
 3633 0989 01       		.byte	0x1
 3634 098a 7701     		.2byte	0x177
 3635 098c 25000000 		.4byte	0x25
 3636 0990 02       		.uleb128 0x2
 3637 0991 91       		.byte	0x91
 3638 0992 00       		.sleb128 0
 3639 0993 18       		.uleb128 0x18
 3640 0994 AA010000 		.4byte	.LASF36
 3641 0998 01       		.byte	0x1
 3642 0999 7701     		.2byte	0x177
 3643 099b DD030000 		.4byte	0x3dd
 3644 099f 02       		.uleb128 0x2
 3645 09a0 91       		.byte	0x91
 3646 09a1 08       		.sleb128 8
 3647 09a2 14       		.uleb128 0x14
 3648 09a3 1A000000 		.4byte	.LBB12
 3649 09a7 20000000 		.4byte	.LBE12-.LBB12
 3650 09ab BE090000 		.4byte	0x9be
 3651 09af 15       		.uleb128 0x15
 3652 09b0 6900     		.ascii	"i\000"
 3653 09b2 01       		.byte	0x1
 3654 09b3 7B01     		.2byte	0x17b
 3655 09b5 6F000000 		.4byte	0x6f
 3656 09b9 8E080000 		.4byte	.LLST50
 3657 09bd 00       		.byte	0
ARM GAS  C:\Users\cring\AppData\Local\Temp\ccSaPXYf.s 			page 76


 3658 09be 0E       		.uleb128 0xe
 3659 09bf 1A000000 		.4byte	.LVL200
 3660 09c3 A3070000 		.4byte	0x7a3
 3661 09c7 0D       		.uleb128 0xd
 3662 09c8 01       		.uleb128 0x1
 3663 09c9 50       		.byte	0x50
 3664 09ca 02       		.uleb128 0x2
 3665 09cb 7A       		.byte	0x7a
 3666 09cc 00       		.sleb128 0
 3667 09cd 00       		.byte	0
 3668 09ce 00       		.byte	0
 3669 09cf 12       		.uleb128 0x12
 3670 09d0 18020000 		.4byte	.LASF55
 3671 09d4 01       		.byte	0x1
 3672 09d5 8701     		.2byte	0x187
 3673 09d7 00000000 		.4byte	.LFB81
 3674 09db 38000000 		.4byte	.LFE81-.LFB81
 3675 09df 01       		.uleb128 0x1
 3676 09e0 9C       		.byte	0x9c
 3677 09e1 210A0000 		.4byte	0xa21
 3678 09e5 13       		.uleb128 0x13
 3679 09e6 AA010000 		.4byte	.LASF36
 3680 09ea 01       		.byte	0x1
 3681 09eb 8701     		.2byte	0x187
 3682 09ed DD030000 		.4byte	0x3dd
 3683 09f1 AD080000 		.4byte	.LLST51
 3684 09f5 0E       		.uleb128 0xe
 3685 09f6 22000000 		.4byte	.LVL205
 3686 09fa C8080000 		.4byte	0x8c8
 3687 09fe 0D       		.uleb128 0xd
 3688 09ff 01       		.uleb128 0x1
 3689 0a00 50       		.byte	0x50
 3690 0a01 01       		.uleb128 0x1
 3691 0a02 33       		.byte	0x33
 3692 0a03 0D       		.uleb128 0xd
 3693 0a04 06       		.uleb128 0x6
 3694 0a05 52       		.byte	0x52
 3695 0a06 93       		.byte	0x93
 3696 0a07 04       		.uleb128 0x4
 3697 0a08 53       		.byte	0x53
 3698 0a09 93       		.byte	0x93
 3699 0a0a 04       		.uleb128 0x4
 3700 0a0b 0B       		.uleb128 0xb
 3701 0a0c F4       		.byte	0xf4
 3702 0a0d 25       		.uleb128 0x25
 3703 0a0e 08       		.byte	0x8
 3704 0a0f 00000000 		.4byte	0
 3705 0a13 00E06740 		.4byte	0x4067e000
 3706 0a17 0D       		.uleb128 0xd
 3707 0a18 02       		.uleb128 0x2
 3708 0a19 7D       		.byte	0x7d
 3709 0a1a 10       		.sleb128 16
 3710 0a1b 03       		.uleb128 0x3
 3711 0a1c F3       		.byte	0xf3
 3712 0a1d 01       		.uleb128 0x1
 3713 0a1e 50       		.byte	0x50
 3714 0a1f 00       		.byte	0
ARM GAS  C:\Users\cring\AppData\Local\Temp\ccSaPXYf.s 			page 77


 3715 0a20 00       		.byte	0
 3716 0a21 12       		.uleb128 0x12
 3717 0a22 6E000000 		.4byte	.LASF56
 3718 0a26 01       		.byte	0x1
 3719 0a27 8C01     		.2byte	0x18c
 3720 0a29 00000000 		.4byte	.LFB82
 3721 0a2d 3C000000 		.4byte	.LFE82-.LFB82
 3722 0a31 01       		.uleb128 0x1
 3723 0a32 9C       		.byte	0x9c
 3724 0a33 7E0A0000 		.4byte	0xa7e
 3725 0a37 13       		.uleb128 0x13
 3726 0a38 AA010000 		.4byte	.LASF36
 3727 0a3c 01       		.byte	0x1
 3728 0a3d 8C01     		.2byte	0x18c
 3729 0a3f DD030000 		.4byte	0x3dd
 3730 0a43 DA080000 		.4byte	.LLST52
 3731 0a47 0E       		.uleb128 0xe
 3732 0a48 1E000000 		.4byte	.LVL208
 3733 0a4c 4E080000 		.4byte	0x84e
 3734 0a50 0D       		.uleb128 0xd
 3735 0a51 06       		.uleb128 0x6
 3736 0a52 50       		.byte	0x50
 3737 0a53 93       		.byte	0x93
 3738 0a54 04       		.uleb128 0x4
 3739 0a55 51       		.byte	0x51
 3740 0a56 93       		.byte	0x93
 3741 0a57 04       		.uleb128 0x4
 3742 0a58 0B       		.uleb128 0xb
 3743 0a59 F4       		.byte	0xf4
 3744 0a5a 25       		.uleb128 0x25
 3745 0a5b 08       		.byte	0x8
 3746 0a5c 00000000 		.4byte	0
 3747 0a60 00307340 		.4byte	0x40733000
 3748 0a64 0D       		.uleb128 0xd
 3749 0a65 02       		.uleb128 0x2
 3750 0a66 7D       		.byte	0x7d
 3751 0a67 00       		.sleb128 0
 3752 0a68 0B       		.uleb128 0xb
 3753 0a69 F4       		.byte	0xf4
 3754 0a6a 25       		.uleb128 0x25
 3755 0a6b 08       		.byte	0x8
 3756 0a6c 33333333 		.4byte	0x33333333
 3757 0a70 3333EB3F 		.4byte	0x3feb3333
 3758 0a74 0D       		.uleb128 0xd
 3759 0a75 02       		.uleb128 0x2
 3760 0a76 7D       		.byte	0x7d
 3761 0a77 08       		.sleb128 8
 3762 0a78 03       		.uleb128 0x3
 3763 0a79 F3       		.byte	0xf3
 3764 0a7a 01       		.uleb128 0x1
 3765 0a7b 50       		.byte	0x50
 3766 0a7c 00       		.byte	0
 3767 0a7d 00       		.byte	0
 3768 0a7e 12       		.uleb128 0x12
 3769 0a7f 1D050000 		.4byte	.LASF57
 3770 0a83 01       		.byte	0x1
 3771 0a84 9101     		.2byte	0x191
ARM GAS  C:\Users\cring\AppData\Local\Temp\ccSaPXYf.s 			page 78


 3772 0a86 00000000 		.4byte	.LFB83
 3773 0a8a 38000000 		.4byte	.LFE83-.LFB83
 3774 0a8e 01       		.uleb128 0x1
 3775 0a8f 9C       		.byte	0x9c
 3776 0a90 DA0A0000 		.4byte	0xada
 3777 0a94 13       		.uleb128 0x13
 3778 0a95 AA010000 		.4byte	.LASF36
 3779 0a99 01       		.byte	0x1
 3780 0a9a 9101     		.2byte	0x191
 3781 0a9c DD030000 		.4byte	0x3dd
 3782 0aa0 07090000 		.4byte	.LLST53
 3783 0aa4 0C       		.uleb128 0xc
 3784 0aa5 0A000000 		.4byte	.LVL210
 3785 0aa9 A3070000 		.4byte	0x7a3
 3786 0aad B80A0000 		.4byte	0xab8
 3787 0ab1 0D       		.uleb128 0xd
 3788 0ab2 01       		.uleb128 0x1
 3789 0ab3 50       		.byte	0x50
 3790 0ab4 02       		.uleb128 0x2
 3791 0ab5 74       		.byte	0x74
 3792 0ab6 00       		.sleb128 0
 3793 0ab7 00       		.byte	0
 3794 0ab8 0E       		.uleb128 0xe
 3795 0ab9 22000000 		.4byte	.LVL211
 3796 0abd 06060000 		.4byte	0x606
 3797 0ac1 0D       		.uleb128 0xd
 3798 0ac2 02       		.uleb128 0x2
 3799 0ac3 7D       		.byte	0x7d
 3800 0ac4 00       		.sleb128 0
 3801 0ac5 0B       		.uleb128 0xb
 3802 0ac6 F4       		.byte	0xf4
 3803 0ac7 25       		.uleb128 0x25
 3804 0ac8 08       		.byte	0x8
 3805 0ac9 8FC2F528 		.4byte	0x28f5c28f
 3806 0acd 5C8FEA3F 		.4byte	0x3fea8f5c
 3807 0ad1 0D       		.uleb128 0xd
 3808 0ad2 02       		.uleb128 0x2
 3809 0ad3 7D       		.byte	0x7d
 3810 0ad4 08       		.sleb128 8
 3811 0ad5 02       		.uleb128 0x2
 3812 0ad6 74       		.byte	0x74
 3813 0ad7 00       		.sleb128 0
 3814 0ad8 00       		.byte	0
 3815 0ad9 00       		.byte	0
 3816 0ada 12       		.uleb128 0x12
 3817 0adb ED040000 		.4byte	.LASF58
 3818 0adf 01       		.byte	0x1
 3819 0ae0 9801     		.2byte	0x198
 3820 0ae2 00000000 		.4byte	.LFB84
 3821 0ae6 24000000 		.4byte	.LFE84-.LFB84
 3822 0aea 01       		.uleb128 0x1
 3823 0aeb 9C       		.byte	0x9c
 3824 0aec 130B0000 		.4byte	0xb13
 3825 0af0 13       		.uleb128 0x13
 3826 0af1 AA010000 		.4byte	.LASF36
 3827 0af5 01       		.byte	0x1
 3828 0af6 9801     		.2byte	0x198
ARM GAS  C:\Users\cring\AppData\Local\Temp\ccSaPXYf.s 			page 79


 3829 0af8 DD030000 		.4byte	0x3dd
 3830 0afc 33090000 		.4byte	.LLST54
 3831 0b00 0E       		.uleb128 0xe
 3832 0b01 16000000 		.4byte	.LVL215
 3833 0b05 4E080000 		.4byte	0x84e
 3834 0b09 0D       		.uleb128 0xd
 3835 0b0a 02       		.uleb128 0x2
 3836 0b0b 7D       		.byte	0x7d
 3837 0b0c 08       		.sleb128 8
 3838 0b0d 03       		.uleb128 0x3
 3839 0b0e F3       		.byte	0xf3
 3840 0b0f 01       		.uleb128 0x1
 3841 0b10 50       		.byte	0x50
 3842 0b11 00       		.byte	0
 3843 0b12 00       		.byte	0
 3844 0b13 12       		.uleb128 0x12
 3845 0b14 EF020000 		.4byte	.LASF59
 3846 0b18 01       		.byte	0x1
 3847 0b19 9D01     		.2byte	0x19d
 3848 0b1b 00000000 		.4byte	.LFB85
 3849 0b1f 2C000000 		.4byte	.LFE85-.LFB85
 3850 0b23 01       		.uleb128 0x1
 3851 0b24 9C       		.byte	0x9c
 3852 0b25 510B0000 		.4byte	0xb51
 3853 0b29 13       		.uleb128 0x13
 3854 0b2a AA010000 		.4byte	.LASF36
 3855 0b2e 01       		.byte	0x1
 3856 0b2f 9D01     		.2byte	0x19d
 3857 0b31 DD030000 		.4byte	0x3dd
 3858 0b35 60090000 		.4byte	.LLST55
 3859 0b39 0E       		.uleb128 0xe
 3860 0b3a 1C000000 		.4byte	.LVL218
 3861 0b3e C8080000 		.4byte	0x8c8
 3862 0b42 0D       		.uleb128 0xd
 3863 0b43 01       		.uleb128 0x1
 3864 0b44 50       		.byte	0x50
 3865 0b45 01       		.uleb128 0x1
 3866 0b46 33       		.byte	0x33
 3867 0b47 0D       		.uleb128 0xd
 3868 0b48 02       		.uleb128 0x2
 3869 0b49 7D       		.byte	0x7d
 3870 0b4a 10       		.sleb128 16
 3871 0b4b 03       		.uleb128 0x3
 3872 0b4c F3       		.byte	0xf3
 3873 0b4d 01       		.uleb128 0x1
 3874 0b4e 50       		.byte	0x50
 3875 0b4f 00       		.byte	0
 3876 0b50 00       		.byte	0
 3877 0b51 12       		.uleb128 0x12
 3878 0b52 0B050000 		.4byte	.LASF60
 3879 0b56 01       		.byte	0x1
 3880 0b57 A201     		.2byte	0x1a2
 3881 0b59 00000000 		.4byte	.LFB86
 3882 0b5d 28000000 		.4byte	.LFE86-.LFB86
 3883 0b61 01       		.uleb128 0x1
 3884 0b62 9C       		.byte	0x9c
 3885 0b63 9D0B0000 		.4byte	0xb9d
ARM GAS  C:\Users\cring\AppData\Local\Temp\ccSaPXYf.s 			page 80


 3886 0b67 13       		.uleb128 0x13
 3887 0b68 AA010000 		.4byte	.LASF36
 3888 0b6c 01       		.byte	0x1
 3889 0b6d A201     		.2byte	0x1a2
 3890 0b6f DD030000 		.4byte	0x3dd
 3891 0b73 8D090000 		.4byte	.LLST56
 3892 0b77 0C       		.uleb128 0xc
 3893 0b78 0A000000 		.4byte	.LVL220
 3894 0b7c A3070000 		.4byte	0x7a3
 3895 0b80 8B0B0000 		.4byte	0xb8b
 3896 0b84 0D       		.uleb128 0xd
 3897 0b85 01       		.uleb128 0x1
 3898 0b86 50       		.byte	0x50
 3899 0b87 02       		.uleb128 0x2
 3900 0b88 74       		.byte	0x74
 3901 0b89 00       		.sleb128 0
 3902 0b8a 00       		.byte	0
 3903 0b8b 0E       		.uleb128 0xe
 3904 0b8c 1C000000 		.4byte	.LVL221
 3905 0b90 06060000 		.4byte	0x606
 3906 0b94 0D       		.uleb128 0xd
 3907 0b95 02       		.uleb128 0x2
 3908 0b96 7D       		.byte	0x7d
 3909 0b97 08       		.sleb128 8
 3910 0b98 02       		.uleb128 0x2
 3911 0b99 74       		.byte	0x74
 3912 0b9a 00       		.sleb128 0
 3913 0b9b 00       		.byte	0
 3914 0b9c 00       		.byte	0
 3915 0b9d 20       		.uleb128 0x20
 3916 0b9e 44010000 		.4byte	.LASF98
 3917 0ba2 01       		.byte	0x1
 3918 0ba3 A801     		.2byte	0x1a8
 3919 0ba5 6F000000 		.4byte	0x6f
 3920 0ba9 00000000 		.4byte	.LFB87
 3921 0bad 34010000 		.4byte	.LFE87-.LFB87
 3922 0bb1 01       		.uleb128 0x1
 3923 0bb2 9C       		.byte	0x9c
 3924 0bb3 FB0C0000 		.4byte	0xcfb
 3925 0bb7 13       		.uleb128 0x13
 3926 0bb8 4D010000 		.4byte	.LASF61
 3927 0bbc 01       		.byte	0x1
 3928 0bbd A801     		.2byte	0x1a8
 3929 0bbf DD030000 		.4byte	0x3dd
 3930 0bc3 B9090000 		.4byte	.LLST57
 3931 0bc7 13       		.uleb128 0x13
 3932 0bc8 D2020000 		.4byte	.LASF62
 3933 0bcc 01       		.byte	0x1
 3934 0bcd A801     		.2byte	0x1a8
 3935 0bcf DD030000 		.4byte	0x3dd
 3936 0bd3 0A0A0000 		.4byte	.LLST58
 3937 0bd7 0C       		.uleb128 0xc
 3938 0bd8 0E000000 		.4byte	.LVL224
 3939 0bdc A3070000 		.4byte	0x7a3
 3940 0be0 EB0B0000 		.4byte	0xbeb
 3941 0be4 0D       		.uleb128 0xd
 3942 0be5 01       		.uleb128 0x1
ARM GAS  C:\Users\cring\AppData\Local\Temp\ccSaPXYf.s 			page 81


 3943 0be6 50       		.byte	0x50
 3944 0be7 02       		.uleb128 0x2
 3945 0be8 78       		.byte	0x78
 3946 0be9 00       		.sleb128 0
 3947 0bea 00       		.byte	0
 3948 0beb 0C       		.uleb128 0xc
 3949 0bec 14000000 		.4byte	.LVL225
 3950 0bf0 A3070000 		.4byte	0x7a3
 3951 0bf4 FF0B0000 		.4byte	0xbff
 3952 0bf8 0D       		.uleb128 0xd
 3953 0bf9 01       		.uleb128 0x1
 3954 0bfa 50       		.byte	0x50
 3955 0bfb 02       		.uleb128 0x2
 3956 0bfc 7B       		.byte	0x7b
 3957 0bfd 00       		.sleb128 0
 3958 0bfe 00       		.byte	0
 3959 0bff 0C       		.uleb128 0xc
 3960 0c00 46000000 		.4byte	.LVL227
 3961 0c04 06060000 		.4byte	0x606
 3962 0c08 1D0C0000 		.4byte	0xc1d
 3963 0c0c 0D       		.uleb128 0xd
 3964 0c0d 02       		.uleb128 0x2
 3965 0c0e 7D       		.byte	0x7d
 3966 0c0f 00       		.sleb128 0
 3967 0c10 03       		.uleb128 0x3
 3968 0c11 F5       		.byte	0xf5
 3969 0c12 08       		.uleb128 0x8
 3970 0c13 25       		.uleb128 0x25
 3971 0c14 0D       		.uleb128 0xd
 3972 0c15 02       		.uleb128 0x2
 3973 0c16 7D       		.byte	0x7d
 3974 0c17 08       		.sleb128 8
 3975 0c18 03       		.uleb128 0x3
 3976 0c19 F3       		.byte	0xf3
 3977 0c1a 01       		.uleb128 0x1
 3978 0c1b 50       		.byte	0x50
 3979 0c1c 00       		.byte	0
 3980 0c1d 0C       		.uleb128 0xc
 3981 0c1e 5A000000 		.4byte	.LVL228
 3982 0c22 06060000 		.4byte	0x606
 3983 0c26 3A0C0000 		.4byte	0xc3a
 3984 0c2a 0D       		.uleb128 0xd
 3985 0c2b 02       		.uleb128 0x2
 3986 0c2c 7D       		.byte	0x7d
 3987 0c2d 00       		.sleb128 0
 3988 0c2e 03       		.uleb128 0x3
 3989 0c2f F5       		.byte	0xf5
 3990 0c30 08       		.uleb128 0x8
 3991 0c31 25       		.uleb128 0x25
 3992 0c32 0D       		.uleb128 0xd
 3993 0c33 02       		.uleb128 0x2
 3994 0c34 7D       		.byte	0x7d
 3995 0c35 08       		.sleb128 8
 3996 0c36 02       		.uleb128 0x2
 3997 0c37 7B       		.byte	0x7b
 3998 0c38 00       		.sleb128 0
 3999 0c39 00       		.byte	0
ARM GAS  C:\Users\cring\AppData\Local\Temp\ccSaPXYf.s 			page 82


 4000 0c3a 0A       		.uleb128 0xa
 4001 0c3b 5E000000 		.4byte	.LVL229
 4002 0c3f 030F0000 		.4byte	0xf03
 4003 0c43 0C       		.uleb128 0xc
 4004 0c44 7C000000 		.4byte	.LVL231
 4005 0c48 06060000 		.4byte	0x606
 4006 0c4c 600C0000 		.4byte	0xc60
 4007 0c50 0D       		.uleb128 0xd
 4008 0c51 02       		.uleb128 0x2
 4009 0c52 7D       		.byte	0x7d
 4010 0c53 00       		.sleb128 0
 4011 0c54 03       		.uleb128 0x3
 4012 0c55 F5       		.byte	0xf5
 4013 0c56 04       		.uleb128 0x4
 4014 0c57 25       		.uleb128 0x25
 4015 0c58 0D       		.uleb128 0xd
 4016 0c59 02       		.uleb128 0x2
 4017 0c5a 7D       		.byte	0x7d
 4018 0c5b 08       		.sleb128 8
 4019 0c5c 02       		.uleb128 0x2
 4020 0c5d 78       		.byte	0x78
 4021 0c5e 00       		.sleb128 0
 4022 0c5f 00       		.byte	0
 4023 0c60 0C       		.uleb128 0xc
 4024 0c61 90000000 		.4byte	.LVL232
 4025 0c65 06060000 		.4byte	0x606
 4026 0c69 7D0C0000 		.4byte	0xc7d
 4027 0c6d 0D       		.uleb128 0xd
 4028 0c6e 02       		.uleb128 0x2
 4029 0c6f 7D       		.byte	0x7d
 4030 0c70 00       		.sleb128 0
 4031 0c71 03       		.uleb128 0x3
 4032 0c72 F5       		.byte	0xf5
 4033 0c73 04       		.uleb128 0x4
 4034 0c74 25       		.uleb128 0x25
 4035 0c75 0D       		.uleb128 0xd
 4036 0c76 02       		.uleb128 0x2
 4037 0c77 7D       		.byte	0x7d
 4038 0c78 08       		.sleb128 8
 4039 0c79 02       		.uleb128 0x2
 4040 0c7a 7B       		.byte	0x7b
 4041 0c7b 00       		.sleb128 0
 4042 0c7c 00       		.byte	0
 4043 0c7d 0C       		.uleb128 0xc
 4044 0c7e B0000000 		.4byte	.LVL233
 4045 0c82 06060000 		.4byte	0x606
 4046 0c86 9A0C0000 		.4byte	0xc9a
 4047 0c8a 0D       		.uleb128 0xd
 4048 0c8b 02       		.uleb128 0x2
 4049 0c8c 7D       		.byte	0x7d
 4050 0c8d 00       		.sleb128 0
 4051 0c8e 03       		.uleb128 0x3
 4052 0c8f F5       		.byte	0xf5
 4053 0c90 04       		.uleb128 0x4
 4054 0c91 25       		.uleb128 0x25
 4055 0c92 0D       		.uleb128 0xd
 4056 0c93 02       		.uleb128 0x2
ARM GAS  C:\Users\cring\AppData\Local\Temp\ccSaPXYf.s 			page 83


 4057 0c94 7D       		.byte	0x7d
 4058 0c95 08       		.sleb128 8
 4059 0c96 02       		.uleb128 0x2
 4060 0c97 78       		.byte	0x78
 4061 0c98 00       		.sleb128 0
 4062 0c99 00       		.byte	0
 4063 0c9a 0C       		.uleb128 0xc
 4064 0c9b C4000000 		.4byte	.LVL234
 4065 0c9f 06060000 		.4byte	0x606
 4066 0ca3 B70C0000 		.4byte	0xcb7
 4067 0ca7 0D       		.uleb128 0xd
 4068 0ca8 02       		.uleb128 0x2
 4069 0ca9 7D       		.byte	0x7d
 4070 0caa 00       		.sleb128 0
 4071 0cab 03       		.uleb128 0x3
 4072 0cac F5       		.byte	0xf5
 4073 0cad 04       		.uleb128 0x4
 4074 0cae 25       		.uleb128 0x25
 4075 0caf 0D       		.uleb128 0xd
 4076 0cb0 02       		.uleb128 0x2
 4077 0cb1 7D       		.byte	0x7d
 4078 0cb2 08       		.sleb128 8
 4079 0cb3 02       		.uleb128 0x2
 4080 0cb4 7B       		.byte	0x7b
 4081 0cb5 00       		.sleb128 0
 4082 0cb6 00       		.byte	0
 4083 0cb7 0C       		.uleb128 0xc
 4084 0cb8 E4000000 		.4byte	.LVL235
 4085 0cbc 06060000 		.4byte	0x606
 4086 0cc0 D40C0000 		.4byte	0xcd4
 4087 0cc4 0D       		.uleb128 0xd
 4088 0cc5 02       		.uleb128 0x2
 4089 0cc6 7D       		.byte	0x7d
 4090 0cc7 00       		.sleb128 0
 4091 0cc8 03       		.uleb128 0x3
 4092 0cc9 F5       		.byte	0xf5
 4093 0cca 04       		.uleb128 0x4
 4094 0ccb 25       		.uleb128 0x25
 4095 0ccc 0D       		.uleb128 0xd
 4096 0ccd 02       		.uleb128 0x2
 4097 0cce 7D       		.byte	0x7d
 4098 0ccf 08       		.sleb128 8
 4099 0cd0 02       		.uleb128 0x2
 4100 0cd1 78       		.byte	0x78
 4101 0cd2 00       		.sleb128 0
 4102 0cd3 00       		.byte	0
 4103 0cd4 0C       		.uleb128 0xc
 4104 0cd5 F8000000 		.4byte	.LVL236
 4105 0cd9 06060000 		.4byte	0x606
 4106 0cdd F10C0000 		.4byte	0xcf1
 4107 0ce1 0D       		.uleb128 0xd
 4108 0ce2 02       		.uleb128 0x2
 4109 0ce3 7D       		.byte	0x7d
 4110 0ce4 00       		.sleb128 0
 4111 0ce5 03       		.uleb128 0x3
 4112 0ce6 F5       		.byte	0xf5
 4113 0ce7 04       		.uleb128 0x4
ARM GAS  C:\Users\cring\AppData\Local\Temp\ccSaPXYf.s 			page 84


 4114 0ce8 25       		.uleb128 0x25
 4115 0ce9 0D       		.uleb128 0xd
 4116 0cea 02       		.uleb128 0x2
 4117 0ceb 7D       		.byte	0x7d
 4118 0cec 08       		.sleb128 8
 4119 0ced 02       		.uleb128 0x2
 4120 0cee 7B       		.byte	0x7b
 4121 0cef 00       		.sleb128 0
 4122 0cf0 00       		.byte	0
 4123 0cf1 0A       		.uleb128 0xa
 4124 0cf2 00010000 		.4byte	.LVL237
 4125 0cf6 0E0F0000 		.4byte	0xf0e
 4126 0cfa 00       		.byte	0
 4127 0cfb 0B       		.uleb128 0xb
 4128 0cfc 3A030000 		.4byte	.LASF63
 4129 0d00 01       		.byte	0x1
 4130 0d01 7F       		.byte	0x7f
 4131 0d02 00000000 		.4byte	.LFB68
 4132 0d06 18000000 		.4byte	.LFE68-.LFB68
 4133 0d0a 01       		.uleb128 0x1
 4134 0d0b 9C       		.byte	0x9c
 4135 0d0c 1A0D0000 		.4byte	0xd1a
 4136 0d10 0A       		.uleb128 0xa
 4137 0d11 12000000 		.4byte	.LVL240
 4138 0d15 9D0B0000 		.4byte	0xb9d
 4139 0d19 00       		.byte	0
 4140 0d1a 12       		.uleb128 0x12
 4141 0d1b 1F030000 		.4byte	.LASF64
 4142 0d1f 01       		.byte	0x1
 4143 0d20 D201     		.2byte	0x1d2
 4144 0d22 00000000 		.4byte	.LFB88
 4145 0d26 38000000 		.4byte	.LFE88-.LFB88
 4146 0d2a 01       		.uleb128 0x1
 4147 0d2b 9C       		.byte	0x9c
 4148 0d2c 630D0000 		.4byte	0xd63
 4149 0d30 13       		.uleb128 0x13
 4150 0d31 AA010000 		.4byte	.LASF36
 4151 0d35 01       		.byte	0x1
 4152 0d36 D201     		.2byte	0x1d2
 4153 0d38 DD030000 		.4byte	0x3dd
 4154 0d3c 360A0000 		.4byte	.LLST59
 4155 0d40 0E       		.uleb128 0xe
 4156 0d41 1C000000 		.4byte	.LVL243
 4157 0d45 51090000 		.4byte	0x951
 4158 0d49 0D       		.uleb128 0xd
 4159 0d4a 02       		.uleb128 0x2
 4160 0d4b 7D       		.byte	0x7d
 4161 0d4c 00       		.sleb128 0
 4162 0d4d 0B       		.uleb128 0xb
 4163 0d4e F4       		.byte	0xf4
 4164 0d4f 25       		.uleb128 0x25
 4165 0d50 08       		.byte	0x8
 4166 0d51 8FC2F528 		.4byte	0x28f5c28f
 4167 0d55 5C8FEA3F 		.4byte	0x3fea8f5c
 4168 0d59 0D       		.uleb128 0xd
 4169 0d5a 02       		.uleb128 0x2
 4170 0d5b 7D       		.byte	0x7d
ARM GAS  C:\Users\cring\AppData\Local\Temp\ccSaPXYf.s 			page 85


 4171 0d5c 08       		.sleb128 8
 4172 0d5d 03       		.uleb128 0x3
 4173 0d5e F3       		.byte	0xf3
 4174 0d5f 01       		.uleb128 0x1
 4175 0d60 50       		.byte	0x50
 4176 0d61 00       		.byte	0
 4177 0d62 00       		.byte	0
 4178 0d63 12       		.uleb128 0x12
 4179 0d64 84000000 		.4byte	.LASF65
 4180 0d68 01       		.byte	0x1
 4181 0d69 D701     		.2byte	0x1d7
 4182 0d6b 00000000 		.4byte	.LFB89
 4183 0d6f 28000000 		.4byte	.LFE89-.LFB89
 4184 0d73 01       		.uleb128 0x1
 4185 0d74 9C       		.byte	0x9c
 4186 0d75 AF0D0000 		.4byte	0xdaf
 4187 0d79 13       		.uleb128 0x13
 4188 0d7a AA010000 		.4byte	.LASF36
 4189 0d7e 01       		.byte	0x1
 4190 0d7f D701     		.2byte	0x1d7
 4191 0d81 DD030000 		.4byte	0x3dd
 4192 0d85 630A0000 		.4byte	.LLST60
 4193 0d89 0C       		.uleb128 0xc
 4194 0d8a 0A000000 		.4byte	.LVL245
 4195 0d8e A3070000 		.4byte	0x7a3
 4196 0d92 9D0D0000 		.4byte	0xd9d
 4197 0d96 0D       		.uleb128 0xd
 4198 0d97 01       		.uleb128 0x1
 4199 0d98 50       		.byte	0x50
 4200 0d99 02       		.uleb128 0x2
 4201 0d9a 74       		.byte	0x74
 4202 0d9b 00       		.sleb128 0
 4203 0d9c 00       		.byte	0
 4204 0d9d 0E       		.uleb128 0xe
 4205 0d9e 1C000000 		.4byte	.LVL246
 4206 0da2 06060000 		.4byte	0x606
 4207 0da6 0D       		.uleb128 0xd
 4208 0da7 02       		.uleb128 0x2
 4209 0da8 7D       		.byte	0x7d
 4210 0da9 08       		.sleb128 8
 4211 0daa 02       		.uleb128 0x2
 4212 0dab 74       		.byte	0x74
 4213 0dac 00       		.sleb128 0
 4214 0dad 00       		.byte	0
 4215 0dae 00       		.byte	0
 4216 0daf 21       		.uleb128 0x21
 4217 0db0 F8020000 		.4byte	.LASF66
 4218 0db4 01       		.byte	0x1
 4219 0db5 11       		.byte	0x11
 4220 0db6 6F000000 		.4byte	0x6f
 4221 0dba 05       		.uleb128 0x5
 4222 0dbb 03       		.byte	0x3
 4223 0dbc 14000000 		.4byte	pulselength_
 4224 0dc0 21       		.uleb128 0x21
 4225 0dc1 71010000 		.4byte	.LASF67
 4226 0dc5 01       		.byte	0x1
 4227 0dc6 12       		.byte	0x12
ARM GAS  C:\Users\cring\AppData\Local\Temp\ccSaPXYf.s 			page 86


 4228 0dc7 6F000000 		.4byte	0x6f
 4229 0dcb 05       		.uleb128 0x5
 4230 0dcc 03       		.byte	0x3
 4231 0dcd 10000000 		.4byte	index_
 4232 0dd1 21       		.uleb128 0x21
 4233 0dd2 52000000 		.4byte	.LASF68
 4234 0dd6 01       		.byte	0x1
 4235 0dd7 13       		.byte	0x13
 4236 0dd8 88000000 		.4byte	0x88
 4237 0ddc 05       		.uleb128 0x5
 4238 0ddd 03       		.byte	0x3
 4239 0dde 00000000 		.4byte	index2
 4240 0de2 21       		.uleb128 0x21
 4241 0de3 D1030000 		.4byte	.LASF69
 4242 0de7 01       		.byte	0x1
 4243 0de8 14       		.byte	0x14
 4244 0de9 6F000000 		.4byte	0x6f
 4245 0ded 05       		.uleb128 0x5
 4246 0dee 03       		.byte	0x3
 4247 0def 08000000 		.4byte	count
 4248 0df3 21       		.uleb128 0x21
 4249 0df4 D7030000 		.4byte	.LASF70
 4250 0df8 01       		.byte	0x1
 4251 0df9 15       		.byte	0x15
 4252 0dfa 6F000000 		.4byte	0x6f
 4253 0dfe 05       		.uleb128 0x5
 4254 0dff 03       		.byte	0x3
 4255 0e00 18000000 		.4byte	count2
 4256 0e04 21       		.uleb128 0x21
 4257 0e05 19000000 		.4byte	.LASF71
 4258 0e09 01       		.byte	0x1
 4259 0e0a 16       		.byte	0x16
 4260 0e0b 6F000000 		.4byte	0x6f
 4261 0e0f 05       		.uleb128 0x5
 4262 0e10 03       		.byte	0x3
 4263 0e11 0C000000 		.4byte	count3
 4264 0e15 22       		.uleb128 0x22
 4265 0e16 32040000 		.4byte	.LASF72
 4266 0e1a 05       		.byte	0x5
 4267 0e1b 1207     		.2byte	0x712
 4268 0e1d 210E0000 		.4byte	0xe21
 4269 0e21 23       		.uleb128 0x23
 4270 0e22 7D000000 		.4byte	0x7d
 4271 0e26 24       		.uleb128 0x24
 4272 0e27 7D020000 		.4byte	.LASF73
 4273 0e2b 01       		.byte	0x1
 4274 0e2c 18       		.byte	0x18
 4275 0e2d DD030000 		.4byte	0x3dd
 4276 0e31 05       		.uleb128 0x5
 4277 0e32 03       		.byte	0x3
 4278 0e33 00000000 		.4byte	rgbLED1
 4279 0e37 24       		.uleb128 0x24
 4280 0e38 85020000 		.4byte	.LASF74
 4281 0e3c 01       		.byte	0x1
 4282 0e3d 19       		.byte	0x19
 4283 0e3e DD030000 		.4byte	0x3dd
 4284 0e42 05       		.uleb128 0x5
ARM GAS  C:\Users\cring\AppData\Local\Temp\ccSaPXYf.s 			page 87


 4285 0e43 03       		.byte	0x3
 4286 0e44 00000000 		.4byte	rgbLED2
 4287 0e48 25       		.uleb128 0x25
 4288 0e49 BF010000 		.4byte	.LASF75
 4289 0e4d BF010000 		.4byte	.LASF75
 4290 0e51 06       		.byte	0x6
 4291 0e52 68       		.byte	0x68
 4292 0e53 25       		.uleb128 0x25
 4293 0e54 B5030000 		.4byte	.LASF76
 4294 0e58 B5030000 		.4byte	.LASF76
 4295 0e5c 07       		.byte	0x7
 4296 0e5d 18       		.byte	0x18
 4297 0e5e 25       		.uleb128 0x25
 4298 0e5f 12010000 		.4byte	.LASF77
 4299 0e63 12010000 		.4byte	.LASF77
 4300 0e67 08       		.byte	0x8
 4301 0e68 18       		.byte	0x18
 4302 0e69 25       		.uleb128 0x25
 4303 0e6a 29000000 		.4byte	.LASF78
 4304 0e6e 29000000 		.4byte	.LASF78
 4305 0e72 09       		.byte	0x9
 4306 0e73 18       		.byte	0x18
 4307 0e74 25       		.uleb128 0x25
 4308 0e75 59000000 		.4byte	.LASF79
 4309 0e79 59000000 		.4byte	.LASF79
 4310 0e7d 0A       		.byte	0xa
 4311 0e7e 18       		.byte	0x18
 4312 0e7f 25       		.uleb128 0x25
 4313 0e80 7E030000 		.4byte	.LASF80
 4314 0e84 7E030000 		.4byte	.LASF80
 4315 0e88 0B       		.byte	0xb
 4316 0e89 18       		.byte	0x18
 4317 0e8a 25       		.uleb128 0x25
 4318 0e8b 08040000 		.4byte	.LASF81
 4319 0e8f 08040000 		.4byte	.LASF81
 4320 0e93 0C       		.byte	0xc
 4321 0e94 4D       		.byte	0x4d
 4322 0e95 25       		.uleb128 0x25
 4323 0e96 15040000 		.4byte	.LASF82
 4324 0e9a 15040000 		.4byte	.LASF82
 4325 0e9e 06       		.byte	0x6
 4326 0e9f 5A       		.byte	0x5a
 4327 0ea0 25       		.uleb128 0x25
 4328 0ea1 50030000 		.4byte	.LASF83
 4329 0ea5 50030000 		.4byte	.LASF83
 4330 0ea9 0D       		.byte	0xd
 4331 0eaa 5A       		.byte	0x5a
 4332 0eab 25       		.uleb128 0x25
 4333 0eac FE040000 		.4byte	.LASF84
 4334 0eb0 FE040000 		.4byte	.LASF84
 4335 0eb4 0E       		.byte	0xe
 4336 0eb5 5A       		.byte	0x5a
 4337 0eb6 25       		.uleb128 0x25
 4338 0eb7 23020000 		.4byte	.LASF85
 4339 0ebb 23020000 		.4byte	.LASF85
 4340 0ebf 0F       		.byte	0xf
 4341 0ec0 5A       		.byte	0x5a
ARM GAS  C:\Users\cring\AppData\Local\Temp\ccSaPXYf.s 			page 88


 4342 0ec1 25       		.uleb128 0x25
 4343 0ec2 82010000 		.4byte	.LASF86
 4344 0ec6 82010000 		.4byte	.LASF86
 4345 0eca 0D       		.byte	0xd
 4346 0ecb 68       		.byte	0x68
 4347 0ecc 25       		.uleb128 0x25
 4348 0ecd 8E000000 		.4byte	.LASF87
 4349 0ed1 8E000000 		.4byte	.LASF87
 4350 0ed5 0E       		.byte	0xe
 4351 0ed6 68       		.byte	0x68
 4352 0ed7 25       		.uleb128 0x25
 4353 0ed8 CD040000 		.4byte	.LASF88
 4354 0edc CD040000 		.4byte	.LASF88
 4355 0ee0 0F       		.byte	0xf
 4356 0ee1 68       		.byte	0x68
 4357 0ee2 25       		.uleb128 0x25
 4358 0ee3 AC020000 		.4byte	.LASF89
 4359 0ee7 AC020000 		.4byte	.LASF89
 4360 0eeb 0C       		.byte	0xc
 4361 0eec 5E       		.byte	0x5e
 4362 0eed 25       		.uleb128 0x25
 4363 0eee 28030000 		.4byte	.LASF90
 4364 0ef2 28030000 		.4byte	.LASF90
 4365 0ef6 10       		.byte	0x10
 4366 0ef7 2F       		.byte	0x2f
 4367 0ef8 25       		.uleb128 0x25
 4368 0ef9 FB010000 		.4byte	.LASF91
 4369 0efd FB010000 		.4byte	.LASF91
 4370 0f01 11       		.byte	0x11
 4371 0f02 77       		.byte	0x77
 4372 0f03 25       		.uleb128 0x25
 4373 0f04 E0040000 		.4byte	.LASF92
 4374 0f08 E0040000 		.4byte	.LASF92
 4375 0f0c 12       		.byte	0x12
 4376 0f0d 5A       		.byte	0x5a
 4377 0f0e 25       		.uleb128 0x25
 4378 0f0f 44030000 		.4byte	.LASF93
 4379 0f13 44030000 		.4byte	.LASF93
 4380 0f17 12       		.byte	0x12
 4381 0f18 5B       		.byte	0x5b
 4382 0f19 00       		.byte	0
 4383              		.section	.debug_abbrev,"",%progbits
 4384              	.Ldebug_abbrev0:
 4385 0000 01       		.uleb128 0x1
 4386 0001 11       		.uleb128 0x11
 4387 0002 01       		.byte	0x1
 4388 0003 25       		.uleb128 0x25
 4389 0004 0E       		.uleb128 0xe
 4390 0005 13       		.uleb128 0x13
 4391 0006 0B       		.uleb128 0xb
 4392 0007 03       		.uleb128 0x3
 4393 0008 0E       		.uleb128 0xe
 4394 0009 1B       		.uleb128 0x1b
 4395 000a 0E       		.uleb128 0xe
 4396 000b 55       		.uleb128 0x55
 4397 000c 17       		.uleb128 0x17
 4398 000d 11       		.uleb128 0x11
ARM GAS  C:\Users\cring\AppData\Local\Temp\ccSaPXYf.s 			page 89


 4399 000e 01       		.uleb128 0x1
 4400 000f 10       		.uleb128 0x10
 4401 0010 17       		.uleb128 0x17
 4402 0011 00       		.byte	0
 4403 0012 00       		.byte	0
 4404 0013 02       		.uleb128 0x2
 4405 0014 24       		.uleb128 0x24
 4406 0015 00       		.byte	0
 4407 0016 0B       		.uleb128 0xb
 4408 0017 0B       		.uleb128 0xb
 4409 0018 3E       		.uleb128 0x3e
 4410 0019 0B       		.uleb128 0xb
 4411 001a 03       		.uleb128 0x3
 4412 001b 0E       		.uleb128 0xe
 4413 001c 00       		.byte	0
 4414 001d 00       		.byte	0
 4415 001e 03       		.uleb128 0x3
 4416 001f 16       		.uleb128 0x16
 4417 0020 00       		.byte	0
 4418 0021 03       		.uleb128 0x3
 4419 0022 0E       		.uleb128 0xe
 4420 0023 3A       		.uleb128 0x3a
 4421 0024 0B       		.uleb128 0xb
 4422 0025 3B       		.uleb128 0x3b
 4423 0026 0B       		.uleb128 0xb
 4424 0027 49       		.uleb128 0x49
 4425 0028 13       		.uleb128 0x13
 4426 0029 00       		.byte	0
 4427 002a 00       		.byte	0
 4428 002b 04       		.uleb128 0x4
 4429 002c 24       		.uleb128 0x24
 4430 002d 00       		.byte	0
 4431 002e 0B       		.uleb128 0xb
 4432 002f 0B       		.uleb128 0xb
 4433 0030 3E       		.uleb128 0x3e
 4434 0031 0B       		.uleb128 0xb
 4435 0032 03       		.uleb128 0x3
 4436 0033 08       		.uleb128 0x8
 4437 0034 00       		.byte	0
 4438 0035 00       		.byte	0
 4439 0036 05       		.uleb128 0x5
 4440 0037 13       		.uleb128 0x13
 4441 0038 01       		.byte	0x1
 4442 0039 03       		.uleb128 0x3
 4443 003a 0E       		.uleb128 0xe
 4444 003b 0B       		.uleb128 0xb
 4445 003c 0B       		.uleb128 0xb
 4446 003d 3A       		.uleb128 0x3a
 4447 003e 0B       		.uleb128 0xb
 4448 003f 3B       		.uleb128 0x3b
 4449 0040 0B       		.uleb128 0xb
 4450 0041 01       		.uleb128 0x1
 4451 0042 13       		.uleb128 0x13
 4452 0043 00       		.byte	0
 4453 0044 00       		.byte	0
 4454 0045 06       		.uleb128 0x6
 4455 0046 0D       		.uleb128 0xd
ARM GAS  C:\Users\cring\AppData\Local\Temp\ccSaPXYf.s 			page 90


 4456 0047 00       		.byte	0
 4457 0048 03       		.uleb128 0x3
 4458 0049 08       		.uleb128 0x8
 4459 004a 3A       		.uleb128 0x3a
 4460 004b 0B       		.uleb128 0xb
 4461 004c 3B       		.uleb128 0x3b
 4462 004d 0B       		.uleb128 0xb
 4463 004e 49       		.uleb128 0x49
 4464 004f 13       		.uleb128 0x13
 4465 0050 38       		.uleb128 0x38
 4466 0051 0B       		.uleb128 0xb
 4467 0052 00       		.byte	0
 4468 0053 00       		.byte	0
 4469 0054 07       		.uleb128 0x7
 4470 0055 0D       		.uleb128 0xd
 4471 0056 00       		.byte	0
 4472 0057 03       		.uleb128 0x3
 4473 0058 0E       		.uleb128 0xe
 4474 0059 3A       		.uleb128 0x3a
 4475 005a 0B       		.uleb128 0xb
 4476 005b 3B       		.uleb128 0x3b
 4477 005c 0B       		.uleb128 0xb
 4478 005d 49       		.uleb128 0x49
 4479 005e 13       		.uleb128 0x13
 4480 005f 38       		.uleb128 0x38
 4481 0060 0B       		.uleb128 0xb
 4482 0061 00       		.byte	0
 4483 0062 00       		.byte	0
 4484 0063 08       		.uleb128 0x8
 4485 0064 2E       		.uleb128 0x2e
 4486 0065 01       		.byte	0x1
 4487 0066 3F       		.uleb128 0x3f
 4488 0067 19       		.uleb128 0x19
 4489 0068 03       		.uleb128 0x3
 4490 0069 0E       		.uleb128 0xe
 4491 006a 3A       		.uleb128 0x3a
 4492 006b 0B       		.uleb128 0xb
 4493 006c 3B       		.uleb128 0x3b
 4494 006d 0B       		.uleb128 0xb
 4495 006e 27       		.uleb128 0x27
 4496 006f 19       		.uleb128 0x19
 4497 0070 11       		.uleb128 0x11
 4498 0071 01       		.uleb128 0x1
 4499 0072 12       		.uleb128 0x12
 4500 0073 06       		.uleb128 0x6
 4501 0074 40       		.uleb128 0x40
 4502 0075 18       		.uleb128 0x18
 4503 0076 9642     		.uleb128 0x2116
 4504 0078 19       		.uleb128 0x19
 4505 0079 01       		.uleb128 0x1
 4506 007a 13       		.uleb128 0x13
 4507 007b 00       		.byte	0
 4508 007c 00       		.byte	0
 4509 007d 09       		.uleb128 0x9
 4510 007e 05       		.uleb128 0x5
 4511 007f 00       		.byte	0
 4512 0080 03       		.uleb128 0x3
ARM GAS  C:\Users\cring\AppData\Local\Temp\ccSaPXYf.s 			page 91


 4513 0081 08       		.uleb128 0x8
 4514 0082 3A       		.uleb128 0x3a
 4515 0083 0B       		.uleb128 0xb
 4516 0084 3B       		.uleb128 0x3b
 4517 0085 0B       		.uleb128 0xb
 4518 0086 49       		.uleb128 0x49
 4519 0087 13       		.uleb128 0x13
 4520 0088 02       		.uleb128 0x2
 4521 0089 17       		.uleb128 0x17
 4522 008a 00       		.byte	0
 4523 008b 00       		.byte	0
 4524 008c 0A       		.uleb128 0xa
 4525 008d 898201   		.uleb128 0x4109
 4526 0090 00       		.byte	0
 4527 0091 11       		.uleb128 0x11
 4528 0092 01       		.uleb128 0x1
 4529 0093 31       		.uleb128 0x31
 4530 0094 13       		.uleb128 0x13
 4531 0095 00       		.byte	0
 4532 0096 00       		.byte	0
 4533 0097 0B       		.uleb128 0xb
 4534 0098 2E       		.uleb128 0x2e
 4535 0099 01       		.byte	0x1
 4536 009a 3F       		.uleb128 0x3f
 4537 009b 19       		.uleb128 0x19
 4538 009c 03       		.uleb128 0x3
 4539 009d 0E       		.uleb128 0xe
 4540 009e 3A       		.uleb128 0x3a
 4541 009f 0B       		.uleb128 0xb
 4542 00a0 3B       		.uleb128 0x3b
 4543 00a1 0B       		.uleb128 0xb
 4544 00a2 27       		.uleb128 0x27
 4545 00a3 19       		.uleb128 0x19
 4546 00a4 11       		.uleb128 0x11
 4547 00a5 01       		.uleb128 0x1
 4548 00a6 12       		.uleb128 0x12
 4549 00a7 06       		.uleb128 0x6
 4550 00a8 40       		.uleb128 0x40
 4551 00a9 18       		.uleb128 0x18
 4552 00aa 9742     		.uleb128 0x2117
 4553 00ac 19       		.uleb128 0x19
 4554 00ad 01       		.uleb128 0x1
 4555 00ae 13       		.uleb128 0x13
 4556 00af 00       		.byte	0
 4557 00b0 00       		.byte	0
 4558 00b1 0C       		.uleb128 0xc
 4559 00b2 898201   		.uleb128 0x4109
 4560 00b5 01       		.byte	0x1
 4561 00b6 11       		.uleb128 0x11
 4562 00b7 01       		.uleb128 0x1
 4563 00b8 31       		.uleb128 0x31
 4564 00b9 13       		.uleb128 0x13
 4565 00ba 01       		.uleb128 0x1
 4566 00bb 13       		.uleb128 0x13
 4567 00bc 00       		.byte	0
 4568 00bd 00       		.byte	0
 4569 00be 0D       		.uleb128 0xd
ARM GAS  C:\Users\cring\AppData\Local\Temp\ccSaPXYf.s 			page 92


 4570 00bf 8A8201   		.uleb128 0x410a
 4571 00c2 00       		.byte	0
 4572 00c3 02       		.uleb128 0x2
 4573 00c4 18       		.uleb128 0x18
 4574 00c5 9142     		.uleb128 0x2111
 4575 00c7 18       		.uleb128 0x18
 4576 00c8 00       		.byte	0
 4577 00c9 00       		.byte	0
 4578 00ca 0E       		.uleb128 0xe
 4579 00cb 898201   		.uleb128 0x4109
 4580 00ce 01       		.byte	0x1
 4581 00cf 11       		.uleb128 0x11
 4582 00d0 01       		.uleb128 0x1
 4583 00d1 31       		.uleb128 0x31
 4584 00d2 13       		.uleb128 0x13
 4585 00d3 00       		.byte	0
 4586 00d4 00       		.byte	0
 4587 00d5 0F       		.uleb128 0xf
 4588 00d6 05       		.uleb128 0x5
 4589 00d7 00       		.byte	0
 4590 00d8 03       		.uleb128 0x3
 4591 00d9 0E       		.uleb128 0xe
 4592 00da 3A       		.uleb128 0x3a
 4593 00db 0B       		.uleb128 0xb
 4594 00dc 3B       		.uleb128 0x3b
 4595 00dd 0B       		.uleb128 0xb
 4596 00de 49       		.uleb128 0x49
 4597 00df 13       		.uleb128 0x13
 4598 00e0 02       		.uleb128 0x2
 4599 00e1 17       		.uleb128 0x17
 4600 00e2 00       		.byte	0
 4601 00e3 00       		.byte	0
 4602 00e4 10       		.uleb128 0x10
 4603 00e5 34       		.uleb128 0x34
 4604 00e6 00       		.byte	0
 4605 00e7 03       		.uleb128 0x3
 4606 00e8 08       		.uleb128 0x8
 4607 00e9 3A       		.uleb128 0x3a
 4608 00ea 0B       		.uleb128 0xb
 4609 00eb 3B       		.uleb128 0x3b
 4610 00ec 0B       		.uleb128 0xb
 4611 00ed 49       		.uleb128 0x49
 4612 00ee 13       		.uleb128 0x13
 4613 00ef 02       		.uleb128 0x2
 4614 00f0 17       		.uleb128 0x17
 4615 00f1 00       		.byte	0
 4616 00f2 00       		.byte	0
 4617 00f3 11       		.uleb128 0x11
 4618 00f4 0F       		.uleb128 0xf
 4619 00f5 00       		.byte	0
 4620 00f6 0B       		.uleb128 0xb
 4621 00f7 0B       		.uleb128 0xb
 4622 00f8 49       		.uleb128 0x49
 4623 00f9 13       		.uleb128 0x13
 4624 00fa 00       		.byte	0
 4625 00fb 00       		.byte	0
 4626 00fc 12       		.uleb128 0x12
ARM GAS  C:\Users\cring\AppData\Local\Temp\ccSaPXYf.s 			page 93


 4627 00fd 2E       		.uleb128 0x2e
 4628 00fe 01       		.byte	0x1
 4629 00ff 3F       		.uleb128 0x3f
 4630 0100 19       		.uleb128 0x19
 4631 0101 03       		.uleb128 0x3
 4632 0102 0E       		.uleb128 0xe
 4633 0103 3A       		.uleb128 0x3a
 4634 0104 0B       		.uleb128 0xb
 4635 0105 3B       		.uleb128 0x3b
 4636 0106 05       		.uleb128 0x5
 4637 0107 27       		.uleb128 0x27
 4638 0108 19       		.uleb128 0x19
 4639 0109 11       		.uleb128 0x11
 4640 010a 01       		.uleb128 0x1
 4641 010b 12       		.uleb128 0x12
 4642 010c 06       		.uleb128 0x6
 4643 010d 40       		.uleb128 0x40
 4644 010e 18       		.uleb128 0x18
 4645 010f 9742     		.uleb128 0x2117
 4646 0111 19       		.uleb128 0x19
 4647 0112 01       		.uleb128 0x1
 4648 0113 13       		.uleb128 0x13
 4649 0114 00       		.byte	0
 4650 0115 00       		.byte	0
 4651 0116 13       		.uleb128 0x13
 4652 0117 05       		.uleb128 0x5
 4653 0118 00       		.byte	0
 4654 0119 03       		.uleb128 0x3
 4655 011a 0E       		.uleb128 0xe
 4656 011b 3A       		.uleb128 0x3a
 4657 011c 0B       		.uleb128 0xb
 4658 011d 3B       		.uleb128 0x3b
 4659 011e 05       		.uleb128 0x5
 4660 011f 49       		.uleb128 0x49
 4661 0120 13       		.uleb128 0x13
 4662 0121 02       		.uleb128 0x2
 4663 0122 17       		.uleb128 0x17
 4664 0123 00       		.byte	0
 4665 0124 00       		.byte	0
 4666 0125 14       		.uleb128 0x14
 4667 0126 0B       		.uleb128 0xb
 4668 0127 01       		.byte	0x1
 4669 0128 11       		.uleb128 0x11
 4670 0129 01       		.uleb128 0x1
 4671 012a 12       		.uleb128 0x12
 4672 012b 06       		.uleb128 0x6
 4673 012c 01       		.uleb128 0x1
 4674 012d 13       		.uleb128 0x13
 4675 012e 00       		.byte	0
 4676 012f 00       		.byte	0
 4677 0130 15       		.uleb128 0x15
 4678 0131 34       		.uleb128 0x34
 4679 0132 00       		.byte	0
 4680 0133 03       		.uleb128 0x3
 4681 0134 08       		.uleb128 0x8
 4682 0135 3A       		.uleb128 0x3a
 4683 0136 0B       		.uleb128 0xb
ARM GAS  C:\Users\cring\AppData\Local\Temp\ccSaPXYf.s 			page 94


 4684 0137 3B       		.uleb128 0x3b
 4685 0138 05       		.uleb128 0x5
 4686 0139 49       		.uleb128 0x49
 4687 013a 13       		.uleb128 0x13
 4688 013b 02       		.uleb128 0x2
 4689 013c 17       		.uleb128 0x17
 4690 013d 00       		.byte	0
 4691 013e 00       		.byte	0
 4692 013f 16       		.uleb128 0x16
 4693 0140 05       		.uleb128 0x5
 4694 0141 00       		.byte	0
 4695 0142 03       		.uleb128 0x3
 4696 0143 08       		.uleb128 0x8
 4697 0144 3A       		.uleb128 0x3a
 4698 0145 0B       		.uleb128 0xb
 4699 0146 3B       		.uleb128 0x3b
 4700 0147 05       		.uleb128 0x5
 4701 0148 49       		.uleb128 0x49
 4702 0149 13       		.uleb128 0x13
 4703 014a 02       		.uleb128 0x2
 4704 014b 17       		.uleb128 0x17
 4705 014c 00       		.byte	0
 4706 014d 00       		.byte	0
 4707 014e 17       		.uleb128 0x17
 4708 014f 05       		.uleb128 0x5
 4709 0150 00       		.byte	0
 4710 0151 03       		.uleb128 0x3
 4711 0152 08       		.uleb128 0x8
 4712 0153 3A       		.uleb128 0x3a
 4713 0154 0B       		.uleb128 0xb
 4714 0155 3B       		.uleb128 0x3b
 4715 0156 05       		.uleb128 0x5
 4716 0157 49       		.uleb128 0x49
 4717 0158 13       		.uleb128 0x13
 4718 0159 02       		.uleb128 0x2
 4719 015a 18       		.uleb128 0x18
 4720 015b 00       		.byte	0
 4721 015c 00       		.byte	0
 4722 015d 18       		.uleb128 0x18
 4723 015e 05       		.uleb128 0x5
 4724 015f 00       		.byte	0
 4725 0160 03       		.uleb128 0x3
 4726 0161 0E       		.uleb128 0xe
 4727 0162 3A       		.uleb128 0x3a
 4728 0163 0B       		.uleb128 0xb
 4729 0164 3B       		.uleb128 0x3b
 4730 0165 05       		.uleb128 0x5
 4731 0166 49       		.uleb128 0x49
 4732 0167 13       		.uleb128 0x13
 4733 0168 02       		.uleb128 0x2
 4734 0169 18       		.uleb128 0x18
 4735 016a 00       		.byte	0
 4736 016b 00       		.byte	0
 4737 016c 19       		.uleb128 0x19
 4738 016d 34       		.uleb128 0x34
 4739 016e 00       		.byte	0
 4740 016f 03       		.uleb128 0x3
ARM GAS  C:\Users\cring\AppData\Local\Temp\ccSaPXYf.s 			page 95


 4741 0170 0E       		.uleb128 0xe
 4742 0171 3A       		.uleb128 0x3a
 4743 0172 0B       		.uleb128 0xb
 4744 0173 3B       		.uleb128 0x3b
 4745 0174 05       		.uleb128 0x5
 4746 0175 49       		.uleb128 0x49
 4747 0176 13       		.uleb128 0x13
 4748 0177 02       		.uleb128 0x2
 4749 0178 17       		.uleb128 0x17
 4750 0179 00       		.byte	0
 4751 017a 00       		.byte	0
 4752 017b 1A       		.uleb128 0x1a
 4753 017c 34       		.uleb128 0x34
 4754 017d 00       		.byte	0
 4755 017e 03       		.uleb128 0x3
 4756 017f 08       		.uleb128 0x8
 4757 0180 3A       		.uleb128 0x3a
 4758 0181 0B       		.uleb128 0xb
 4759 0182 3B       		.uleb128 0x3b
 4760 0183 05       		.uleb128 0x5
 4761 0184 49       		.uleb128 0x49
 4762 0185 13       		.uleb128 0x13
 4763 0186 02       		.uleb128 0x2
 4764 0187 18       		.uleb128 0x18
 4765 0188 00       		.byte	0
 4766 0189 00       		.byte	0
 4767 018a 1B       		.uleb128 0x1b
 4768 018b 01       		.uleb128 0x1
 4769 018c 01       		.byte	0x1
 4770 018d 49       		.uleb128 0x49
 4771 018e 13       		.uleb128 0x13
 4772 018f 01       		.uleb128 0x1
 4773 0190 13       		.uleb128 0x13
 4774 0191 00       		.byte	0
 4775 0192 00       		.byte	0
 4776 0193 1C       		.uleb128 0x1c
 4777 0194 21       		.uleb128 0x21
 4778 0195 00       		.byte	0
 4779 0196 49       		.uleb128 0x49
 4780 0197 13       		.uleb128 0x13
 4781 0198 2F       		.uleb128 0x2f
 4782 0199 0B       		.uleb128 0xb
 4783 019a 00       		.byte	0
 4784 019b 00       		.byte	0
 4785 019c 1D       		.uleb128 0x1d
 4786 019d 05       		.uleb128 0x5
 4787 019e 00       		.byte	0
 4788 019f 03       		.uleb128 0x3
 4789 01a0 08       		.uleb128 0x8
 4790 01a1 3A       		.uleb128 0x3a
 4791 01a2 0B       		.uleb128 0xb
 4792 01a3 3B       		.uleb128 0x3b
 4793 01a4 0B       		.uleb128 0xb
 4794 01a5 49       		.uleb128 0x49
 4795 01a6 13       		.uleb128 0x13
 4796 01a7 02       		.uleb128 0x2
 4797 01a8 18       		.uleb128 0x18
ARM GAS  C:\Users\cring\AppData\Local\Temp\ccSaPXYf.s 			page 96


 4798 01a9 00       		.byte	0
 4799 01aa 00       		.byte	0
 4800 01ab 1E       		.uleb128 0x1e
 4801 01ac 05       		.uleb128 0x5
 4802 01ad 00       		.byte	0
 4803 01ae 03       		.uleb128 0x3
 4804 01af 0E       		.uleb128 0xe
 4805 01b0 3A       		.uleb128 0x3a
 4806 01b1 0B       		.uleb128 0xb
 4807 01b2 3B       		.uleb128 0x3b
 4808 01b3 0B       		.uleb128 0xb
 4809 01b4 49       		.uleb128 0x49
 4810 01b5 13       		.uleb128 0x13
 4811 01b6 02       		.uleb128 0x2
 4812 01b7 18       		.uleb128 0x18
 4813 01b8 00       		.byte	0
 4814 01b9 00       		.byte	0
 4815 01ba 1F       		.uleb128 0x1f
 4816 01bb 0B       		.uleb128 0xb
 4817 01bc 01       		.byte	0x1
 4818 01bd 11       		.uleb128 0x11
 4819 01be 01       		.uleb128 0x1
 4820 01bf 12       		.uleb128 0x12
 4821 01c0 06       		.uleb128 0x6
 4822 01c1 00       		.byte	0
 4823 01c2 00       		.byte	0
 4824 01c3 20       		.uleb128 0x20
 4825 01c4 2E       		.uleb128 0x2e
 4826 01c5 01       		.byte	0x1
 4827 01c6 3F       		.uleb128 0x3f
 4828 01c7 19       		.uleb128 0x19
 4829 01c8 03       		.uleb128 0x3
 4830 01c9 0E       		.uleb128 0xe
 4831 01ca 3A       		.uleb128 0x3a
 4832 01cb 0B       		.uleb128 0xb
 4833 01cc 3B       		.uleb128 0x3b
 4834 01cd 05       		.uleb128 0x5
 4835 01ce 27       		.uleb128 0x27
 4836 01cf 19       		.uleb128 0x19
 4837 01d0 49       		.uleb128 0x49
 4838 01d1 13       		.uleb128 0x13
 4839 01d2 11       		.uleb128 0x11
 4840 01d3 01       		.uleb128 0x1
 4841 01d4 12       		.uleb128 0x12
 4842 01d5 06       		.uleb128 0x6
 4843 01d6 40       		.uleb128 0x40
 4844 01d7 18       		.uleb128 0x18
 4845 01d8 9742     		.uleb128 0x2117
 4846 01da 19       		.uleb128 0x19
 4847 01db 01       		.uleb128 0x1
 4848 01dc 13       		.uleb128 0x13
 4849 01dd 00       		.byte	0
 4850 01de 00       		.byte	0
 4851 01df 21       		.uleb128 0x21
 4852 01e0 34       		.uleb128 0x34
 4853 01e1 00       		.byte	0
 4854 01e2 03       		.uleb128 0x3
ARM GAS  C:\Users\cring\AppData\Local\Temp\ccSaPXYf.s 			page 97


 4855 01e3 0E       		.uleb128 0xe
 4856 01e4 3A       		.uleb128 0x3a
 4857 01e5 0B       		.uleb128 0xb
 4858 01e6 3B       		.uleb128 0x3b
 4859 01e7 0B       		.uleb128 0xb
 4860 01e8 49       		.uleb128 0x49
 4861 01e9 13       		.uleb128 0x13
 4862 01ea 02       		.uleb128 0x2
 4863 01eb 18       		.uleb128 0x18
 4864 01ec 00       		.byte	0
 4865 01ed 00       		.byte	0
 4866 01ee 22       		.uleb128 0x22
 4867 01ef 34       		.uleb128 0x34
 4868 01f0 00       		.byte	0
 4869 01f1 03       		.uleb128 0x3
 4870 01f2 0E       		.uleb128 0xe
 4871 01f3 3A       		.uleb128 0x3a
 4872 01f4 0B       		.uleb128 0xb
 4873 01f5 3B       		.uleb128 0x3b
 4874 01f6 05       		.uleb128 0x5
 4875 01f7 49       		.uleb128 0x49
 4876 01f8 13       		.uleb128 0x13
 4877 01f9 3F       		.uleb128 0x3f
 4878 01fa 19       		.uleb128 0x19
 4879 01fb 3C       		.uleb128 0x3c
 4880 01fc 19       		.uleb128 0x19
 4881 01fd 00       		.byte	0
 4882 01fe 00       		.byte	0
 4883 01ff 23       		.uleb128 0x23
 4884 0200 35       		.uleb128 0x35
 4885 0201 00       		.byte	0
 4886 0202 49       		.uleb128 0x49
 4887 0203 13       		.uleb128 0x13
 4888 0204 00       		.byte	0
 4889 0205 00       		.byte	0
 4890 0206 24       		.uleb128 0x24
 4891 0207 34       		.uleb128 0x34
 4892 0208 00       		.byte	0
 4893 0209 03       		.uleb128 0x3
 4894 020a 0E       		.uleb128 0xe
 4895 020b 3A       		.uleb128 0x3a
 4896 020c 0B       		.uleb128 0xb
 4897 020d 3B       		.uleb128 0x3b
 4898 020e 0B       		.uleb128 0xb
 4899 020f 49       		.uleb128 0x49
 4900 0210 13       		.uleb128 0x13
 4901 0211 3F       		.uleb128 0x3f
 4902 0212 19       		.uleb128 0x19
 4903 0213 02       		.uleb128 0x2
 4904 0214 18       		.uleb128 0x18
 4905 0215 00       		.byte	0
 4906 0216 00       		.byte	0
 4907 0217 25       		.uleb128 0x25
 4908 0218 2E       		.uleb128 0x2e
 4909 0219 00       		.byte	0
 4910 021a 3F       		.uleb128 0x3f
 4911 021b 19       		.uleb128 0x19
ARM GAS  C:\Users\cring\AppData\Local\Temp\ccSaPXYf.s 			page 98


 4912 021c 3C       		.uleb128 0x3c
 4913 021d 19       		.uleb128 0x19
 4914 021e 6E       		.uleb128 0x6e
 4915 021f 0E       		.uleb128 0xe
 4916 0220 03       		.uleb128 0x3
 4917 0221 0E       		.uleb128 0xe
 4918 0222 3A       		.uleb128 0x3a
 4919 0223 0B       		.uleb128 0xb
 4920 0224 3B       		.uleb128 0x3b
 4921 0225 0B       		.uleb128 0xb
 4922 0226 00       		.byte	0
 4923 0227 00       		.byte	0
 4924 0228 00       		.byte	0
 4925              		.section	.debug_loc,"",%progbits
 4926              	.Ldebug_loc0:
 4927              	.LLST0:
 4928 0000 00000000 		.4byte	.LVL0
 4929 0004 05000000 		.4byte	.LVL1-1
 4930 0008 0100     		.2byte	0x1
 4931 000a 50       		.byte	0x50
 4932 000b 05000000 		.4byte	.LVL1-1
 4933 000f 20000000 		.4byte	.LVL5
 4934 0013 0400     		.2byte	0x4
 4935 0015 F3       		.byte	0xf3
 4936 0016 01       		.uleb128 0x1
 4937 0017 50       		.byte	0x50
 4938 0018 9F       		.byte	0x9f
 4939 0019 20000000 		.4byte	.LVL5
 4940 001d 22000000 		.4byte	.LVL6
 4941 0021 0100     		.2byte	0x1
 4942 0023 50       		.byte	0x50
 4943 0024 00000000 		.4byte	0
 4944 0028 00000000 		.4byte	0
 4945              	.LLST1:
 4946 002c 00000000 		.4byte	.LVL8
 4947 0030 06000000 		.4byte	.LVL9
 4948 0034 0100     		.2byte	0x1
 4949 0036 50       		.byte	0x50
 4950 0037 06000000 		.4byte	.LVL9
 4951 003b 3E000000 		.4byte	.LVL21
 4952 003f 0100     		.2byte	0x1
 4953 0041 54       		.byte	0x54
 4954 0042 3E000000 		.4byte	.LVL21
 4955 0046 54000000 		.4byte	.LFE71
 4956 004a 0400     		.2byte	0x4
 4957 004c F3       		.byte	0xf3
 4958 004d 01       		.uleb128 0x1
 4959 004e 50       		.byte	0x50
 4960 004f 9F       		.byte	0x9f
 4961 0050 00000000 		.4byte	0
 4962 0054 00000000 		.4byte	0
 4963              	.LLST2:
 4964 0058 00000000 		.4byte	.LVL22
 4965 005c 0C000000 		.4byte	.LVL24
 4966 0060 0100     		.2byte	0x1
 4967 0062 50       		.byte	0x50
 4968 0063 0C000000 		.4byte	.LVL24
ARM GAS  C:\Users\cring\AppData\Local\Temp\ccSaPXYf.s 			page 99


 4969 0067 16000000 		.4byte	.LVL26
 4970 006b 0100     		.2byte	0x1
 4971 006d 55       		.byte	0x55
 4972 006e 16000000 		.4byte	.LVL26
 4973 0072 2C000000 		.4byte	.LFE74
 4974 0076 0400     		.2byte	0x4
 4975 0078 F3       		.byte	0xf3
 4976 0079 01       		.uleb128 0x1
 4977 007a 50       		.byte	0x50
 4978 007b 9F       		.byte	0x9f
 4979 007c 00000000 		.4byte	0
 4980 0080 00000000 		.4byte	0
 4981              	.LLST3:
 4982 0084 00000000 		.4byte	.LVL22
 4983 0088 0A000000 		.4byte	.LVL23
 4984 008c 0100     		.2byte	0x1
 4985 008e 51       		.byte	0x51
 4986 008f 0A000000 		.4byte	.LVL23
 4987 0093 2C000000 		.4byte	.LFE74
 4988 0097 0400     		.2byte	0x4
 4989 0099 F3       		.byte	0xf3
 4990 009a 01       		.uleb128 0x1
 4991 009b 51       		.byte	0x51
 4992 009c 9F       		.byte	0x9f
 4993 009d 00000000 		.4byte	0
 4994 00a1 00000000 		.4byte	0
 4995              	.LLST4:
 4996 00a5 00000000 		.4byte	.LVL22
 4997 00a9 11000000 		.4byte	.LVL25-1
 4998 00ad 0100     		.2byte	0x1
 4999 00af 52       		.byte	0x52
 5000 00b0 11000000 		.4byte	.LVL25-1
 5001 00b4 22000000 		.4byte	.LVL28
 5002 00b8 0100     		.2byte	0x1
 5003 00ba 54       		.byte	0x54
 5004 00bb 22000000 		.4byte	.LVL28
 5005 00bf 2C000000 		.4byte	.LFE74
 5006 00c3 0400     		.2byte	0x4
 5007 00c5 F3       		.byte	0xf3
 5008 00c6 01       		.uleb128 0x1
 5009 00c7 52       		.byte	0x52
 5010 00c8 9F       		.byte	0x9f
 5011 00c9 00000000 		.4byte	0
 5012 00cd 00000000 		.4byte	0
 5013              	.LLST5:
 5014 00d1 00000000 		.4byte	.LVL30
 5015 00d5 1A000000 		.4byte	.LVL32
 5016 00d9 0600     		.2byte	0x6
 5017 00db 50       		.byte	0x50
 5018 00dc 93       		.byte	0x93
 5019 00dd 04       		.uleb128 0x4
 5020 00de 51       		.byte	0x51
 5021 00df 93       		.byte	0x93
 5022 00e0 04       		.uleb128 0x4
 5023 00e1 1A000000 		.4byte	.LVL32
 5024 00e5 1C020000 		.4byte	.LFE76
 5025 00e9 0600     		.2byte	0x6
ARM GAS  C:\Users\cring\AppData\Local\Temp\ccSaPXYf.s 			page 100


 5026 00eb F3       		.byte	0xf3
 5027 00ec 03       		.uleb128 0x3
 5028 00ed F5       		.byte	0xf5
 5029 00ee 00       		.uleb128 0
 5030 00ef 25       		.uleb128 0x25
 5031 00f0 9F       		.byte	0x9f
 5032 00f1 00000000 		.4byte	0
 5033 00f5 00000000 		.4byte	0
 5034              	.LLST6:
 5035 00f9 00000000 		.4byte	.LVL30
 5036 00fd 16000000 		.4byte	.LVL31
 5037 0101 0600     		.2byte	0x6
 5038 0103 52       		.byte	0x52
 5039 0104 93       		.byte	0x93
 5040 0105 04       		.uleb128 0x4
 5041 0106 53       		.byte	0x53
 5042 0107 93       		.byte	0x93
 5043 0108 04       		.uleb128 0x4
 5044 0109 16000000 		.4byte	.LVL31
 5045 010d 1C020000 		.4byte	.LFE76
 5046 0111 0600     		.2byte	0x6
 5047 0113 F3       		.byte	0xf3
 5048 0114 03       		.uleb128 0x3
 5049 0115 F5       		.byte	0xf5
 5050 0116 02       		.uleb128 0x2
 5051 0117 25       		.uleb128 0x25
 5052 0118 9F       		.byte	0x9f
 5053 0119 00000000 		.4byte	0
 5054 011d 00000000 		.4byte	0
 5055              	.LLST7:
 5056 0121 00000000 		.4byte	.LVL30
 5057 0125 0A020000 		.4byte	.LVL104
 5058 0129 0200     		.2byte	0x2
 5059 012b 91       		.byte	0x91
 5060 012c 00       		.sleb128 0
 5061 012d 0A020000 		.4byte	.LVL104
 5062 0131 1C020000 		.4byte	.LFE76
 5063 0135 0200     		.2byte	0x2
 5064 0137 7D       		.byte	0x7d
 5065 0138 00       		.sleb128 0
 5066 0139 00000000 		.4byte	0
 5067 013d 00000000 		.4byte	0
 5068              	.LLST8:
 5069 0141 00000000 		.4byte	.LVL30
 5070 0145 0A020000 		.4byte	.LVL104
 5071 0149 0200     		.2byte	0x2
 5072 014b 91       		.byte	0x91
 5073 014c 08       		.sleb128 8
 5074 014d 0A020000 		.4byte	.LVL104
 5075 0151 1C020000 		.4byte	.LFE76
 5076 0155 0200     		.2byte	0x2
 5077 0157 7D       		.byte	0x7d
 5078 0158 08       		.sleb128 8
 5079 0159 00000000 		.4byte	0
 5080 015d 00000000 		.4byte	0
 5081              	.LLST9:
 5082 0161 00000000 		.4byte	.LVL30
ARM GAS  C:\Users\cring\AppData\Local\Temp\ccSaPXYf.s 			page 101


 5083 0165 0A020000 		.4byte	.LVL104
 5084 0169 0200     		.2byte	0x2
 5085 016b 91       		.byte	0x91
 5086 016c 0C       		.sleb128 12
 5087 016d 0A020000 		.4byte	.LVL104
 5088 0171 1C020000 		.4byte	.LFE76
 5089 0175 0200     		.2byte	0x2
 5090 0177 7D       		.byte	0x7d
 5091 0178 0C       		.sleb128 12
 5092 0179 00000000 		.4byte	0
 5093 017d 00000000 		.4byte	0
 5094              	.LLST10:
 5095 0181 3E000000 		.4byte	.LVL35
 5096 0185 4E000000 		.4byte	.LVL37
 5097 0189 0600     		.2byte	0x6
 5098 018b 54       		.byte	0x54
 5099 018c 93       		.byte	0x93
 5100 018d 04       		.uleb128 0x4
 5101 018e 55       		.byte	0x55
 5102 018f 93       		.byte	0x93
 5103 0190 04       		.uleb128 0x4
 5104 0191 50000000 		.4byte	.LVL38
 5105 0195 5E000000 		.4byte	.LVL40
 5106 0199 0600     		.2byte	0x6
 5107 019b 54       		.byte	0x54
 5108 019c 93       		.byte	0x93
 5109 019d 04       		.uleb128 0x4
 5110 019e 55       		.byte	0x55
 5111 019f 93       		.byte	0x93
 5112 01a0 04       		.uleb128 0x4
 5113 01a1 60000000 		.4byte	.LVL41
 5114 01a5 78000000 		.4byte	.LVL46
 5115 01a9 0600     		.2byte	0x6
 5116 01ab 54       		.byte	0x54
 5117 01ac 93       		.byte	0x93
 5118 01ad 04       		.uleb128 0x4
 5119 01ae 55       		.byte	0x55
 5120 01af 93       		.byte	0x93
 5121 01b0 04       		.uleb128 0x4
 5122 01b1 00000000 		.4byte	0
 5123 01b5 00000000 		.4byte	0
 5124              	.LLST11:
 5125 01b9 96000000 		.4byte	.LVL50
 5126 01bd A0000000 		.4byte	.LVL51
 5127 01c1 0600     		.2byte	0x6
 5128 01c3 50       		.byte	0x50
 5129 01c4 93       		.byte	0x93
 5130 01c5 04       		.uleb128 0x4
 5131 01c6 51       		.byte	0x51
 5132 01c7 93       		.byte	0x93
 5133 01c8 04       		.uleb128 0x4
 5134 01c9 A0000000 		.4byte	.LVL51
 5135 01cd 12010000 		.4byte	.LVL64
 5136 01d1 0200     		.2byte	0x2
 5137 01d3 7D       		.byte	0x7d
 5138 01d4 00       		.sleb128 0
 5139 01d5 14010000 		.4byte	.LVL65
ARM GAS  C:\Users\cring\AppData\Local\Temp\ccSaPXYf.s 			page 102


 5140 01d9 24010000 		.4byte	.LVL68
 5141 01dd 0200     		.2byte	0x2
 5142 01df 7D       		.byte	0x7d
 5143 01e0 00       		.sleb128 0
 5144 01e1 2A010000 		.4byte	.LVL70
 5145 01e5 3A010000 		.4byte	.LVL73
 5146 01e9 0200     		.2byte	0x2
 5147 01eb 7D       		.byte	0x7d
 5148 01ec 00       		.sleb128 0
 5149 01ed 40010000 		.4byte	.LVL75
 5150 01f1 54010000 		.4byte	.LVL79
 5151 01f5 0200     		.2byte	0x2
 5152 01f7 7D       		.byte	0x7d
 5153 01f8 00       		.sleb128 0
 5154 01f9 00000000 		.4byte	0
 5155 01fd 00000000 		.4byte	0
 5156              	.LLST12:
 5157 0201 C2000000 		.4byte	.LVL56
 5158 0205 04010000 		.4byte	.LVL61
 5159 0209 0600     		.2byte	0x6
 5160 020b 54       		.byte	0x54
 5161 020c 93       		.byte	0x93
 5162 020d 04       		.uleb128 0x4
 5163 020e 55       		.byte	0x55
 5164 020f 93       		.byte	0x93
 5165 0210 04       		.uleb128 0x4
 5166 0211 0A010000 		.4byte	.LVL62
 5167 0215 0E010000 		.4byte	.LVL63
 5168 0219 0600     		.2byte	0x6
 5169 021b 54       		.byte	0x54
 5170 021c 93       		.byte	0x93
 5171 021d 04       		.uleb128 0x4
 5172 021e 55       		.byte	0x55
 5173 021f 93       		.byte	0x93
 5174 0220 04       		.uleb128 0x4
 5175 0221 14010000 		.4byte	.LVL65
 5176 0225 1C010000 		.4byte	.LVL66
 5177 0229 0600     		.2byte	0x6
 5178 022b 54       		.byte	0x54
 5179 022c 93       		.byte	0x93
 5180 022d 04       		.uleb128 0x4
 5181 022e 55       		.byte	0x55
 5182 022f 93       		.byte	0x93
 5183 0230 04       		.uleb128 0x4
 5184 0231 2A010000 		.4byte	.LVL70
 5185 0235 32010000 		.4byte	.LVL71
 5186 0239 0600     		.2byte	0x6
 5187 023b 54       		.byte	0x54
 5188 023c 93       		.byte	0x93
 5189 023d 04       		.uleb128 0x4
 5190 023e 55       		.byte	0x55
 5191 023f 93       		.byte	0x93
 5192 0240 04       		.uleb128 0x4
 5193 0241 40010000 		.4byte	.LVL75
 5194 0245 48010000 		.4byte	.LVL76
 5195 0249 0600     		.2byte	0x6
 5196 024b 54       		.byte	0x54
ARM GAS  C:\Users\cring\AppData\Local\Temp\ccSaPXYf.s 			page 103


 5197 024c 93       		.byte	0x93
 5198 024d 04       		.uleb128 0x4
 5199 024e 55       		.byte	0x55
 5200 024f 93       		.byte	0x93
 5201 0250 04       		.uleb128 0x4
 5202 0251 00000000 		.4byte	0
 5203 0255 00000000 		.4byte	0
 5204              	.LLST13:
 5205 0259 F2000000 		.4byte	.LVL60
 5206 025d 20010000 		.4byte	.LVL67
 5207 0261 0600     		.2byte	0x6
 5208 0263 50       		.byte	0x50
 5209 0264 93       		.byte	0x93
 5210 0265 04       		.uleb128 0x4
 5211 0266 51       		.byte	0x51
 5212 0267 93       		.byte	0x93
 5213 0268 04       		.uleb128 0x4
 5214 0269 2A010000 		.4byte	.LVL70
 5215 026d 4C010000 		.4byte	.LVL77
 5216 0271 0600     		.2byte	0x6
 5217 0273 50       		.byte	0x50
 5218 0274 93       		.byte	0x93
 5219 0275 04       		.uleb128 0x4
 5220 0276 51       		.byte	0x51
 5221 0277 93       		.byte	0x93
 5222 0278 04       		.uleb128 0x4
 5223 0279 00000000 		.4byte	0
 5224 027d 00000000 		.4byte	0
 5225              	.LLST14:
 5226 0281 7A000000 		.4byte	.LVL47
 5227 0285 C0000000 		.4byte	.LVL55
 5228 0289 0600     		.2byte	0x6
 5229 028b 54       		.byte	0x54
 5230 028c 93       		.byte	0x93
 5231 028d 04       		.uleb128 0x4
 5232 028e 55       		.byte	0x55
 5233 028f 93       		.byte	0x93
 5234 0290 04       		.uleb128 0x4
 5235 0291 C0000000 		.4byte	.LVL55
 5236 0295 04020000 		.4byte	.LVL103
 5237 0299 0200     		.2byte	0x2
 5238 029b 91       		.byte	0x91
 5239 029c 58       		.sleb128 -40
 5240 029d 00000000 		.4byte	0
 5241 02a1 00000000 		.4byte	0
 5242              	.LLST15:
 5243 02a5 0A010000 		.4byte	.LVL62
 5244 02a9 12010000 		.4byte	.LVL64
 5245 02ad 0200     		.2byte	0x2
 5246 02af 7D       		.byte	0x7d
 5247 02b0 00       		.sleb128 0
 5248 02b1 12010000 		.4byte	.LVL64
 5249 02b5 14010000 		.4byte	.LVL65
 5250 02b9 0600     		.2byte	0x6
 5251 02bb 54       		.byte	0x54
 5252 02bc 93       		.byte	0x93
 5253 02bd 04       		.uleb128 0x4
ARM GAS  C:\Users\cring\AppData\Local\Temp\ccSaPXYf.s 			page 104


 5254 02be 55       		.byte	0x55
 5255 02bf 93       		.byte	0x93
 5256 02c0 04       		.uleb128 0x4
 5257 02c1 14010000 		.4byte	.LVL65
 5258 02c5 24010000 		.4byte	.LVL68
 5259 02c9 0200     		.2byte	0x2
 5260 02cb 7D       		.byte	0x7d
 5261 02cc 00       		.sleb128 0
 5262 02cd 24010000 		.4byte	.LVL68
 5263 02d1 2A010000 		.4byte	.LVL70
 5264 02d5 0600     		.2byte	0x6
 5265 02d7 54       		.byte	0x54
 5266 02d8 93       		.byte	0x93
 5267 02d9 04       		.uleb128 0x4
 5268 02da 55       		.byte	0x55
 5269 02db 93       		.byte	0x93
 5270 02dc 04       		.uleb128 0x4
 5271 02dd 2A010000 		.4byte	.LVL70
 5272 02e1 40010000 		.4byte	.LVL75
 5273 02e5 0600     		.2byte	0x6
 5274 02e7 50       		.byte	0x50
 5275 02e8 93       		.byte	0x93
 5276 02e9 04       		.uleb128 0x4
 5277 02ea 51       		.byte	0x51
 5278 02eb 93       		.byte	0x93
 5279 02ec 04       		.uleb128 0x4
 5280 02ed 40010000 		.4byte	.LVL75
 5281 02f1 50010000 		.4byte	.LVL78
 5282 02f5 0200     		.2byte	0x2
 5283 02f7 91       		.byte	0x91
 5284 02f8 00       		.sleb128 0
 5285 02f9 50010000 		.4byte	.LVL78
 5286 02fd 6A010000 		.4byte	.LVL82
 5287 0301 0600     		.2byte	0x6
 5288 0303 54       		.byte	0x54
 5289 0304 93       		.byte	0x93
 5290 0305 04       		.uleb128 0x4
 5291 0306 55       		.byte	0x55
 5292 0307 93       		.byte	0x93
 5293 0308 04       		.uleb128 0x4
 5294 0309 6C010000 		.4byte	.LVL83
 5295 030d AC010000 		.4byte	.LVL92
 5296 0311 0600     		.2byte	0x6
 5297 0313 54       		.byte	0x54
 5298 0314 93       		.byte	0x93
 5299 0315 04       		.uleb128 0x4
 5300 0316 55       		.byte	0x55
 5301 0317 93       		.byte	0x93
 5302 0318 04       		.uleb128 0x4
 5303 0319 AE010000 		.4byte	.LVL93
 5304 031d 04020000 		.4byte	.LVL103
 5305 0321 0600     		.2byte	0x6
 5306 0323 54       		.byte	0x54
 5307 0324 93       		.byte	0x93
 5308 0325 04       		.uleb128 0x4
 5309 0326 55       		.byte	0x55
 5310 0327 93       		.byte	0x93
ARM GAS  C:\Users\cring\AppData\Local\Temp\ccSaPXYf.s 			page 105


 5311 0328 04       		.uleb128 0x4
 5312 0329 00000000 		.4byte	0
 5313 032d 00000000 		.4byte	0
 5314              	.LLST16:
 5315 0331 0A010000 		.4byte	.LVL62
 5316 0335 14010000 		.4byte	.LVL65
 5317 0339 0200     		.2byte	0x2
 5318 033b 91       		.byte	0x91
 5319 033c 00       		.sleb128 0
 5320 033d 14010000 		.4byte	.LVL65
 5321 0341 1C010000 		.4byte	.LVL66
 5322 0345 0600     		.2byte	0x6
 5323 0347 54       		.byte	0x54
 5324 0348 93       		.byte	0x93
 5325 0349 04       		.uleb128 0x4
 5326 034a 55       		.byte	0x55
 5327 034b 93       		.byte	0x93
 5328 034c 04       		.uleb128 0x4
 5329 034d 2A010000 		.4byte	.LVL70
 5330 0351 3A010000 		.4byte	.LVL73
 5331 0355 0200     		.2byte	0x2
 5332 0357 7D       		.byte	0x7d
 5333 0358 00       		.sleb128 0
 5334 0359 3A010000 		.4byte	.LVL73
 5335 035d 3C010000 		.4byte	.LVL74
 5336 0361 0600     		.2byte	0x6
 5337 0363 54       		.byte	0x54
 5338 0364 93       		.byte	0x93
 5339 0365 04       		.uleb128 0x4
 5340 0366 55       		.byte	0x55
 5341 0367 93       		.byte	0x93
 5342 0368 04       		.uleb128 0x4
 5343 0369 3C010000 		.4byte	.LVL74
 5344 036d 40010000 		.4byte	.LVL75
 5345 0371 0200     		.2byte	0x2
 5346 0373 91       		.byte	0x91
 5347 0374 00       		.sleb128 0
 5348 0375 40010000 		.4byte	.LVL75
 5349 0379 54010000 		.4byte	.LVL79
 5350 037d 0200     		.2byte	0x2
 5351 037f 7D       		.byte	0x7d
 5352 0380 00       		.sleb128 0
 5353 0381 54010000 		.4byte	.LVL79
 5354 0385 84010000 		.4byte	.LVL86
 5355 0389 0200     		.2byte	0x2
 5356 038b 91       		.byte	0x91
 5357 038c 00       		.sleb128 0
 5358 038d 84010000 		.4byte	.LVL86
 5359 0391 C0010000 		.4byte	.LVL95
 5360 0395 0600     		.2byte	0x6
 5361 0397 58       		.byte	0x58
 5362 0398 93       		.byte	0x93
 5363 0399 04       		.uleb128 0x4
 5364 039a 59       		.byte	0x59
 5365 039b 93       		.byte	0x93
 5366 039c 04       		.uleb128 0x4
 5367 039d C4010000 		.4byte	.LVL96
ARM GAS  C:\Users\cring\AppData\Local\Temp\ccSaPXYf.s 			page 106


 5368 03a1 04020000 		.4byte	.LVL103
 5369 03a5 0600     		.2byte	0x6
 5370 03a7 58       		.byte	0x58
 5371 03a8 93       		.byte	0x93
 5372 03a9 04       		.uleb128 0x4
 5373 03aa 59       		.byte	0x59
 5374 03ab 93       		.byte	0x93
 5375 03ac 04       		.uleb128 0x4
 5376 03ad 00000000 		.4byte	0
 5377 03b1 00000000 		.4byte	0
 5378              	.LLST17:
 5379 03b5 0A010000 		.4byte	.LVL62
 5380 03b9 14010000 		.4byte	.LVL65
 5381 03bd 0600     		.2byte	0x6
 5382 03bf 50       		.byte	0x50
 5383 03c0 93       		.byte	0x93
 5384 03c1 04       		.uleb128 0x4
 5385 03c2 51       		.byte	0x51
 5386 03c3 93       		.byte	0x93
 5387 03c4 04       		.uleb128 0x4
 5388 03c5 14010000 		.4byte	.LVL65
 5389 03c9 28010000 		.4byte	.LVL69
 5390 03cd 0200     		.2byte	0x2
 5391 03cf 91       		.byte	0x91
 5392 03d0 00       		.sleb128 0
 5393 03d1 28010000 		.4byte	.LVL69
 5394 03d5 2A010000 		.4byte	.LVL70
 5395 03d9 0600     		.2byte	0x6
 5396 03db 50       		.byte	0x50
 5397 03dc 93       		.byte	0x93
 5398 03dd 04       		.uleb128 0x4
 5399 03de 51       		.byte	0x51
 5400 03df 93       		.byte	0x93
 5401 03e0 04       		.uleb128 0x4
 5402 03e1 2A010000 		.4byte	.LVL70
 5403 03e5 36010000 		.4byte	.LVL72
 5404 03e9 0200     		.2byte	0x2
 5405 03eb 91       		.byte	0x91
 5406 03ec 00       		.sleb128 0
 5407 03ed 36010000 		.4byte	.LVL72
 5408 03f1 40010000 		.4byte	.LVL75
 5409 03f5 0600     		.2byte	0x6
 5410 03f7 52       		.byte	0x52
 5411 03f8 93       		.byte	0x93
 5412 03f9 04       		.uleb128 0x4
 5413 03fa 53       		.byte	0x53
 5414 03fb 93       		.byte	0x93
 5415 03fc 04       		.uleb128 0x4
 5416 03fd 40010000 		.4byte	.LVL75
 5417 0401 48010000 		.4byte	.LVL76
 5418 0405 0600     		.2byte	0x6
 5419 0407 54       		.byte	0x54
 5420 0408 93       		.byte	0x93
 5421 0409 04       		.uleb128 0x4
 5422 040a 55       		.byte	0x55
 5423 040b 93       		.byte	0x93
 5424 040c 04       		.uleb128 0x4
ARM GAS  C:\Users\cring\AppData\Local\Temp\ccSaPXYf.s 			page 107


 5425 040d 54010000 		.4byte	.LVL79
 5426 0411 9C010000 		.4byte	.LVL89
 5427 0415 0200     		.2byte	0x2
 5428 0417 7D       		.byte	0x7d
 5429 0418 00       		.sleb128 0
 5430 0419 9C010000 		.4byte	.LVL89
 5431 041d A2010000 		.4byte	.LVL90
 5432 0421 0600     		.2byte	0x6
 5433 0423 50       		.byte	0x50
 5434 0424 93       		.byte	0x93
 5435 0425 04       		.uleb128 0x4
 5436 0426 51       		.byte	0x51
 5437 0427 93       		.byte	0x93
 5438 0428 04       		.uleb128 0x4
 5439 0429 A2010000 		.4byte	.LVL90
 5440 042d 04020000 		.4byte	.LVL103
 5441 0431 0200     		.2byte	0x2
 5442 0433 7D       		.byte	0x7d
 5443 0434 00       		.sleb128 0
 5444 0435 00000000 		.4byte	0
 5445 0439 00000000 		.4byte	0
 5446              	.LLST18:
 5447 043d 66000000 		.4byte	.LVL43
 5448 0441 69000000 		.4byte	.LVL44-1
 5449 0445 0100     		.2byte	0x1
 5450 0447 50       		.byte	0x50
 5451 0448 69000000 		.4byte	.LVL44-1
 5452 044c E4010000 		.4byte	.LVL99
 5453 0450 0100     		.2byte	0x1
 5454 0452 57       		.byte	0x57
 5455 0453 00000000 		.4byte	0
 5456 0457 00000000 		.4byte	0
 5457              	.LLST19:
 5458 045b 00000000 		.4byte	.LVL105
 5459 045f 0C000000 		.4byte	.LVL106
 5460 0463 0100     		.2byte	0x1
 5461 0465 50       		.byte	0x50
 5462 0466 0C000000 		.4byte	.LVL106
 5463 046a 14000000 		.4byte	.LVL108
 5464 046e 0100     		.2byte	0x1
 5465 0470 56       		.byte	0x56
 5466 0471 14000000 		.4byte	.LVL108
 5467 0475 1A000000 		.4byte	.LVL109
 5468 0479 0100     		.2byte	0x1
 5469 047b 50       		.byte	0x50
 5470 047c 1A000000 		.4byte	.LVL109
 5471 0480 54000000 		.4byte	.LFE77
 5472 0484 0100     		.2byte	0x1
 5473 0486 56       		.byte	0x56
 5474 0487 00000000 		.4byte	0
 5475 048b 00000000 		.4byte	0
 5476              	.LLST20:
 5477 048f 20000000 		.4byte	.LVL111
 5478 0493 52000000 		.4byte	.LVL119
 5479 0497 0100     		.2byte	0x1
 5480 0499 55       		.byte	0x55
 5481 049a 00000000 		.4byte	0
ARM GAS  C:\Users\cring\AppData\Local\Temp\ccSaPXYf.s 			page 108


 5482 049e 00000000 		.4byte	0
 5483              	.LLST21:
 5484 04a2 00000000 		.4byte	.LVL123
 5485 04a6 17000000 		.4byte	.LVL124-1
 5486 04aa 0600     		.2byte	0x6
 5487 04ac 50       		.byte	0x50
 5488 04ad 93       		.byte	0x93
 5489 04ae 04       		.uleb128 0x4
 5490 04af 51       		.byte	0x51
 5491 04b0 93       		.byte	0x93
 5492 04b1 04       		.uleb128 0x4
 5493 04b2 17000000 		.4byte	.LVL124-1
 5494 04b6 32010000 		.4byte	.LFE78
 5495 04ba 0600     		.2byte	0x6
 5496 04bc F3       		.byte	0xf3
 5497 04bd 03       		.uleb128 0x3
 5498 04be F5       		.byte	0xf5
 5499 04bf 00       		.uleb128 0
 5500 04c0 25       		.uleb128 0x25
 5501 04c1 9F       		.byte	0x9f
 5502 04c2 00000000 		.4byte	0
 5503 04c6 00000000 		.4byte	0
 5504              	.LLST22:
 5505 04ca 00000000 		.4byte	.LVL123
 5506 04ce 17000000 		.4byte	.LVL124-1
 5507 04d2 0600     		.2byte	0x6
 5508 04d4 52       		.byte	0x52
 5509 04d5 93       		.byte	0x93
 5510 04d6 04       		.uleb128 0x4
 5511 04d7 53       		.byte	0x53
 5512 04d8 93       		.byte	0x93
 5513 04d9 04       		.uleb128 0x4
 5514 04da 17000000 		.4byte	.LVL124-1
 5515 04de 32010000 		.4byte	.LFE78
 5516 04e2 0600     		.2byte	0x6
 5517 04e4 F3       		.byte	0xf3
 5518 04e5 03       		.uleb128 0x3
 5519 04e6 F5       		.byte	0xf5
 5520 04e7 02       		.uleb128 0x2
 5521 04e8 25       		.uleb128 0x25
 5522 04e9 9F       		.byte	0x9f
 5523 04ea 00000000 		.4byte	0
 5524 04ee 00000000 		.4byte	0
 5525              	.LLST23:
 5526 04f2 22000000 		.4byte	.LVL125
 5527 04f6 82000000 		.4byte	.LVL134
 5528 04fa 0100     		.2byte	0x1
 5529 04fc 51       		.byte	0x51
 5530 04fd 82000000 		.4byte	.LVL134
 5531 0501 32010000 		.4byte	.LFE78
 5532 0505 0200     		.2byte	0x2
 5533 0507 75       		.byte	0x75
 5534 0508 00       		.sleb128 0
 5535 0509 00000000 		.4byte	0
 5536 050d 00000000 		.4byte	0
 5537              	.LLST24:
 5538 0511 24000000 		.4byte	.LVL126
ARM GAS  C:\Users\cring\AppData\Local\Temp\ccSaPXYf.s 			page 109


 5539 0515 2A000000 		.4byte	.LVL128
 5540 0519 0100     		.2byte	0x1
 5541 051b 50       		.byte	0x50
 5542 051c 2A000000 		.4byte	.LVL128
 5543 0520 32010000 		.4byte	.LFE78
 5544 0524 0200     		.2byte	0x2
 5545 0526 75       		.byte	0x75
 5546 0527 04       		.sleb128 4
 5547 0528 00000000 		.4byte	0
 5548 052c 00000000 		.4byte	0
 5549              	.LLST25:
 5550 0530 26000000 		.4byte	.LVL127
 5551 0534 DA000000 		.4byte	.LVL140
 5552 0538 0100     		.2byte	0x1
 5553 053a 52       		.byte	0x52
 5554 053b DA000000 		.4byte	.LVL140
 5555 053f 32010000 		.4byte	.LFE78
 5556 0543 0200     		.2byte	0x2
 5557 0545 75       		.byte	0x75
 5558 0546 08       		.sleb128 8
 5559 0547 00000000 		.4byte	0
 5560 054b 00000000 		.4byte	0
 5561              	.LLST26:
 5562 054f 26000000 		.4byte	.LVL127
 5563 0553 58000000 		.4byte	.LVL132
 5564 0557 0100     		.2byte	0x1
 5565 0559 50       		.byte	0x50
 5566 055a 7E000000 		.4byte	.LVL133
 5567 055e B0000000 		.4byte	.LVL138
 5568 0562 0100     		.2byte	0x1
 5569 0564 51       		.byte	0x51
 5570 0565 D6000000 		.4byte	.LVL139
 5571 0569 08010000 		.4byte	.LVL144
 5572 056d 0100     		.2byte	0x1
 5573 056f 52       		.byte	0x52
 5574 0570 00000000 		.4byte	0
 5575 0574 00000000 		.4byte	0
 5576              	.LLST27:
 5577 0578 26000000 		.4byte	.LVL127
 5578 057c 2A000000 		.4byte	.LVL128
 5579 0580 0200     		.2byte	0x2
 5580 0582 30       		.byte	0x30
 5581 0583 9F       		.byte	0x9f
 5582 0584 2A000000 		.4byte	.LVL128
 5583 0588 54000000 		.4byte	.LVL131
 5584 058c 0100     		.2byte	0x1
 5585 058e 53       		.byte	0x53
 5586 058f 00000000 		.4byte	0
 5587 0593 00000000 		.4byte	0
 5588              	.LLST28:
 5589 0597 7E000000 		.4byte	.LVL133
 5590 059b 82000000 		.4byte	.LVL134
 5591 059f 0200     		.2byte	0x2
 5592 05a1 30       		.byte	0x30
 5593 05a2 9F       		.byte	0x9f
 5594 05a3 82000000 		.4byte	.LVL134
 5595 05a7 AC000000 		.4byte	.LVL137
ARM GAS  C:\Users\cring\AppData\Local\Temp\ccSaPXYf.s 			page 110


 5596 05ab 0100     		.2byte	0x1
 5597 05ad 53       		.byte	0x53
 5598 05ae 00000000 		.4byte	0
 5599 05b2 00000000 		.4byte	0
 5600              	.LLST29:
 5601 05b6 D6000000 		.4byte	.LVL139
 5602 05ba DA000000 		.4byte	.LVL140
 5603 05be 0200     		.2byte	0x2
 5604 05c0 30       		.byte	0x30
 5605 05c1 9F       		.byte	0x9f
 5606 05c2 DA000000 		.4byte	.LVL140
 5607 05c6 04010000 		.4byte	.LVL143
 5608 05ca 0100     		.2byte	0x1
 5609 05cc 53       		.byte	0x53
 5610 05cd 00000000 		.4byte	0
 5611 05d1 00000000 		.4byte	0
 5612              	.LLST30:
 5613 05d5 00000000 		.4byte	.LVL145
 5614 05d9 18000000 		.4byte	.LVL147
 5615 05dd 0600     		.2byte	0x6
 5616 05df 50       		.byte	0x50
 5617 05e0 93       		.byte	0x93
 5618 05e1 04       		.uleb128 0x4
 5619 05e2 51       		.byte	0x51
 5620 05e3 93       		.byte	0x93
 5621 05e4 04       		.uleb128 0x4
 5622 05e5 18000000 		.4byte	.LVL147
 5623 05e9 3A000000 		.4byte	.LFE72
 5624 05ed 0600     		.2byte	0x6
 5625 05ef F3       		.byte	0xf3
 5626 05f0 03       		.uleb128 0x3
 5627 05f1 F5       		.byte	0xf5
 5628 05f2 00       		.uleb128 0
 5629 05f3 25       		.uleb128 0x25
 5630 05f4 9F       		.byte	0x9f
 5631 05f5 00000000 		.4byte	0
 5632 05f9 00000000 		.4byte	0
 5633              	.LLST31:
 5634 05fd 00000000 		.4byte	.LVL145
 5635 0601 18000000 		.4byte	.LVL147
 5636 0605 0600     		.2byte	0x6
 5637 0607 52       		.byte	0x52
 5638 0608 93       		.byte	0x93
 5639 0609 04       		.uleb128 0x4
 5640 060a 53       		.byte	0x53
 5641 060b 93       		.byte	0x93
 5642 060c 04       		.uleb128 0x4
 5643 060d 18000000 		.4byte	.LVL147
 5644 0611 3A000000 		.4byte	.LFE72
 5645 0615 0600     		.2byte	0x6
 5646 0617 F3       		.byte	0xf3
 5647 0618 03       		.uleb128 0x3
 5648 0619 F5       		.byte	0xf5
 5649 061a 02       		.uleb128 0x2
 5650 061b 25       		.uleb128 0x25
 5651 061c 9F       		.byte	0x9f
 5652 061d 00000000 		.4byte	0
ARM GAS  C:\Users\cring\AppData\Local\Temp\ccSaPXYf.s 			page 111


 5653 0621 00000000 		.4byte	0
 5654              	.LLST32:
 5655 0625 14000000 		.4byte	.LVL146
 5656 0629 18000000 		.4byte	.LVL147
 5657 062d 0200     		.2byte	0x2
 5658 062f 30       		.byte	0x30
 5659 0630 9F       		.byte	0x9f
 5660 0631 18000000 		.4byte	.LVL147
 5661 0635 3A000000 		.4byte	.LFE72
 5662 0639 0100     		.2byte	0x1
 5663 063b 56       		.byte	0x56
 5664 063c 00000000 		.4byte	0
 5665 0640 00000000 		.4byte	0
 5666              	.LLST33:
 5667 0644 4E000000 		.4byte	.LVL172
 5668 0648 00010000 		.4byte	.LVL178
 5669 064c 0100     		.2byte	0x1
 5670 064e 54       		.byte	0x54
 5671 064f 00000000 		.4byte	0
 5672 0653 00000000 		.4byte	0
 5673              	.LLST34:
 5674 0657 66000000 		.4byte	.LVL173
 5675 065b 88000000 		.4byte	.LVL174
 5676 065f 0100     		.2byte	0x1
 5677 0661 55       		.byte	0x55
 5678 0662 00000000 		.4byte	0
 5679 0666 00000000 		.4byte	0
 5680              	.LLST35:
 5681 066a 9E000000 		.4byte	.LVL175
 5682 066e C0000000 		.4byte	.LVL176
 5683 0672 0100     		.2byte	0x1
 5684 0674 55       		.byte	0x55
 5685 0675 00000000 		.4byte	0
 5686 0679 00000000 		.4byte	0
 5687              	.LLST36:
 5688 067d 00000000 		.4byte	.LVL180
 5689 0681 1A000000 		.4byte	.LVL181
 5690 0685 0100     		.2byte	0x1
 5691 0687 50       		.byte	0x50
 5692 0688 1A000000 		.4byte	.LVL181
 5693 068c 1D000000 		.4byte	.LVL182-1
 5694 0690 0300     		.2byte	0x3
 5695 0692 70       		.byte	0x70
 5696 0693 C000     		.sleb128 64
 5697 0695 1D000000 		.4byte	.LVL182-1
 5698 0699 48000000 		.4byte	.LFE70
 5699 069d 0400     		.2byte	0x4
 5700 069f F3       		.byte	0xf3
 5701 06a0 01       		.uleb128 0x1
 5702 06a1 50       		.byte	0x50
 5703 06a2 9F       		.byte	0x9f
 5704 06a3 00000000 		.4byte	0
 5705 06a7 00000000 		.4byte	0
 5706              	.LLST37:
 5707 06ab 00000000 		.4byte	.LVL180
 5708 06af 1D000000 		.4byte	.LVL182-1
 5709 06b3 0100     		.2byte	0x1
ARM GAS  C:\Users\cring\AppData\Local\Temp\ccSaPXYf.s 			page 112


 5710 06b5 51       		.byte	0x51
 5711 06b6 1D000000 		.4byte	.LVL182-1
 5712 06ba 42000000 		.4byte	.LVL186
 5713 06be 0100     		.2byte	0x1
 5714 06c0 55       		.byte	0x55
 5715 06c1 42000000 		.4byte	.LVL186
 5716 06c5 48000000 		.4byte	.LFE70
 5717 06c9 0400     		.2byte	0x4
 5718 06cb F3       		.byte	0xf3
 5719 06cc 01       		.uleb128 0x1
 5720 06cd 51       		.byte	0x51
 5721 06ce 9F       		.byte	0x9f
 5722 06cf 00000000 		.4byte	0
 5723 06d3 00000000 		.4byte	0
 5724              	.LLST38:
 5725 06d7 00000000 		.4byte	.LVL180
 5726 06db 1D000000 		.4byte	.LVL182-1
 5727 06df 0100     		.2byte	0x1
 5728 06e1 52       		.byte	0x52
 5729 06e2 1D000000 		.4byte	.LVL182-1
 5730 06e6 48000000 		.4byte	.LFE70
 5731 06ea 0400     		.2byte	0x4
 5732 06ec F3       		.byte	0xf3
 5733 06ed 01       		.uleb128 0x1
 5734 06ee 52       		.byte	0x52
 5735 06ef 9F       		.byte	0x9f
 5736 06f0 00000000 		.4byte	0
 5737 06f4 00000000 		.4byte	0
 5738              	.LLST39:
 5739 06f8 1E000000 		.4byte	.LVL182
 5740 06fc 22000000 		.4byte	.LVL183
 5741 0700 0200     		.2byte	0x2
 5742 0702 30       		.byte	0x30
 5743 0703 9F       		.byte	0x9f
 5744 0704 22000000 		.4byte	.LVL183
 5745 0708 42000000 		.4byte	.LVL186
 5746 070c 0100     		.2byte	0x1
 5747 070e 54       		.byte	0x54
 5748 070f 00000000 		.4byte	0
 5749 0713 00000000 		.4byte	0
 5750              	.LLST40:
 5751 0717 00000000 		.4byte	.LVL187
 5752 071b 18000000 		.4byte	.LVL188
 5753 071f 0600     		.2byte	0x6
 5754 0721 50       		.byte	0x50
 5755 0722 93       		.byte	0x93
 5756 0723 04       		.uleb128 0x4
 5757 0724 51       		.byte	0x51
 5758 0725 93       		.byte	0x93
 5759 0726 04       		.uleb128 0x4
 5760 0727 18000000 		.4byte	.LVL188
 5761 072b 48000000 		.4byte	.LFE73
 5762 072f 0600     		.2byte	0x6
 5763 0731 F3       		.byte	0xf3
 5764 0732 03       		.uleb128 0x3
 5765 0733 F5       		.byte	0xf5
 5766 0734 00       		.uleb128 0
ARM GAS  C:\Users\cring\AppData\Local\Temp\ccSaPXYf.s 			page 113


 5767 0735 25       		.uleb128 0x25
 5768 0736 9F       		.byte	0x9f
 5769 0737 00000000 		.4byte	0
 5770 073b 00000000 		.4byte	0
 5771              	.LLST41:
 5772 073f 00000000 		.4byte	.LVL187
 5773 0743 1B000000 		.4byte	.LVL189-1
 5774 0747 0600     		.2byte	0x6
 5775 0749 52       		.byte	0x52
 5776 074a 93       		.byte	0x93
 5777 074b 04       		.uleb128 0x4
 5778 074c 53       		.byte	0x53
 5779 074d 93       		.byte	0x93
 5780 074e 04       		.uleb128 0x4
 5781 074f 1B000000 		.4byte	.LVL189-1
 5782 0753 48000000 		.4byte	.LFE73
 5783 0757 0600     		.2byte	0x6
 5784 0759 F3       		.byte	0xf3
 5785 075a 03       		.uleb128 0x3
 5786 075b F5       		.byte	0xf5
 5787 075c 02       		.uleb128 0x2
 5788 075d 25       		.uleb128 0x25
 5789 075e 9F       		.byte	0x9f
 5790 075f 00000000 		.4byte	0
 5791 0763 00000000 		.4byte	0
 5792              	.LLST42:
 5793 0767 00000000 		.4byte	.LVL191
 5794 076b 1A000000 		.4byte	.LVL192
 5795 076f 0100     		.2byte	0x1
 5796 0771 50       		.byte	0x50
 5797 0772 1A000000 		.4byte	.LVL192
 5798 0776 1D000000 		.4byte	.LVL193-1
 5799 077a 0500     		.2byte	0x5
 5800 077c 03       		.byte	0x3
 5801 077d 14000000 		.4byte	pulselength_
 5802 0781 1D000000 		.4byte	.LVL193-1
 5803 0785 4C000000 		.4byte	.LFE75
 5804 0789 0400     		.2byte	0x4
 5805 078b F3       		.byte	0xf3
 5806 078c 01       		.uleb128 0x1
 5807 078d 50       		.byte	0x50
 5808 078e 9F       		.byte	0x9f
 5809 078f 00000000 		.4byte	0
 5810 0793 00000000 		.4byte	0
 5811              	.LLST43:
 5812 0797 00000000 		.4byte	.LVL191
 5813 079b 1D000000 		.4byte	.LVL193-1
 5814 079f 0600     		.2byte	0x6
 5815 07a1 52       		.byte	0x52
 5816 07a2 93       		.byte	0x93
 5817 07a3 04       		.uleb128 0x4
 5818 07a4 53       		.byte	0x53
 5819 07a5 93       		.byte	0x93
 5820 07a6 04       		.uleb128 0x4
 5821 07a7 1D000000 		.4byte	.LVL193-1
 5822 07ab 4C000000 		.4byte	.LFE75
 5823 07af 0600     		.2byte	0x6
ARM GAS  C:\Users\cring\AppData\Local\Temp\ccSaPXYf.s 			page 114


 5824 07b1 F3       		.byte	0xf3
 5825 07b2 03       		.uleb128 0x3
 5826 07b3 F5       		.byte	0xf5
 5827 07b4 02       		.uleb128 0x2
 5828 07b5 25       		.uleb128 0x25
 5829 07b6 9F       		.byte	0x9f
 5830 07b7 00000000 		.4byte	0
 5831 07bb 00000000 		.4byte	0
 5832              	.LLST44:
 5833 07bf 00000000 		.4byte	.LVL191
 5834 07c3 48000000 		.4byte	.LVL197
 5835 07c7 0200     		.2byte	0x2
 5836 07c9 91       		.byte	0x91
 5837 07ca 00       		.sleb128 0
 5838 07cb 48000000 		.4byte	.LVL197
 5839 07cf 4C000000 		.4byte	.LFE75
 5840 07d3 0200     		.2byte	0x2
 5841 07d5 7D       		.byte	0x7d
 5842 07d6 00       		.sleb128 0
 5843 07d7 00000000 		.4byte	0
 5844 07db 00000000 		.4byte	0
 5845              	.LLST45:
 5846 07df 00000000 		.4byte	.LVL191
 5847 07e3 48000000 		.4byte	.LVL197
 5848 07e7 0200     		.2byte	0x2
 5849 07e9 91       		.byte	0x91
 5850 07ea 08       		.sleb128 8
 5851 07eb 48000000 		.4byte	.LVL197
 5852 07ef 4C000000 		.4byte	.LFE75
 5853 07f3 0200     		.2byte	0x2
 5854 07f5 7D       		.byte	0x7d
 5855 07f6 08       		.sleb128 8
 5856 07f7 00000000 		.4byte	0
 5857 07fb 00000000 		.4byte	0
 5858              	.LLST46:
 5859 07ff 00000000 		.4byte	.LVL191
 5860 0803 48000000 		.4byte	.LVL197
 5861 0807 0200     		.2byte	0x2
 5862 0809 91       		.byte	0x91
 5863 080a 10       		.sleb128 16
 5864 080b 48000000 		.4byte	.LVL197
 5865 080f 4C000000 		.4byte	.LFE75
 5866 0813 0200     		.2byte	0x2
 5867 0815 7D       		.byte	0x7d
 5868 0816 10       		.sleb128 16
 5869 0817 00000000 		.4byte	0
 5870 081b 00000000 		.4byte	0
 5871              	.LLST47:
 5872 081f 24000000 		.4byte	.LVL194
 5873 0823 28000000 		.4byte	.LVL195
 5874 0827 0200     		.2byte	0x2
 5875 0829 30       		.byte	0x30
 5876 082a 9F       		.byte	0x9f
 5877 082b 28000000 		.4byte	.LVL195
 5878 082f 4C000000 		.4byte	.LFE75
 5879 0833 0100     		.2byte	0x1
 5880 0835 52       		.byte	0x52
ARM GAS  C:\Users\cring\AppData\Local\Temp\ccSaPXYf.s 			page 115


 5881 0836 00000000 		.4byte	0
 5882 083a 00000000 		.4byte	0
 5883              	.LLST48:
 5884 083e 00000000 		.4byte	.LVL198
 5885 0842 16000000 		.4byte	.LVL199
 5886 0846 0600     		.2byte	0x6
 5887 0848 50       		.byte	0x50
 5888 0849 93       		.byte	0x93
 5889 084a 04       		.uleb128 0x4
 5890 084b 51       		.byte	0x51
 5891 084c 93       		.byte	0x93
 5892 084d 04       		.uleb128 0x4
 5893 084e 16000000 		.4byte	.LVL199
 5894 0852 44000000 		.4byte	.LFE80
 5895 0856 0600     		.2byte	0x6
 5896 0858 F3       		.byte	0xf3
 5897 0859 03       		.uleb128 0x3
 5898 085a F5       		.byte	0xf5
 5899 085b 00       		.uleb128 0
 5900 085c 25       		.uleb128 0x25
 5901 085d 9F       		.byte	0x9f
 5902 085e 00000000 		.4byte	0
 5903 0862 00000000 		.4byte	0
 5904              	.LLST49:
 5905 0866 00000000 		.4byte	.LVL198
 5906 086a 19000000 		.4byte	.LVL200-1
 5907 086e 0600     		.2byte	0x6
 5908 0870 52       		.byte	0x52
 5909 0871 93       		.byte	0x93
 5910 0872 04       		.uleb128 0x4
 5911 0873 53       		.byte	0x53
 5912 0874 93       		.byte	0x93
 5913 0875 04       		.uleb128 0x4
 5914 0876 19000000 		.4byte	.LVL200-1
 5915 087a 44000000 		.4byte	.LFE80
 5916 087e 0600     		.2byte	0x6
 5917 0880 F3       		.byte	0xf3
 5918 0881 03       		.uleb128 0x3
 5919 0882 F5       		.byte	0xf5
 5920 0883 02       		.uleb128 0x2
 5921 0884 25       		.uleb128 0x25
 5922 0885 9F       		.byte	0x9f
 5923 0886 00000000 		.4byte	0
 5924 088a 00000000 		.4byte	0
 5925              	.LLST50:
 5926 088e 1A000000 		.4byte	.LVL200
 5927 0892 1E000000 		.4byte	.LVL201
 5928 0896 0200     		.2byte	0x2
 5929 0898 30       		.byte	0x30
 5930 0899 9F       		.byte	0x9f
 5931 089a 1E000000 		.4byte	.LVL201
 5932 089e 44000000 		.4byte	.LFE80
 5933 08a2 0100     		.2byte	0x1
 5934 08a4 52       		.byte	0x52
 5935 08a5 00000000 		.4byte	0
 5936 08a9 00000000 		.4byte	0
 5937              	.LLST51:
ARM GAS  C:\Users\cring\AppData\Local\Temp\ccSaPXYf.s 			page 116


 5938 08ad 00000000 		.4byte	.LVL203
 5939 08b1 1E000000 		.4byte	.LVL204
 5940 08b5 0100     		.2byte	0x1
 5941 08b7 50       		.byte	0x50
 5942 08b8 1E000000 		.4byte	.LVL204
 5943 08bc 21000000 		.4byte	.LVL205-1
 5944 08c0 0200     		.2byte	0x2
 5945 08c2 91       		.byte	0x91
 5946 08c3 70       		.sleb128 -16
 5947 08c4 21000000 		.4byte	.LVL205-1
 5948 08c8 38000000 		.4byte	.LFE81
 5949 08cc 0400     		.2byte	0x4
 5950 08ce F3       		.byte	0xf3
 5951 08cf 01       		.uleb128 0x1
 5952 08d0 50       		.byte	0x50
 5953 08d1 9F       		.byte	0x9f
 5954 08d2 00000000 		.4byte	0
 5955 08d6 00000000 		.4byte	0
 5956              	.LLST52:
 5957 08da 00000000 		.4byte	.LVL206
 5958 08de 1A000000 		.4byte	.LVL207
 5959 08e2 0100     		.2byte	0x1
 5960 08e4 50       		.byte	0x50
 5961 08e5 1A000000 		.4byte	.LVL207
 5962 08e9 1D000000 		.4byte	.LVL208-1
 5963 08ed 0200     		.2byte	0x2
 5964 08ef 91       		.byte	0x91
 5965 08f0 70       		.sleb128 -16
 5966 08f1 1D000000 		.4byte	.LVL208-1
 5967 08f5 3C000000 		.4byte	.LFE82
 5968 08f9 0400     		.2byte	0x4
 5969 08fb F3       		.byte	0xf3
 5970 08fc 01       		.uleb128 0x1
 5971 08fd 50       		.byte	0x50
 5972 08fe 9F       		.byte	0x9f
 5973 08ff 00000000 		.4byte	0
 5974 0903 00000000 		.4byte	0
 5975              	.LLST53:
 5976 0907 00000000 		.4byte	.LVL209
 5977 090b 09000000 		.4byte	.LVL210-1
 5978 090f 0100     		.2byte	0x1
 5979 0911 50       		.byte	0x50
 5980 0912 09000000 		.4byte	.LVL210-1
 5981 0916 26000000 		.4byte	.LVL212
 5982 091a 0100     		.2byte	0x1
 5983 091c 54       		.byte	0x54
 5984 091d 26000000 		.4byte	.LVL212
 5985 0921 38000000 		.4byte	.LFE83
 5986 0925 0400     		.2byte	0x4
 5987 0927 F3       		.byte	0xf3
 5988 0928 01       		.uleb128 0x1
 5989 0929 50       		.byte	0x50
 5990 092a 9F       		.byte	0x9f
 5991 092b 00000000 		.4byte	0
 5992 092f 00000000 		.4byte	0
 5993              	.LLST54:
 5994 0933 00000000 		.4byte	.LVL213
ARM GAS  C:\Users\cring\AppData\Local\Temp\ccSaPXYf.s 			page 117


 5995 0937 10000000 		.4byte	.LVL214
 5996 093b 0100     		.2byte	0x1
 5997 093d 50       		.byte	0x50
 5998 093e 10000000 		.4byte	.LVL214
 5999 0942 15000000 		.4byte	.LVL215-1
 6000 0946 0200     		.2byte	0x2
 6001 0948 91       		.byte	0x91
 6002 0949 70       		.sleb128 -16
 6003 094a 15000000 		.4byte	.LVL215-1
 6004 094e 24000000 		.4byte	.LFE84
 6005 0952 0400     		.2byte	0x4
 6006 0954 F3       		.byte	0xf3
 6007 0955 01       		.uleb128 0x1
 6008 0956 50       		.byte	0x50
 6009 0957 9F       		.byte	0x9f
 6010 0958 00000000 		.4byte	0
 6011 095c 00000000 		.4byte	0
 6012              	.LLST55:
 6013 0960 00000000 		.4byte	.LVL216
 6014 0964 18000000 		.4byte	.LVL217
 6015 0968 0100     		.2byte	0x1
 6016 096a 50       		.byte	0x50
 6017 096b 18000000 		.4byte	.LVL217
 6018 096f 1B000000 		.4byte	.LVL218-1
 6019 0973 0200     		.2byte	0x2
 6020 0975 91       		.byte	0x91
 6021 0976 70       		.sleb128 -16
 6022 0977 1B000000 		.4byte	.LVL218-1
 6023 097b 2C000000 		.4byte	.LFE85
 6024 097f 0400     		.2byte	0x4
 6025 0981 F3       		.byte	0xf3
 6026 0982 01       		.uleb128 0x1
 6027 0983 50       		.byte	0x50
 6028 0984 9F       		.byte	0x9f
 6029 0985 00000000 		.4byte	0
 6030 0989 00000000 		.4byte	0
 6031              	.LLST56:
 6032 098d 00000000 		.4byte	.LVL219
 6033 0991 09000000 		.4byte	.LVL220-1
 6034 0995 0100     		.2byte	0x1
 6035 0997 50       		.byte	0x50
 6036 0998 09000000 		.4byte	.LVL220-1
 6037 099c 20000000 		.4byte	.LVL222
 6038 09a0 0100     		.2byte	0x1
 6039 09a2 54       		.byte	0x54
 6040 09a3 20000000 		.4byte	.LVL222
 6041 09a7 28000000 		.4byte	.LFE86
 6042 09ab 0400     		.2byte	0x4
 6043 09ad F3       		.byte	0xf3
 6044 09ae 01       		.uleb128 0x1
 6045 09af 50       		.byte	0x50
 6046 09b0 9F       		.byte	0x9f
 6047 09b1 00000000 		.4byte	0
 6048 09b5 00000000 		.4byte	0
 6049              	.LLST57:
 6050 09b9 00000000 		.4byte	.LVL223
 6051 09bd 0D000000 		.4byte	.LVL224-1
ARM GAS  C:\Users\cring\AppData\Local\Temp\ccSaPXYf.s 			page 118


 6052 09c1 0100     		.2byte	0x1
 6053 09c3 50       		.byte	0x50
 6054 09c4 0D000000 		.4byte	.LVL224-1
 6055 09c8 36000000 		.4byte	.LVL226
 6056 09cc 0100     		.2byte	0x1
 6057 09ce 58       		.byte	0x58
 6058 09cf 36000000 		.4byte	.LVL226
 6059 09d3 45000000 		.4byte	.LVL227-1
 6060 09d7 0200     		.2byte	0x2
 6061 09d9 91       		.byte	0x91
 6062 09da 58       		.sleb128 -40
 6063 09db 45000000 		.4byte	.LVL227-1
 6064 09df 60000000 		.4byte	.LVL230
 6065 09e3 0400     		.2byte	0x4
 6066 09e5 F3       		.byte	0xf3
 6067 09e6 01       		.uleb128 0x1
 6068 09e7 50       		.byte	0x50
 6069 09e8 9F       		.byte	0x9f
 6070 09e9 60000000 		.4byte	.LVL230
 6071 09ed 0C010000 		.4byte	.LVL238
 6072 09f1 0100     		.2byte	0x1
 6073 09f3 58       		.byte	0x58
 6074 09f4 0C010000 		.4byte	.LVL238
 6075 09f8 34010000 		.4byte	.LFE87
 6076 09fc 0400     		.2byte	0x4
 6077 09fe F3       		.byte	0xf3
 6078 09ff 01       		.uleb128 0x1
 6079 0a00 50       		.byte	0x50
 6080 0a01 9F       		.byte	0x9f
 6081 0a02 00000000 		.4byte	0
 6082 0a06 00000000 		.4byte	0
 6083              	.LLST58:
 6084 0a0a 00000000 		.4byte	.LVL223
 6085 0a0e 0D000000 		.4byte	.LVL224-1
 6086 0a12 0100     		.2byte	0x1
 6087 0a14 51       		.byte	0x51
 6088 0a15 0D000000 		.4byte	.LVL224-1
 6089 0a19 14010000 		.4byte	.LVL239
 6090 0a1d 0100     		.2byte	0x1
 6091 0a1f 5B       		.byte	0x5b
 6092 0a20 14010000 		.4byte	.LVL239
 6093 0a24 34010000 		.4byte	.LFE87
 6094 0a28 0400     		.2byte	0x4
 6095 0a2a F3       		.byte	0xf3
 6096 0a2b 01       		.uleb128 0x1
 6097 0a2c 51       		.byte	0x51
 6098 0a2d 9F       		.byte	0x9f
 6099 0a2e 00000000 		.4byte	0
 6100 0a32 00000000 		.4byte	0
 6101              	.LLST59:
 6102 0a36 00000000 		.4byte	.LVL241
 6103 0a3a 16000000 		.4byte	.LVL242
 6104 0a3e 0100     		.2byte	0x1
 6105 0a40 50       		.byte	0x50
 6106 0a41 16000000 		.4byte	.LVL242
 6107 0a45 1B000000 		.4byte	.LVL243-1
 6108 0a49 0200     		.2byte	0x2
ARM GAS  C:\Users\cring\AppData\Local\Temp\ccSaPXYf.s 			page 119


 6109 0a4b 91       		.byte	0x91
 6110 0a4c 70       		.sleb128 -16
 6111 0a4d 1B000000 		.4byte	.LVL243-1
 6112 0a51 38000000 		.4byte	.LFE88
 6113 0a55 0400     		.2byte	0x4
 6114 0a57 F3       		.byte	0xf3
 6115 0a58 01       		.uleb128 0x1
 6116 0a59 50       		.byte	0x50
 6117 0a5a 9F       		.byte	0x9f
 6118 0a5b 00000000 		.4byte	0
 6119 0a5f 00000000 		.4byte	0
 6120              	.LLST60:
 6121 0a63 00000000 		.4byte	.LVL244
 6122 0a67 09000000 		.4byte	.LVL245-1
 6123 0a6b 0100     		.2byte	0x1
 6124 0a6d 50       		.byte	0x50
 6125 0a6e 09000000 		.4byte	.LVL245-1
 6126 0a72 20000000 		.4byte	.LVL247
 6127 0a76 0100     		.2byte	0x1
 6128 0a78 54       		.byte	0x54
 6129 0a79 20000000 		.4byte	.LVL247
 6130 0a7d 28000000 		.4byte	.LFE89
 6131 0a81 0400     		.2byte	0x4
 6132 0a83 F3       		.byte	0xf3
 6133 0a84 01       		.uleb128 0x1
 6134 0a85 50       		.byte	0x50
 6135 0a86 9F       		.byte	0x9f
 6136 0a87 00000000 		.4byte	0
 6137 0a8b 00000000 		.4byte	0
 6138              		.section	.debug_aranges,"",%progbits
 6139 0000 E4000000 		.4byte	0xe4
 6140 0004 0200     		.2byte	0x2
 6141 0006 00000000 		.4byte	.Ldebug_info0
 6142 000a 04       		.byte	0x4
 6143 000b 00       		.byte	0
 6144 000c 0000     		.2byte	0
 6145 000e 0000     		.2byte	0
 6146 0010 00000000 		.4byte	.LFB69
 6147 0014 30000000 		.4byte	.LFE69-.LFB69
 6148 0018 00000000 		.4byte	.LFB71
 6149 001c 54000000 		.4byte	.LFE71-.LFB71
 6150 0020 00000000 		.4byte	.LFB74
 6151 0024 2C000000 		.4byte	.LFE74-.LFB74
 6152 0028 00000000 		.4byte	.LFB76
 6153 002c 1C020000 		.4byte	.LFE76-.LFB76
 6154 0030 00000000 		.4byte	.LFB77
 6155 0034 54000000 		.4byte	.LFE77-.LFB77
 6156 0038 00000000 		.4byte	.LFB64
 6157 003c 24000000 		.4byte	.LFE64-.LFB64
 6158 0040 00000000 		.4byte	.LFB78
 6159 0044 32010000 		.4byte	.LFE78-.LFB78
 6160 0048 00000000 		.4byte	.LFB72
 6161 004c 3A000000 		.4byte	.LFE72-.LFB72
 6162 0050 00000000 		.4byte	.LFB66
 6163 0054 28010000 		.4byte	.LFE66-.LFB66
 6164 0058 00000000 		.4byte	.LFB67
 6165 005c C4000000 		.4byte	.LFE67-.LFB67
ARM GAS  C:\Users\cring\AppData\Local\Temp\ccSaPXYf.s 			page 120


 6166 0060 00000000 		.4byte	.LFB65
 6167 0064 0C010000 		.4byte	.LFE65-.LFB65
 6168 0068 00000000 		.4byte	.LFB79
 6169 006c 0A000000 		.4byte	.LFE79-.LFB79
 6170 0070 00000000 		.4byte	.LFB70
 6171 0074 48000000 		.4byte	.LFE70-.LFB70
 6172 0078 00000000 		.4byte	.LFB73
 6173 007c 48000000 		.4byte	.LFE73-.LFB73
 6174 0080 00000000 		.4byte	.LFB75
 6175 0084 4C000000 		.4byte	.LFE75-.LFB75
 6176 0088 00000000 		.4byte	.LFB80
 6177 008c 44000000 		.4byte	.LFE80-.LFB80
 6178 0090 00000000 		.4byte	.LFB81
 6179 0094 38000000 		.4byte	.LFE81-.LFB81
 6180 0098 00000000 		.4byte	.LFB82
 6181 009c 3C000000 		.4byte	.LFE82-.LFB82
 6182 00a0 00000000 		.4byte	.LFB83
 6183 00a4 38000000 		.4byte	.LFE83-.LFB83
 6184 00a8 00000000 		.4byte	.LFB84
 6185 00ac 24000000 		.4byte	.LFE84-.LFB84
 6186 00b0 00000000 		.4byte	.LFB85
 6187 00b4 2C000000 		.4byte	.LFE85-.LFB85
 6188 00b8 00000000 		.4byte	.LFB86
 6189 00bc 28000000 		.4byte	.LFE86-.LFB86
 6190 00c0 00000000 		.4byte	.LFB87
 6191 00c4 34010000 		.4byte	.LFE87-.LFB87
 6192 00c8 00000000 		.4byte	.LFB68
 6193 00cc 18000000 		.4byte	.LFE68-.LFB68
 6194 00d0 00000000 		.4byte	.LFB88
 6195 00d4 38000000 		.4byte	.LFE88-.LFB88
 6196 00d8 00000000 		.4byte	.LFB89
 6197 00dc 28000000 		.4byte	.LFE89-.LFB89
 6198 00e0 00000000 		.4byte	0
 6199 00e4 00000000 		.4byte	0
 6200              		.section	.debug_ranges,"",%progbits
 6201              	.Ldebug_ranges0:
 6202 0000 00000000 		.4byte	.LFB69
 6203 0004 30000000 		.4byte	.LFE69
 6204 0008 00000000 		.4byte	.LFB71
 6205 000c 54000000 		.4byte	.LFE71
 6206 0010 00000000 		.4byte	.LFB74
 6207 0014 2C000000 		.4byte	.LFE74
 6208 0018 00000000 		.4byte	.LFB76
 6209 001c 1C020000 		.4byte	.LFE76
 6210 0020 00000000 		.4byte	.LFB77
 6211 0024 54000000 		.4byte	.LFE77
 6212 0028 00000000 		.4byte	.LFB64
 6213 002c 24000000 		.4byte	.LFE64
 6214 0030 00000000 		.4byte	.LFB78
 6215 0034 32010000 		.4byte	.LFE78
 6216 0038 00000000 		.4byte	.LFB72
 6217 003c 3A000000 		.4byte	.LFE72
 6218 0040 00000000 		.4byte	.LFB66
 6219 0044 28010000 		.4byte	.LFE66
 6220 0048 00000000 		.4byte	.LFB67
 6221 004c C4000000 		.4byte	.LFE67
 6222 0050 00000000 		.4byte	.LFB65
ARM GAS  C:\Users\cring\AppData\Local\Temp\ccSaPXYf.s 			page 121


 6223 0054 0C010000 		.4byte	.LFE65
 6224 0058 00000000 		.4byte	.LFB79
 6225 005c 0A000000 		.4byte	.LFE79
 6226 0060 00000000 		.4byte	.LFB70
 6227 0064 48000000 		.4byte	.LFE70
 6228 0068 00000000 		.4byte	.LFB73
 6229 006c 48000000 		.4byte	.LFE73
 6230 0070 00000000 		.4byte	.LFB75
 6231 0074 4C000000 		.4byte	.LFE75
 6232 0078 00000000 		.4byte	.LFB80
 6233 007c 44000000 		.4byte	.LFE80
 6234 0080 00000000 		.4byte	.LFB81
 6235 0084 38000000 		.4byte	.LFE81
 6236 0088 00000000 		.4byte	.LFB82
 6237 008c 3C000000 		.4byte	.LFE82
 6238 0090 00000000 		.4byte	.LFB83
 6239 0094 38000000 		.4byte	.LFE83
 6240 0098 00000000 		.4byte	.LFB84
 6241 009c 24000000 		.4byte	.LFE84
 6242 00a0 00000000 		.4byte	.LFB85
 6243 00a4 2C000000 		.4byte	.LFE85
 6244 00a8 00000000 		.4byte	.LFB86
 6245 00ac 28000000 		.4byte	.LFE86
 6246 00b0 00000000 		.4byte	.LFB87
 6247 00b4 34010000 		.4byte	.LFE87
 6248 00b8 00000000 		.4byte	.LFB68
 6249 00bc 18000000 		.4byte	.LFE68
 6250 00c0 00000000 		.4byte	.LFB88
 6251 00c4 38000000 		.4byte	.LFE88
 6252 00c8 00000000 		.4byte	.LFB89
 6253 00cc 28000000 		.4byte	.LFE89
 6254 00d0 00000000 		.4byte	0
 6255 00d4 00000000 		.4byte	0
 6256              		.section	.debug_line,"",%progbits
 6257              	.Ldebug_line0:
 6258 0000 D7050000 		.section	.debug_str,"MS",%progbits,1
 6258      0200EA01 
 6258      00000201 
 6258      FB0E0D00 
 6258      01010101 
 6259              	.LASF22:
 6260 0000 626C7565 		.ascii	"blue1\000"
 6260      3100
 6261              	.LASF27:
 6262 0006 626C696E 		.ascii	"blink\000"
 6262      6B00
 6263              	.LASF95:
 6264 000c 4C454463 		.ascii	"LEDcontrol.c\000"
 6264      6F6E7472 
 6264      6F6C2E63 
 6264      00
 6265              	.LASF71:
 6266 0019 636F756E 		.ascii	"count3\000"
 6266      743300
 6267              	.LASF33:
 6268 0020 6D735F70 		.ascii	"ms_pulse\000"
 6268      756C7365 
ARM GAS  C:\Users\cring\AppData\Local\Temp\ccSaPXYf.s 			page 122


 6268      00
 6269              	.LASF78:
 6270 0029 6973725F 		.ascii	"isr_LED_pulse_StartEx\000"
 6270      4C45445F 
 6270      70756C73 
 6270      655F5374 
 6270      61727445 
 6271              	.LASF3:
 6272 003f 73686F72 		.ascii	"short int\000"
 6272      7420696E 
 6272      7400
 6273              	.LASF15:
 6274 0049 73697A65 		.ascii	"sizetype\000"
 6274      74797065 
 6274      00
 6275              	.LASF68:
 6276 0052 696E6465 		.ascii	"index2\000"
 6276      783200
 6277              	.LASF79:
 6278 0059 6973725F 		.ascii	"isr_BlinkLED_StartEx\000"
 6278      426C696E 
 6278      6B4C4544 
 6278      5F537461 
 6278      72744578 
 6279              	.LASF56:
 6280 006e 69646C65 		.ascii	"idleSeq\000"
 6280      53657100 
 6281              	.LASF7:
 6282 0076 6C6F6E67 		.ascii	"long long int\000"
 6282      206C6F6E 
 6282      6720696E 
 6282      7400
 6283              	.LASF65:
 6284 0084 77696E6E 		.ascii	"winnerSeq\000"
 6284      65725365 
 6284      7100
 6285              	.LASF87:
 6286 008e 54696D65 		.ascii	"Timer3_WritePeriod\000"
 6286      72335F57 
 6286      72697465 
 6286      50657269 
 6286      6F6400
 6287              	.LASF40:
 6288 00a1 47726565 		.ascii	"Green\000"
 6288      6E00
 6289              	.LASF96:
 6290 00a7 433A5C55 		.ascii	"C:\\Users\\cring\\OneDrive - Aarhus universitet\\Un"
 6290      73657273 
 6290      5C637269 
 6290      6E675C4F 
 6290      6E654472 
 6291 00d6 695C332E 		.ascii	"i\\3. Semester\\PRJ3\\KODE\\ProjektMain\\Hovedprogr"
 6291      2053656D 
 6291      65737465 
 6291      725C5052 
 6291      4A335C4B 
 6292 0104 616D2E63 		.ascii	"am.cydsn\000"
ARM GAS  C:\Users\cring\AppData\Local\Temp\ccSaPXYf.s 			page 123


 6292      7964736E 
 6292      00
 6293              	.LASF17:
 6294 010d 626C7565 		.ascii	"blue\000"
 6294      00
 6295              	.LASF77:
 6296 0112 6973725F 		.ascii	"isr_LED_ring_StartEx\000"
 6296      4C45445F 
 6296      72696E67 
 6296      5F537461 
 6296      72744578 
 6297              	.LASF28:
 6298 0127 4C454463 		.ascii	"LEDctrl\000"
 6298      74726C00 
 6299              	.LASF50:
 6300 012f 73747269 		.ascii	"strip\000"
 6300      7000
 6301              	.LASF31:
 6302 0135 73657473 		.ascii	"setspeed\000"
 6302      70656564 
 6302      00
 6303              	.LASF26:
 6304 013e 70756C73 		.ascii	"pulse\000"
 6304      6500
 6305              	.LASF98:
 6306 0144 73746172 		.ascii	"startSeq\000"
 6306      74536571 
 6306      00
 6307              	.LASF61:
 6308 014d 7267624C 		.ascii	"rgbLED_1\000"
 6308      45445F31 
 6308      00
 6309              	.LASF47:
 6310 0156 6164644C 		.ascii	"addLEDstrip\000"
 6310      45447374 
 6310      72697000 
 6311              	.LASF51:
 6312 0162 70756C73 		.ascii	"pulseLED\000"
 6312      654C4544 
 6312      00
 6313              	.LASF12:
 6314 016b 666C6F61 		.ascii	"float\000"
 6314      7400
 6315              	.LASF67:
 6316 0171 696E6465 		.ascii	"index_\000"
 6316      785F00
 6317              	.LASF37:
 6318 0178 55706461 		.ascii	"UpdateLED\000"
 6318      74654C45 
 6318      4400
 6319              	.LASF86:
 6320 0182 54696D65 		.ascii	"Timer2_WritePeriod\000"
 6320      72325F57 
 6320      72697465 
 6320      50657269 
 6320      6F6400
 6321              	.LASF25:
ARM GAS  C:\Users\cring\AppData\Local\Temp\ccSaPXYf.s 			page 124


 6322 0195 72696E67 		.ascii	"ring\000"
 6322      00
 6323              	.LASF38:
 6324 019a 6973725F 		.ascii	"isr_refreshrate\000"
 6324      72656672 
 6324      65736872 
 6324      61746500 
 6325              	.LASF36:
 6326 01aa 7267624C 		.ascii	"rgbLED\000"
 6326      454400
 6327              	.LASF13:
 6328 01b1 63686172 		.ascii	"char\000"
 6328      00
 6329              	.LASF5:
 6330 01b6 6C6F6E67 		.ascii	"long int\000"
 6330      20696E74 
 6330      00
 6331              	.LASF75:
 6332 01bf 54696D65 		.ascii	"Timer1_WritePeriod\000"
 6332      72315F57 
 6332      72697465 
 6332      50657269 
 6332      6F6400
 6333              	.LASF16:
 6334 01d2 67726565 		.ascii	"green\000"
 6334      6E00
 6335              	.LASF54:
 6336 01d8 426C696E 		.ascii	"BlinkLED\000"
 6336      6B4C4544 
 6336      00
 6337              	.LASF2:
 6338 01e1 756E7369 		.ascii	"unsigned char\000"
 6338      676E6564 
 6338      20636861 
 6338      7200
 6339              	.LASF14:
 6340 01ef 6C6F6E67 		.ascii	"long double\000"
 6340      20646F75 
 6340      626C6500 
 6341              	.LASF91:
 6342 01fb 43794465 		.ascii	"CyDelayUs\000"
 6342      6C617955 
 6342      7300
 6343              	.LASF48:
 6344 0205 4C45446C 		.ascii	"LEDlength_\000"
 6344      656E6774 
 6344      685F00
 6345              	.LASF30:
 6346 0210 696E6974 		.ascii	"initLED\000"
 6346      4C454400 
 6347              	.LASF55:
 6348 0218 4C454469 		.ascii	"LEDinitSeq\000"
 6348      6E697453 
 6348      657100
 6349              	.LASF85:
 6350 0223 54696D65 		.ascii	"Timer4_Start\000"
 6350      72345F53 
ARM GAS  C:\Users\cring\AppData\Local\Temp\ccSaPXYf.s 			page 125


 6350      74617274 
 6350      00
 6351              	.LASF1:
 6352 0230 7369676E 		.ascii	"signed char\000"
 6352      65642063 
 6352      68617200 
 6353              	.LASF8:
 6354 023c 6C6F6E67 		.ascii	"long long unsigned int\000"
 6354      206C6F6E 
 6354      6720756E 
 6354      7369676E 
 6354      65642069 
 6355              	.LASF45:
 6356 0253 6973725F 		.ascii	"isr_LED_ring\000"
 6356      4C45445F 
 6356      72696E67 
 6356      00
 6357              	.LASF9:
 6358 0260 756E7369 		.ascii	"unsigned int\000"
 6358      676E6564 
 6358      20696E74 
 6358      00
 6359              	.LASF19:
 6360 026d 67726565 		.ascii	"green2\000"
 6360      6E3200
 6361              	.LASF97:
 6362 0274 4C454463 		.ascii	"LEDctrl_\000"
 6362      74726C5F 
 6362      00
 6363              	.LASF73:
 6364 027d 7267624C 		.ascii	"rgbLED1\000"
 6364      45443100 
 6365              	.LASF74:
 6366 0285 7267624C 		.ascii	"rgbLED2\000"
 6366      45443200 
 6367              	.LASF24:
 6368 028d 4C45446C 		.ascii	"LEDlength\000"
 6368      656E6774 
 6368      6800
 6369              	.LASF43:
 6370 0297 6973725F 		.ascii	"isr_LED_pulse\000"
 6370      4C45445F 
 6370      70756C73 
 6370      6500
 6371              	.LASF46:
 6372 02a5 4C45444F 		.ascii	"LEDOff\000"
 6372      666600
 6373              	.LASF89:
 6374 02ac 5350494D 		.ascii	"SPIM_1_WriteTxData\000"
 6374      5F315F57 
 6374      72697465 
 6374      54784461 
 6374      746100
 6375              	.LASF18:
 6376 02bf 67726565 		.ascii	"green1\000"
 6376      6E3100
 6377              	.LASF39:
ARM GAS  C:\Users\cring\AppData\Local\Temp\ccSaPXYf.s 			page 126


 6378 02c6 73657463 		.ascii	"setcolorLED\000"
 6378      6F6C6F72 
 6378      4C454400 
 6379              	.LASF62:
 6380 02d2 7267624C 		.ascii	"rgbLED_2\000"
 6380      45445F32 
 6380      00
 6381              	.LASF11:
 6382 02db 696E7433 		.ascii	"int32_t\000"
 6382      325F7400 
 6383              	.LASF53:
 6384 02e3 70756C73 		.ascii	"pulselength\000"
 6384      656C656E 
 6384      67746800 
 6385              	.LASF59:
 6386 02ef 63686563 		.ascii	"checkSeq\000"
 6386      6B536571 
 6386      00
 6387              	.LASF66:
 6388 02f8 70756C73 		.ascii	"pulselength_\000"
 6388      656C656E 
 6388      6774685F 
 6388      00
 6389              	.LASF35:
 6390 0305 68737632 		.ascii	"hsv2rgb\000"
 6390      72676200 
 6391              	.LASF20:
 6392 030d 72656431 		.ascii	"red1\000"
 6392      00
 6393              	.LASF44:
 6394 0312 6973725F 		.ascii	"isr_BlinkLED\000"
 6394      426C696E 
 6394      6B4C4544 
 6394      00
 6395              	.LASF64:
 6396 031f 6572726F 		.ascii	"errorSeq\000"
 6396      72536571 
 6396      00
 6397              	.LASF90:
 6398 0328 5350494D 		.ascii	"SPIMOutCtrl_Write\000"
 6398      4F757443 
 6398      74726C5F 
 6398      57726974 
 6398      6500
 6399              	.LASF63:
 6400 033a 6973725F 		.ascii	"isr_delay\000"
 6400      64656C61 
 6400      7900
 6401              	.LASF93:
 6402 0344 54696D65 		.ascii	"Timer5_Stop\000"
 6402      72355F53 
 6402      746F7000 
 6403              	.LASF83:
 6404 0350 54696D65 		.ascii	"Timer2_Start\000"
 6404      72325F53 
 6404      74617274 
 6404      00
ARM GAS  C:\Users\cring\AppData\Local\Temp\ccSaPXYf.s 			page 127


 6405              	.LASF6:
 6406 035d 6C6F6E67 		.ascii	"long unsigned int\000"
 6406      20756E73 
 6406      69676E65 
 6406      6420696E 
 6406      7400
 6407              	.LASF49:
 6408 036f 7267624C 		.ascii	"rgbLED_\000"
 6408      45445F00 
 6409              	.LASF0:
 6410 0377 646F7562 		.ascii	"double\000"
 6410      6C6500
 6411              	.LASF80:
 6412 037e 6973725F 		.ascii	"isr_delay_StartEx\000"
 6412      64656C61 
 6412      795F5374 
 6412      61727445 
 6412      7800
 6413              	.LASF4:
 6414 0390 73686F72 		.ascii	"short unsigned int\000"
 6414      7420756E 
 6414      7369676E 
 6414      65642069 
 6414      6E7400
 6415              	.LASF42:
 6416 03a3 66696C6C 		.ascii	"fillcolor\000"
 6416      636F6C6F 
 6416      7200
 6417              	.LASF52:
 6418 03ad 72696E67 		.ascii	"ringLED\000"
 6418      4C454400 
 6419              	.LASF76:
 6420 03b5 6973725F 		.ascii	"isr_LED_refreshrate_StartEx\000"
 6420      4C45445F 
 6420      72656672 
 6420      65736872 
 6420      6174655F 
 6421              	.LASF69:
 6422 03d1 636F756E 		.ascii	"count\000"
 6422      7400
 6423              	.LASF70:
 6424 03d7 636F756E 		.ascii	"count2\000"
 6424      743200
 6425              	.LASF10:
 6426 03de 5F5F696E 		.ascii	"__int32_t\000"
 6426      7433325F 
 6426      7400
 6427              	.LASF29:
 6428 03e8 73657472 		.ascii	"setrefreshrate\000"
 6428      65667265 
 6428      73687261 
 6428      746500
 6429              	.LASF32:
 6430 03f7 6D735F72 		.ascii	"ms_ring\000"
 6430      696E6700 
 6431              	.LASF34:
 6432 03ff 6D735F62 		.ascii	"ms_blink\000"
ARM GAS  C:\Users\cring\AppData\Local\Temp\ccSaPXYf.s 			page 128


 6432      6C696E6B 
 6432      00
 6433              	.LASF81:
 6434 0408 5350494D 		.ascii	"SPIM_1_Start\000"
 6434      5F315F53 
 6434      74617274 
 6434      00
 6435              	.LASF82:
 6436 0415 54696D65 		.ascii	"Timer1_Start\000"
 6436      72315F53 
 6436      74617274 
 6436      00
 6437              	.LASF41:
 6438 0422 426C7565 		.ascii	"Blue\000"
 6438      00
 6439              	.LASF23:
 6440 0427 626C7565 		.ascii	"blue2\000"
 6440      3200
 6441              	.LASF21:
 6442 042d 72656432 		.ascii	"red2\000"
 6442      00
 6443              	.LASF72:
 6444 0432 49544D5F 		.ascii	"ITM_RxBuffer\000"
 6444      52784275 
 6444      66666572 
 6444      00
 6445              	.LASF94:
 6446 043f 474E5520 		.ascii	"GNU C11 5.4.1 20160609 (release) [ARM/embedded-5-br"
 6446      43313120 
 6446      352E342E 
 6446      31203230 
 6446      31363036 
 6447 0472 616E6368 		.ascii	"anch revision 237715] -mcpu=cortex-m3 -mthumb -g -O"
 6447      20726576 
 6447      6973696F 
 6447      6E203233 
 6447      37373135 
 6448 04a5 67202D66 		.ascii	"g -ffunction-sections -ffat-lto-objects\000"
 6448      66756E63 
 6448      74696F6E 
 6448      2D736563 
 6448      74696F6E 
 6449              	.LASF88:
 6450 04cd 54696D65 		.ascii	"Timer4_WritePeriod\000"
 6450      72345F57 
 6450      72697465 
 6450      50657269 
 6450      6F6400
 6451              	.LASF92:
 6452 04e0 54696D65 		.ascii	"Timer5_Start\000"
 6452      72355F53 
 6452      74617274 
 6452      00
 6453              	.LASF58:
 6454 04ed 7A65726F 		.ascii	"zeroCalibrateSeq\000"
 6454      43616C69 
 6454      62726174 
ARM GAS  C:\Users\cring\AppData\Local\Temp\ccSaPXYf.s 			page 129


 6454      65536571 
 6454      00
 6455              	.LASF84:
 6456 04fe 54696D65 		.ascii	"Timer3_Start\000"
 6456      72335F53 
 6456      74617274 
 6456      00
 6457              	.LASF60:
 6458 050b 77656967 		.ascii	"weightapprovedSeq\000"
 6458      68746170 
 6458      70726F76 
 6458      65645365 
 6458      7100
 6459              	.LASF57:
 6460 051d 6C6F7365 		.ascii	"loserSeq\000"
 6460      72536571 
 6460      00
 6461              		.ident	"GCC: (GNU Tools for ARM Embedded Processors) 5.4.1 20160609 (release) [ARM/embedded-5-bran
