ARM GAS  C:\Users\cring\AppData\Local\Temp\ccX2YHcQ.s 			page 1


   1              		.syntax unified
   2              		.cpu cortex-m3
   3              		.fpu softvfp
   4              		.eabi_attribute 20, 1
   5              		.eabi_attribute 21, 1
   6              		.eabi_attribute 23, 3
   7              		.eabi_attribute 24, 1
   8              		.eabi_attribute 25, 1
   9              		.eabi_attribute 26, 1
  10              		.eabi_attribute 30, 1
  11              		.eabi_attribute 34, 1
  12              		.eabi_attribute 18, 4
  13              		.thumb
  14              		.syntax unified
  15              		.file	"main.c"
  16              		.text
  17              	.Ltext0:
  18              		.cfi_sections	.debug_frame
  19              		.section	.text.main,"ax",%progbits
  20              		.align	2
  21              		.global	main
  22              		.thumb
  23              		.thumb_func
  24              		.type	main, %function
  25              	main:
  26              	.LFB64:
  27              		.file 1 "main.c"
   1:main.c        **** 
   2:main.c        **** /* ========================================
   3:main.c        ****  *
   4:main.c        ****  * Copyright YOUR COMPANY, THE YEAR
   5:main.c        ****  * All Rights Reserved
   6:main.c        ****  * UNPUBLISHED, LICENSED SOFTWARE.
   7:main.c        ****  *
   8:main.c        ****  * CONFIDENTIAL AND PROPRIETARY INFORMATION
   9:main.c        ****  * WHICH IS THE PROPERTY OF your company.
  10:main.c        ****  *
  11:main.c        ****  * ========================================
  12:main.c        **** */
  13:main.c        **** //#include "project.h"
  14:main.c        **** #include "WeightSensors_.h"
  15:main.c        **** #include "UART.h"
  16:main.c        **** #include "Display.h"
  17:main.c        **** #include "Startknap.h"
  18:main.c        **** #include "States.h"
  19:main.c        **** #include "LEDcontrol.h"
  20:main.c        **** #include "Stopur.h"
  21:main.c        **** #include "VT100Terminal.h"
  22:main.c        **** #include "SPI_Master.h"
  23:main.c        **** 
  24:main.c        **** #define debug 1
  25:main.c        **** 
  26:main.c        **** #define Display1 0x26
  27:main.c        **** #define Display2 0x27
  28:main.c        **** #define LEDlength 15
  29:main.c        **** #define LEDrefreshrate 60
  30:main.c        **** #define LCDrefreshrate 20
ARM GAS  C:\Users\cring\AppData\Local\Temp\ccX2YHcQ.s 			page 2


  31:main.c        **** 
  32:main.c        **** 
  33:main.c        **** WeightSensors  _WSptr = {.p1 = 0, .p2 = 0}; //WeightSensor Pointer
  34:main.c        **** 
  35:main.c        **** 
  36:main.c        **** // STATES.C
  37:main.c        **** 
  38:main.c        **** #define afvigelse 40   // maksimum mængde væske, der må være i glas efter spil (i gram) 
  39:main.c        **** #define afvigelse2 50 //afvigelse for sikring af tyvstart (ERR_FALSE_START)
  40:main.c        **** 
  41:main.c        **** #define delay 100
  42:main.c        **** #define nulvaegt -200
  43:main.c        **** 
  44:main.c        **** int pLoser = 0;
  45:main.c        **** int tidp1 = 0;
  46:main.c        **** int tidp2 = 0;
  47:main.c        **** 
  48:main.c        **** int cycleCountIdle = 0;
  49:main.c        **** int cycleCountEvaluatingWeight = 0;
  50:main.c        **** int cycleCountReady = 0;
  51:main.c        **** int cycleCountCountdown = 0;
  52:main.c        **** 
  53:main.c        **** int pErr = 0;
  54:main.c        **** 
  55:main.c        **** 
  56:main.c        **** //CHUG-state
  57:main.c        **** int chugp1 = 0;
  58:main.c        **** int chugp2 = 0;
  59:main.c        **** int chugstart = 0;
  60:main.c        **** 
  61:main.c        **** 
  62:main.c        **** int main(void)
  63:main.c        **** {
  28              		.loc 1 63 0
  29              		.cfi_startproc
  30              		@ args = 0, pretend = 0, frame = 2696
  31              		@ frame_needed = 0, uses_anonymous_args = 0
  32 0000 70B5     		push	{r4, r5, r6, lr}
  33              		.cfi_def_cfa_offset 16
  34              		.cfi_offset 4, -16
  35              		.cfi_offset 5, -12
  36              		.cfi_offset 6, -8
  37              		.cfi_offset 14, -4
  38 0002 ADF6882D 		subw	sp, sp, #2696
  39              		.cfi_def_cfa_offset 2712
  64:main.c        ****     CyGlobalIntEnable; /* Enable global interrupts. */
  40              		.loc 1 64 0
  41              		.syntax unified
  42              	@ 64 "main.c" 1
  43 0006 62B6     		CPSIE   i
  44              	@ 0 "" 2
  65:main.c        ****     // SPIM_1_Start();
  66:main.c        ****     isr_button_StartEx(isr_button_handler);
  45              		.loc 1 66 0
  46              		.thumb
  47              		.syntax unified
  48 0008 B748     		ldr	r0, .L81
ARM GAS  C:\Users\cring\AppData\Local\Temp\ccX2YHcQ.s 			page 3


  49 000a FFF7FEFF 		bl	isr_button_StartEx
  50              	.LVL0:
  67:main.c        ****     isr_uart_rx_StartEx(ISR_UART_rx_handler);
  51              		.loc 1 67 0
  52 000e B748     		ldr	r0, .L81+4
  53 0010 FFF7FEFF 		bl	isr_uart_rx_StartEx
  54              	.LVL1:
  68:main.c        ****     isr_timer_StartEx(isr_timer);
  55              		.loc 1 68 0
  56 0014 B648     		ldr	r0, .L81+8
  57 0016 FFF7FEFF 		bl	isr_timer_StartEx
  58              	.LVL2:
  69:main.c        ****     UART_1_Start();
  59              		.loc 1 69 0
  60 001a FFF7FEFF 		bl	UART_1_Start
  61              	.LVL3:
  70:main.c        ****     SPIS_initSPI();
  62              		.loc 1 70 0
  63 001e FFF7FEFF 		bl	SPIS_initSPI
  64              	.LVL4:
  71:main.c        ****     
  72:main.c        ****     WeightSensorsInit();
  65              		.loc 1 72 0
  66 0022 FFF7FEFF 		bl	WeightSensorsInit
  67              	.LVL5:
  73:main.c        ****     
  74:main.c        ****     LEDctrl rgbstrip1[LEDlength], rgbstrip2[LEDlength];
  75:main.c        ****     addLEDstrip(LEDlength, rgbstrip1, 1);
  68              		.loc 1 75 0
  69 0026 0122     		movs	r2, #1
  70 0028 0DF5AC61 		add	r1, sp, #1376
  71 002c 0F20     		movs	r0, #15
  72 002e FFF7FEFF 		bl	addLEDstrip
  73              	.LVL6:
  76:main.c        ****     addLEDstrip(LEDlength, rgbstrip2, 2);
  74              		.loc 1 76 0
  75 0032 0222     		movs	r2, #2
  76 0034 0EA9     		add	r1, sp, #56
  77 0036 0F20     		movs	r0, #15
  78 0038 FFF7FEFF 		bl	addLEDstrip
  79              	.LVL7:
  77:main.c        ****     initLED(LEDrefreshrate);
  80              		.loc 1 77 0
  81 003c 3C20     		movs	r0, #60
  82 003e FFF7FEFF 		bl	initLED
  83              	.LVL8:
  78:main.c        ****     initDisp(LCDrefreshrate);
  84              		.loc 1 78 0
  85 0042 1420     		movs	r0, #20
  86 0044 FFF7FEFF 		bl	initDisp
  87              	.LVL9:
  79:main.c        ****     setspeed(100, 20, 500);
  88              		.loc 1 79 0
  89 0048 4FF4FA72 		mov	r2, #500
  90 004c 1421     		movs	r1, #20
  91 004e 6420     		movs	r0, #100
  92 0050 FFF7FEFF 		bl	setspeed
ARM GAS  C:\Users\cring\AppData\Local\Temp\ccX2YHcQ.s 			page 4


  93              	.LVL10:
  80:main.c        ****     
  81:main.c        ****     clearTerm(40);
  94              		.loc 1 81 0
  95 0054 2820     		movs	r0, #40
  96 0056 FFF7FEFF 		bl	clearTerm
  97              	.LVL11:
  82:main.c        ****     
  83:main.c        ****     states CURRENT_STATE = IDLE;
  84:main.c        ****     states NEXT_STATE = IDLE;
  85:main.c        ****     BPptr.ButtonPushed = 0;
  98              		.loc 1 85 0
  99 005a 0024     		movs	r4, #0
 100 005c A54B     		ldr	r3, .L81+12
 101 005e 1C60     		str	r4, [r3]
  86:main.c        ****     
  87:main.c        ****     UARTprint("1", "MAIN START\r\n");
 102              		.loc 1 87 0
 103 0060 A549     		ldr	r1, .L81+16
 104 0062 A648     		ldr	r0, .L81+20
 105 0064 FFF7FEFF 		bl	UARTprint
 106              	.LVL12:
  88:main.c        ****     CalibrateSensors();
 107              		.loc 1 88 0
 108 0068 FFF7FEFF 		bl	CalibrateSensors
 109              	.LVL13:
  89:main.c        ****     
  90:main.c        ****     if(debug)
  91:main.c        ****     {
  92:main.c        ****         stopLCD(1);
 110              		.loc 1 92 0
 111 006c 0120     		movs	r0, #1
 112 006e FFF7FEFF 		bl	stopLCD
 113              	.LVL14:
  93:main.c        ****         stopLCD(2);
 114              		.loc 1 93 0
 115 0072 0220     		movs	r0, #2
 116 0074 FFF7FEFF 		bl	stopLCD
 117              	.LVL15:
 118 0078 00E0     		b	.L2
 119              	.LVL16:
 120              	.L47:
  63:main.c        ****     CyGlobalIntEnable; /* Enable global interrupts. */
 121              		.loc 1 63 0
 122 007a 2C46     		mov	r4, r5
 123              	.LVL17:
 124              	.L2:
  94:main.c        ****     }
  95:main.c        ****     
  96:main.c        ****     
  97:main.c        ****     for(;;)
  98:main.c        ****     {
  99:main.c        ****        CURRENT_STATE = NEXT_STATE;
 100:main.c        ****         
 101:main.c        **** //-----------------------------------STATE LOGIC-----------------------------------//
 102:main.c        ****         switch(CURRENT_STATE)
 125              		.loc 1 102 0
ARM GAS  C:\Users\cring\AppData\Local\Temp\ccX2YHcQ.s 			page 5


 126 007c 132C     		cmp	r4, #19
 127 007e 00F29981 		bhi	.L3
 128 0082 DFE814F0 		tbh	[pc, r4, lsl #1]
 129              	.L5:
 130 0086 1400     		.2byte	(.L4-.L5)/2
 131 0088 2700     		.2byte	(.L6-.L5)/2
 132 008a 2D00     		.2byte	(.L7-.L5)/2
 133 008c 6100     		.2byte	(.L8-.L5)/2
 134 008e 7C00     		.2byte	(.L9-.L5)/2
 135 0090 A300     		.2byte	(.L10-.L5)/2
 136 0092 F900     		.2byte	(.L11-.L5)/2
 137 0094 FF00     		.2byte	(.L12-.L5)/2
 138 0096 2501     		.2byte	(.L13-.L5)/2
 139 0098 2B01     		.2byte	(.L14-.L5)/2
 140 009a 9701     		.2byte	(.L3-.L5)/2
 141 009c 9701     		.2byte	(.L3-.L5)/2
 142 009e 9701     		.2byte	(.L3-.L5)/2
 143 00a0 9701     		.2byte	(.L3-.L5)/2
 144 00a2 5701     		.2byte	(.L15-.L5)/2
 145 00a4 6401     		.2byte	(.L16-.L5)/2
 146 00a6 6A01     		.2byte	(.L17-.L5)/2
 147 00a8 7401     		.2byte	(.L18-.L5)/2
 148 00aa 8701     		.2byte	(.L19-.L5)/2
 149 00ac 9101     		.2byte	(.L20-.L5)/2
 150              		.p2align 1
 151              	.L4:
 103:main.c        ****         {
 104:main.c        ****         
 105:main.c        ****         case IDLE:
 106:main.c        ****             {
 107:main.c        ****                 UARTprint("3", "NSL - IDLE\r\n");
 152              		.loc 1 107 0
 153 00ae 9449     		ldr	r1, .L81+24
 154 00b0 9448     		ldr	r0, .L81+28
 155 00b2 FFF7FEFF 		bl	UARTprint
 156              	.LVL18:
 108:main.c        ****                 
 109:main.c        ****                 if(BPptr.ButtonPushed == 1)                //hvis startknap 
 157              		.loc 1 109 0
 158 00b6 8F4B     		ldr	r3, .L81+12
 159 00b8 1B68     		ldr	r3, [r3]
 160 00ba 012B     		cmp	r3, #1
 161 00bc 40F08081 		bne	.L60
 162              	.LVL19:
 110:main.c        ****                 {                               
 111:main.c        ****                     NEXT_STATE =  EVALUATING_WEIGHT; //state -> Evaluating Weight  
 112:main.c        ****                     BPptr.ButtonPushed = 0;
 163              		.loc 1 112 0
 164 00c0 0022     		movs	r2, #0
 165 00c2 8C4B     		ldr	r3, .L81+12
 166 00c4 1A60     		str	r2, [r3]
 113:main.c        ****                     CalibrateSensors();
 167              		.loc 1 113 0
 168 00c6 FFF7FEFF 		bl	CalibrateSensors
 169              	.LVL20:
 114:main.c        ****                     CyDelay(100);
 170              		.loc 1 114 0
ARM GAS  C:\Users\cring\AppData\Local\Temp\ccX2YHcQ.s 			page 6


 171 00ca 6420     		movs	r0, #100
 172 00cc FFF7FEFF 		bl	CyDelay
 173              	.LVL21:
 111:main.c        ****                     BPptr.ButtonPushed = 0;
 174              		.loc 1 111 0
 175 00d0 0225     		movs	r5, #2
 176 00d2 96E1     		b	.L21
 177              	.LVL22:
 178              	.L6:
 115:main.c        ****                 }
 116:main.c        ****             
 117:main.c        ****                 else
 118:main.c        ****                 {   
 119:main.c        ****                     NEXT_STATE = IDLE;               //ellers bliv her
 120:main.c        ****                 }
 121:main.c        ****             }
 122:main.c        ****             break;
 123:main.c        ****            
 124:main.c        ****         case GOING_IDLE :
 125:main.c        ****             {
 126:main.c        ****                 UARTprint("3", "NSL - GOING_IDLE\r\n");
 179              		.loc 1 126 0
 180 00d4 8C49     		ldr	r1, .L81+32
 181 00d6 8B48     		ldr	r0, .L81+28
 182 00d8 FFF7FEFF 		bl	UARTprint
 183              	.LVL23:
 127:main.c        ****                 
 128:main.c        ****                 NEXT_STATE = IDLE;                   //state -> Idle
 184              		.loc 1 128 0
 185 00dc 0025     		movs	r5, #0
 129:main.c        ****             }
 130:main.c        ****             break;
 186              		.loc 1 130 0
 187 00de 90E1     		b	.L21
 188              	.LVL24:
 189              	.L7:
 190              	.LBB2:
 131:main.c        ****             
 132:main.c        ****         case EVALUATING_WEIGHT :
 133:main.c        ****             {
 134:main.c        ****                 //CyDelay(100);
 135:main.c        ****                 UARTprint("3", "NSL - EVALUATING_WEIGHT\r\n");
 191              		.loc 1 135 0
 192 00e0 8A49     		ldr	r1, .L81+36
 193 00e2 8848     		ldr	r0, .L81+28
 194 00e4 FFF7FEFF 		bl	UARTprint
 195              	.LVL25:
 136:main.c        ****                 
 137:main.c        ****                 
 138:main.c        ****                 
 139:main.c        ****                 int Weight = CompareWeight();
 196              		.loc 1 139 0
 197 00e8 FFF7FEFF 		bl	CompareWeight
 198              	.LVL26:
 199 00ec 0646     		mov	r6, r0
 200              	.LVL27:
 201              	.LBB3:
ARM GAS  C:\Users\cring\AppData\Local\Temp\ccX2YHcQ.s 			page 7


 140:main.c        ****                 
 141:main.c        ****                 if(debug)
 142:main.c        ****                 {
 143:main.c        ****                     char buf[50];
 144:main.c        ****                     sprintf(buf, "Weight: %li     ", getCalWeightDebug(1));
 202              		.loc 1 144 0
 203 00ee 0120     		movs	r0, #1
 204              	.LVL28:
 205 00f0 FFF7FEFF 		bl	getCalWeightDebug
 206              	.LVL29:
 207 00f4 864D     		ldr	r5, .L81+40
 208 00f6 0246     		mov	r2, r0
 209 00f8 2946     		mov	r1, r5
 210 00fa 01A8     		add	r0, sp, #4
 211 00fc FFF7FEFF 		bl	sprintf
 212              	.LVL30:
 145:main.c        ****                     printDisp(1, buf, 1);
 213              		.loc 1 145 0
 214 0100 0122     		movs	r2, #1
 215 0102 01A9     		add	r1, sp, #4
 216 0104 1046     		mov	r0, r2
 217 0106 FFF7FEFF 		bl	printDisp
 218              	.LVL31:
 146:main.c        ****                     
 147:main.c        ****                     sprintf(buf, "Weight: %li     ", getCalWeightDebug(2));
 219              		.loc 1 147 0
 220 010a 0220     		movs	r0, #2
 221 010c FFF7FEFF 		bl	getCalWeightDebug
 222              	.LVL32:
 223 0110 0246     		mov	r2, r0
 224 0112 2946     		mov	r1, r5
 225 0114 01A8     		add	r0, sp, #4
 226 0116 FFF7FEFF 		bl	sprintf
 227              	.LVL33:
 148:main.c        ****                     printDisp(1, buf, 2);
 228              		.loc 1 148 0
 229 011a 0222     		movs	r2, #2
 230 011c 01A9     		add	r1, sp, #4
 231 011e 0120     		movs	r0, #1
 232 0120 FFF7FEFF 		bl	printDisp
 233              	.LVL34:
 234              	.LBE3:
 149:main.c        ****                     
 150:main.c        ****                 }
 151:main.c        ****                 if (Weight == 1)       //hvis vægten passer
 235              		.loc 1 151 0
 236 0124 012E     		cmp	r6, #1
 237 0126 00F04D81 		beq	.L61
 152:main.c        ****                 {
 153:main.c        ****                     NEXT_STATE = READY;
 154:main.c        ****                 }
 155:main.c        ****                 else if (Weight != 1)  //hvis vægten ikke passer p1>p2
 238              		.loc 1 155 0
 239 012a 40F04D81 		bne	.L62
 156:main.c        ****                 {
 157:main.c        ****                     NEXT_STATE = ERR_WEIGHT;
 158:main.c        ****                 }
ARM GAS  C:\Users\cring\AppData\Local\Temp\ccX2YHcQ.s 			page 8


 159:main.c        ****                 else if (BPptr.ButtonPushed == 1)
 240              		.loc 1 159 0
 241 012e 714B     		ldr	r3, .L81+12
 242 0130 1B68     		ldr	r3, [r3]
 243 0132 012B     		cmp	r3, #1
 244 0134 40F04A81 		bne	.L63
 245              	.LVL35:
 160:main.c        ****                 {
 161:main.c        ****                     NEXT_STATE = GOING_IDLE;
 162:main.c        ****                     BPptr.ButtonPushed = 0;
 246              		.loc 1 162 0
 247 0138 0022     		movs	r2, #0
 248 013a 6E4B     		ldr	r3, .L81+12
 249 013c 1A60     		str	r2, [r3]
 163:main.c        ****                     CyDelay(100);
 250              		.loc 1 163 0
 251 013e 6420     		movs	r0, #100
 252 0140 FFF7FEFF 		bl	CyDelay
 253              	.LVL36:
 161:main.c        ****                     BPptr.ButtonPushed = 0;
 254              		.loc 1 161 0
 255 0144 0125     		movs	r5, #1
 256 0146 5CE1     		b	.L21
 257              	.LVL37:
 258              	.L8:
 259              	.LBE2:
 164:main.c        ****                 }
 165:main.c        ****                 else 
 166:main.c        ****                     NEXT_STATE = EVALUATING_WEIGHT;
 167:main.c        ****                 
 168:main.c        ****             }
 169:main.c        ****             break;
 170:main.c        ****             
 171:main.c        ****         case READY :
 172:main.c        ****             {
 173:main.c        ****                 UARTprint("3", "NSL - READY\r\n");
 260              		.loc 1 173 0
 261 0148 7249     		ldr	r1, .L81+44
 262 014a 6E48     		ldr	r0, .L81+28
 263 014c FFF7FEFF 		bl	UARTprint
 264              	.LVL38:
 174:main.c        ****                 
 175:main.c        ****                 if (timeout() == 1)
 265              		.loc 1 175 0
 266 0150 FFF7FEFF 		bl	timeout
 267              	.LVL39:
 268 0154 0028     		cmp	r0, #0
 269 0156 40F03B81 		bne	.L64
 176:main.c        ****                 {
 177:main.c        ****                     NEXT_STATE=ERR_NO_START;
 178:main.c        ****                 }
 179:main.c        ****                 else if (BPptr.ButtonPushed == 1 && timeout()!=1) //hvis startknap -> Countdown
 270              		.loc 1 179 0
 271 015a 664B     		ldr	r3, .L81+12
 272 015c 1B68     		ldr	r3, [r3]
 273 015e 012B     		cmp	r3, #1
 274 0160 40F03881 		bne	.L65
ARM GAS  C:\Users\cring\AppData\Local\Temp\ccX2YHcQ.s 			page 9


 275              		.loc 1 179 0 is_stmt 0 discriminator 1
 276 0164 FFF7FEFF 		bl	timeout
 277              	.LVL40:
 278 0168 0028     		cmp	r0, #0
 279 016a 40F03581 		bne	.L66
 280              	.LVL41:
 180:main.c        ****                 {
 181:main.c        ****                     NEXT_STATE = COUNTDOWN;
 182:main.c        ****                     BPptr.ButtonPushed = 0;
 281              		.loc 1 182 0 is_stmt 1
 282 016e 0022     		movs	r2, #0
 283 0170 604B     		ldr	r3, .L81+12
 284 0172 1A60     		str	r2, [r3]
 183:main.c        ****                     CyDelay(100);
 285              		.loc 1 183 0
 286 0174 6420     		movs	r0, #100
 287 0176 FFF7FEFF 		bl	CyDelay
 288              	.LVL42:
 181:main.c        ****                     BPptr.ButtonPushed = 0;
 289              		.loc 1 181 0
 290 017a 0425     		movs	r5, #4
 291              		.loc 1 183 0
 292 017c 41E1     		b	.L21
 293              	.LVL43:
 294              	.L9:
 295              	.LBB4:
 184:main.c        ****                 }
 185:main.c        ****                 else 
 186:main.c        ****                 {
 187:main.c        ****                     NEXT_STATE = READY;
 188:main.c        ****                 }    
 189:main.c        ****             }
 190:main.c        ****             break;
 191:main.c        ****             
 192:main.c        ****         case COUNTDOWN :
 193:main.c        ****             {
 194:main.c        ****                 UARTprint("3", "NSL - COUTNDOWN\r\n");
 296              		.loc 1 194 0
 297 017e 6649     		ldr	r1, .L81+48
 298 0180 6048     		ldr	r0, .L81+28
 299 0182 FFF7FEFF 		bl	UARTprint
 300              	.LVL44:
 195:main.c        ****                 
 196:main.c        ****                 
 197:main.c        ****                 int startseq = startSeq(rgbstrip1,rgbstrip2);
 301              		.loc 1 197 0
 302 0186 0EA9     		add	r1, sp, #56
 303 0188 0DF5AC60 		add	r0, sp, #1376
 304 018c FFF7FEFF 		bl	startSeq
 305              	.LVL45:
 198:main.c        ****                 if (startseq == 1)
 306              		.loc 1 198 0
 307 0190 0128     		cmp	r0, #1
 308 0192 00F02381 		beq	.L67
 199:main.c        ****                 {
 200:main.c        ****                     NEXT_STATE = CHUG;
 201:main.c        ****                 }
ARM GAS  C:\Users\cring\AppData\Local\Temp\ccX2YHcQ.s 			page 10


 202:main.c        ****                 else if (/*startseq != 1 &&*/ getCalWeight(1) < _WSptr.p1cal + afvigelse2)
 309              		.loc 1 202 0
 310 0196 0120     		movs	r0, #1
 311              	.LVL46:
 312 0198 FFF7FEFF 		bl	getCalWeight
 313              	.LVL47:
 314 019c 5F4B     		ldr	r3, .L81+52
 315 019e 1B69     		ldr	r3, [r3, #16]
 316 01a0 3233     		adds	r3, r3, #50
 317 01a2 9842     		cmp	r0, r3
 318 01a4 04DA     		bge	.L22
 203:main.c        ****                 {
 204:main.c        ****                     pErr = 1; //player1 error
 319              		.loc 1 204 0
 320 01a6 0122     		movs	r2, #1
 321 01a8 5C4B     		ldr	r3, .L81+52
 322 01aa DA61     		str	r2, [r3, #28]
 323              	.LVL48:
 205:main.c        ****                     NEXT_STATE = ERR_FALSE_START;
 324              		.loc 1 205 0
 325 01ac 1125     		movs	r5, #17
 326 01ae 28E1     		b	.L21
 327              	.LVL49:
 328              	.L22:
 206:main.c        ****                 }
 207:main.c        ****                 else if (/*startseq != 1 && */ getCalWeight(2) < _WSptr.p2cal + afvigelse2)
 329              		.loc 1 207 0
 330 01b0 0220     		movs	r0, #2
 331 01b2 FFF7FEFF 		bl	getCalWeight
 332              	.LVL50:
 333 01b6 594B     		ldr	r3, .L81+52
 334 01b8 5B69     		ldr	r3, [r3, #20]
 335 01ba 3233     		adds	r3, r3, #50
 336 01bc 9842     		cmp	r0, r3
 337 01be 80F20F81 		bge	.L68
 208:main.c        ****                 {
 209:main.c        ****                     pErr = 2; //player1 error
 338              		.loc 1 209 0
 339 01c2 0222     		movs	r2, #2
 340 01c4 554B     		ldr	r3, .L81+52
 341 01c6 DA61     		str	r2, [r3, #28]
 342              	.LVL51:
 210:main.c        ****                     NEXT_STATE = ERR_FALSE_START;
 343              		.loc 1 210 0
 344 01c8 1125     		movs	r5, #17
 345 01ca 1AE1     		b	.L21
 346              	.LVL52:
 347              	.L10:
 348              	.LBE4:
 211:main.c        ****                 }
 212:main.c        ****                 
 213:main.c        ****             }
 214:main.c        ****             break;
 215:main.c        ****             
 216:main.c        ****         case CHUG:
 217:main.c        ****             {
 218:main.c        ****                 UARTprint("3", "NSL - CHUG\r\n");
ARM GAS  C:\Users\cring\AppData\Local\Temp\ccX2YHcQ.s 			page 11


 349              		.loc 1 218 0
 350 01cc 5449     		ldr	r1, .L81+56
 351 01ce 4D48     		ldr	r0, .L81+28
 352 01d0 FFF7FEFF 		bl	UARTprint
 353              	.LVL53:
 219:main.c        ****                 
 220:main.c        ****                 if(getCalWeight(1) < nulvaegt) //hvis spiller 1 glas er løftet
 354              		.loc 1 220 0
 355 01d4 0120     		movs	r0, #1
 356 01d6 FFF7FEFF 		bl	getCalWeight
 357              	.LVL54:
 358 01da 10F1C80F 		cmn	r0, #200
 359 01de 05DA     		bge	.L23
 221:main.c        ****                 { 
 222:main.c        ****                     chugp1 = 1;
 360              		.loc 1 222 0
 361 01e0 0122     		movs	r2, #1
 362 01e2 4E4B     		ldr	r3, .L81+52
 363 01e4 1A62     		str	r2, [r3, #32]
 223:main.c        ****                     CyDelay(delay);
 364              		.loc 1 223 0
 365 01e6 6420     		movs	r0, #100
 366 01e8 FFF7FEFF 		bl	CyDelay
 367              	.LVL55:
 368              	.L23:
 224:main.c        ****                 }
 225:main.c        ****                     if(chugp1 == 1)
 369              		.loc 1 225 0
 370 01ec 4B4B     		ldr	r3, .L81+52
 371 01ee 1B6A     		ldr	r3, [r3, #32]
 372 01f0 012B     		cmp	r3, #1
 373 01f2 14D1     		bne	.L69
 226:main.c        ****                     {
 227:main.c        ****                         if(getCalWeight(1) > nulvaegt ){
 374              		.loc 1 227 0
 375 01f4 0120     		movs	r0, #1
 376 01f6 FFF7FEFF 		bl	getCalWeight
 377              	.LVL56:
 378 01fa 10F1C70F 		cmn	r0, #199
 379 01fe 10DB     		blt	.L70
 228:main.c        ****                     
 229:main.c        ****                             if((afvigelse) >= getCalWeight(1)) //Her skal det erklæres hvilken af 
 380              		.loc 1 229 0
 381 0200 0120     		movs	r0, #1
 382 0202 FFF7FEFF 		bl	getCalWeight
 383              	.LVL57:
 384 0206 2828     		cmp	r0, #40
 385 0208 04DC     		bgt	.L25
 230:main.c        ****                             {
 231:main.c        ****                                 pLoser = 2; //player2 taber
 386              		.loc 1 231 0
 387 020a 0222     		movs	r2, #2
 388 020c 434B     		ldr	r3, .L81+52
 389 020e 5A62     		str	r2, [r3, #36]
 390              	.LVL58:
 232:main.c        ****                                 NEXT_STATE = WINNER_DONE; 
 391              		.loc 1 232 0
ARM GAS  C:\Users\cring\AppData\Local\Temp\ccX2YHcQ.s 			page 12


 392 0210 0625     		movs	r5, #6
 393 0212 09E0     		b	.L24
 394              	.LVL59:
 395              	.L25:
 233:main.c        ****                                         
 234:main.c        ****                             }
 235:main.c        ****                             else if((timeout()==1))
 396              		.loc 1 235 0
 397 0214 FFF7FEFF 		bl	timeout
 398              	.LVL60:
 399 0218 28B9     		cbnz	r0, .L71
 400 021a 2546     		mov	r5, r4
 401 021c 04E0     		b	.L24
 402              	.L69:
 403 021e 2546     		mov	r5, r4
 404 0220 02E0     		b	.L24
 405              	.L70:
 406 0222 2546     		mov	r5, r4
 407 0224 00E0     		b	.L24
 408              	.L71:
 236:main.c        ****                             {
 237:main.c        ****                                 NEXT_STATE = ERR_TIMEOUT;
 409              		.loc 1 237 0
 410 0226 1225     		movs	r5, #18
 411              	.LVL61:
 412              	.L24:
 238:main.c        ****                             }
 239:main.c        ****                         }
 240:main.c        ****                     }
 241:main.c        ****                     
 242:main.c        ****                 if (getCalWeight(2) < nulvaegt) //hvis spiller 2 glas er løftet
 413              		.loc 1 242 0
 414 0228 0220     		movs	r0, #2
 415 022a FFF7FEFF 		bl	getCalWeight
 416              	.LVL62:
 417 022e 10F1C80F 		cmn	r0, #200
 418 0232 05DA     		bge	.L26
 243:main.c        ****                 { 
 244:main.c        ****                     chugp2 = 1;  
 419              		.loc 1 244 0
 420 0234 0122     		movs	r2, #1
 421 0236 394B     		ldr	r3, .L81+52
 422 0238 9A62     		str	r2, [r3, #40]
 245:main.c        ****                     CyDelay(delay);
 423              		.loc 1 245 0
 424 023a 6420     		movs	r0, #100
 425 023c FFF7FEFF 		bl	CyDelay
 426              	.LVL63:
 427              	.L26:
 246:main.c        ****                 }
 247:main.c        ****                     if(chugp2 == 1)
 428              		.loc 1 247 0
 429 0240 364B     		ldr	r3, .L81+52
 430 0242 9B6A     		ldr	r3, [r3, #40]
 431 0244 012B     		cmp	r3, #1
 432 0246 40F0DC80 		bne	.L21
 248:main.c        ****                     {
ARM GAS  C:\Users\cring\AppData\Local\Temp\ccX2YHcQ.s 			page 13


 249:main.c        ****                         if(getCalWeight(2) > nulvaegt)
 433              		.loc 1 249 0
 434 024a 0220     		movs	r0, #2
 435 024c FFF7FEFF 		bl	getCalWeight
 436              	.LVL64:
 437 0250 10F1C70F 		cmn	r0, #199
 438 0254 C0F2D580 		blt	.L21
 250:main.c        ****                         {
 251:main.c        ****                         
 252:main.c        ****                             if ((afvigelse) >= getCalWeight(2)) //hvis spiller2 vinder, sættes p1-
 439              		.loc 1 252 0
 440 0258 0220     		movs	r0, #2
 441 025a FFF7FEFF 		bl	getCalWeight
 442              	.LVL65:
 443 025e 2828     		cmp	r0, #40
 444 0260 04DC     		bgt	.L27
 253:main.c        ****                             {
 254:main.c        ****                                 pLoser = 1; //player 1 taber
 445              		.loc 1 254 0
 446 0262 0122     		movs	r2, #1
 447 0264 2D4B     		ldr	r3, .L81+52
 448 0266 5A62     		str	r2, [r3, #36]
 449              	.LVL66:
 255:main.c        ****                                 NEXT_STATE = WINNER_DONE;
 450              		.loc 1 255 0
 451 0268 0625     		movs	r5, #6
 452 026a CAE0     		b	.L21
 453              	.LVL67:
 454              	.L27:
 256:main.c        ****                             }
 257:main.c        ****                             else if(timeout()==1)
 455              		.loc 1 257 0
 456 026c FFF7FEFF 		bl	timeout
 457              	.LVL68:
 458 0270 0028     		cmp	r0, #0
 459 0272 40F0B780 		bne	.L72
 460 0276 C4E0     		b	.L21
 461              	.LVL69:
 462              	.L11:
 258:main.c        ****                             {
 259:main.c        ****                                 NEXT_STATE = ERR_TIMEOUT;
 260:main.c        ****                             }
 261:main.c        ****                         }      
 262:main.c        ****                     }
 263:main.c        ****             }
 264:main.c        ****             break;    
 265:main.c        ****             
 266:main.c        ****         case WINNER_DONE:
 267:main.c        ****             {
 268:main.c        ****                 UARTprint("3", "NSL - WINNER_DONE\r\n");
 463              		.loc 1 268 0
 464 0278 2A49     		ldr	r1, .L81+60
 465 027a 2248     		ldr	r0, .L81+28
 466 027c FFF7FEFF 		bl	UARTprint
 467              	.LVL70:
 269:main.c        ****                 
 270:main.c        ****                 NEXT_STATE = EVALUATING_NEW_WEIGHT;       
ARM GAS  C:\Users\cring\AppData\Local\Temp\ccX2YHcQ.s 			page 14


 468              		.loc 1 270 0
 469 0280 0725     		movs	r5, #7
 271:main.c        ****             }
 272:main.c        ****             break;
 470              		.loc 1 272 0
 471 0282 BEE0     		b	.L21
 472              	.LVL71:
 473              	.L12:
 273:main.c        ****             
 274:main.c        ****         case EVALUATING_NEW_WEIGHT:
 275:main.c        ****             {
 276:main.c        ****                 UARTprint("3", "NSL - EVALUATING_NEW_WEIGHT\r\n");
 474              		.loc 1 276 0
 475 0284 2849     		ldr	r1, .L81+64
 476 0286 1F48     		ldr	r0, .L81+28
 477 0288 FFF7FEFF 		bl	UARTprint
 478              	.LVL72:
 277:main.c        ****                 
 278:main.c        ****                 if (getCalWeight(2) < nulvaegt) //hvis spiller 2 glas er løftet
 479              		.loc 1 278 0
 480 028c 0220     		movs	r0, #2
 481 028e FFF7FEFF 		bl	getCalWeight
 482              	.LVL73:
 483 0292 10F1C80F 		cmn	r0, #200
 484 0296 02DA     		bge	.L28
 279:main.c        ****                 { 
 280:main.c        ****                     chugp2 = 1;   
 485              		.loc 1 280 0
 486 0298 0122     		movs	r2, #1
 487 029a 204B     		ldr	r3, .L81+52
 488 029c 9A62     		str	r2, [r3, #40]
 489              	.L28:
 281:main.c        ****                 }
 282:main.c        ****                     if(chugp2 == 1)
 490              		.loc 1 282 0
 491 029e 1F4B     		ldr	r3, .L81+52
 492 02a0 9B6A     		ldr	r3, [r3, #40]
 493 02a2 012B     		cmp	r3, #1
 494 02a4 40F0A080 		bne	.L73
 283:main.c        ****                     {
 284:main.c        ****                         if((getCalWeight(pLoser) > nulvaegt))
 495              		.loc 1 284 0
 496 02a8 1C4B     		ldr	r3, .L81+52
 497 02aa 586A     		ldr	r0, [r3, #36]
 498 02ac FFF7FEFF 		bl	getCalWeight
 499              	.LVL74:
 500 02b0 10F1C70F 		cmn	r0, #199
 501 02b4 C0F29A80 		blt	.L74
 285:main.c        ****                         {
 286:main.c        ****                             CyDelay(delay); //vent med at læse til efter inital impact
 502              		.loc 1 286 0
 503 02b8 6420     		movs	r0, #100
 504 02ba FFF7FEFF 		bl	CyDelay
 505              	.LVL75:
 287:main.c        ****                             if (getCalWeight(pLoser) <= afvigelse)
 506              		.loc 1 287 0
 507 02be 174B     		ldr	r3, .L81+52
ARM GAS  C:\Users\cring\AppData\Local\Temp\ccX2YHcQ.s 			page 15


 508 02c0 586A     		ldr	r0, [r3, #36]
 509 02c2 FFF7FEFF 		bl	getCalWeight
 510              	.LVL76:
 511 02c6 2828     		cmp	r0, #40
 512 02c8 00F39280 		bgt	.L75
 288:main.c        ****                             {
 289:main.c        ****                                 NEXT_STATE = LOSER_DONE;
 513              		.loc 1 289 0
 514 02cc 0825     		movs	r5, #8
 515 02ce 98E0     		b	.L21
 516              	.L13:
 290:main.c        ****                             }
 291:main.c        ****                              else
 292:main.c        ****                             {
 293:main.c        ****                                 NEXT_STATE = ERR_NOCHUG;
 294:main.c        ****                             }
 295:main.c        ****                         }
 296:main.c        ****                         else
 297:main.c        ****                         {
 298:main.c        ****                             NEXT_STATE = EVALUATING_NEW_WEIGHT;
 299:main.c        ****                         }
 300:main.c        ****                     }
 301:main.c        ****                
 302:main.c        ****             }   
 303:main.c        ****             break;
 304:main.c        ****             
 305:main.c        ****         case LOSER_DONE:
 306:main.c        ****             {
 307:main.c        ****                 UARTprint("3", "NSL - LOSER_DONE\r\n");
 517              		.loc 1 307 0
 518 02d0 1649     		ldr	r1, .L81+68
 519 02d2 0C48     		ldr	r0, .L81+28
 520 02d4 FFF7FEFF 		bl	UARTprint
 521              	.LVL77:
 308:main.c        ****                 
 309:main.c        ****                 NEXT_STATE = WEIGHT_CONFIRMED;
 522              		.loc 1 309 0
 523 02d8 0925     		movs	r5, #9
 310:main.c        ****             }  
 311:main.c        ****             break;
 524              		.loc 1 311 0
 525 02da 92E0     		b	.L21
 526              	.LVL78:
 527              	.L14:
 312:main.c        ****             
 313:main.c        ****         case WEIGHT_CONFIRMED:
 314:main.c        ****             {
 315:main.c        ****                 UARTprint("3", "NSL - WEIGHT_CONFIRMED\r\n");
 528              		.loc 1 315 0
 529 02dc 1449     		ldr	r1, .L81+72
 530 02de 0948     		ldr	r0, .L81+28
 531 02e0 FFF7FEFF 		bl	UARTprint
 532              	.LVL79:
 316:main.c        ****                 
 317:main.c        ****                 NEXT_STATE = GAME_OVER;
 533              		.loc 1 317 0
 534 02e4 0E25     		movs	r5, #14
ARM GAS  C:\Users\cring\AppData\Local\Temp\ccX2YHcQ.s 			page 16


 318:main.c        ****             }    
 319:main.c        ****             break;
 535              		.loc 1 319 0
 536 02e6 8CE0     		b	.L21
 537              	.L82:
 538              		.align	2
 539              	.L81:
 540 02e8 00000000 		.word	isr_button_handler
 541 02ec 00000000 		.word	ISR_UART_rx_handler
 542 02f0 00000000 		.word	isr_timer
 543 02f4 00000000 		.word	BPptr
 544 02f8 00000000 		.word	.LC0
 545 02fc 10000000 		.word	.LC1
 546 0300 14000000 		.word	.LC2
 547 0304 24000000 		.word	.LC3
 548 0308 28000000 		.word	.LC4
 549 030c 3C000000 		.word	.LC5
 550 0310 58000000 		.word	.LC6
 551 0314 6C000000 		.word	.LC7
 552 0318 7C000000 		.word	.LC8
 553 031c 00000000 		.word	.LANCHOR0
 554 0320 90000000 		.word	.LC9
 555 0324 A0000000 		.word	.LC10
 556 0328 B4000000 		.word	.LC11
 557 032c D4000000 		.word	.LC12
 558 0330 E8000000 		.word	.LC13
 559              	.LVL80:
 560              	.L15:
 320:main.c        ****             
 321:main.c        ****         case GAME_OVER:
 322:main.c        ****             {
 323:main.c        ****                 UARTprint("3", "NSL - GAME_OVER\r\n");
 561              		.loc 1 323 0
 562 0334 9949     		ldr	r1, .L83
 563 0336 9A48     		ldr	r0, .L83+4
 564 0338 FFF7FEFF 		bl	UARTprint
 565              	.LVL81:
 324:main.c        ****                 
 325:main.c        ****                 if (BPptr.ButtonPushed != 0)
 566              		.loc 1 325 0
 567 033c 994B     		ldr	r3, .L83+8
 568 033e 1B68     		ldr	r3, [r3]
 569 0340 002B     		cmp	r3, #0
 570 0342 57D0     		beq	.L76
 571              	.LVL82:
 326:main.c        ****                 {
 327:main.c        ****                     NEXT_STATE = GOING_IDLE;
 328:main.c        ****                     BPptr.ButtonPushed = 0;
 572              		.loc 1 328 0
 573 0344 0022     		movs	r2, #0
 574 0346 974B     		ldr	r3, .L83+8
 575 0348 1A60     		str	r2, [r3]
 327:main.c        ****                     BPptr.ButtonPushed = 0;
 576              		.loc 1 327 0
 577 034a 0125     		movs	r5, #1
 578 034c 59E0     		b	.L21
 579              	.LVL83:
ARM GAS  C:\Users\cring\AppData\Local\Temp\ccX2YHcQ.s 			page 17


 580              	.L16:
 329:main.c        ****                 }
 330:main.c        ****                 else 
 331:main.c        ****                 NEXT_STATE = GAME_OVER;
 332:main.c        ****             }
 333:main.c        ****             break;
 334:main.c        **** 
 335:main.c        ****             // ------------------------------------ERR STATES--------------------------------------
 336:main.c        ****             
 337:main.c        ****         case ERR_WEIGHT:
 338:main.c        ****             {
 339:main.c        ****                 UARTprint("3", "NSL - ERR_WEIGHT\r\n");
 581              		.loc 1 339 0
 582 034e 9649     		ldr	r1, .L83+12
 583 0350 9348     		ldr	r0, .L83+4
 584 0352 FFF7FEFF 		bl	UARTprint
 585              	.LVL84:
 340:main.c        ****                 
 341:main.c        ****                 NEXT_STATE = EVALUATING_WEIGHT;
 586              		.loc 1 341 0
 587 0356 0225     		movs	r5, #2
 342:main.c        ****             }    
 343:main.c        ****             break;
 588              		.loc 1 343 0
 589 0358 53E0     		b	.L21
 590              	.LVL85:
 591              	.L17:
 344:main.c        ****             
 345:main.c        ****         case ERR_NO_START:
 346:main.c        ****             {
 347:main.c        ****                 UARTprint("3", "NSL - ERR_NO_START\r\n");
 592              		.loc 1 347 0
 593 035a 9449     		ldr	r1, .L83+16
 594 035c 9048     		ldr	r0, .L83+4
 595 035e FFF7FEFF 		bl	UARTprint
 596              	.LVL86:
 348:main.c        ****                 
 349:main.c        ****                 if (BPptr.ButtonPushed == 1)
 597              		.loc 1 349 0
 598 0362 904B     		ldr	r3, .L83+8
 599 0364 1B68     		ldr	r3, [r3]
 600 0366 012B     		cmp	r3, #1
 601 0368 46D0     		beq	.L77
 602 036a 2546     		mov	r5, r4
 603 036c 49E0     		b	.L21
 604              	.L18:
 350:main.c        ****                 {
 351:main.c        ****                     NEXT_STATE = GOING_IDLE;
 352:main.c        ****                 }
 353:main.c        ****                 
 354:main.c        ****             }    
 355:main.c        ****             break;
 356:main.c        ****             
 357:main.c        ****         case ERR_FALSE_START:
 358:main.c        ****             {
 359:main.c        ****                 UARTprint("3", "NSL - ERR_FALSE_START\r\n");
 605              		.loc 1 359 0
ARM GAS  C:\Users\cring\AppData\Local\Temp\ccX2YHcQ.s 			page 18


 606 036e 9049     		ldr	r1, .L83+20
 607 0370 8B48     		ldr	r0, .L83+4
 608 0372 FFF7FEFF 		bl	UARTprint
 609              	.LVL87:
 360:main.c        ****                 setspeed(100, 20, 500);
 610              		.loc 1 360 0
 611 0376 4FF4FA72 		mov	r2, #500
 612 037a 1421     		movs	r1, #20
 613 037c 6420     		movs	r0, #100
 614 037e FFF7FEFF 		bl	setspeed
 615              	.LVL88:
 361:main.c        ****                 if (BPptr.ButtonPushed == 1)
 616              		.loc 1 361 0
 617 0382 884B     		ldr	r3, .L83+8
 618 0384 1B68     		ldr	r3, [r3]
 619 0386 012B     		cmp	r3, #1
 620 0388 38D1     		bne	.L78
 362:main.c        ****                 {
 363:main.c        ****                     BPptr.ButtonPushed = 0;
 621              		.loc 1 363 0
 622 038a 0022     		movs	r2, #0
 623 038c 854B     		ldr	r3, .L83+8
 624 038e 1A60     		str	r2, [r3]
 625              	.LVL89:
 364:main.c        ****                     NEXT_STATE = GOING_IDLE;
 626              		.loc 1 364 0
 627 0390 0125     		movs	r5, #1
 628 0392 36E0     		b	.L21
 629              	.LVL90:
 630              	.L19:
 365:main.c        ****                 }
 366:main.c        ****             }    
 367:main.c        ****             break;
 368:main.c        ****             
 369:main.c        ****         case ERR_TIMEOUT:
 370:main.c        ****             {
 371:main.c        ****                 UARTprint("3", "NSL - ERR_TIMEOUT\r\n");
 631              		.loc 1 371 0
 632 0394 8749     		ldr	r1, .L83+24
 633 0396 8248     		ldr	r0, .L83+4
 634 0398 FFF7FEFF 		bl	UARTprint
 635              	.LVL91:
 372:main.c        ****                 
 373:main.c        ****                 if (BPptr.ButtonPushed == 1)
 636              		.loc 1 373 0
 637 039c 814B     		ldr	r3, .L83+8
 638 039e 1B68     		ldr	r3, [r3]
 639 03a0 012B     		cmp	r3, #1
 640 03a2 2DD0     		beq	.L79
 641 03a4 2546     		mov	r5, r4
 642 03a6 2CE0     		b	.L21
 643              	.L20:
 374:main.c        ****                 {
 375:main.c        ****                     NEXT_STATE = GOING_IDLE;
 376:main.c        ****                 }
 377:main.c        ****             }    
 378:main.c        ****             break;
ARM GAS  C:\Users\cring\AppData\Local\Temp\ccX2YHcQ.s 			page 19


 379:main.c        ****             
 380:main.c        ****         case ERR_NOCHUG:
 381:main.c        ****             {
 382:main.c        ****                 UARTprint("3", "NSL - ERR_NOCHUG\r\n");
 644              		.loc 1 382 0
 645 03a8 8349     		ldr	r1, .L83+28
 646 03aa 7D48     		ldr	r0, .L83+4
 647 03ac FFF7FEFF 		bl	UARTprint
 648              	.LVL92:
 383:main.c        ****                 
 384:main.c        ****                 NEXT_STATE = WINNER_DONE;
 649              		.loc 1 384 0
 650 03b0 0625     		movs	r5, #6
 385:main.c        ****             }    
 386:main.c        ****             break;
 651              		.loc 1 386 0
 652 03b2 26E0     		b	.L21
 653              	.LVL93:
 654              	.L3:
 387:main.c        ****             
 388:main.c        ****             
 389:main.c        ****         default :
 390:main.c        ****             {
 391:main.c        ****                 UARTprint("3", "NSL - DEFAULT\r\n");
 655              		.loc 1 391 0
 656 03b4 8149     		ldr	r1, .L83+32
 657 03b6 7A48     		ldr	r0, .L83+4
 658 03b8 FFF7FEFF 		bl	UARTprint
 659              	.LVL94:
 392:main.c        ****             }
 393:main.c        ****             break;
 660              		.loc 1 393 0
 661 03bc 2546     		mov	r5, r4
 662 03be 20E0     		b	.L21
 663              	.L60:
 119:main.c        ****                 }
 664              		.loc 1 119 0
 665 03c0 2546     		mov	r5, r4
 666 03c2 1EE0     		b	.L21
 667              	.LVL95:
 668              	.L61:
 669              	.LBB5:
 153:main.c        ****                 }
 670              		.loc 1 153 0
 671 03c4 0325     		movs	r5, #3
 672 03c6 1CE0     		b	.L21
 673              	.L62:
 157:main.c        ****                 }
 674              		.loc 1 157 0
 675 03c8 0F25     		movs	r5, #15
 676 03ca 1AE0     		b	.L21
 677              	.L63:
 166:main.c        ****                 
 678              		.loc 1 166 0
 679 03cc 2546     		mov	r5, r4
 680 03ce 18E0     		b	.L21
 681              	.LVL96:
ARM GAS  C:\Users\cring\AppData\Local\Temp\ccX2YHcQ.s 			page 20


 682              	.L64:
 683              	.LBE5:
 177:main.c        ****                 }
 684              		.loc 1 177 0
 685 03d0 1025     		movs	r5, #16
 686 03d2 16E0     		b	.L21
 687              	.L65:
 187:main.c        ****                 }    
 688              		.loc 1 187 0
 689 03d4 2546     		mov	r5, r4
 690 03d6 14E0     		b	.L21
 691              	.L66:
 692 03d8 2546     		mov	r5, r4
 693 03da 12E0     		b	.L21
 694              	.LVL97:
 695              	.L67:
 696              	.LBB6:
 200:main.c        ****                 }
 697              		.loc 1 200 0
 698 03dc 0525     		movs	r5, #5
 699 03de 10E0     		b	.L21
 700              	.LVL98:
 701              	.L68:
 702 03e0 2546     		mov	r5, r4
 703 03e2 0EE0     		b	.L21
 704              	.LVL99:
 705              	.L72:
 706              	.LBE6:
 259:main.c        ****                             }
 707              		.loc 1 259 0
 708 03e4 1225     		movs	r5, #18
 709              	.LVL100:
 710 03e6 0CE0     		b	.L21
 711              	.LVL101:
 712              	.L73:
 713 03e8 2546     		mov	r5, r4
 714 03ea 0AE0     		b	.L21
 715              	.L74:
 298:main.c        ****                         }
 716              		.loc 1 298 0
 717 03ec 2546     		mov	r5, r4
 718 03ee 08E0     		b	.L21
 719              	.L75:
 293:main.c        ****                             }
 720              		.loc 1 293 0
 721 03f0 1325     		movs	r5, #19
 722 03f2 06E0     		b	.L21
 723              	.L76:
 331:main.c        ****             }
 724              		.loc 1 331 0
 725 03f4 2546     		mov	r5, r4
 726 03f6 04E0     		b	.L21
 727              	.L77:
 351:main.c        ****                 }
 728              		.loc 1 351 0
 729 03f8 0125     		movs	r5, #1
 730 03fa 02E0     		b	.L21
ARM GAS  C:\Users\cring\AppData\Local\Temp\ccX2YHcQ.s 			page 21


 731              	.L78:
 732 03fc 2546     		mov	r5, r4
 733 03fe 00E0     		b	.L21
 734              	.L79:
 375:main.c        ****                 }
 735              		.loc 1 375 0
 736 0400 0125     		movs	r5, #1
 737              	.LVL102:
 738              	.L21:
 394:main.c        ****             
 395:main.c        ****         
 396:main.c        ****        }
 397:main.c        ****         
 398:main.c        **** //-----------------------------------OUTPUT LOGIC-----------------------------------//
 399:main.c        ****         switch(CURRENT_STATE)
 739              		.loc 1 399 0
 740 0402 132C     		cmp	r4, #19
 741 0404 00F29981 		bhi	.L29
 742 0408 DFE814F0 		tbh	[pc, r4, lsl #1]
 743              	.L31:
 744 040c 1400     		.2byte	(.L30-.L31)/2
 745 040e 2600     		.2byte	(.L32-.L31)/2
 746 0410 3E00     		.2byte	(.L33-.L31)/2
 747 0412 5000     		.2byte	(.L34-.L31)/2
 748 0414 6400     		.2byte	(.L35-.L31)/2
 749 0416 6D00     		.2byte	(.L36-.L31)/2
 750 0418 7400     		.2byte	(.L37-.L31)/2
 751 041a A900     		.2byte	(.L38-.L31)/2
 752 041c AE00     		.2byte	(.L39-.L31)/2
 753 041e 9701     		.2byte	(.L29-.L31)/2
 754 0420 9701     		.2byte	(.L29-.L31)/2
 755 0422 9701     		.2byte	(.L29-.L31)/2
 756 0424 9701     		.2byte	(.L29-.L31)/2
 757 0426 9701     		.2byte	(.L29-.L31)/2
 758 0428 2601     		.2byte	(.L40-.L31)/2
 759 042a 2D01     		.2byte	(.L41-.L31)/2
 760 042c 5101     		.2byte	(.L42-.L31)/2
 761 042e 6101     		.2byte	(.L43-.L31)/2
 762 0430 7601     		.2byte	(.L44-.L31)/2
 763 0432 8201     		.2byte	(.L45-.L31)/2
 764              		.p2align 1
 765              	.L30:
 400:main.c        ****                 {
 401:main.c        ****                     
 402:main.c        ****                 case IDLE:
 403:main.c        ****                     {
 404:main.c        ****                         cycleCountIdle++;
 766              		.loc 1 404 0
 767 0434 624A     		ldr	r2, .L83+36
 768 0436 D36A     		ldr	r3, [r2, #44]
 769 0438 0133     		adds	r3, r3, #1
 770 043a D362     		str	r3, [r2, #44]
 405:main.c        ****                         
 406:main.c        ****                          if(cycleCountIdle == 1){ //her sørger vi for, at idleSeq kun startes én 
 771              		.loc 1 406 0
 772 043c 012B     		cmp	r3, #1
 773 043e 06D1     		bne	.L46
ARM GAS  C:\Users\cring\AppData\Local\Temp\ccX2YHcQ.s 			page 22


 407:main.c        ****                             idleSeq(rgbstrip1);
 774              		.loc 1 407 0
 775 0440 0DF5AC60 		add	r0, sp, #1376
 776 0444 FFF7FEFF 		bl	idleSeq
 777              	.LVL103:
 408:main.c        ****                             idleSeq(rgbstrip2);
 778              		.loc 1 408 0
 779 0448 0EA8     		add	r0, sp, #56
 780 044a FFF7FEFF 		bl	idleSeq
 781              	.LVL104:
 782              	.L46:
 409:main.c        ****                         }
 410:main.c        ****                         
 411:main.c        ****                         UARTprint("4", "OL - IDLE\r\n");
 783              		.loc 1 411 0
 784 044e 5D49     		ldr	r1, .L83+40
 785 0450 5D48     		ldr	r0, .L83+44
 786 0452 FFF7FEFF 		bl	UARTprint
 787              	.LVL105:
 412:main.c        ****                         
 413:main.c        ****                         //idleSeq();
 414:main.c        ****                     }
 415:main.c        ****                     break;
 788              		.loc 1 415 0
 789 0456 10E6     		b	.L47
 790              	.L32:
 416:main.c        ****                    
 417:main.c        ****                 case GOING_IDLE :
 418:main.c        ****                     {
 419:main.c        ****                         UARTprint("4", "OL - GOING_IDLE\r\n");
 791              		.loc 1 419 0
 792 0458 5C49     		ldr	r1, .L83+48
 793 045a 5B48     		ldr	r0, .L83+44
 794 045c FFF7FEFF 		bl	UARTprint
 795              	.LVL106:
 420:main.c        ****                         stopTimer();
 796              		.loc 1 420 0
 797 0460 FFF7FEFF 		bl	stopTimer
 798              	.LVL107:
 421:main.c        ****                         
 422:main.c        ****                         cycleCountIdle = 0;
 799              		.loc 1 422 0
 800 0464 564B     		ldr	r3, .L83+36
 801 0466 0022     		movs	r2, #0
 802 0468 DA62     		str	r2, [r3, #44]
 423:main.c        ****                         cycleCountReady = 0;
 803              		.loc 1 423 0
 804 046a 1A63     		str	r2, [r3, #48]
 424:main.c        ****                         cycleCountCountdown = 0;
 805              		.loc 1 424 0
 806 046c 5A63     		str	r2, [r3, #52]
 425:main.c        ****                         cycleCountEvaluatingWeight = 0;
 807              		.loc 1 425 0
 808 046e 9A63     		str	r2, [r3, #56]
 426:main.c        ****                         initLED(LEDrefreshrate);
 809              		.loc 1 426 0
 810 0470 3C20     		movs	r0, #60
ARM GAS  C:\Users\cring\AppData\Local\Temp\ccX2YHcQ.s 			page 23


 811 0472 FFF7FEFF 		bl	initLED
 812              	.LVL108:
 427:main.c        ****                         
 428:main.c        ****                         setspeed(100, 20, 500);
 813              		.loc 1 428 0
 814 0476 4FF4FA72 		mov	r2, #500
 815 047a 1421     		movs	r1, #20
 816 047c 6420     		movs	r0, #100
 817 047e FFF7FEFF 		bl	setspeed
 818              	.LVL109:
 429:main.c        ****                         StartDisp();
 819              		.loc 1 429 0
 820 0482 FFF7FEFF 		bl	StartDisp
 821              	.LVL110:
 430:main.c        ****                         
 431:main.c        ****                         
 432:main.c        ****                     }
 433:main.c        ****                     break;
 822              		.loc 1 433 0
 823 0486 F8E5     		b	.L47
 824              	.L33:
 434:main.c        ****                     
 435:main.c        ****                 case EVALUATING_WEIGHT :
 436:main.c        ****                     {
 437:main.c        ****                         cycleCountEvaluatingWeight++;
 825              		.loc 1 437 0
 826 0488 4D4A     		ldr	r2, .L83+36
 827 048a 936B     		ldr	r3, [r2, #56]
 828 048c 0133     		adds	r3, r3, #1
 829 048e 9363     		str	r3, [r2, #56]
 438:main.c        ****                          if(cycleCountEvaluatingWeight == 1)
 830              		.loc 1 438 0
 831 0490 012B     		cmp	r3, #1
 832 0492 06D1     		bne	.L48
 439:main.c        ****                         {
 440:main.c        ****                             checkSeq(rgbstrip1);
 833              		.loc 1 440 0
 834 0494 0DF5AC60 		add	r0, sp, #1376
 835 0498 FFF7FEFF 		bl	checkSeq
 836              	.LVL111:
 441:main.c        ****                             checkSeq(rgbstrip2);
 837              		.loc 1 441 0
 838 049c 0EA8     		add	r0, sp, #56
 839 049e FFF7FEFF 		bl	checkSeq
 840              	.LVL112:
 841              	.L48:
 442:main.c        ****                         }
 443:main.c        ****                         //CalibrateSensors();
 444:main.c        ****                         
 445:main.c        ****                         UARTprint("4", "OL - EVALUATING_WEIGHT\r\n");
 842              		.loc 1 445 0
 843 04a2 4B49     		ldr	r1, .L83+52
 844 04a4 4848     		ldr	r0, .L83+44
 845 04a6 FFF7FEFF 		bl	UARTprint
 846              	.LVL113:
 446:main.c        ****                         
 447:main.c        ****                     }
ARM GAS  C:\Users\cring\AppData\Local\Temp\ccX2YHcQ.s 			page 24


 448:main.c        ****                     break;
 847              		.loc 1 448 0
 848 04aa E6E5     		b	.L47
 849              	.L34:
 449:main.c        ****                     
 450:main.c        ****                 case READY :
 451:main.c        ****                     {
 452:main.c        ****                         startTimer();
 850              		.loc 1 452 0
 851 04ac FFF7FEFF 		bl	startTimer
 852              	.LVL114:
 453:main.c        ****                         cycleCountReady++;
 853              		.loc 1 453 0
 854 04b0 434A     		ldr	r2, .L83+36
 855 04b2 136B     		ldr	r3, [r2, #48]
 856 04b4 0133     		adds	r3, r3, #1
 857 04b6 1363     		str	r3, [r2, #48]
 454:main.c        ****                         if (cycleCountReady == 1)
 858              		.loc 1 454 0
 859 04b8 012B     		cmp	r3, #1
 860 04ba 06D1     		bne	.L49
 455:main.c        ****                         {
 456:main.c        ****                             weightapprovedSeq(rgbstrip1);
 861              		.loc 1 456 0
 862 04bc 0DF5AC60 		add	r0, sp, #1376
 863 04c0 FFF7FEFF 		bl	weightapprovedSeq
 864              	.LVL115:
 457:main.c        ****                             weightapprovedSeq(rgbstrip2);
 865              		.loc 1 457 0
 866 04c4 0EA8     		add	r0, sp, #56
 867 04c6 FFF7FEFF 		bl	weightapprovedSeq
 868              	.LVL116:
 869              	.L49:
 458:main.c        ****                         }
 459:main.c        ****                         
 460:main.c        ****                         UARTprint("4", "OL - READY\r\n");
 870              		.loc 1 460 0
 871 04ca 4249     		ldr	r1, .L83+56
 872 04cc 3E48     		ldr	r0, .L83+44
 873 04ce FFF7FEFF 		bl	UARTprint
 874              	.LVL117:
 461:main.c        ****                         
 462:main.c        ****                     
 463:main.c        ****                     }
 464:main.c        ****                     break;
 875              		.loc 1 464 0
 876 04d2 D2E5     		b	.L47
 877              	.L35:
 465:main.c        ****                     
 466:main.c        ****                 case COUNTDOWN :
 467:main.c        ****                     {
 468:main.c        ****                         stopTimer();
 878              		.loc 1 468 0
 879 04d4 FFF7FEFF 		bl	stopTimer
 880              	.LVL118:
 469:main.c        ****                         clearTimer();   
 881              		.loc 1 469 0
ARM GAS  C:\Users\cring\AppData\Local\Temp\ccX2YHcQ.s 			page 25


 882 04d8 FFF7FEFF 		bl	clearTimer
 883              	.LVL119:
 470:main.c        ****                         //alt countdown foregår i LED-kode
 471:main.c        ****                         UARTprint("4", "OL - COUNTDOWN\r\n");
 884              		.loc 1 471 0
 885 04dc 3E49     		ldr	r1, .L83+60
 886 04de 3A48     		ldr	r0, .L83+44
 887 04e0 FFF7FEFF 		bl	UARTprint
 888              	.LVL120:
 472:main.c        ****                     }
 473:main.c        ****                     break;
 889              		.loc 1 473 0
 890 04e4 C9E5     		b	.L47
 891              	.L36:
 474:main.c        ****                    
 475:main.c        ****                 case CHUG:
 476:main.c        ****                     {
 477:main.c        ****                         startTimer();
 892              		.loc 1 477 0
 893 04e6 FFF7FEFF 		bl	startTimer
 894              	.LVL121:
 478:main.c        ****                         //sekvens for spil igang
 479:main.c        ****                         
 480:main.c        ****                         UARTprint("4", "OL - CHUG\r\n");
 895              		.loc 1 480 0
 896 04ea 3C49     		ldr	r1, .L83+64
 897 04ec 3648     		ldr	r0, .L83+44
 898 04ee FFF7FEFF 		bl	UARTprint
 899              	.LVL122:
 481:main.c        ****                     }
 482:main.c        ****                     break;    
 900              		.loc 1 482 0
 901 04f2 C2E5     		b	.L47
 902              	.L37:
 483:main.c        ****                     
 484:main.c        ****                 case WINNER_DONE:
 485:main.c        ****                     {
 486:main.c        ****                                        
 487:main.c        ****                         if (pLoser == 1)
 903              		.loc 1 487 0
 904 04f4 324B     		ldr	r3, .L83+36
 905 04f6 5B6A     		ldr	r3, [r3, #36]
 906 04f8 012B     		cmp	r3, #1
 907 04fa 15D1     		bne	.L50
 488:main.c        ****                         {
 489:main.c        ****                             tidp2 = getTime()/100; 
 908              		.loc 1 489 0
 909 04fc FFF7FEFF 		bl	getTime
 910              	.LVL123:
 911 0500 374B     		ldr	r3, .L83+68
 912 0502 83FB0023 		smull	r2, r3, r3, r0
 913 0506 C017     		asrs	r0, r0, #31
 914 0508 C0EB6313 		rsb	r3, r0, r3, asr #5
 915 050c 2C4C     		ldr	r4, .L83+36
 916              	.LVL124:
 917 050e E363     		str	r3, [r4, #60]
 490:main.c        ****                             stopLCD(2); //hvis spiller 2 taber, stoppes LCD ved spiller 1
ARM GAS  C:\Users\cring\AppData\Local\Temp\ccX2YHcQ.s 			page 26


 918              		.loc 1 490 0
 919 0510 0220     		movs	r0, #2
 920 0512 FFF7FEFF 		bl	stopLCD
 921              	.LVL125:
 491:main.c        ****                             dispTime(2, tidp2);
 922              		.loc 1 491 0
 923 0516 E16B     		ldr	r1, [r4, #60]
 924 0518 0220     		movs	r0, #2
 925 051a FFF7FEFF 		bl	dispTime
 926              	.LVL126:
 492:main.c        ****                             
 493:main.c        ****                             winnerSeq(rgbstrip1); // afspiller vinder sekvens
 927              		.loc 1 493 0
 928 051e 0DF5AC60 		add	r0, sp, #1376
 929 0522 FFF7FEFF 		bl	winnerSeq
 930              	.LVL127:
 931 0526 15E0     		b	.L51
 932              	.LVL128:
 933              	.L50:
 494:main.c        ****                         }
 495:main.c        ****                         else if (pLoser == 2)
 934              		.loc 1 495 0
 935 0528 022B     		cmp	r3, #2
 936 052a 13D1     		bne	.L51
 496:main.c        ****                         {
 497:main.c        ****                             tidp1 = getTime()/100;
 937              		.loc 1 497 0
 938 052c FFF7FEFF 		bl	getTime
 939              	.LVL129:
 940 0530 2B4B     		ldr	r3, .L83+68
 941 0532 83FB0023 		smull	r2, r3, r3, r0
 942 0536 C017     		asrs	r0, r0, #31
 943 0538 C0EB6313 		rsb	r3, r0, r3, asr #5
 944 053c 204C     		ldr	r4, .L83+36
 945              	.LVL130:
 946 053e 2364     		str	r3, [r4, #64]
 498:main.c        ****                             stopLCD(1);
 947              		.loc 1 498 0
 948 0540 0120     		movs	r0, #1
 949 0542 FFF7FEFF 		bl	stopLCD
 950              	.LVL131:
 499:main.c        ****                             dispTime(1, tidp1);
 951              		.loc 1 499 0
 952 0546 216C     		ldr	r1, [r4, #64]
 953 0548 0120     		movs	r0, #1
 954 054a FFF7FEFF 		bl	dispTime
 955              	.LVL132:
 500:main.c        ****                             winnerSeq(rgbstrip2); // afspiller vinder sekvens
 956              		.loc 1 500 0
 957 054e 0EA8     		add	r0, sp, #56
 958 0550 FFF7FEFF 		bl	winnerSeq
 959              	.LVL133:
 960              	.L51:
 501:main.c        ****                         }
 502:main.c        ****                         
 503:main.c        ****                         UARTprint("4", "OL - WINNER_DONE\r\n");
 961              		.loc 1 503 0
ARM GAS  C:\Users\cring\AppData\Local\Temp\ccX2YHcQ.s 			page 27


 962 0554 2349     		ldr	r1, .L83+72
 963 0556 1C48     		ldr	r0, .L83+44
 964 0558 FFF7FEFF 		bl	UARTprint
 965              	.LVL134:
 504:main.c        ****                     }
 505:main.c        ****                     break;
 966              		.loc 1 505 0
 967 055c 8DE5     		b	.L47
 968              	.LVL135:
 969              	.L38:
 506:main.c        ****                     
 507:main.c        ****                 case EVALUATING_NEW_WEIGHT :
 508:main.c        ****                     {                
 509:main.c        ****                         UARTprint("4", "OL - EVALUATING_NEW_WEIGHT\r\n");
 970              		.loc 1 509 0
 971 055e 2249     		ldr	r1, .L83+76
 972 0560 1948     		ldr	r0, .L83+44
 973 0562 FFF7FEFF 		bl	UARTprint
 974              	.LVL136:
 510:main.c        ****                     }
 511:main.c        ****                     break;
 975              		.loc 1 511 0
 976 0566 88E5     		b	.L47
 977              	.L39:
 978              	.LBB7:
 512:main.c        ****                     
 513:main.c        ****                 case LOSER_DONE:
 514:main.c        ****                     {
 515:main.c        ****                         
 516:main.c        ****                         if (pLoser == 2)
 979              		.loc 1 516 0
 980 0568 154B     		ldr	r3, .L83+36
 981 056a 5B6A     		ldr	r3, [r3, #36]
 982 056c 022B     		cmp	r3, #2
 983 056e 3DD1     		bne	.L52
 517:main.c        ****                         {
 518:main.c        ****                             
 519:main.c        ****                             loserSeq(rgbstrip2); // afspiller taber sekvens
 984              		.loc 1 519 0
 985 0570 0EA8     		add	r0, sp, #56
 986 0572 FFF7FEFF 		bl	loserSeq
 987              	.LVL137:
 520:main.c        ****                             tidp2 = getTime()/100;
 988              		.loc 1 520 0
 989 0576 FFF7FEFF 		bl	getTime
 990              	.LVL138:
 991 057a 194B     		ldr	r3, .L83+68
 992 057c 83FB0023 		smull	r2, r3, r3, r0
 993 0580 C017     		asrs	r0, r0, #31
 994 0582 C0EB6313 		rsb	r3, r0, r3, asr #5
 995 0586 0E4C     		ldr	r4, .L83+36
 996              	.LVL139:
 997 0588 E363     		str	r3, [r4, #60]
 521:main.c        ****                             stopLCD(2);
 998              		.loc 1 521 0
 999 058a 0220     		movs	r0, #2
 1000 058c FFF7FEFF 		bl	stopLCD
ARM GAS  C:\Users\cring\AppData\Local\Temp\ccX2YHcQ.s 			page 28


 1001              	.LVL140:
 522:main.c        ****                             dispTime(2, tidp2);
 1002              		.loc 1 522 0
 1003 0590 E16B     		ldr	r1, [r4, #60]
 1004 0592 0220     		movs	r0, #2
 1005 0594 FFF7FEFF 		bl	dispTime
 1006              	.LVL141:
 1007 0598 3FE0     		b	.L53
 1008              	.L84:
 1009 059a 00BF     		.align	2
 1010              	.L83:
 1011 059c 04010000 		.word	.LC14
 1012 05a0 24000000 		.word	.LC3
 1013 05a4 00000000 		.word	BPptr
 1014 05a8 18010000 		.word	.LC15
 1015 05ac 2C010000 		.word	.LC16
 1016 05b0 44010000 		.word	.LC17
 1017 05b4 5C010000 		.word	.LC18
 1018 05b8 70010000 		.word	.LC19
 1019 05bc 84010000 		.word	.LC20
 1020 05c0 00000000 		.word	.LANCHOR0
 1021 05c4 94010000 		.word	.LC21
 1022 05c8 A0010000 		.word	.LC22
 1023 05cc A4010000 		.word	.LC23
 1024 05d0 B8010000 		.word	.LC24
 1025 05d4 D4010000 		.word	.LC25
 1026 05d8 E4010000 		.word	.LC26
 1027 05dc F8010000 		.word	.LC27
 1028 05e0 1F85EB51 		.word	1374389535
 1029 05e4 04020000 		.word	.LC28
 1030 05e8 18020000 		.word	.LC29
 1031              	.LVL142:
 1032              	.L52:
 523:main.c        ****                         }
 524:main.c        ****                         else if (pLoser == 1)
 1033              		.loc 1 524 0
 1034 05ec 012B     		cmp	r3, #1
 1035 05ee 14D1     		bne	.L53
 525:main.c        ****                         {   
 526:main.c        ****                             
 527:main.c        ****                             loserSeq(rgbstrip1); // afspiller taber sekvens
 1036              		.loc 1 527 0
 1037 05f0 0DF5AC60 		add	r0, sp, #1376
 1038 05f4 FFF7FEFF 		bl	loserSeq
 1039              	.LVL143:
 528:main.c        ****                             tidp1 = getTime()/100;
 1040              		.loc 1 528 0
 1041 05f8 FFF7FEFF 		bl	getTime
 1042              	.LVL144:
 1043 05fc 514B     		ldr	r3, .L85
 1044 05fe 83FB0023 		smull	r2, r3, r3, r0
 1045 0602 C017     		asrs	r0, r0, #31
 1046 0604 C0EB6313 		rsb	r3, r0, r3, asr #5
 1047 0608 4F4C     		ldr	r4, .L85+4
 1048              	.LVL145:
 1049 060a 2364     		str	r3, [r4, #64]
 529:main.c        ****                             stopLCD(1);
ARM GAS  C:\Users\cring\AppData\Local\Temp\ccX2YHcQ.s 			page 29


 1050              		.loc 1 529 0
 1051 060c 0120     		movs	r0, #1
 1052 060e FFF7FEFF 		bl	stopLCD
 1053              	.LVL146:
 530:main.c        ****                             dispTime(1, tidp1);
 1054              		.loc 1 530 0
 1055 0612 216C     		ldr	r1, [r4, #64]
 1056 0614 0120     		movs	r0, #1
 1057 0616 FFF7FEFF 		bl	dispTime
 1058              	.LVL147:
 1059              	.L53:
 531:main.c        ****                         }
 532:main.c        ****                         
 533:main.c        ****                         int sek;
 534:main.c        ****                         int ms;
 535:main.c        ****                         sek = tidp1/10;
 1060              		.loc 1 535 0
 1061 061a 4B4E     		ldr	r6, .L85+4
 1062 061c 326C     		ldr	r2, [r6, #64]
 1063 061e 4B4C     		ldr	r4, .L85+8
 1064 0620 84FB0230 		smull	r3, r0, r4, r2
 1065 0624 D317     		asrs	r3, r2, #31
 1066 0626 C3EBA000 		rsb	r0, r3, r0, asr #2
 1067              	.LVL148:
 536:main.c        ****                         ms = tidp1%10;
 1068              		.loc 1 536 0
 1069 062a 00EB8003 		add	r3, r0, r0, lsl #2
 1070 062e 5900     		lsls	r1, r3, #1
 1071              	.LVL149:
 537:main.c        ****                         SPIS_sendData(sek, ms);
 1072              		.loc 1 537 0
 1073 0630 511A     		subs	r1, r2, r1
 1074              	.LVL150:
 1075 0632 FFF7FEFF 		bl	SPIS_sendData
 1076              	.LVL151:
 538:main.c        ****                         CyDelay(1500);
 1077              		.loc 1 538 0
 1078 0636 40F2DC50 		movw	r0, #1500
 1079 063a FFF7FEFF 		bl	CyDelay
 1080              	.LVL152:
 539:main.c        ****                         
 540:main.c        ****                         sek = tidp2/10;
 1081              		.loc 1 540 0
 1082 063e F26B     		ldr	r2, [r6, #60]
 1083 0640 84FB0230 		smull	r3, r0, r4, r2
 1084 0644 D317     		asrs	r3, r2, #31
 1085 0646 C3EBA000 		rsb	r0, r3, r0, asr #2
 1086              	.LVL153:
 541:main.c        ****                         ms = tidp2%10;
 1087              		.loc 1 541 0
 1088 064a 00EB8003 		add	r3, r0, r0, lsl #2
 1089 064e 5900     		lsls	r1, r3, #1
 1090              	.LVL154:
 542:main.c        ****                         SPIS_sendData(sek, ms);
 1091              		.loc 1 542 0
 1092 0650 511A     		subs	r1, r2, r1
 1093              	.LVL155:
ARM GAS  C:\Users\cring\AppData\Local\Temp\ccX2YHcQ.s 			page 30


 1094 0652 FFF7FEFF 		bl	SPIS_sendData
 1095              	.LVL156:
 1096              	.LBE7:
 543:main.c        ****                         
 544:main.c        ****                         
 545:main.c        ****                     }  
 546:main.c        ****                     break;
 1097              		.loc 1 546 0
 1098 0656 10E5     		b	.L47
 1099              	.LVL157:
 1100              	.L40:
 547:main.c        ****         //        case WEIGHT_CONFIRMED:
 548:main.c        ****         //            {
 549:main.c        ****         //            
 550:main.c        ****         //            }    
 551:main.c        ****                 case GAME_OVER:
 552:main.c        ****                     {
 553:main.c        ****                         UARTprint("4", "OL - GAME_OVER\r\n");
 1101              		.loc 1 553 0
 1102 0658 3D49     		ldr	r1, .L85+12
 1103 065a 3E48     		ldr	r0, .L85+16
 1104 065c FFF7FEFF 		bl	UARTprint
 1105              	.LVL158:
 554:main.c        ****                         clearTimer();
 1106              		.loc 1 554 0
 1107 0660 FFF7FEFF 		bl	clearTimer
 1108              	.LVL159:
 555:main.c        ****                     }
 556:main.c        ****                     break;
 1109              		.loc 1 556 0
 1110 0664 09E5     		b	.L47
 1111              	.L41:
 1112              	.LBB8:
 557:main.c        ****                     
 558:main.c        ****                     // ------------------------------------ERR STATES------------------------------
 559:main.c        ****                     
 560:main.c        ****                     case ERR_WEIGHT:
 561:main.c        ****                     {              
 562:main.c        ****                         int weight = CompareWeight();
 1113              		.loc 1 562 0
 1114 0666 FFF7FEFF 		bl	CompareWeight
 1115              	.LVL160:
 563:main.c        ****                         if (weight == 2)  //hvis vægten ikke passer p1<p2 -> p1 har fejlen
 1116              		.loc 1 563 0
 1117 066a 0228     		cmp	r0, #2
 1118 066c 07D1     		bne	.L54
 564:main.c        ****                         {
 565:main.c        ****                             checkSeq(rgbstrip2);
 1119              		.loc 1 565 0
 1120 066e 0EA8     		add	r0, sp, #56
 1121              	.LVL161:
 1122 0670 FFF7FEFF 		bl	checkSeq
 1123              	.LVL162:
 566:main.c        ****                             errorSeq(rgbstrip1);
 1124              		.loc 1 566 0
 1125 0674 0DF5AC60 		add	r0, sp, #1376
 1126 0678 FFF7FEFF 		bl	errorSeq
ARM GAS  C:\Users\cring\AppData\Local\Temp\ccX2YHcQ.s 			page 31


 1127              	.LVL163:
 1128 067c 12E0     		b	.L55
 1129              	.LVL164:
 1130              	.L54:
 567:main.c        ****                         }
 568:main.c        ****                         else if (weight == 3)  //hvis vægten ikke passer p1>p2 -> p2 har fejlen
 1131              		.loc 1 568 0
 1132 067e 0328     		cmp	r0, #3
 1133 0680 07D1     		bne	.L56
 569:main.c        ****                         {
 570:main.c        ****                             checkSeq(rgbstrip1);
 1134              		.loc 1 570 0
 1135 0682 0DF5AC60 		add	r0, sp, #1376
 1136              	.LVL165:
 1137 0686 FFF7FEFF 		bl	checkSeq
 1138              	.LVL166:
 571:main.c        ****                             errorSeq(rgbstrip2);
 1139              		.loc 1 571 0
 1140 068a 0EA8     		add	r0, sp, #56
 1141 068c FFF7FEFF 		bl	errorSeq
 1142              	.LVL167:
 1143 0690 08E0     		b	.L55
 1144              	.LVL168:
 1145              	.L56:
 572:main.c        ****                         }else if(weight == 4)
 1146              		.loc 1 572 0
 1147 0692 0428     		cmp	r0, #4
 1148 0694 06D1     		bne	.L55
 573:main.c        ****                         {
 574:main.c        ****                             errorSeq(rgbstrip1);
 1149              		.loc 1 574 0
 1150 0696 0DF5AC60 		add	r0, sp, #1376
 1151              	.LVL169:
 1152 069a FFF7FEFF 		bl	errorSeq
 1153              	.LVL170:
 575:main.c        ****                             errorSeq(rgbstrip2);
 1154              		.loc 1 575 0
 1155 069e 0EA8     		add	r0, sp, #56
 1156 06a0 FFF7FEFF 		bl	errorSeq
 1157              	.LVL171:
 1158              	.L55:
 576:main.c        ****                         }
 577:main.c        ****                         UARTprint("4", "OL - ERR_WEIGHT\r\n");
 1159              		.loc 1 577 0
 1160 06a4 2C49     		ldr	r1, .L85+20
 1161 06a6 2B48     		ldr	r0, .L85+16
 1162 06a8 FFF7FEFF 		bl	UARTprint
 1163              	.LVL172:
 1164              	.LBE8:
 578:main.c        ****                     }    
 579:main.c        ****                     break;
 1165              		.loc 1 579 0
 1166 06ac E5E4     		b	.L47
 1167              	.L42:
 580:main.c        ****                     
 581:main.c        ****                     case ERR_NO_START:
 582:main.c        ****                     {               
ARM GAS  C:\Users\cring\AppData\Local\Temp\ccX2YHcQ.s 			page 32


 583:main.c        ****                         stopTimer();
 1168              		.loc 1 583 0
 1169 06ae FFF7FEFF 		bl	stopTimer
 1170              	.LVL173:
 584:main.c        ****                         clearTimer();
 1171              		.loc 1 584 0
 1172 06b2 FFF7FEFF 		bl	clearTimer
 1173              	.LVL174:
 585:main.c        ****                         errorSeq(rgbstrip1);
 1174              		.loc 1 585 0
 1175 06b6 0DF5AC60 		add	r0, sp, #1376
 1176 06ba FFF7FEFF 		bl	errorSeq
 1177              	.LVL175:
 586:main.c        ****                         errorSeq(rgbstrip2);
 1178              		.loc 1 586 0
 1179 06be 0EA8     		add	r0, sp, #56
 1180 06c0 FFF7FEFF 		bl	errorSeq
 1181              	.LVL176:
 587:main.c        ****                         
 588:main.c        ****                         UARTprint("4", "OL - ERR_NO_START\r\n");
 1182              		.loc 1 588 0
 1183 06c4 2549     		ldr	r1, .L85+24
 1184 06c6 2348     		ldr	r0, .L85+16
 1185 06c8 FFF7FEFF 		bl	UARTprint
 1186              	.LVL177:
 589:main.c        ****                         
 590:main.c        ****                     }    
 591:main.c        ****                     break;
 1187              		.loc 1 591 0
 1188 06cc D5E4     		b	.L47
 1189              	.L43:
 592:main.c        ****                     
 593:main.c        ****                     case ERR_FALSE_START:
 594:main.c        ****                     {
 595:main.c        ****                         if (pErr == 1)
 1190              		.loc 1 595 0
 1191 06ce 1E4B     		ldr	r3, .L85+4
 1192 06d0 DB69     		ldr	r3, [r3, #28]
 1193 06d2 012B     		cmp	r3, #1
 1194 06d4 04D1     		bne	.L57
 596:main.c        ****                         {
 597:main.c        ****                             errorSeq(rgbstrip1);
 1195              		.loc 1 597 0
 1196 06d6 0DF5AC60 		add	r0, sp, #1376
 1197 06da FFF7FEFF 		bl	errorSeq
 1198              	.LVL178:
 1199 06de 04E0     		b	.L58
 1200              	.L57:
 598:main.c        ****                         }
 599:main.c        ****                         else if (pErr == 2)
 1201              		.loc 1 599 0
 1202 06e0 022B     		cmp	r3, #2
 1203 06e2 02D1     		bne	.L58
 600:main.c        ****                         {
 601:main.c        ****                             errorSeq(rgbstrip2);
 1204              		.loc 1 601 0
 1205 06e4 0EA8     		add	r0, sp, #56
ARM GAS  C:\Users\cring\AppData\Local\Temp\ccX2YHcQ.s 			page 33


 1206 06e6 FFF7FEFF 		bl	errorSeq
 1207              	.LVL179:
 1208              	.L58:
 602:main.c        ****                         }
 603:main.c        ****                         clearTimer();
 1209              		.loc 1 603 0
 1210 06ea FFF7FEFF 		bl	clearTimer
 1211              	.LVL180:
 604:main.c        ****                         UARTprint("4", "OL - ERR_FALSE_START\r\n");
 1212              		.loc 1 604 0
 1213 06ee 1C49     		ldr	r1, .L85+28
 1214 06f0 1848     		ldr	r0, .L85+16
 1215 06f2 FFF7FEFF 		bl	UARTprint
 1216              	.LVL181:
 605:main.c        ****                         
 606:main.c        ****                     }    
 607:main.c        ****                     break;
 1217              		.loc 1 607 0
 1218 06f6 C0E4     		b	.L47
 1219              	.L44:
 608:main.c        ****                     
 609:main.c        ****                     case ERR_TIMEOUT:
 610:main.c        ****                     {
 611:main.c        ****                         errorSeq(rgbstrip1);
 1220              		.loc 1 611 0
 1221 06f8 0DF5AC60 		add	r0, sp, #1376
 1222 06fc FFF7FEFF 		bl	errorSeq
 1223              	.LVL182:
 612:main.c        ****                         errorSeq(rgbstrip2);
 1224              		.loc 1 612 0
 1225 0700 0EA8     		add	r0, sp, #56
 1226 0702 FFF7FEFF 		bl	errorSeq
 1227              	.LVL183:
 613:main.c        ****                         
 614:main.c        ****                         UARTprint("4", "OL - ERR_TIMEOUT\r\n");
 1228              		.loc 1 614 0
 1229 0706 1749     		ldr	r1, .L85+32
 1230 0708 1248     		ldr	r0, .L85+16
 1231 070a FFF7FEFF 		bl	UARTprint
 1232              	.LVL184:
 615:main.c        ****                         
 616:main.c        ****                     }    
 617:main.c        ****                     break;
 1233              		.loc 1 617 0
 1234 070e B4E4     		b	.L47
 1235              	.L45:
 618:main.c        ****                     
 619:main.c        ****                     case ERR_NOCHUG:
 620:main.c        ****                     {
 621:main.c        ****                         UARTprint("4", "OL - ERR_NOCHUG\r\n");
 1236              		.loc 1 621 0
 1237 0710 1549     		ldr	r1, .L85+36
 1238 0712 1048     		ldr	r0, .L85+16
 1239 0714 FFF7FEFF 		bl	UARTprint
 1240              	.LVL185:
 622:main.c        ****                         pErr = pLoser;
 1241              		.loc 1 622 0
ARM GAS  C:\Users\cring\AppData\Local\Temp\ccX2YHcQ.s 			page 34


 1242 0718 0B4A     		ldr	r2, .L85+4
 1243 071a 536A     		ldr	r3, [r2, #36]
 1244 071c D361     		str	r3, [r2, #28]
 623:main.c        ****                         
 624:main.c        ****                         if (pErr == 1)
 1245              		.loc 1 624 0
 1246 071e 012B     		cmp	r3, #1
 1247 0720 04D1     		bne	.L59
 625:main.c        ****                         {
 626:main.c        ****                             errorSeq(rgbstrip1);
 1248              		.loc 1 626 0
 1249 0722 0DF5AC60 		add	r0, sp, #1376
 1250 0726 FFF7FEFF 		bl	errorSeq
 1251              	.LVL186:
 1252 072a A6E4     		b	.L47
 1253              	.L59:
 627:main.c        ****                         }
 628:main.c        ****                         else if (pErr == 2)
 1254              		.loc 1 628 0
 1255 072c 022B     		cmp	r3, #2
 1256 072e 7FF4A4AC 		bne	.L47
 629:main.c        ****                         {
 630:main.c        ****                             errorSeq(rgbstrip2);
 1257              		.loc 1 630 0
 1258 0732 0EA8     		add	r0, sp, #56
 1259 0734 FFF7FEFF 		bl	errorSeq
 1260              	.LVL187:
 1261 0738 9FE4     		b	.L47
 1262              	.L29:
 631:main.c        ****                         }
 632:main.c        ****                     }    
 633:main.c        ****                     break;
 634:main.c        ****                     
 635:main.c        ****                     
 636:main.c        ****                 default :
 637:main.c        ****                     {
 638:main.c        ****                         UARTprint("4", "OL - DEFAULT\r\n");
 1263              		.loc 1 638 0
 1264 073a 0C49     		ldr	r1, .L85+40
 1265 073c 0548     		ldr	r0, .L85+16
 1266 073e FFF7FEFF 		bl	UARTprint
 1267              	.LVL188:
 639:main.c        **** 
 640:main.c        ****                     }
 641:main.c        ****                     break;
 1268              		.loc 1 641 0
 1269 0742 9AE4     		b	.L47
 1270              	.L86:
 1271              		.align	2
 1272              	.L85:
 1273 0744 1F85EB51 		.word	1374389535
 1274 0748 00000000 		.word	.LANCHOR0
 1275 074c 67666666 		.word	1717986919
 1276 0750 38020000 		.word	.LC30
 1277 0754 A0010000 		.word	.LC22
 1278 0758 4C020000 		.word	.LC31
 1279 075c 60020000 		.word	.LC32
ARM GAS  C:\Users\cring\AppData\Local\Temp\ccX2YHcQ.s 			page 35


 1280 0760 74020000 		.word	.LC33
 1281 0764 8C020000 		.word	.LC34
 1282 0768 A0020000 		.word	.LC35
 1283 076c B4020000 		.word	.LC36
 1284              		.cfi_endproc
 1285              	.LFE64:
 1286              		.size	main, .-main
 1287              		.global	chugstart
 1288              		.global	chugp2
 1289              		.global	chugp1
 1290              		.global	pErr
 1291              		.global	cycleCountCountdown
 1292              		.global	cycleCountReady
 1293              		.global	cycleCountEvaluatingWeight
 1294              		.global	cycleCountIdle
 1295              		.global	tidp2
 1296              		.global	tidp1
 1297              		.global	pLoser
 1298              		.global	_WSptr
 1299              		.comm	BPptr,4,4
 1300              		.section	.rodata.str1.4,"aMS",%progbits,1
 1301              		.align	2
 1302              	.LC0:
 1303 0000 4D41494E 		.ascii	"MAIN START\015\012\000"
 1303      20535441 
 1303      52540D0A 
 1303      00
 1304 000d 000000   		.space	3
 1305              	.LC1:
 1306 0010 3100     		.ascii	"1\000"
 1307 0012 0000     		.space	2
 1308              	.LC2:
 1309 0014 4E534C20 		.ascii	"NSL - IDLE\015\012\000"
 1309      2D204944 
 1309      4C450D0A 
 1309      00
 1310 0021 000000   		.space	3
 1311              	.LC3:
 1312 0024 3300     		.ascii	"3\000"
 1313 0026 0000     		.space	2
 1314              	.LC4:
 1315 0028 4E534C20 		.ascii	"NSL - GOING_IDLE\015\012\000"
 1315      2D20474F 
 1315      494E475F 
 1315      49444C45 
 1315      0D0A00
 1316 003b 00       		.space	1
 1317              	.LC5:
 1318 003c 4E534C20 		.ascii	"NSL - EVALUATING_WEIGHT\015\012\000"
 1318      2D204556 
 1318      414C5541 
 1318      54494E47 
 1318      5F574549 
 1319 0056 0000     		.space	2
 1320              	.LC6:
 1321 0058 57656967 		.ascii	"Weight: %li     \000"
 1321      68743A20 
ARM GAS  C:\Users\cring\AppData\Local\Temp\ccX2YHcQ.s 			page 36


 1321      256C6920 
 1321      20202020 
 1321      00
 1322 0069 000000   		.space	3
 1323              	.LC7:
 1324 006c 4E534C20 		.ascii	"NSL - READY\015\012\000"
 1324      2D205245 
 1324      4144590D 
 1324      0A00
 1325 007a 0000     		.space	2
 1326              	.LC8:
 1327 007c 4E534C20 		.ascii	"NSL - COUTNDOWN\015\012\000"
 1327      2D20434F 
 1327      55544E44 
 1327      4F574E0D 
 1327      0A00
 1328 008e 0000     		.space	2
 1329              	.LC9:
 1330 0090 4E534C20 		.ascii	"NSL - CHUG\015\012\000"
 1330      2D204348 
 1330      55470D0A 
 1330      00
 1331 009d 000000   		.space	3
 1332              	.LC10:
 1333 00a0 4E534C20 		.ascii	"NSL - WINNER_DONE\015\012\000"
 1333      2D205749 
 1333      4E4E4552 
 1333      5F444F4E 
 1333      450D0A00 
 1334              	.LC11:
 1335 00b4 4E534C20 		.ascii	"NSL - EVALUATING_NEW_WEIGHT\015\012\000"
 1335      2D204556 
 1335      414C5541 
 1335      54494E47 
 1335      5F4E4557 
 1336 00d2 0000     		.space	2
 1337              	.LC12:
 1338 00d4 4E534C20 		.ascii	"NSL - LOSER_DONE\015\012\000"
 1338      2D204C4F 
 1338      5345525F 
 1338      444F4E45 
 1338      0D0A00
 1339 00e7 00       		.space	1
 1340              	.LC13:
 1341 00e8 4E534C20 		.ascii	"NSL - WEIGHT_CONFIRMED\015\012\000"
 1341      2D205745 
 1341      49474854 
 1341      5F434F4E 
 1341      4649524D 
 1342 0101 000000   		.space	3
 1343              	.LC14:
 1344 0104 4E534C20 		.ascii	"NSL - GAME_OVER\015\012\000"
 1344      2D204741 
 1344      4D455F4F 
 1344      5645520D 
 1344      0A00
 1345 0116 0000     		.space	2
ARM GAS  C:\Users\cring\AppData\Local\Temp\ccX2YHcQ.s 			page 37


 1346              	.LC15:
 1347 0118 4E534C20 		.ascii	"NSL - ERR_WEIGHT\015\012\000"
 1347      2D204552 
 1347      525F5745 
 1347      49474854 
 1347      0D0A00
 1348 012b 00       		.space	1
 1349              	.LC16:
 1350 012c 4E534C20 		.ascii	"NSL - ERR_NO_START\015\012\000"
 1350      2D204552 
 1350      525F4E4F 
 1350      5F535441 
 1350      52540D0A 
 1351 0141 000000   		.space	3
 1352              	.LC17:
 1353 0144 4E534C20 		.ascii	"NSL - ERR_FALSE_START\015\012\000"
 1353      2D204552 
 1353      525F4641 
 1353      4C53455F 
 1353      53544152 
 1354              	.LC18:
 1355 015c 4E534C20 		.ascii	"NSL - ERR_TIMEOUT\015\012\000"
 1355      2D204552 
 1355      525F5449 
 1355      4D454F55 
 1355      540D0A00 
 1356              	.LC19:
 1357 0170 4E534C20 		.ascii	"NSL - ERR_NOCHUG\015\012\000"
 1357      2D204552 
 1357      525F4E4F 
 1357      43485547 
 1357      0D0A00
 1358 0183 00       		.space	1
 1359              	.LC20:
 1360 0184 4E534C20 		.ascii	"NSL - DEFAULT\015\012\000"
 1360      2D204445 
 1360      4641554C 
 1360      540D0A00 
 1361              	.LC21:
 1362 0194 4F4C202D 		.ascii	"OL - IDLE\015\012\000"
 1362      2049444C 
 1362      450D0A00 
 1363              	.LC22:
 1364 01a0 3400     		.ascii	"4\000"
 1365 01a2 0000     		.space	2
 1366              	.LC23:
 1367 01a4 4F4C202D 		.ascii	"OL - GOING_IDLE\015\012\000"
 1367      20474F49 
 1367      4E475F49 
 1367      444C450D 
 1367      0A00
 1368 01b6 0000     		.space	2
 1369              	.LC24:
 1370 01b8 4F4C202D 		.ascii	"OL - EVALUATING_WEIGHT\015\012\000"
 1370      20455641 
 1370      4C554154 
 1370      494E475F 
ARM GAS  C:\Users\cring\AppData\Local\Temp\ccX2YHcQ.s 			page 38


 1370      57454947 
 1371 01d1 000000   		.space	3
 1372              	.LC25:
 1373 01d4 4F4C202D 		.ascii	"OL - READY\015\012\000"
 1373      20524541 
 1373      44590D0A 
 1373      00
 1374 01e1 000000   		.space	3
 1375              	.LC26:
 1376 01e4 4F4C202D 		.ascii	"OL - COUNTDOWN\015\012\000"
 1376      20434F55 
 1376      4E54444F 
 1376      574E0D0A 
 1376      00
 1377 01f5 000000   		.space	3
 1378              	.LC27:
 1379 01f8 4F4C202D 		.ascii	"OL - CHUG\015\012\000"
 1379      20434855 
 1379      470D0A00 
 1380              	.LC28:
 1381 0204 4F4C202D 		.ascii	"OL - WINNER_DONE\015\012\000"
 1381      2057494E 
 1381      4E45525F 
 1381      444F4E45 
 1381      0D0A00
 1382 0217 00       		.space	1
 1383              	.LC29:
 1384 0218 4F4C202D 		.ascii	"OL - EVALUATING_NEW_WEIGHT\015\012\000"
 1384      20455641 
 1384      4C554154 
 1384      494E475F 
 1384      4E45575F 
 1385 0235 000000   		.space	3
 1386              	.LC30:
 1387 0238 4F4C202D 		.ascii	"OL - GAME_OVER\015\012\000"
 1387      2047414D 
 1387      455F4F56 
 1387      45520D0A 
 1387      00
 1388 0249 000000   		.space	3
 1389              	.LC31:
 1390 024c 4F4C202D 		.ascii	"OL - ERR_WEIGHT\015\012\000"
 1390      20455252 
 1390      5F574549 
 1390      4748540D 
 1390      0A00
 1391 025e 0000     		.space	2
 1392              	.LC32:
 1393 0260 4F4C202D 		.ascii	"OL - ERR_NO_START\015\012\000"
 1393      20455252 
 1393      5F4E4F5F 
 1393      53544152 
 1393      540D0A00 
 1394              	.LC33:
 1395 0274 4F4C202D 		.ascii	"OL - ERR_FALSE_START\015\012\000"
 1395      20455252 
 1395      5F46414C 
ARM GAS  C:\Users\cring\AppData\Local\Temp\ccX2YHcQ.s 			page 39


 1395      53455F53 
 1395      54415254 
 1396 028b 00       		.space	1
 1397              	.LC34:
 1398 028c 4F4C202D 		.ascii	"OL - ERR_TIMEOUT\015\012\000"
 1398      20455252 
 1398      5F54494D 
 1398      454F5554 
 1398      0D0A00
 1399 029f 00       		.space	1
 1400              	.LC35:
 1401 02a0 4F4C202D 		.ascii	"OL - ERR_NOCHUG\015\012\000"
 1401      20455252 
 1401      5F4E4F43 
 1401      4855470D 
 1401      0A00
 1402 02b2 0000     		.space	2
 1403              	.LC36:
 1404 02b4 4F4C202D 		.ascii	"OL - DEFAULT\015\012\000"
 1404      20444546 
 1404      41554C54 
 1404      0D0A00
 1405              		.bss
 1406              		.align	2
 1407              		.set	.LANCHOR0,. + 0
 1408              		.type	_WSptr, %object
 1409              		.size	_WSptr, 28
 1410              	_WSptr:
 1411 0000 00000000 		.space	28
 1411      00000000 
 1411      00000000 
 1411      00000000 
 1411      00000000 
 1412              		.type	pErr, %object
 1413              		.size	pErr, 4
 1414              	pErr:
 1415 001c 00000000 		.space	4
 1416              		.type	chugp1, %object
 1417              		.size	chugp1, 4
 1418              	chugp1:
 1419 0020 00000000 		.space	4
 1420              		.type	pLoser, %object
 1421              		.size	pLoser, 4
 1422              	pLoser:
 1423 0024 00000000 		.space	4
 1424              		.type	chugp2, %object
 1425              		.size	chugp2, 4
 1426              	chugp2:
 1427 0028 00000000 		.space	4
 1428              		.type	cycleCountIdle, %object
 1429              		.size	cycleCountIdle, 4
 1430              	cycleCountIdle:
 1431 002c 00000000 		.space	4
 1432              		.type	cycleCountReady, %object
 1433              		.size	cycleCountReady, 4
 1434              	cycleCountReady:
 1435 0030 00000000 		.space	4
ARM GAS  C:\Users\cring\AppData\Local\Temp\ccX2YHcQ.s 			page 40


 1436              		.type	cycleCountCountdown, %object
 1437              		.size	cycleCountCountdown, 4
 1438              	cycleCountCountdown:
 1439 0034 00000000 		.space	4
 1440              		.type	cycleCountEvaluatingWeight, %object
 1441              		.size	cycleCountEvaluatingWeight, 4
 1442              	cycleCountEvaluatingWeight:
 1443 0038 00000000 		.space	4
 1444              		.type	tidp2, %object
 1445              		.size	tidp2, 4
 1446              	tidp2:
 1447 003c 00000000 		.space	4
 1448              		.type	tidp1, %object
 1449              		.size	tidp1, 4
 1450              	tidp1:
 1451 0040 00000000 		.space	4
 1452              		.type	chugstart, %object
 1453              		.size	chugstart, 4
 1454              	chugstart:
 1455 0044 00000000 		.space	4
 1456              		.text
 1457              	.Letext0:
 1458              		.file 2 "c:\\program files (x86)\\cypress\\psoc creator\\4.3\\psoc creator\\import\\gnu\\arm\\5.4.
 1459              		.file 3 "c:\\program files (x86)\\cypress\\psoc creator\\4.3\\psoc creator\\import\\gnu\\arm\\5.4.
 1460              		.file 4 "WeightSensors_.h"
 1461              		.file 5 "States.h"
 1462              		.file 6 "Startknap.h"
 1463              		.file 7 "LEDcontrol.h"
 1464              		.file 8 "Generated_Source\\PSoC5/core_cm3.h"
 1465              		.file 9 "c:\\program files (x86)\\cypress\\psoc creator\\4.3\\psoc creator\\import\\gnu\\arm\\5.4.
 1466              		.file 10 "Display.h"
 1467              		.file 11 "UART.h"
 1468              		.file 12 "Generated_Source\\PSoC5/CyLib.h"
 1469              		.file 13 "Stopur.h"
 1470              		.file 14 "SPI_Master.h"
 1471              		.file 15 "Generated_Source\\PSoC5/isr_button.h"
 1472              		.file 16 "Generated_Source\\PSoC5/isr_uart_rx.h"
 1473              		.file 17 "Generated_Source\\PSoC5/isr_timer.h"
 1474              		.file 18 "Generated_Source\\PSoC5/UART_1.h"