ARM GAS  C:\Users\cring\AppData\Local\Temp\ccf9vm8K.s 			page 1


   1              		.syntax unified
   2              		.cpu cortex-m3
   3              		.fpu softvfp
   4              		.eabi_attribute 20, 1
   5              		.eabi_attribute 21, 1
   6              		.eabi_attribute 23, 3
   7              		.eabi_attribute 24, 1
   8              		.eabi_attribute 25, 1
   9              		.eabi_attribute 26, 1
  10              		.eabi_attribute 30, 1
  11              		.eabi_attribute 34, 1
  12              		.eabi_attribute 18, 4
  13              		.thumb
  14              		.syntax unified
  15              		.file	"SPI_Master.c"
  16              		.text
  17              	.Ltext0:
  18              		.cfi_sections	.debug_frame
  19              		.section	.text.isr_spi_rx,"ax",%progbits
  20              		.align	2
  21              		.global	isr_spi_rx
  22              		.thumb
  23              		.thumb_func
  24              		.type	isr_spi_rx, %function
  25              	isr_spi_rx:
  26              	.LFB65:
  27              		.file 1 "SPI_Master.c"
   1:SPI_Master.c  **** /* ========================================
   2:SPI_Master.c  ****  *
   3:SPI_Master.c  ****  * Copyright YOUR COMPANY, THE YEAR
   4:SPI_Master.c  ****  * All Rights Reserved
   5:SPI_Master.c  ****  * UNPUBLISHED, LICENSED SOFTWARE.
   6:SPI_Master.c  ****  *
   7:SPI_Master.c  ****  * CONFIDENTIAL AND PROPRIETARY INFORMATION
   8:SPI_Master.c  ****  * WHICH IS THE PROPERTY OF your company.
   9:SPI_Master.c  ****  *
  10:SPI_Master.c  ****  * ========================================
  11:SPI_Master.c  **** */
  12:SPI_Master.c  **** #include "SPI_Master.h"
  13:SPI_Master.c  **** 
  14:SPI_Master.c  **** int rxFlag = 0;
  15:SPI_Master.c  **** int tx[2];
  16:SPI_Master.c  **** 
  17:SPI_Master.c  **** void SPIS_initSPI(){         //make spi ready to work...
  18:SPI_Master.c  ****     SPI_int_Write(0);
  19:SPI_Master.c  ****     SPIS_Start();
  20:SPI_Master.c  **** //    SPIS_ClearTxBuffer();
  21:SPI_Master.c  **** //    SPIS_ClearFIFO();
  22:SPI_Master.c  ****     rx_isr_StartEx(isr_spi_rx);
  23:SPI_Master.c  **** }
  24:SPI_Master.c  **** 
  25:SPI_Master.c  **** void SPIS_sendData(int sek, int ms){
  26:SPI_Master.c  ****     tx[0] = sek;
  27:SPI_Master.c  ****     tx[1] = (sek%2) == 0 ? (ms<<2) : ((ms<<2) | 0b10);        //sek parity
  28:SPI_Master.c  ****     tx[1] = (ms%2) == 0 ? tx[1] : (tx[1] | 0b01);             //ms parity
  29:SPI_Master.c  ****     
  30:SPI_Master.c  ****     //send interrupt to SPIM
ARM GAS  C:\Users\cring\AppData\Local\Temp\ccf9vm8K.s 			page 2


  31:SPI_Master.c  ****     SPI_int_Write(255);
  32:SPI_Master.c  ****     //send chugtime(data) to tx ready to send
  33:SPI_Master.c  ****     //LED_tester_Write(0);
  34:SPI_Master.c  **** //    rx_isr_Enable();
  35:SPI_Master.c  **** }
  36:SPI_Master.c  **** 
  37:SPI_Master.c  **** CY_ISR(isr_spi_rx){
  28              		.loc 1 37 0
  29              		.cfi_startproc
  30              		@ args = 0, pretend = 0, frame = 0
  31              		@ frame_needed = 0, uses_anonymous_args = 0
  32 0000 08B5     		push	{r3, lr}
  33              		.cfi_def_cfa_offset 8
  34              		.cfi_offset 3, -8
  35              		.cfi_offset 14, -4
  38:SPI_Master.c  ****     SPI_int_Write(0);
  36              		.loc 1 38 0
  37 0002 0020     		movs	r0, #0
  38 0004 FFF7FEFF 		bl	SPI_int_Write
  39              	.LVL0:
  39:SPI_Master.c  ****     uint8 SPIDATA = SPIS_ReadRxData();
  40              		.loc 1 39 0
  41 0008 FFF7FEFF 		bl	SPIS_ReadRxData
  42              	.LVL1:
  40:SPI_Master.c  ****     
  41:SPI_Master.c  ****     switch(SPIDATA){
  43              		.loc 1 41 0
  44 000c 1028     		cmp	r0, #16
  45 000e 06D0     		beq	.L3
  46 0010 2028     		cmp	r0, #32
  47 0012 09D1     		bne	.L6
  42:SPI_Master.c  ****         case 0x20 :
  43:SPI_Master.c  ****         {
  44:SPI_Master.c  ****             SPIS_WriteTxData(tx[0]);    //sek
  48              		.loc 1 44 0
  49 0014 064B     		ldr	r3, .L8
  50 0016 1878     		ldrb	r0, [r3]	@ zero_extendqisi2
  51              	.LVL2:
  52 0018 FFF7FEFF 		bl	SPIS_WriteTxData
  53              	.LVL3:
  45:SPI_Master.c  ****         }
  46:SPI_Master.c  ****         break;
  54              		.loc 1 46 0
  55 001c 08BD     		pop	{r3, pc}
  56              	.LVL4:
  57              	.L3:
  47:SPI_Master.c  ****         case 0x10 :
  48:SPI_Master.c  ****         {
  49:SPI_Master.c  ****             SPIS_WriteTxData(tx[1]);    //ms
  58              		.loc 1 49 0
  59 001e 044B     		ldr	r3, .L8
  60 0020 1879     		ldrb	r0, [r3, #4]	@ zero_extendqisi2
  61              	.LVL5:
  62 0022 FFF7FEFF 		bl	SPIS_WriteTxData
  63              	.LVL6:
  50:SPI_Master.c  ****         }
  51:SPI_Master.c  ****         break;
ARM GAS  C:\Users\cring\AppData\Local\Temp\ccf9vm8K.s 			page 3


  64              		.loc 1 51 0
  65 0026 08BD     		pop	{r3, pc}
  66              	.LVL7:
  67              	.L6:
  52:SPI_Master.c  ****         default :
  53:SPI_Master.c  ****         {
  54:SPI_Master.c  ****             SPIS_WriteTxData(SPIDATA);     //echo
  68              		.loc 1 54 0
  69 0028 FFF7FEFF 		bl	SPIS_WriteTxData
  70              	.LVL8:
  71 002c 08BD     		pop	{r3, pc}
  72              	.L9:
  73 002e 00BF     		.align	2
  74              	.L8:
  75 0030 00000000 		.word	tx
  76              		.cfi_endproc
  77              	.LFE65:
  78              		.size	isr_spi_rx, .-isr_spi_rx
  79              		.section	.text.SPIS_initSPI,"ax",%progbits
  80              		.align	2
  81              		.global	SPIS_initSPI
  82              		.thumb
  83              		.thumb_func
  84              		.type	SPIS_initSPI, %function
  85              	SPIS_initSPI:
  86              	.LFB63:
  17:SPI_Master.c  ****     SPI_int_Write(0);
  87              		.loc 1 17 0
  88              		.cfi_startproc
  89              		@ args = 0, pretend = 0, frame = 0
  90              		@ frame_needed = 0, uses_anonymous_args = 0
  91 0000 08B5     		push	{r3, lr}
  92              		.cfi_def_cfa_offset 8
  93              		.cfi_offset 3, -8
  94              		.cfi_offset 14, -4
  18:SPI_Master.c  ****     SPIS_Start();
  95              		.loc 1 18 0
  96 0002 0020     		movs	r0, #0
  97 0004 FFF7FEFF 		bl	SPI_int_Write
  98              	.LVL9:
  19:SPI_Master.c  **** //    SPIS_ClearTxBuffer();
  99              		.loc 1 19 0
 100 0008 FFF7FEFF 		bl	SPIS_Start
 101              	.LVL10:
  22:SPI_Master.c  **** }
 102              		.loc 1 22 0
 103 000c 0148     		ldr	r0, .L12
 104 000e FFF7FEFF 		bl	rx_isr_StartEx
 105              	.LVL11:
 106 0012 08BD     		pop	{r3, pc}
 107              	.L13:
 108              		.align	2
 109              	.L12:
 110 0014 00000000 		.word	isr_spi_rx
 111              		.cfi_endproc
 112              	.LFE63:
 113              		.size	SPIS_initSPI, .-SPIS_initSPI
ARM GAS  C:\Users\cring\AppData\Local\Temp\ccf9vm8K.s 			page 4


 114              		.section	.text.SPIS_sendData,"ax",%progbits
 115              		.align	2
 116              		.global	SPIS_sendData
 117              		.thumb
 118              		.thumb_func
 119              		.type	SPIS_sendData, %function
 120              	SPIS_sendData:
 121              	.LFB64:
  25:SPI_Master.c  ****     tx[0] = sek;
 122              		.loc 1 25 0
 123              		.cfi_startproc
 124              		@ args = 0, pretend = 0, frame = 0
 125              		@ frame_needed = 0, uses_anonymous_args = 0
 126              	.LVL12:
 127 0000 08B5     		push	{r3, lr}
 128              		.cfi_def_cfa_offset 8
 129              		.cfi_offset 3, -8
 130              		.cfi_offset 14, -4
  26:SPI_Master.c  ****     tx[1] = (sek%2) == 0 ? (ms<<2) : ((ms<<2) | 0b10);        //sek parity
 131              		.loc 1 26 0
 132 0002 0A4B     		ldr	r3, .L19
 133 0004 1860     		str	r0, [r3]
  27:SPI_Master.c  ****     tx[1] = (ms%2) == 0 ? tx[1] : (tx[1] | 0b01);             //ms parity
 134              		.loc 1 27 0
 135 0006 10F0010F 		tst	r0, #1
 136 000a 01D1     		bne	.L15
  27:SPI_Master.c  ****     tx[1] = (ms%2) == 0 ? tx[1] : (tx[1] | 0b01);             //ms parity
 137              		.loc 1 27 0 is_stmt 0 discriminator 1
 138 000c 8B00     		lsls	r3, r1, #2
 139 000e 02E0     		b	.L16
 140              	.L15:
  27:SPI_Master.c  ****     tx[1] = (ms%2) == 0 ? tx[1] : (tx[1] | 0b01);             //ms parity
 141              		.loc 1 27 0 discriminator 2
 142 0010 8B00     		lsls	r3, r1, #2
 143 0012 43F00203 		orr	r3, r3, #2
 144              	.L16:
  28:SPI_Master.c  ****     
 145              		.loc 1 28 0 is_stmt 1 discriminator 4
 146 0016 11F0010F 		tst	r1, #1
 147 001a 01D0     		beq	.L17
  28:SPI_Master.c  ****     
 148              		.loc 1 28 0 is_stmt 0 discriminator 2
 149 001c 43F00103 		orr	r3, r3, #1
 150              	.L17:
  28:SPI_Master.c  ****     
 151              		.loc 1 28 0 discriminator 4
 152 0020 024A     		ldr	r2, .L19
 153 0022 5360     		str	r3, [r2, #4]
  31:SPI_Master.c  ****     //send chugtime(data) to tx ready to send
 154              		.loc 1 31 0 is_stmt 1 discriminator 4
 155 0024 FF20     		movs	r0, #255
 156              	.LVL13:
 157 0026 FFF7FEFF 		bl	SPI_int_Write
 158              	.LVL14:
 159 002a 08BD     		pop	{r3, pc}
 160              	.L20:
 161              		.align	2
ARM GAS  C:\Users\cring\AppData\Local\Temp\ccf9vm8K.s 			page 5


 162              	.L19:
 163 002c 00000000 		.word	tx
 164              		.cfi_endproc
 165              	.LFE64:
 166              		.size	SPIS_sendData, .-SPIS_sendData
 167              		.comm	tx,8,4
 168              		.global	rxFlag
 169              		.bss
 170              		.align	2
 171              		.type	rxFlag, %object
 172              		.size	rxFlag, 4
 173              	rxFlag:
 174 0000 00000000 		.space	4
 175              		.text
 176              	.Letext0:
 177              		.file 2 "c:\\program files (x86)\\cypress\\psoc creator\\4.3\\psoc creator\\import\\gnu\\arm\\5.4.
 178              		.file 3 "c:\\program files (x86)\\cypress\\psoc creator\\4.3\\psoc creator\\import\\gnu\\arm\\5.4.
 179              		.file 4 "Generated_Source\\PSoC5/cytypes.h"
 180              		.file 5 "Generated_Source\\PSoC5/core_cm3.h"
 181              		.file 6 "Generated_Source\\PSoC5/SPI_int.h"
 182              		.file 7 "Generated_Source\\PSoC5/SPIS.h"
 183              		.file 8 "Generated_Source\\PSoC5/rx_isr.h"