ARM GAS  C:\Users\cring\AppData\Local\Temp\ccZUplmO.s 			page 1


   1              		.syntax unified
   2              		.cpu cortex-m3
   3              		.fpu softvfp
   4              		.eabi_attribute 20, 1
   5              		.eabi_attribute 21, 1
   6              		.eabi_attribute 23, 3
   7              		.eabi_attribute 24, 1
   8              		.eabi_attribute 25, 1
   9              		.eabi_attribute 26, 1
  10              		.eabi_attribute 30, 1
  11              		.eabi_attribute 34, 1
  12              		.eabi_attribute 18, 4
  13              		.thumb
  14              		.syntax unified
  15              		.file	"States.c"
  16              		.text
  17              	.Ltext0:
  18              		.cfi_sections	.debug_frame
  19              		.section	.text.Next_state_Logic,"ax",%progbits
  20              		.align	2
  21              		.global	Next_state_Logic
  22              		.thumb
  23              		.thumb_func
  24              		.type	Next_state_Logic, %function
  25              	Next_state_Logic:
  26              	.LFB64:
  27              		.file 1 "States.c"
   1:States.c      **** #include "States.h"
   2:States.c      **** #include "Stopur.h"
   3:States.c      **** #include "Display.h"
   4:States.c      **** 
   5:States.c      **** states state;
   6:States.c      **** 
   7:States.c      **** #define glasvaegtp1 25 //eksempel
   8:States.c      **** #define glasvaegtp2 25 //eksempel - skal testes
   9:States.c      **** #define afvigelse 10 // maksimum mængde væske, der må være i glas efter spil  -  skal testes yd
  10:States.c      **** #define delay 100
  11:States.c      **** 
  12:States.c      **** int glasvaegtWinner = 0;
  13:States.c      **** int glasvaegtLoser = 0;
  14:States.c      **** int pLoser = 0;
  15:States.c      **** int tidWinner = 0;
  16:States.c      **** int tidLoser = 0;
  17:States.c      **** 
  18:States.c      **** 
  19:States.c      **** 
  20:States.c      **** 
  21:States.c      **** void Next_state_Logic(){
  28              		.loc 1 21 0
  29              		.cfi_startproc
  30              		@ args = 0, pretend = 0, frame = 0
  31              		@ frame_needed = 0, uses_anonymous_args = 0
  32 0000 10B5     		push	{r4, lr}
  33              		.cfi_def_cfa_offset 8
  34              		.cfi_offset 4, -8
  35              		.cfi_offset 14, -4
  22:States.c      **** switch(state)
ARM GAS  C:\Users\cring\AppData\Local\Temp\ccZUplmO.s 			page 2


  36              		.loc 1 22 0
  37 0002 6C4B     		ldr	r3, .L31
  38 0004 1B78     		ldrb	r3, [r3]	@ zero_extendqisi2
  39 0006 132B     		cmp	r3, #19
  40 0008 00F2D280 		bhi	.L1
  41 000c DFE813F0 		tbh	[pc, r3, lsl #1]
  42              	.L4:
  43 0010 1400     		.2byte	(.L3-.L4)/2
  44 0012 2000     		.2byte	(.L5-.L4)/2
  45 0014 2400     		.2byte	(.L6-.L4)/2
  46 0016 4000     		.2byte	(.L7-.L4)/2
  47 0018 D000     		.2byte	(.L1-.L4)/2
  48 001a 5600     		.2byte	(.L8-.L4)/2
  49 001c 7A00     		.2byte	(.L9-.L4)/2
  50 001e 7E00     		.2byte	(.L10-.L4)/2
  51 0020 A200     		.2byte	(.L11-.L4)/2
  52 0022 A600     		.2byte	(.L13-.L4)/2
  53 0024 D000     		.2byte	(.L1-.L4)/2
  54 0026 D000     		.2byte	(.L1-.L4)/2
  55 0028 D000     		.2byte	(.L1-.L4)/2
  56 002a D000     		.2byte	(.L1-.L4)/2
  57 002c A600     		.2byte	(.L13-.L4)/2
  58 002e B100     		.2byte	(.L14-.L4)/2
  59 0030 B500     		.2byte	(.L15-.L4)/2
  60 0032 BD00     		.2byte	(.L16-.L4)/2
  61 0034 C500     		.2byte	(.L17-.L4)/2
  62 0036 CD00     		.2byte	(.L18-.L4)/2
  63              		.p2align 1
  64              	.L3:
  23:States.c      ****         {
  24:States.c      ****             
  25:States.c      ****         case IDLE:
  26:States.c      ****             {
  27:States.c      ****                 if(BPptr.ButtonPushed == 1)                //hvis startknap 
  65              		.loc 1 27 0
  66 0038 5F4B     		ldr	r3, .L31+4
  67 003a 1B68     		ldr	r3, [r3]
  68 003c 012B     		cmp	r3, #1
  69 003e 03D1     		bne	.L19
  28:States.c      ****                 {                               
  29:States.c      ****                     state =  EVALUATING_WEIGHT; //state -> Evaluating Weight  
  70              		.loc 1 29 0
  71 0040 0222     		movs	r2, #2
  72 0042 5C4B     		ldr	r3, .L31
  73 0044 1A70     		strb	r2, [r3]
  74 0046 10BD     		pop	{r4, pc}
  75              	.L19:
  30:States.c      ****                 }
  31:States.c      ****             
  32:States.c      ****                 else
  33:States.c      ****                 {   
  34:States.c      ****                     state = IDLE;               //ellers bliv her
  76              		.loc 1 34 0
  77 0048 0022     		movs	r2, #0
  78 004a 5A4B     		ldr	r3, .L31
  79 004c 1A70     		strb	r2, [r3]
  80 004e 10BD     		pop	{r4, pc}
ARM GAS  C:\Users\cring\AppData\Local\Temp\ccZUplmO.s 			page 3


  81              	.L5:
  35:States.c      ****                 }
  36:States.c      ****             }
  37:States.c      ****             break;
  38:States.c      ****            
  39:States.c      ****         case GOING_IDLE :
  40:States.c      ****             {
  41:States.c      ****                 state = IDLE;                   //state -> Idle
  82              		.loc 1 41 0
  83 0050 0022     		movs	r2, #0
  84 0052 584B     		ldr	r3, .L31
  85 0054 1A70     		strb	r2, [r3]
  42:States.c      ****             }
  43:States.c      ****             break;
  86              		.loc 1 43 0
  87 0056 10BD     		pop	{r4, pc}
  88              	.L6:
  44:States.c      ****             
  45:States.c      ****         case EVALUATING_WEIGHT :
  46:States.c      ****             {
  47:States.c      ****                 if (CompareWeight() == 1)       //hvis vægten passer
  89              		.loc 1 47 0
  90 0058 FFF7FEFF 		bl	CompareWeight
  91              	.LVL0:
  92 005c 0128     		cmp	r0, #1
  93 005e 03D1     		bne	.L20
  48:States.c      ****                 {
  49:States.c      ****                     state = READY;
  94              		.loc 1 49 0
  95 0060 0322     		movs	r2, #3
  96 0062 544B     		ldr	r3, .L31
  97 0064 1A70     		strb	r2, [r3]
  98 0066 10BD     		pop	{r4, pc}
  99              	.L20:
  50:States.c      ****                 }
  51:States.c      ****                 else if (CompareWeight() != 1)  //hvis vægten ikke passer p1>p2
 100              		.loc 1 51 0
 101 0068 FFF7FEFF 		bl	CompareWeight
 102              	.LVL1:
 103 006c 0128     		cmp	r0, #1
 104 006e 03D0     		beq	.L21
  52:States.c      ****                 {
  53:States.c      ****                     state = ERR_WEIGHT;
 105              		.loc 1 53 0
 106 0070 0F22     		movs	r2, #15
 107 0072 504B     		ldr	r3, .L31
 108 0074 1A70     		strb	r2, [r3]
 109 0076 10BD     		pop	{r4, pc}
 110              	.L21:
  54:States.c      ****                 }
  55:States.c      ****                 else if (BPptr.ButtonPushed == 1)
 111              		.loc 1 55 0
 112 0078 4F4B     		ldr	r3, .L31+4
 113 007a 1B68     		ldr	r3, [r3]
 114 007c 012B     		cmp	r3, #1
 115 007e 03D1     		bne	.L22
  56:States.c      ****                 {
ARM GAS  C:\Users\cring\AppData\Local\Temp\ccZUplmO.s 			page 4


  57:States.c      ****                     state = GOING_IDLE;
 116              		.loc 1 57 0
 117 0080 0122     		movs	r2, #1
 118 0082 4C4B     		ldr	r3, .L31
 119 0084 1A70     		strb	r2, [r3]
 120 0086 10BD     		pop	{r4, pc}
 121              	.L22:
  58:States.c      ****                 }
  59:States.c      ****                 else 
  60:States.c      ****                     state = EVALUATING_WEIGHT;
 122              		.loc 1 60 0
 123 0088 0222     		movs	r2, #2
 124 008a 4A4B     		ldr	r3, .L31
 125 008c 1A70     		strb	r2, [r3]
 126 008e 10BD     		pop	{r4, pc}
 127              	.L7:
  61:States.c      ****                 
  62:States.c      ****             }
  63:States.c      ****             break;
  64:States.c      ****             
  65:States.c      ****         case READY :
  66:States.c      ****             {
  67:States.c      ****                 if (timeout() == 1)
 128              		.loc 1 67 0
 129 0090 FFF7FEFF 		bl	timeout
 130              	.LVL2:
 131 0094 18B1     		cbz	r0, .L23
  68:States.c      ****                 {
  69:States.c      ****                     state=ERR_NO_START;
 132              		.loc 1 69 0
 133 0096 1022     		movs	r2, #16
 134 0098 464B     		ldr	r3, .L31
 135 009a 1A70     		strb	r2, [r3]
 136 009c 10BD     		pop	{r4, pc}
 137              	.L23:
  70:States.c      ****                 }
  71:States.c      ****                 else if (BPptr.ButtonPushed == 1 && timeout()!=1) //hvis startknap -> Countdown
 138              		.loc 1 71 0
 139 009e 464B     		ldr	r3, .L31+4
 140 00a0 1B68     		ldr	r3, [r3]
 141 00a2 012B     		cmp	r3, #1
 142 00a4 06D1     		bne	.L24
 143              		.loc 1 71 0 is_stmt 0 discriminator 1
 144 00a6 FFF7FEFF 		bl	timeout
 145              	.LVL3:
 146 00aa 18B9     		cbnz	r0, .L24
  72:States.c      ****                 {
  73:States.c      ****                     state = COUNTDOWN;
 147              		.loc 1 73 0 is_stmt 1
 148 00ac 0422     		movs	r2, #4
 149 00ae 414B     		ldr	r3, .L31
 150 00b0 1A70     		strb	r2, [r3]
 151 00b2 10BD     		pop	{r4, pc}
 152              	.L24:
  74:States.c      ****                 }
  75:States.c      ****                 else 
  76:States.c      ****                 {
ARM GAS  C:\Users\cring\AppData\Local\Temp\ccZUplmO.s 			page 5


  77:States.c      ****                     state = READY;
 153              		.loc 1 77 0
 154 00b4 0322     		movs	r2, #3
 155 00b6 3F4B     		ldr	r3, .L31
 156 00b8 1A70     		strb	r2, [r3]
 157 00ba 10BD     		pop	{r4, pc}
 158              	.L8:
  78:States.c      ****                 }    
  79:States.c      ****             }
  80:States.c      ****             break;
  81:States.c      ****             
  82:States.c      ****         case COUNTDOWN :
  83:States.c      ****             {
  84:States.c      ****               
  85:States.c      ****                 //start timer;
  86:States.c      ****                 
  87:States.c      ****                 /*if () timer halløj (3-2-1-CHUG)
  88:States.c      ****                 {
  89:States.c      ****                     state = CHUG 
  90:States.c      ****                 }
  91:States.c      ****                 
  92:States.c      ****             
  93:States.c      ****                 else  if () //Hvis glasset løftes inden timer har talt ned fra 3-2-1-CHUG
  94:States.c      ****                 (pseudokode) -> hvis (((nuværende timer < countdown timer) && (readdata1() < fyldt
  95:States.c      ****                 {
  96:States.c      ****                     state = ERR_FALSE_START    
  97:States.c      ****                 }
  98:States.c      ****                 
  99:States.c      ****                 */
 100:States.c      ****             }
 101:States.c      ****             break;
 102:States.c      ****             
 103:States.c      ****         case CHUG:
 104:States.c      ****             {
 105:States.c      ****                 if(readdata1() != 0 || readdata2() != 0){
 159              		.loc 1 105 0
 160 00bc FFF7FEFF 		bl	readdata1
 161              	.LVL4:
 162 00c0 18B9     		cbnz	r0, .L25
 163              		.loc 1 105 0 is_stmt 0 discriminator 1
 164 00c2 FFF7FEFF 		bl	readdata2
 165              	.LVL5:
 166 00c6 0028     		cmp	r0, #0
 167 00c8 72D0     		beq	.L1
 168              	.L25:
 106:States.c      ****                     CyDelay(delay); //vent med at læse til efter inital impact
 169              		.loc 1 106 0 is_stmt 1
 170 00ca 6420     		movs	r0, #100
 171 00cc FFF7FEFF 		bl	CyDelay
 172              	.LVL6:
 107:States.c      ****                     
 108:States.c      ****                     if((glasvaegtp1 + afvigelse) >= readdata1()) //Her skal det erklæres hvilken a
 173              		.loc 1 108 0
 174 00d0 FFF7FEFF 		bl	readdata1
 175              	.LVL7:
 176 00d4 2328     		cmp	r0, #35
 177 00d6 08D8     		bhi	.L26
ARM GAS  C:\Users\cring\AppData\Local\Temp\ccZUplmO.s 			page 6


 109:States.c      ****                     {
 110:States.c      ****                         pLoser = 1; //player2 taber
 178              		.loc 1 110 0
 179 00d8 384B     		ldr	r3, .L31+8
 180 00da 0122     		movs	r2, #1
 181 00dc 1A60     		str	r2, [r3]
 111:States.c      ****                         glasvaegtLoser = glasvaegtp2;
 182              		.loc 1 111 0
 183 00de 1922     		movs	r2, #25
 184 00e0 5A60     		str	r2, [r3, #4]
 112:States.c      ****                         state = WINNER_DONE; //assign glasvaegtp1/p2 til glasvaegtLoser og glasvaeg
 185              		.loc 1 112 0
 186 00e2 0622     		movs	r2, #6
 187 00e4 334B     		ldr	r3, .L31
 188 00e6 1A70     		strb	r2, [r3]
 189 00e8 10BD     		pop	{r4, pc}
 190              	.L26:
 113:States.c      ****                                         
 114:States.c      ****                     }
 115:States.c      ****                     else if ((glasvaegtp2 + afvigelse) >= readdata2()) //hvis spiller2 vinder, sæt
 191              		.loc 1 115 0
 192 00ea FFF7FEFF 		bl	readdata2
 193              	.LVL8:
 194 00ee 2328     		cmp	r0, #35
 195 00f0 5ED8     		bhi	.L1
 116:States.c      ****                     {
 117:States.c      ****                         pLoser = 0; //player 1 taber
 196              		.loc 1 117 0
 197 00f2 324B     		ldr	r3, .L31+8
 198 00f4 0022     		movs	r2, #0
 199 00f6 1A60     		str	r2, [r3]
 118:States.c      ****                         glasvaegtLoser = glasvaegtp1;
 200              		.loc 1 118 0
 201 00f8 1922     		movs	r2, #25
 202 00fa 5A60     		str	r2, [r3, #4]
 119:States.c      ****                         state = WINNER_DONE;
 203              		.loc 1 119 0
 204 00fc 0622     		movs	r2, #6
 205 00fe 2D4B     		ldr	r3, .L31
 206 0100 1A70     		strb	r2, [r3]
 207 0102 10BD     		pop	{r4, pc}
 208              	.L9:
 120:States.c      ****                     }
 121:States.c      ****                     /*else if(timeoutTimer >= 2 min)
 122:States.c      ****                     {
 123:States.c      ****                         state =ERR_TIMEOUT;
 124:States.c      ****                     }
 125:States.c      ****                     */       
 126:States.c      ****                 }
 127:States.c      ****             }
 128:States.c      ****             break;    
 129:States.c      ****             
 130:States.c      ****         case WINNER_DONE:
 131:States.c      ****             {
 132:States.c      ****                 state = EVALUATING_NEW_WEIGHT;       
 209              		.loc 1 132 0
 210 0104 0722     		movs	r2, #7
ARM GAS  C:\Users\cring\AppData\Local\Temp\ccZUplmO.s 			page 7


 211 0106 2B4B     		ldr	r3, .L31
 212 0108 1A70     		strb	r2, [r3]
 133:States.c      ****             }
 134:States.c      ****             break;
 213              		.loc 1 134 0
 214 010a 10BD     		pop	{r4, pc}
 215              	.L10:
 135:States.c      ****             
 136:States.c      ****         case EVALUATING_NEW_WEIGHT :
 137:States.c      ****             {
 138:States.c      ****                 if((readdataLoser(pLoser) != 0))
 216              		.loc 1 138 0
 217 010c 2B4B     		ldr	r3, .L31+8
 218 010e 1868     		ldr	r0, [r3]
 219 0110 FFF7FEFF 		bl	readdataLoser
 220              	.LVL9:
 221 0114 D0B1     		cbz	r0, .L27
 139:States.c      ****                 {
 140:States.c      ****                     CyDelay(delay); //vent med at læse til efter inital impact
 222              		.loc 1 140 0
 223 0116 6420     		movs	r0, #100
 224 0118 FFF7FEFF 		bl	CyDelay
 225              	.LVL10:
 141:States.c      ****                     if (glasvaegtLoser + afvigelse < readdataLoser(pLoser))
 226              		.loc 1 141 0
 227 011c 274B     		ldr	r3, .L31+8
 228 011e 5C68     		ldr	r4, [r3, #4]
 229 0120 0A34     		adds	r4, r4, #10
 230 0122 1868     		ldr	r0, [r3]
 231 0124 FFF7FEFF 		bl	readdataLoser
 232              	.LVL11:
 233 0128 8442     		cmp	r4, r0
 234 012a 03DA     		bge	.L28
 142:States.c      ****                     {
 143:States.c      ****                         state = LOSER_DONE;
 235              		.loc 1 143 0
 236 012c 0822     		movs	r2, #8
 237 012e 214B     		ldr	r3, .L31
 238 0130 1A70     		strb	r2, [r3]
 239 0132 10BD     		pop	{r4, pc}
 240              	.L28:
 144:States.c      ****                     }
 145:States.c      ****                      else if (glasvaegtLoser + afvigelse > readdataLoser(pLoser))
 241              		.loc 1 145 0
 242 0134 214B     		ldr	r3, .L31+8
 243 0136 5C68     		ldr	r4, [r3, #4]
 244 0138 0A34     		adds	r4, r4, #10
 245 013a 1868     		ldr	r0, [r3]
 246 013c FFF7FEFF 		bl	readdataLoser
 247              	.LVL12:
 248 0140 8442     		cmp	r4, r0
 249 0142 35DD     		ble	.L1
 146:States.c      ****                     {
 147:States.c      ****                         state = ERR_NOCHUG;
 250              		.loc 1 147 0
 251 0144 1322     		movs	r2, #19
 252 0146 1B4B     		ldr	r3, .L31
ARM GAS  C:\Users\cring\AppData\Local\Temp\ccZUplmO.s 			page 8


 253 0148 1A70     		strb	r2, [r3]
 254 014a 10BD     		pop	{r4, pc}
 255              	.L27:
 148:States.c      ****                     }
 149:States.c      ****                 }
 150:States.c      ****                 else 
 151:States.c      ****                 {
 152:States.c      ****                     state = EVALUATING_NEW_WEIGHT;
 256              		.loc 1 152 0
 257 014c 0722     		movs	r2, #7
 258 014e 194B     		ldr	r3, .L31
 259 0150 1A70     		strb	r2, [r3]
 260 0152 10BD     		pop	{r4, pc}
 261              	.L11:
 153:States.c      ****                 }
 154:States.c      ****                
 155:States.c      ****             }   
 156:States.c      ****             break;
 157:States.c      ****             
 158:States.c      ****         case LOSER_DONE:
 159:States.c      ****             {
 160:States.c      ****                 state = WEIGHT_CONFIRMED;
 262              		.loc 1 160 0
 263 0154 0922     		movs	r2, #9
 264 0156 174B     		ldr	r3, .L31
 265 0158 1A70     		strb	r2, [r3]
 161:States.c      ****             }  
 162:States.c      ****             break;
 266              		.loc 1 162 0
 267 015a 10BD     		pop	{r4, pc}
 268              	.L13:
 163:States.c      ****         case WEIGHT_CONFIRMED:
 164:States.c      ****             {
 165:States.c      ****                 state = GAME_OVER;
 166:States.c      ****             }    
 167:States.c      ****         case GAME_OVER:
 168:States.c      ****             {
 169:States.c      ****                 if (BPptr.ButtonPushed != 0){
 269              		.loc 1 169 0
 270 015c 164B     		ldr	r3, .L31+4
 271 015e 1B68     		ldr	r3, [r3]
 272 0160 1BB1     		cbz	r3, .L29
 170:States.c      ****                     state = GOING_IDLE;
 273              		.loc 1 170 0
 274 0162 0122     		movs	r2, #1
 275 0164 134B     		ldr	r3, .L31
 276 0166 1A70     		strb	r2, [r3]
 277 0168 10BD     		pop	{r4, pc}
 278              	.L29:
 171:States.c      ****                 }
 172:States.c      ****                 else 
 173:States.c      ****                 state = GAME_OVER;
 279              		.loc 1 173 0
 280 016a 0E22     		movs	r2, #14
 281 016c 114B     		ldr	r3, .L31
 282 016e 1A70     		strb	r2, [r3]
 283 0170 10BD     		pop	{r4, pc}
ARM GAS  C:\Users\cring\AppData\Local\Temp\ccZUplmO.s 			page 9


 284              	.L14:
 174:States.c      ****             }
 175:States.c      ****             break;
 176:States.c      ****         
 177:States.c      ****             
 178:States.c      ****             
 179:States.c      ****             
 180:States.c      ****             
 181:States.c      ****             
 182:States.c      ****             
 183:States.c      ****             
 184:States.c      ****             // ------------------------------------ERR STATES--------------------------------------
 185:States.c      ****             
 186:States.c      ****             case ERR_WEIGHT:
 187:States.c      ****             {
 188:States.c      ****                 state = EVALUATING_WEIGHT;
 285              		.loc 1 188 0
 286 0172 0222     		movs	r2, #2
 287 0174 0F4B     		ldr	r3, .L31
 288 0176 1A70     		strb	r2, [r3]
 189:States.c      ****             }    
 190:States.c      ****             break;
 289              		.loc 1 190 0
 290 0178 10BD     		pop	{r4, pc}
 291              	.L15:
 191:States.c      ****             
 192:States.c      ****             case ERR_NO_START:
 193:States.c      ****             {
 194:States.c      ****                 if (BPptr.ButtonPushed == 1)
 292              		.loc 1 194 0
 293 017a 0F4B     		ldr	r3, .L31+4
 294 017c 1B68     		ldr	r3, [r3]
 295 017e 012B     		cmp	r3, #1
 296 0180 16D1     		bne	.L1
 195:States.c      ****                 {
 196:States.c      ****                     state = GOING_IDLE;
 297              		.loc 1 196 0
 298 0182 0122     		movs	r2, #1
 299 0184 0B4B     		ldr	r3, .L31
 300 0186 1A70     		strb	r2, [r3]
 301 0188 10BD     		pop	{r4, pc}
 302              	.L16:
 197:States.c      ****                 }
 198:States.c      ****                 
 199:States.c      ****             }    
 200:States.c      ****             break;
 201:States.c      ****             
 202:States.c      ****             case ERR_FALSE_START:
 203:States.c      ****             {
 204:States.c      ****                 if (BPptr.ButtonPushed == 1)
 303              		.loc 1 204 0
 304 018a 0B4B     		ldr	r3, .L31+4
 305 018c 1B68     		ldr	r3, [r3]
 306 018e 012B     		cmp	r3, #1
 307 0190 0ED1     		bne	.L1
 205:States.c      ****                 {
 206:States.c      ****                     state = GOING_IDLE;
ARM GAS  C:\Users\cring\AppData\Local\Temp\ccZUplmO.s 			page 10


 308              		.loc 1 206 0
 309 0192 0122     		movs	r2, #1
 310 0194 074B     		ldr	r3, .L31
 311 0196 1A70     		strb	r2, [r3]
 312 0198 10BD     		pop	{r4, pc}
 313              	.L17:
 207:States.c      ****                 }
 208:States.c      ****             }    
 209:States.c      ****             break;
 210:States.c      ****             
 211:States.c      ****             case ERR_TIMEOUT:
 212:States.c      ****             {
 213:States.c      ****                 if (BPptr.ButtonPushed == 1)
 314              		.loc 1 213 0
 315 019a 074B     		ldr	r3, .L31+4
 316 019c 1B68     		ldr	r3, [r3]
 317 019e 012B     		cmp	r3, #1
 318 01a0 06D1     		bne	.L1
 214:States.c      ****                 {
 215:States.c      ****                     state = GOING_IDLE;
 319              		.loc 1 215 0
 320 01a2 0122     		movs	r2, #1
 321 01a4 034B     		ldr	r3, .L31
 322 01a6 1A70     		strb	r2, [r3]
 323 01a8 10BD     		pop	{r4, pc}
 324              	.L18:
 216:States.c      ****                 }
 217:States.c      ****             }    
 218:States.c      ****             break;
 219:States.c      ****             
 220:States.c      ****             case ERR_NOCHUG:
 221:States.c      ****             {
 222:States.c      ****                 state = WINNER_DONE;
 325              		.loc 1 222 0
 326 01aa 0622     		movs	r2, #6
 327 01ac 014B     		ldr	r3, .L31
 328 01ae 1A70     		strb	r2, [r3]
 329              	.L1:
 330 01b0 10BD     		pop	{r4, pc}
 331              	.L32:
 332 01b2 00BF     		.align	2
 333              	.L31:
 334 01b4 00000000 		.word	state
 335 01b8 00000000 		.word	BPptr
 336 01bc 00000000 		.word	.LANCHOR0
 337              		.cfi_endproc
 338              	.LFE64:
 339              		.size	Next_state_Logic, .-Next_state_Logic
 340              		.section	.text.Output_logic,"ax",%progbits
 341              		.align	2
 342              		.global	Output_logic
 343              		.thumb
 344              		.thumb_func
 345              		.type	Output_logic, %function
 346              	Output_logic:
 347              	.LFB65:
 223:States.c      ****             }    
ARM GAS  C:\Users\cring\AppData\Local\Temp\ccZUplmO.s 			page 11


 224:States.c      ****             break;
 225:States.c      ****             
 226:States.c      ****             
 227:States.c      ****         default :
 228:States.c      ****             {
 229:States.c      ****             }
 230:States.c      ****             break;
 231:States.c      ****             
 232:States.c      ****         
 233:States.c      ****        }
 234:States.c      **** 
 235:States.c      **** }
 236:States.c      **** 
 237:States.c      **** /*
 238:States.c      **** void LEDinitSeq();   //Initieringssekvens
 239:States.c      **** void idleSeq();      //Idle-sekvens
 240:States.c      **** 
 241:States.c      **** void loserSeq();     //Tabersekvens
 242:States.c      **** 
 243:States.c      **** void zeroCalibrateSeq(); //Kalibreringssekvens
 244:States.c      **** 
 245:States.c      **** void checkSeq();     //Tjek vægt sekvens
 246:States.c      **** 
 247:States.c      **** void weightapprovedSeq(); //Vægt godkendt sekvens
 248:States.c      **** 
 249:States.c      **** void startSeq();     //Start sekvens
 250:States.c      **** void errorSeq();     //Fejl sekvens
 251:States.c      **** void winnerSeq();    //Vindersekvens
 252:States.c      **** */
 253:States.c      **** 
 254:States.c      **** void Output_logic(){
 348              		.loc 1 254 0
 349              		.cfi_startproc
 350              		@ args = 0, pretend = 0, frame = 0
 351              		@ frame_needed = 0, uses_anonymous_args = 0
 352 0000 08B5     		push	{r3, lr}
 353              		.cfi_def_cfa_offset 8
 354              		.cfi_offset 3, -8
 355              		.cfi_offset 14, -4
 255:States.c      **** switch(state)
 356              		.loc 1 255 0
 357 0002 2D4B     		ldr	r3, .L45
 358 0004 1B78     		ldrb	r3, [r3]	@ zero_extendqisi2
 359 0006 033B     		subs	r3, r3, #3
 360 0008 102B     		cmp	r3, #16
 361 000a 54D8     		bhi	.L33
 362 000c DFE803F0 		tbb	[pc, r3]
 363              	.L36:
 364 0010 09       		.byte	(.L35-.L36)/2
 365 0011 53       		.byte	(.L33-.L36)/2
 366 0012 10       		.byte	(.L37-.L36)/2
 367 0013 21       		.byte	(.L38-.L36)/2
 368 0014 36       		.byte	(.L39-.L36)/2
 369 0015 53       		.byte	(.L33-.L36)/2
 370 0016 53       		.byte	(.L33-.L36)/2
 371 0017 53       		.byte	(.L33-.L36)/2
 372 0018 53       		.byte	(.L33-.L36)/2
ARM GAS  C:\Users\cring\AppData\Local\Temp\ccZUplmO.s 			page 12


 373 0019 53       		.byte	(.L33-.L36)/2
 374 001a 53       		.byte	(.L33-.L36)/2
 375 001b 43       		.byte	(.L40-.L36)/2
 376 001c 46       		.byte	(.L41-.L36)/2
 377 001d 53       		.byte	(.L33-.L36)/2
 378 001e 53       		.byte	(.L33-.L36)/2
 379 001f 53       		.byte	(.L33-.L36)/2
 380 0020 4D       		.byte	(.L42-.L36)/2
 381 0021 00       		.p2align 1
 382              	.L35:
 256:States.c      ****         {
 257:States.c      ****             
 258:States.c      ****         case IDLE:
 259:States.c      ****             {
 260:States.c      ****                 //idleSeq();
 261:States.c      ****             }
 262:States.c      ****             break;
 263:States.c      ****            
 264:States.c      ****         case GOING_IDLE :
 265:States.c      ****             {
 266:States.c      ****                //clearDisp();    
 267:States.c      ****             }
 268:States.c      ****             break;
 269:States.c      ****             
 270:States.c      ****         case EVALUATING_WEIGHT :
 271:States.c      ****             {
 272:States.c      ****                 //checkSeq();
 273:States.c      ****             }
 274:States.c      ****             break;
 275:States.c      ****             
 276:States.c      ****         case READY :
 277:States.c      ****             {
 278:States.c      ****                if (timeout()== 1)
 383              		.loc 1 278 0
 384 0022 FFF7FEFF 		bl	timeout
 385              	.LVL13:
 279:States.c      ****             {
 280:States.c      ****                 //errorSeq(1);
 281:States.c      ****                 //errorSeq(2);  
 282:States.c      ****             } 
 283:States.c      ****             stopTimer();
 386              		.loc 1 283 0
 387 0026 FFF7FEFF 		bl	stopTimer
 388              	.LVL14:
 284:States.c      ****             clearTimer();
 389              		.loc 1 284 0
 390 002a FFF7FEFF 		bl	clearTimer
 391              	.LVL15:
 285:States.c      ****             }
 286:States.c      ****             break;
 392              		.loc 1 286 0
 393 002e 08BD     		pop	{r3, pc}
 394              	.L37:
 287:States.c      ****             
 288:States.c      ****         case COUNTDOWN :
 289:States.c      ****             {
 290:States.c      ****                 //startSeq();
ARM GAS  C:\Users\cring\AppData\Local\Temp\ccZUplmO.s 			page 13


 291:States.c      ****             }
 292:States.c      ****             break;
 293:States.c      ****             
 294:States.c      ****         case CHUG:
 295:States.c      ****             {
 296:States.c      ****                 dispTime(1, getTime());
 395              		.loc 1 296 0
 396 0030 FFF7FEFF 		bl	getTime
 397              	.LVL16:
 398 0034 0146     		mov	r1, r0
 399 0036 0120     		movs	r0, #1
 400 0038 FFF7FEFF 		bl	dispTime
 401              	.LVL17:
 297:States.c      ****                 dispTime(2, getTime());
 402              		.loc 1 297 0
 403 003c FFF7FEFF 		bl	getTime
 404              	.LVL18:
 405 0040 0146     		mov	r1, r0
 406 0042 0220     		movs	r0, #2
 407 0044 FFF7FEFF 		bl	dispTime
 408              	.LVL19:
 298:States.c      ****                 startTimer();
 409              		.loc 1 298 0
 410 0048 FFF7FEFF 		bl	startTimer
 411              	.LVL20:
 299:States.c      ****                 //sekvens for spil igang 
 300:States.c      ****             if (timeout()==1)
 412              		.loc 1 300 0
 413 004c FFF7FEFF 		bl	timeout
 414              	.LVL21:
 301:States.c      ****             {
 302:States.c      ****                 //errorSeq(1);
 303:States.c      ****                 //errorSeq(2);
 304:States.c      ****             }
 305:States.c      ****             }
 306:States.c      ****             break;    
 415              		.loc 1 306 0
 416 0050 08BD     		pop	{r3, pc}
 417              	.L38:
 307:States.c      ****             
 308:States.c      ****         case WINNER_DONE:
 309:States.c      ****             {
 310:States.c      ****               if (pLoser == 1)
 418              		.loc 1 310 0
 419 0052 1A4B     		ldr	r3, .L45+4
 420 0054 1B68     		ldr	r3, [r3]
 421 0056 012B     		cmp	r3, #1
 422 0058 07D1     		bne	.L43
 311:States.c      ****             {
 312:States.c      ****               stopLCD(1);
 423              		.loc 1 312 0
 424 005a 0120     		movs	r0, #1
 425 005c FFF7FEFF 		bl	stopLCD
 426              	.LVL22:
 313:States.c      ****               tidWinner = getTime();
 427              		.loc 1 313 0
 428 0060 FFF7FEFF 		bl	getTime
ARM GAS  C:\Users\cring\AppData\Local\Temp\ccZUplmO.s 			page 14


 429              	.LVL23:
 430 0064 154B     		ldr	r3, .L45+4
 431 0066 9860     		str	r0, [r3, #8]
 432 0068 08BD     		pop	{r3, pc}
 433              	.L43:
 314:States.c      ****               // afspiller vinder sekvens
 315:States.c      ****             }
 316:States.c      ****             else if (pLoser == 0)
 434              		.loc 1 316 0
 435 006a 23BB     		cbnz	r3, .L33
 317:States.c      ****             {
 318:States.c      ****                 stopLCD(2);
 436              		.loc 1 318 0
 437 006c 0220     		movs	r0, #2
 438 006e FFF7FEFF 		bl	stopLCD
 439              	.LVL24:
 319:States.c      ****                 tidWinner = getTime();
 440              		.loc 1 319 0
 441 0072 FFF7FEFF 		bl	getTime
 442              	.LVL25:
 443 0076 114B     		ldr	r3, .L45+4
 444 0078 9860     		str	r0, [r3, #8]
 445 007a 08BD     		pop	{r3, pc}
 446              	.L39:
 320:States.c      ****                 // afspiller vinder sekvens
 321:States.c      ****             }
 322:States.c      ****             }
 323:States.c      ****             
 324:States.c      ****             break;
 325:States.c      ****             
 326:States.c      ****         case EVALUATING_NEW_WEIGHT :
 327:States.c      ****             {
 328:States.c      ****               stopLCD(1);
 447              		.loc 1 328 0
 448 007c 0120     		movs	r0, #1
 449 007e FFF7FEFF 		bl	stopLCD
 450              	.LVL26:
 329:States.c      ****               stopLCD(2);
 451              		.loc 1 329 0
 452 0082 0220     		movs	r0, #2
 453 0084 FFF7FEFF 		bl	stopLCD
 454              	.LVL27:
 330:States.c      ****               tidLoser = getTime();
 455              		.loc 1 330 0
 456 0088 FFF7FEFF 		bl	getTime
 457              	.LVL28:
 458 008c 0B4B     		ldr	r3, .L45+4
 459 008e D860     		str	r0, [r3, #12]
 331:States.c      ****               stopTimer();
 460              		.loc 1 331 0
 461 0090 FFF7FEFF 		bl	stopTimer
 462              	.LVL29:
 332:States.c      ****               // afspiller taber sekvens
 333:States.c      ****             }
 334:States.c      ****           
 335:States.c      ****             break;
 463              		.loc 1 335 0
ARM GAS  C:\Users\cring\AppData\Local\Temp\ccZUplmO.s 			page 15


 464 0094 08BD     		pop	{r3, pc}
 465              	.L40:
 336:States.c      ****             
 337:States.c      **** //        case LOSER_DONE:
 338:States.c      **** //            {
 339:States.c      **** //                
 340:States.c      **** //            }  
 341:States.c      **** //            break;
 342:States.c      **** //        case WEIGHT_CONFIRMED:
 343:States.c      **** //            {
 344:States.c      **** //            
 345:States.c      **** //            }    
 346:States.c      ****         case GAME_OVER:
 347:States.c      ****             {
 348:States.c      ****               clearTimer();
 466              		.loc 1 348 0
 467 0096 FFF7FEFF 		bl	clearTimer
 468              	.LVL30:
 349:States.c      ****             }
 350:States.c      ****             break;
 469              		.loc 1 350 0
 470 009a 08BD     		pop	{r3, pc}
 471              	.L41:
 351:States.c      ****         
 352:States.c      ****             
 353:States.c      ****             
 354:States.c      ****             
 355:States.c      ****             
 356:States.c      ****             
 357:States.c      ****             
 358:States.c      ****             
 359:States.c      ****             // ------------------------------------ERR STATES--------------------------------------
 360:States.c      ****             
 361:States.c      ****             case ERR_WEIGHT:
 362:States.c      ****             {
 363:States.c      ****                 if (CompareWeight() == 2)  //hvis vægten ikke passer p1>p2 -> p2 har fejlen
 472              		.loc 1 363 0
 473 009c FFF7FEFF 		bl	CompareWeight
 474              	.LVL31:
 475 00a0 0228     		cmp	r0, #2
 476 00a2 08D0     		beq	.L33
 364:States.c      ****                 {
 365:States.c      ****                     //errorSeq(2);
 366:States.c      ****                 }
 367:States.c      ****                 else if (CompareWeight() == 3)  //hvis vægten ikke passer p1<p2 -> p1 har fejlen
 477              		.loc 1 367 0
 478 00a4 FFF7FEFF 		bl	CompareWeight
 479              	.LVL32:
 480 00a8 08BD     		pop	{r3, pc}
 481              	.L42:
 368:States.c      ****                 {
 369:States.c      ****                     //errorSeq(1);
 370:States.c      ****                 }
 371:States.c      **** 
 372:States.c      ****             }    
 373:States.c      ****             break;
 374:States.c      ****             
ARM GAS  C:\Users\cring\AppData\Local\Temp\ccZUplmO.s 			page 16


 375:States.c      ****             case ERR_NO_START:
 376:States.c      ****             {
 377:States.c      ****                 //timer if-else statement
 378:States.c      ****             }    
 379:States.c      ****             break;
 380:States.c      ****             
 381:States.c      ****             case ERR_FALSE_START:
 382:States.c      ****             {
 383:States.c      ****                 //timer if-else statement
 384:States.c      ****             }    
 385:States.c      ****             break;
 386:States.c      ****             
 387:States.c      ****             case ERR_TIMEOUT:
 388:States.c      ****             {
 389:States.c      ****                 //timer if-else statement
 390:States.c      ****             }    
 391:States.c      ****             break;
 392:States.c      ****             
 393:States.c      ****             case ERR_NOCHUG:
 394:States.c      ****             {
 395:States.c      ****                 if (glasvaegtp1 < readdata1()) 
 482              		.loc 1 395 0
 483 00aa FFF7FEFF 		bl	readdata1
 484              	.LVL33:
 485 00ae 1928     		cmp	r0, #25
 486 00b0 01D8     		bhi	.L33
 396:States.c      ****                 {
 397:States.c      ****                     //errorSeq(1);
 398:States.c      ****                 }
 399:States.c      ****                 else if(glasvaegtp2 < readdata2()) 
 487              		.loc 1 399 0
 488 00b2 FFF7FEFF 		bl	readdata2
 489              	.LVL34:
 490              	.L33:
 491 00b6 08BD     		pop	{r3, pc}
 492              	.L46:
 493              		.align	2
 494              	.L45:
 495 00b8 00000000 		.word	state
 496 00bc 00000000 		.word	.LANCHOR0
 497              		.cfi_endproc
 498              	.LFE65:
 499              		.size	Output_logic, .-Output_logic
 500              		.global	tidLoser
 501              		.global	tidWinner
 502              		.global	pLoser
 503              		.global	glasvaegtLoser
 504              		.global	glasvaegtWinner
 505              		.comm	state,1,1
 506              		.comm	BPptr,4,4
 507              		.bss
 508              		.align	2
 509              		.set	.LANCHOR0,. + 0
 510              		.type	pLoser, %object
 511              		.size	pLoser, 4
 512              	pLoser:
 513 0000 00000000 		.space	4
ARM GAS  C:\Users\cring\AppData\Local\Temp\ccZUplmO.s 			page 17


 514              		.type	glasvaegtLoser, %object
 515              		.size	glasvaegtLoser, 4
 516              	glasvaegtLoser:
 517 0004 00000000 		.space	4
 518              		.type	tidWinner, %object
 519              		.size	tidWinner, 4
 520              	tidWinner:
 521 0008 00000000 		.space	4
 522              		.type	tidLoser, %object
 523              		.size	tidLoser, 4
 524              	tidLoser:
 525 000c 00000000 		.space	4
 526              		.type	glasvaegtWinner, %object
 527              		.size	glasvaegtWinner, 4
 528              	glasvaegtWinner:
 529 0010 00000000 		.space	4
 530              		.text
 531              	.Letext0:
 532              		.file 2 "d:\\psoc\\psoc creator\\4.3\\psoc creator\\import\\gnu\\arm\\5.4.1\\arm-none-eabi\\includ
 533              		.file 3 "d:\\psoc\\psoc creator\\4.3\\psoc creator\\import\\gnu\\arm\\5.4.1\\arm-none-eabi\\includ
 534              		.file 4 "Startknap.h"
 535              		.file 5 "States.h"
 536              		.file 6 "Generated_Source\\PSoC5/core_cm3.h"
 537              		.file 7 "WeightSensors_.h"
 538              		.file 8 "Stopur.h"
 539              		.file 9 "Generated_Source\\PSoC5/CyLib.h"
 540              		.file 10 "Display.h"