ARM GAS  C:\Users\cring\AppData\Local\Temp\ccxgbUSx.s 			page 1


   1              		.syntax unified
   2              		.cpu cortex-m3
   3              		.fpu softvfp
   4              		.eabi_attribute 20, 1
   5              		.eabi_attribute 21, 1
   6              		.eabi_attribute 23, 3
   7              		.eabi_attribute 24, 1
   8              		.eabi_attribute 25, 1
   9              		.eabi_attribute 26, 1
  10              		.eabi_attribute 30, 1
  11              		.eabi_attribute 34, 1
  12              		.eabi_attribute 18, 4
  13              		.thumb
  14              		.syntax unified
  15              		.file	"UART.c"
  16              		.text
  17              	.Ltext0:
  18              		.cfi_sections	.debug_frame
  19              		.section	.text.handleByteReceived,"ax",%progbits
  20              		.align	2
  21              		.global	handleByteReceived
  22              		.thumb
  23              		.thumb_func
  24              		.type	handleByteReceived, %function
  25              	handleByteReceived:
  26              	.LFB65:
  27              		.file 1 "UART.c"
   1:UART.c        **** /* ========================================
   2:UART.c        ****  *
   3:UART.c        ****  * Copyright YOUR COMPANY, THE YEAR
   4:UART.c        ****  * All Rights Reserved
   5:UART.c        ****  * UNPUBLISHED, LICENSED SOFTWARE.
   6:UART.c        ****  *
   7:UART.c        ****  * CONFIDENTIAL AND PROPRIETARY INFORMATION
   8:UART.c        ****  * WHICH IS THE PROPERTY OF your company.
   9:UART.c        ****  *
  10:UART.c        ****  * ========================================
  11:UART.c        **** */
  12:UART.c        **** 
  13:UART.c        **** 
  14:UART.c        **** //    U A R T    E R    U D E L U K K E N D E    F O R    D E B U G G I N G  
  15:UART.c        **** #include "UART.h"
  16:UART.c        **** #include "WeightSensors_.h"
  17:UART.c        **** 
  18:UART.c        **** 
  19:UART.c        **** CY_ISR(ISR_UART_rx_handler)
  20:UART.c        **** {
  21:UART.c        ****     uint8_t bytesToRead = UART_1_GetRxBufferSize();
  22:UART.c        ****     while (bytesToRead > 0)
  23:UART.c        ****     {
  24:UART.c        ****         uint8_t byteReceived = UART_1_ReadRxData();
  25:UART.c        ****         
  26:UART.c        ****         handleByteReceived(byteReceived);
  27:UART.c        ****         
  28:UART.c        ****         bytesToRead--;
  29:UART.c        ****     }
  30:UART.c        **** }
ARM GAS  C:\Users\cring\AppData\Local\Temp\ccxgbUSx.s 			page 2


  31:UART.c        **** 
  32:UART.c        **** void handleByteReceived(uint8_t byteReceived)
  33:UART.c        **** {
  28              		.loc 1 33 0
  29              		.cfi_startproc
  30              		@ args = 0, pretend = 0, frame = 0
  31              		@ frame_needed = 0, uses_anonymous_args = 0
  32              	.LVL0:
  33 0000 08B5     		push	{r3, lr}
  34              		.cfi_def_cfa_offset 8
  35              		.cfi_offset 3, -8
  36              		.cfi_offset 14, -4
  34:UART.c        ****     switch(byteReceived)
  37              		.loc 1 34 0
  38 0002 3128     		cmp	r0, #49
  39 0004 02D0     		beq	.L3
  40 0006 3228     		cmp	r0, #50
  41 0008 03D0     		beq	.L4
  42 000a 08BD     		pop	{r3, pc}
  43              	.L3:
  35:UART.c        ****     {
  36:UART.c        ****         case '1' :
  37:UART.c        ****         {
  38:UART.c        ****             readdata1();
  44              		.loc 1 38 0
  45 000c FFF7FEFF 		bl	readdata1
  46              	.LVL1:
  39:UART.c        ****         }
  40:UART.c        ****         break;
  47              		.loc 1 40 0
  48 0010 08BD     		pop	{r3, pc}
  49              	.LVL2:
  50              	.L4:
  41:UART.c        ****         case '2' :
  42:UART.c        ****         {
  43:UART.c        ****             readdata2();
  51              		.loc 1 43 0
  52 0012 FFF7FEFF 		bl	readdata2
  53              	.LVL3:
  54 0016 08BD     		pop	{r3, pc}
  55              		.cfi_endproc
  56              	.LFE65:
  57              		.size	handleByteReceived, .-handleByteReceived
  58              		.section	.text.ISR_UART_rx_handler,"ax",%progbits
  59              		.align	2
  60              		.global	ISR_UART_rx_handler
  61              		.thumb
  62              		.thumb_func
  63              		.type	ISR_UART_rx_handler, %function
  64              	ISR_UART_rx_handler:
  65              	.LFB64:
  20:UART.c        ****     uint8_t bytesToRead = UART_1_GetRxBufferSize();
  66              		.loc 1 20 0
  67              		.cfi_startproc
  68              		@ args = 0, pretend = 0, frame = 0
  69              		@ frame_needed = 0, uses_anonymous_args = 0
  70 0000 10B5     		push	{r4, lr}
ARM GAS  C:\Users\cring\AppData\Local\Temp\ccxgbUSx.s 			page 3


  71              		.cfi_def_cfa_offset 8
  72              		.cfi_offset 4, -8
  73              		.cfi_offset 14, -4
  21:UART.c        ****     while (bytesToRead > 0)
  74              		.loc 1 21 0
  75 0002 FFF7FEFF 		bl	UART_1_GetRxBufferSize
  76              	.LVL4:
  77 0006 0446     		mov	r4, r0
  78              	.LVL5:
  22:UART.c        ****     {
  79              		.loc 1 22 0
  80 0008 05E0     		b	.L7
  81              	.L8:
  82              	.LBB2:
  24:UART.c        ****         
  83              		.loc 1 24 0
  84 000a FFF7FEFF 		bl	UART_1_ReadRxData
  85              	.LVL6:
  26:UART.c        ****         
  86              		.loc 1 26 0
  87 000e FFF7FEFF 		bl	handleByteReceived
  88              	.LVL7:
  28:UART.c        ****     }
  89              		.loc 1 28 0
  90 0012 013C     		subs	r4, r4, #1
  91              	.LVL8:
  92 0014 E4B2     		uxtb	r4, r4
  93              	.LVL9:
  94              	.L7:
  95              	.LBE2:
  22:UART.c        ****     {
  96              		.loc 1 22 0
  97 0016 002C     		cmp	r4, #0
  98 0018 F7D1     		bne	.L8
  30:UART.c        **** 
  99              		.loc 1 30 0
 100 001a 10BD     		pop	{r4, pc}
 101              		.cfi_endproc
 102              	.LFE64:
 103              		.size	ISR_UART_rx_handler, .-ISR_UART_rx_handler
 104              		.text
 105              	.Letext0:
 106              		.file 2 "d:\\psoc\\psoc creator\\4.3\\psoc creator\\import\\gnu\\arm\\5.4.1\\arm-none-eabi\\includ
 107              		.file 3 "d:\\psoc\\psoc creator\\4.3\\psoc creator\\import\\gnu\\arm\\5.4.1\\arm-none-eabi\\includ
 108              		.file 4 "WeightSensors_.h"
 109              		.file 5 "Generated_Source\\PSoC5/UART_1.h"
 110              		.file 6 "Generated_Source\\PSoC5/core_cm3.h"