ARM GAS  C:\Users\cring\AppData\Local\Temp\ccbFS9yp.s 			page 1


   1              		.syntax unified
   2              		.cpu cortex-m3
   3              		.fpu softvfp
   4              		.eabi_attribute 20, 1
   5              		.eabi_attribute 21, 1
   6              		.eabi_attribute 23, 3
   7              		.eabi_attribute 24, 1
   8              		.eabi_attribute 25, 1
   9              		.eabi_attribute 26, 1
  10              		.eabi_attribute 30, 1
  11              		.eabi_attribute 34, 1
  12              		.eabi_attribute 18, 4
  13              		.thumb
  14              		.syntax unified
  15              		.file	"WeightSensors.c"
  16              		.text
  17              	.Ltext0:
  18              		.cfi_sections	.debug_frame
  19              		.global	__aeabi_i2d
  20              		.global	__aeabi_ddiv
  21              		.global	__aeabi_d2uiz
  22              		.section	.text.readdata1,"ax",%progbits
  23              		.align	2
  24              		.global	readdata1
  25              		.thumb
  26              		.thumb_func
  27              		.type	readdata1, %function
  28              	readdata1:
  29              	.LFB64:
  30              		.file 1 "WeightSensors.c"
   1:WeightSensors.c **** /* ========================================
   2:WeightSensors.c ****  *
   3:WeightSensors.c ****  * Copyright YOUR COMPANY, THE YEAR
   4:WeightSensors.c ****  * All Rights Reserved
   5:WeightSensors.c ****  * UNPUBLISHED, LICENSED SOFTWARE.
   6:WeightSensors.c ****  *
   7:WeightSensors.c ****  * CONFIDENTIAL AND PROPRIETARY INFORMATION
   8:WeightSensors.c ****  * WHICH IS THE PROPERTY OF your company.
   9:WeightSensors.c ****  *
  10:WeightSensors.c ****  * ========================================
  11:WeightSensors.c **** */
  12:WeightSensors.c **** /* ========================================
  13:WeightSensors.c ****  *
  14:WeightSensors.c ****  * Copyright YOUR COMPANY, THE YEAR
  15:WeightSensors.c ****  * All Rights Reserved
  16:WeightSensors.c ****  * UNPUBLISHED, LICENSED SOFTWARE.
  17:WeightSensors.c ****  *
  18:WeightSensors.c ****  * CONFIDENTIAL AND PROPRIETARY INFORMATION
  19:WeightSensors.c ****  * WHICH IS THE PROPERTY OF your company.
  20:WeightSensors.c ****  *
  21:WeightSensors.c ****  * ========================================
  22:WeightSensors.c **** */
  23:WeightSensors.c **** #include "WeightSensors_.h"
  24:WeightSensors.c **** #define afvigelse 10                //Bestemmer fejlmargin for compareWeight.
  25:WeightSensors.c **** #define mVtoG 0.252
  26:WeightSensors.c **** 
  27:WeightSensors.c **** char uart_string[50];
ARM GAS  C:\Users\cring\AppData\Local\Temp\ccbFS9yp.s 			page 2


  28:WeightSensors.c **** ///*
  29:WeightSensors.c **** WeightSensors  WSptr = {.p1 = 0, .p2 = 0}; //WeightSensor Pointer
  30:WeightSensors.c **** 
  31:WeightSensors.c **** uint16 readdata1()
  32:WeightSensors.c **** {
  31              		.loc 1 32 0
  32              		.cfi_startproc
  33              		@ args = 0, pretend = 0, frame = 0
  34              		@ frame_needed = 0, uses_anonymous_args = 0
  35 0000 10B5     		push	{r4, lr}
  36              		.cfi_def_cfa_offset 8
  37              		.cfi_offset 4, -8
  38              		.cfi_offset 14, -4
  33:WeightSensors.c ****     PlayerSelect_Select(0);//vælg player1
  39              		.loc 1 33 0
  40 0002 0020     		movs	r0, #0
  41 0004 FFF7FEFF 		bl	PlayerSelect_FastSelect
  42              	.LVL0:
  34:WeightSensors.c ****     
  35:WeightSensors.c ****     ADC_SAR_1_StartConvert();
  43              		.loc 1 35 0
  44 0008 FFF7FEFF 		bl	ADC_SAR_1_StartConvert
  45              	.LVL1:
  36:WeightSensors.c ****     if (ADC_SAR_1_IsEndConversion(ADC_SAR_1_WAIT_FOR_RESULT)!=0){
  46              		.loc 1 36 0
  47 000c 0020     		movs	r0, #0
  48 000e FFF7FEFF 		bl	ADC_SAR_1_IsEndConversion
  49              	.LVL2:
  50 0012 C8B1     		cbz	r0, .L2
  37:WeightSensors.c ****     WSptr.p1 = ADC_SAR_1_GetResult16();
  51              		.loc 1 37 0
  52 0014 FFF7FEFF 		bl	ADC_SAR_1_GetResult16
  53              	.LVL3:
  54 0018 0F4C     		ldr	r4, .L4+8
  55 001a 2080     		strh	r0, [r4]	@ movhi
  38:WeightSensors.c ****     WSptr.p1 = ADC_SAR_1_CountsTo_mVolts(WSptr.p1);
  56              		.loc 1 38 0
  57 001c FFF7FEFF 		bl	ADC_SAR_1_CountsTo_mVolts
  58              	.LVL4:
  39:WeightSensors.c ****     WSptr.p1 /= mVtoG;                                                      // Dividerer med 0.25 f
  59              		.loc 1 39 0
  60 0020 80B2     		uxth	r0, r0
  61 0022 FFF7FEFF 		bl	__aeabi_i2d
  62              	.LVL5:
  63 0026 0AA3     		adr	r3, .L4
  64 0028 D3E90023 		ldrd	r2, [r3]
  65 002c FFF7FEFF 		bl	__aeabi_ddiv
  66              	.LVL6:
  67 0030 FFF7FEFF 		bl	__aeabi_d2uiz
  68              	.LVL7:
  69 0034 82B2     		uxth	r2, r0
  70 0036 2280     		strh	r2, [r4]	@ movhi
  40:WeightSensors.c ****     
  41:WeightSensors.c ****     //Debugging-----------------------------
  42:WeightSensors.c ****     sprintf(uart_string, "\r\ndata read from player 1: %u", WSptr.p1);     // convert to string
  71              		.loc 1 42 0
  72 0038 084C     		ldr	r4, .L4+12
ARM GAS  C:\Users\cring\AppData\Local\Temp\ccbFS9yp.s 			page 3


  73 003a 0949     		ldr	r1, .L4+16
  74 003c 2046     		mov	r0, r4
  75 003e FFF7FEFF 		bl	sprintf
  76              	.LVL8:
  43:WeightSensors.c ****     UART_1_PutString(uart_string);                                         // output string
  77              		.loc 1 43 0
  78 0042 2046     		mov	r0, r4
  79 0044 FFF7FEFF 		bl	UART_1_PutString
  80              	.LVL9:
  81              	.L2:
  44:WeightSensors.c ****     //--------------------------------------
  45:WeightSensors.c ****     
  46:WeightSensors.c ****     }
  47:WeightSensors.c ****     return WSptr.p1;
  48:WeightSensors.c **** }
  82              		.loc 1 48 0
  83 0048 034B     		ldr	r3, .L4+8
  84 004a 1888     		ldrh	r0, [r3]
  85 004c 10BD     		pop	{r4, pc}
  86              	.L5:
  87 004e 00BF     		.align	3
  88              	.L4:
  89 0050 54E3A59B 		.word	-1683627180
  90 0054 C420D03F 		.word	1070604484
  91 0058 00000000 		.word	.LANCHOR0
  92 005c 00000000 		.word	uart_string
  93 0060 00000000 		.word	.LC0
  94              		.cfi_endproc
  95              	.LFE64:
  96              		.size	readdata1, .-readdata1
  97              		.section	.text.readdata2,"ax",%progbits
  98              		.align	2
  99              		.global	readdata2
 100              		.thumb
 101              		.thumb_func
 102              		.type	readdata2, %function
 103              	readdata2:
 104              	.LFB65:
  49:WeightSensors.c **** 
  50:WeightSensors.c **** uint16 readdata2()
  51:WeightSensors.c **** {
 105              		.loc 1 51 0
 106              		.cfi_startproc
 107              		@ args = 0, pretend = 0, frame = 0
 108              		@ frame_needed = 0, uses_anonymous_args = 0
 109 0000 10B5     		push	{r4, lr}
 110              		.cfi_def_cfa_offset 8
 111              		.cfi_offset 4, -8
 112              		.cfi_offset 14, -4
  52:WeightSensors.c ****     PlayerSelect_Select(1); //vælg player2
 113              		.loc 1 52 0
 114 0002 0120     		movs	r0, #1
 115 0004 FFF7FEFF 		bl	PlayerSelect_FastSelect
 116              	.LVL10:
  53:WeightSensors.c ****     
  54:WeightSensors.c ****     ADC_SAR_1_StartConvert();
 117              		.loc 1 54 0
ARM GAS  C:\Users\cring\AppData\Local\Temp\ccbFS9yp.s 			page 4


 118 0008 FFF7FEFF 		bl	ADC_SAR_1_StartConvert
 119              	.LVL11:
  55:WeightSensors.c ****     if (ADC_SAR_1_IsEndConversion(ADC_SAR_1_WAIT_FOR_RESULT)!=0){
 120              		.loc 1 55 0
 121 000c 0020     		movs	r0, #0
 122 000e FFF7FEFF 		bl	ADC_SAR_1_IsEndConversion
 123              	.LVL12:
 124 0012 C8B1     		cbz	r0, .L7
  56:WeightSensors.c ****     WSptr.p2 = ADC_SAR_1_GetResult16();
 125              		.loc 1 56 0
 126 0014 FFF7FEFF 		bl	ADC_SAR_1_GetResult16
 127              	.LVL13:
 128 0018 0F4C     		ldr	r4, .L9+8
 129 001a 6080     		strh	r0, [r4, #2]	@ movhi
  57:WeightSensors.c ****     WSptr.p2 = ADC_SAR_1_CountsTo_mVolts(WSptr.p2);
 130              		.loc 1 57 0
 131 001c FFF7FEFF 		bl	ADC_SAR_1_CountsTo_mVolts
 132              	.LVL14:
  58:WeightSensors.c ****     WSptr.p2 /= mVtoG;                                                      // Dividerer med 0.25 f
 133              		.loc 1 58 0
 134 0020 80B2     		uxth	r0, r0
 135 0022 FFF7FEFF 		bl	__aeabi_i2d
 136              	.LVL15:
 137 0026 0AA3     		adr	r3, .L9
 138 0028 D3E90023 		ldrd	r2, [r3]
 139 002c FFF7FEFF 		bl	__aeabi_ddiv
 140              	.LVL16:
 141 0030 FFF7FEFF 		bl	__aeabi_d2uiz
 142              	.LVL17:
 143 0034 82B2     		uxth	r2, r0
 144 0036 6280     		strh	r2, [r4, #2]	@ movhi
  59:WeightSensors.c ****     
  60:WeightSensors.c ****     //Debugging-----------------------------
  61:WeightSensors.c ****     sprintf(uart_string, "\r\ndata read from player 2: %u", WSptr.p2);     // convert to string
 145              		.loc 1 61 0
 146 0038 084C     		ldr	r4, .L9+12
 147 003a 0949     		ldr	r1, .L9+16
 148 003c 2046     		mov	r0, r4
 149 003e FFF7FEFF 		bl	sprintf
 150              	.LVL18:
  62:WeightSensors.c ****     UART_1_PutString(uart_string);                                         // output string
 151              		.loc 1 62 0
 152 0042 2046     		mov	r0, r4
 153 0044 FFF7FEFF 		bl	UART_1_PutString
 154              	.LVL19:
 155              	.L7:
  63:WeightSensors.c ****     //--------------------------------------
  64:WeightSensors.c ****     
  65:WeightSensors.c ****     }
  66:WeightSensors.c ****     return WSptr.p2;
  67:WeightSensors.c ****     
  68:WeightSensors.c **** }
 156              		.loc 1 68 0
 157 0048 034B     		ldr	r3, .L9+8
 158 004a 5888     		ldrh	r0, [r3, #2]
 159 004c 10BD     		pop	{r4, pc}
 160              	.L10:
ARM GAS  C:\Users\cring\AppData\Local\Temp\ccbFS9yp.s 			page 5


 161 004e 00BF     		.align	3
 162              	.L9:
 163 0050 54E3A59B 		.word	-1683627180
 164 0054 C420D03F 		.word	1070604484
 165 0058 00000000 		.word	.LANCHOR0
 166 005c 00000000 		.word	uart_string
 167 0060 20000000 		.word	.LC1
 168              		.cfi_endproc
 169              	.LFE65:
 170              		.size	readdata2, .-readdata2
 171              		.section	.text.readdataLoser,"ax",%progbits
 172              		.align	2
 173              		.global	readdataLoser
 174              		.thumb
 175              		.thumb_func
 176              		.type	readdataLoser, %function
 177              	readdataLoser:
 178              	.LFB66:
  69:WeightSensors.c **** 
  70:WeightSensors.c **** uint16 readdataLoser(int x)
  71:WeightSensors.c **** {
 179              		.loc 1 71 0
 180              		.cfi_startproc
 181              		@ args = 0, pretend = 0, frame = 0
 182              		@ frame_needed = 0, uses_anonymous_args = 0
 183              	.LVL20:
 184 0000 10B5     		push	{r4, lr}
 185              		.cfi_def_cfa_offset 8
 186              		.cfi_offset 4, -8
 187              		.cfi_offset 14, -4
  72:WeightSensors.c ****     PlayerSelect_Select(x); //vælg player x
 188              		.loc 1 72 0
 189 0002 C0B2     		uxtb	r0, r0
 190              	.LVL21:
 191 0004 FFF7FEFF 		bl	PlayerSelect_FastSelect
 192              	.LVL22:
  73:WeightSensors.c ****     
  74:WeightSensors.c ****     ADC_SAR_1_StartConvert();
 193              		.loc 1 74 0
 194 0008 FFF7FEFF 		bl	ADC_SAR_1_StartConvert
 195              	.LVL23:
  75:WeightSensors.c ****     if (ADC_SAR_1_IsEndConversion(ADC_SAR_1_WAIT_FOR_RESULT)!=0){
 196              		.loc 1 75 0
 197 000c 0020     		movs	r0, #0
 198 000e FFF7FEFF 		bl	ADC_SAR_1_IsEndConversion
 199              	.LVL24:
 200 0012 C8B1     		cbz	r0, .L12
  76:WeightSensors.c ****     WSptr.pLoser = ADC_SAR_1_GetResult16();
 201              		.loc 1 76 0
 202 0014 FFF7FEFF 		bl	ADC_SAR_1_GetResult16
 203              	.LVL25:
 204 0018 0F4C     		ldr	r4, .L14+8
 205 001a A080     		strh	r0, [r4, #4]	@ movhi
  77:WeightSensors.c ****     WSptr.pLoser = ADC_SAR_1_CountsTo_mVolts(WSptr.pLoser);
 206              		.loc 1 77 0
 207 001c FFF7FEFF 		bl	ADC_SAR_1_CountsTo_mVolts
 208              	.LVL26:
ARM GAS  C:\Users\cring\AppData\Local\Temp\ccbFS9yp.s 			page 6


  78:WeightSensors.c ****     WSptr.pLoser /= mVtoG;
 209              		.loc 1 78 0
 210 0020 80B2     		uxth	r0, r0
 211 0022 FFF7FEFF 		bl	__aeabi_i2d
 212              	.LVL27:
 213 0026 0AA3     		adr	r3, .L14
 214 0028 D3E90023 		ldrd	r2, [r3]
 215 002c FFF7FEFF 		bl	__aeabi_ddiv
 216              	.LVL28:
 217 0030 FFF7FEFF 		bl	__aeabi_d2uiz
 218              	.LVL29:
 219 0034 82B2     		uxth	r2, r0
 220 0036 A280     		strh	r2, [r4, #4]	@ movhi
  79:WeightSensors.c ****     
  80:WeightSensors.c ****     //Debugging-----------------------------
  81:WeightSensors.c ****     sprintf(uart_string, "\r\ndata read from player 2: %u", WSptr.pLoser);     // convert to string
 221              		.loc 1 81 0
 222 0038 084C     		ldr	r4, .L14+12
 223 003a 0949     		ldr	r1, .L14+16
 224 003c 2046     		mov	r0, r4
 225 003e FFF7FEFF 		bl	sprintf
 226              	.LVL30:
  82:WeightSensors.c ****     UART_1_PutString(uart_string);                                             // output string
 227              		.loc 1 82 0
 228 0042 2046     		mov	r0, r4
 229 0044 FFF7FEFF 		bl	UART_1_PutString
 230              	.LVL31:
 231              	.L12:
  83:WeightSensors.c ****     //--------------------------------------
  84:WeightSensors.c ****     
  85:WeightSensors.c ****     }
  86:WeightSensors.c ****     return WSptr.p2;
  87:WeightSensors.c **** }
 232              		.loc 1 87 0
 233 0048 034B     		ldr	r3, .L14+8
 234 004a 5888     		ldrh	r0, [r3, #2]
 235 004c 10BD     		pop	{r4, pc}
 236              	.L15:
 237 004e 00BF     		.align	3
 238              	.L14:
 239 0050 54E3A59B 		.word	-1683627180
 240 0054 C420D03F 		.word	1070604484
 241 0058 00000000 		.word	.LANCHOR0
 242 005c 00000000 		.word	uart_string
 243 0060 20000000 		.word	.LC1
 244              		.cfi_endproc
 245              	.LFE66:
 246              		.size	readdataLoser, .-readdataLoser
 247              		.section	.text.WeightSensorsInit,"ax",%progbits
 248              		.align	2
 249              		.global	WeightSensorsInit
 250              		.thumb
 251              		.thumb_func
 252              		.type	WeightSensorsInit, %function
 253              	WeightSensorsInit:
 254              	.LFB67:
  88:WeightSensors.c **** 
ARM GAS  C:\Users\cring\AppData\Local\Temp\ccbFS9yp.s 			page 7


  89:WeightSensors.c **** void WeightSensorsInit()
  90:WeightSensors.c **** {
 255              		.loc 1 90 0
 256              		.cfi_startproc
 257              		@ args = 0, pretend = 0, frame = 0
 258              		@ frame_needed = 0, uses_anonymous_args = 0
 259 0000 08B5     		push	{r3, lr}
 260              		.cfi_def_cfa_offset 8
 261              		.cfi_offset 3, -8
 262              		.cfi_offset 14, -4
  91:WeightSensors.c ****     ADC_SAR_1_Start();
 263              		.loc 1 91 0
 264 0002 FFF7FEFF 		bl	ADC_SAR_1_Start
 265              	.LVL32:
  92:WeightSensors.c ****     PlayerSelect_Init();
 266              		.loc 1 92 0
 267 0006 FFF7FEFF 		bl	PlayerSelect_Start
 268              	.LVL33:
 269 000a 08BD     		pop	{r3, pc}
 270              		.cfi_endproc
 271              	.LFE67:
 272              		.size	WeightSensorsInit, .-WeightSensorsInit
 273              		.section	.text.CompareWeight,"ax",%progbits
 274              		.align	2
 275              		.global	CompareWeight
 276              		.thumb
 277              		.thumb_func
 278              		.type	CompareWeight, %function
 279              	CompareWeight:
 280              	.LFB68:
  93:WeightSensors.c **** }
  94:WeightSensors.c **** 
  95:WeightSensors.c **** int CompareWeight(){
 281              		.loc 1 95 0
 282              		.cfi_startproc
 283              		@ args = 0, pretend = 0, frame = 0
 284              		@ frame_needed = 0, uses_anonymous_args = 0
 285 0000 10B5     		push	{r4, lr}
 286              		.cfi_def_cfa_offset 8
 287              		.cfi_offset 4, -8
 288              		.cfi_offset 14, -4
  96:WeightSensors.c **** 
  97:WeightSensors.c ****     if (((readdata2() >= (readdata1() - afvigelse)) && (readdata2() <= readdata1() + afvigelse)) ||
 289              		.loc 1 97 0
 290 0002 FFF7FEFF 		bl	readdata2
 291              	.LVL34:
 292 0006 0446     		mov	r4, r0
 293 0008 FFF7FEFF 		bl	readdata1
 294              	.LVL35:
 295 000c 0A38     		subs	r0, r0, #10
 296 000e 8442     		cmp	r4, r0
 297 0010 07DB     		blt	.L19
 298              		.loc 1 97 0 is_stmt 0 discriminator 1
 299 0012 FFF7FEFF 		bl	readdata2
 300              	.LVL36:
 301 0016 0446     		mov	r4, r0
 302 0018 FFF7FEFF 		bl	readdata1
ARM GAS  C:\Users\cring\AppData\Local\Temp\ccbFS9yp.s 			page 8


 303              	.LVL37:
 304 001c 0A30     		adds	r0, r0, #10
 305 001e 8442     		cmp	r4, r0
 306 0020 1FDD     		ble	.L22
 307              	.L19:
 308              		.loc 1 97 0 discriminator 3
 309 0022 FFF7FEFF 		bl	readdata1
 310              	.LVL38:
 311 0026 0446     		mov	r4, r0
 312 0028 FFF7FEFF 		bl	readdata2
 313              	.LVL39:
 314 002c 0A38     		subs	r0, r0, #10
 315 002e 8442     		cmp	r4, r0
 316 0030 07DB     		blt	.L21
 317              		.loc 1 97 0 discriminator 4
 318 0032 FFF7FEFF 		bl	readdata1
 319              	.LVL40:
 320 0036 0446     		mov	r4, r0
 321 0038 FFF7FEFF 		bl	readdata2
 322              	.LVL41:
 323 003c 0A30     		adds	r0, r0, #10
 324 003e 8442     		cmp	r4, r0
 325 0040 11DD     		ble	.L23
 326              	.L21:
  98:WeightSensors.c ****     {
  99:WeightSensors.c ****         return 1;
 100:WeightSensors.c ****     }
 101:WeightSensors.c ****     else if (readdata2() > readdata1())//spiller 1 fejl
 327              		.loc 1 101 0 is_stmt 1
 328 0042 FFF7FEFF 		bl	readdata2
 329              	.LVL42:
 330 0046 0446     		mov	r4, r0
 331 0048 FFF7FEFF 		bl	readdata1
 332              	.LVL43:
 333 004c 8442     		cmp	r4, r0
 334 004e 0CD8     		bhi	.L24
 102:WeightSensors.c ****     { 
 103:WeightSensors.c ****         return 2;
 104:WeightSensors.c ****     }
 105:WeightSensors.c ****     else if(readdata2() < readdata1()) //spiller 2 fejl
 335              		.loc 1 105 0
 336 0050 FFF7FEFF 		bl	readdata2
 337              	.LVL44:
 338 0054 0446     		mov	r4, r0
 339 0056 FFF7FEFF 		bl	readdata1
 340              	.LVL45:
 341 005a 8442     		cmp	r4, r0
 342 005c 07D2     		bcs	.L25
 106:WeightSensors.c ****     {
 107:WeightSensors.c ****         return 3;
 343              		.loc 1 107 0
 344 005e 0320     		movs	r0, #3
 345 0060 10BD     		pop	{r4, pc}
 346              	.L22:
  99:WeightSensors.c ****     }
 347              		.loc 1 99 0
 348 0062 0120     		movs	r0, #1
ARM GAS  C:\Users\cring\AppData\Local\Temp\ccbFS9yp.s 			page 9


 349 0064 10BD     		pop	{r4, pc}
 350              	.L23:
 351 0066 0120     		movs	r0, #1
 352 0068 10BD     		pop	{r4, pc}
 353              	.L24:
 103:WeightSensors.c ****     }
 354              		.loc 1 103 0
 355 006a 0220     		movs	r0, #2
 356 006c 10BD     		pop	{r4, pc}
 357              	.L25:
 108:WeightSensors.c ****     }
 109:WeightSensors.c ****     else;
 110:WeightSensors.c ****     return 0;   //for error handling
 358              		.loc 1 110 0
 359 006e 0020     		movs	r0, #0
 111:WeightSensors.c **** }
 360              		.loc 1 111 0
 361 0070 10BD     		pop	{r4, pc}
 362              		.cfi_endproc
 363              	.LFE68:
 364              		.size	CompareWeight, .-CompareWeight
 365              		.global	WSptr
 366              		.comm	uart_string,50,4
 367 0072 00BF     		.section	.rodata.str1.4,"aMS",%progbits,1
 368              		.align	2
 369              	.LC0:
 370 0000 0D0A6461 		.ascii	"\015\012data read from player 1: %u\000"
 370      74612072 
 370      65616420 
 370      66726F6D 
 370      20706C61 
 371 001e 0000     		.space	2
 372              	.LC1:
 373 0020 0D0A6461 		.ascii	"\015\012data read from player 2: %u\000"
 373      74612072 
 373      65616420 
 373      66726F6D 
 373      20706C61 
 374              		.bss
 375              		.align	2
 376              		.set	.LANCHOR0,. + 0
 377              		.type	WSptr, %object
 378              		.size	WSptr, 6
 379              	WSptr:
 380 0000 00000000 		.space	6
 380      0000
 381              		.text
 382              	.Letext0:
 383              		.file 2 "d:\\psoc\\psoc creator\\4.3\\psoc creator\\import\\gnu\\arm\\5.4.1\\arm-none-eabi\\includ
 384              		.file 3 "d:\\psoc\\psoc creator\\4.3\\psoc creator\\import\\gnu\\arm\\5.4.1\\arm-none-eabi\\includ
 385              		.file 4 "Generated_Source\\PSoC5/cytypes.h"
 386              		.file 5 "WeightSensors_.h"
 387              		.file 6 "Generated_Source\\PSoC5/core_cm3.h"
 388              		.file 7 "Generated_Source\\PSoC5/PlayerSelect.h"
 389              		.file 8 "Generated_Source\\PSoC5/ADC_SAR_1.h"
 390              		.file 9 "d:\\psoc\\psoc creator\\4.3\\psoc creator\\import\\gnu\\arm\\5.4.1\\arm-none-eabi\\includ
 391              		.file 10 "Generated_Source\\PSoC5/UART_1.h"
ARM GAS  C:\Users\cring\AppData\Local\Temp\ccbFS9yp.s 			page 10

