ARM GAS  C:\Users\cring\AppData\Local\Temp\ccsXHiuh.s 			page 1


   1              		.syntax unified
   2              		.cpu cortex-m3
   3              		.fpu softvfp
   4              		.eabi_attribute 20, 1
   5              		.eabi_attribute 21, 1
   6              		.eabi_attribute 23, 3
   7              		.eabi_attribute 24, 1
   8              		.eabi_attribute 25, 1
   9              		.eabi_attribute 26, 1
  10              		.eabi_attribute 30, 1
  11              		.eabi_attribute 34, 1
  12              		.eabi_attribute 18, 4
  13              		.thumb
  14              		.syntax unified
  15              		.file	"LEDcontrol.c"
  16              		.text
  17              	.Ltext0:
  18              		.cfi_sections	.debug_frame
  19              		.global	__aeabi_i2f
  20              		.global	__aeabi_fdiv
  21              		.global	__aeabi_fmul
  22              		.global	__aeabi_f2iz
  23              		.section	.text.setrefreshrate,"ax",%progbits
  24              		.align	2
  25              		.global	setrefreshrate
  26              		.thumb
  27              		.thumb_func
  28              		.type	setrefreshrate, %function
  29              	setrefreshrate:
  30              	.LFB69:
  31              		.file 1 "LEDcontrol.c"
   1:LEDcontrol.c  **** /* ========================================
   2:LEDcontrol.c  ****  *
   3:LEDcontrol.c  ****  * Copyright YOUR COMPANY, THE YEAR
   4:LEDcontrol.c  ****  * All Rights Reserved
   5:LEDcontrol.c  ****  * UNPUBLISHED, LICENSED SOFTWARE.
   6:LEDcontrol.c  ****  *
   7:LEDcontrol.c  ****  * CONFIDENTIAL AND PROPRIETARY INFORMATION
   8:LEDcontrol.c  ****  * WHICH IS THE PROPERTY OF your company.
   9:LEDcontrol.c  ****  *
  10:LEDcontrol.c  ****  * ========================================
  11:LEDcontrol.c  **** */
  12:LEDcontrol.c  **** 
  13:LEDcontrol.c  **** 
  14:LEDcontrol.c  **** #define MAXLEDINTENSE 0.5
  15:LEDcontrol.c  **** #include "LEDcontrol.h"
  16:LEDcontrol.c  **** 
  17:LEDcontrol.c  **** 
  18:LEDcontrol.c  **** static int pulselength_ = 0;
  19:LEDcontrol.c  **** static int index_ = 0;
  20:LEDcontrol.c  **** static float index2 = MAXLEDINTENSE;
  21:LEDcontrol.c  **** static int count = 0;
  22:LEDcontrol.c  **** static int count2 = 0;
  23:LEDcontrol.c  **** static int count3 = 0;
  24:LEDcontrol.c  **** 
  25:LEDcontrol.c  **** LEDctrl *rgbLED1 = NULL;
  26:LEDcontrol.c  **** LEDctrl *rgbLED2 = NULL;
ARM GAS  C:\Users\cring\AppData\Local\Temp\ccsXHiuh.s 			page 2


  27:LEDcontrol.c  **** 
  28:LEDcontrol.c  **** 
  29:LEDcontrol.c  **** CY_ISR(isr_refreshrate)
  30:LEDcontrol.c  **** {
  31:LEDcontrol.c  ****     Timer1_Stop();     //Timer stoppes, så der sendes for at sikre stabilitet
  32:LEDcontrol.c  ****     //isr_refreshrate_LCD_Disable();
  33:LEDcontrol.c  ****     if (rgbLED1 != NULL)
  34:LEDcontrol.c  ****     {
  35:LEDcontrol.c  ****     UpdateLED(rgbLED1); //Opdater LED-strip med nye farver
  36:LEDcontrol.c  ****     }
  37:LEDcontrol.c  ****     CyDelayUs(100);     //Delay for at sikre stabilitet
  38:LEDcontrol.c  ****     if (rgbLED2 != NULL)
  39:LEDcontrol.c  ****     {
  40:LEDcontrol.c  ****     UpdateLED(rgbLED2); //Opdater LED-strip med nye farver
  41:LEDcontrol.c  ****     }
  42:LEDcontrol.c  ****     CyDelayUs(100);
  43:LEDcontrol.c  ****     //isr_refreshrate_LCD_Enable();
  44:LEDcontrol.c  ****     Timer1_Start();
  45:LEDcontrol.c  **** }
  46:LEDcontrol.c  **** 
  47:LEDcontrol.c  **** CY_ISR(isr_LED_ring)
  48:LEDcontrol.c  **** {
  49:LEDcontrol.c  ****     if((rgbLED1->ring == 0) && (rgbLED2->ring == 0)) return;    //Gør intet hvis ring sekvens ikke
  50:LEDcontrol.c  ****     if(rgbLED1->ring == 1) fillcolor(0,0,0,rgbLED1);            //Slukker alle LED'er på LED-strip
  51:LEDcontrol.c  ****     if(rgbLED2->ring == 1) fillcolor(0,0,0,rgbLED2);
  52:LEDcontrol.c  ****     
  53:LEDcontrol.c  ****         for(int i2 = index_; i2 < pulselength_+index_; i2++)    //Bestemmer hvilke LED'er der skal 
  54:LEDcontrol.c  ****         {
  55:LEDcontrol.c  ****             if(rgbLED1->ring == 1)
  56:LEDcontrol.c  ****             {
  57:LEDcontrol.c  ****                 int x = i2 >= rgbLED1->LEDlength ? i2 - rgbLED1->LEDlength : i2; //Starter forfra h
  58:LEDcontrol.c  ****                 setcolorLED((rgbLED1 + x)->h, (rgbLED1 + x)->s, (rgbLED1 + x)->v, x, rgbLED1);
  59:LEDcontrol.c  ****             }
  60:LEDcontrol.c  ****             if(rgbLED2->ring == 1)
  61:LEDcontrol.c  ****             {
  62:LEDcontrol.c  ****                 int x = i2 >= rgbLED2->LEDlength ? i2 - rgbLED2->LEDlength : i2;
  63:LEDcontrol.c  ****                 setcolorLED((rgbLED2 + x)->h, (rgbLED2 + x)->s, (rgbLED2 + x)->v, x, rgbLED2);  
  64:LEDcontrol.c  ****             }
  65:LEDcontrol.c  ****         }
  66:LEDcontrol.c  ****     if (rgbLED1 != NULL)
  67:LEDcontrol.c  ****     {
  68:LEDcontrol.c  ****         index_ = index_ < (rgbLED1->LEDlength-1) ? index_ + 1 : 0; //Øger index_ med 1 hvis den er
  69:LEDcontrol.c  ****         return;
  70:LEDcontrol.c  ****     }else if (rgbLED2 != NULL){
  71:LEDcontrol.c  ****         index_ = index_ < (rgbLED2->LEDlength-1) ? index_ + 1 : 0;
  72:LEDcontrol.c  ****     }
  73:LEDcontrol.c  **** }
  74:LEDcontrol.c  **** 
  75:LEDcontrol.c  **** CY_ISR(isr_LED_pulse)
  76:LEDcontrol.c  **** {
  77:LEDcontrol.c  ****     
  78:LEDcontrol.c  ****     if(count == 0) //Mindsker lysstyrke på LED-strip
  79:LEDcontrol.c  ****     {
  80:LEDcontrol.c  ****         if (rgbLED1->pulse == 1)fillcolor(rgbLED1->h,rgbLED1->s,index2, rgbLED1);
  81:LEDcontrol.c  ****         if (rgbLED2->pulse == 1)fillcolor(rgbLED2->h,rgbLED2->s,index2, rgbLED2);
  82:LEDcontrol.c  ****         index2 = index2-0.01;
  83:LEDcontrol.c  ****         if (index2 < 0)count = 1;
ARM GAS  C:\Users\cring\AppData\Local\Temp\ccsXHiuh.s 			page 3


  84:LEDcontrol.c  ****     }else if(count == 1){ //Øger lysstyrke på LED-strip
  85:LEDcontrol.c  ****         if (rgbLED1->pulse == 1)fillcolor(rgbLED1->h,rgbLED1->s,index2, rgbLED1);
  86:LEDcontrol.c  ****         if (rgbLED2->pulse == 1)fillcolor(rgbLED2->h,rgbLED2->s,index2, rgbLED2);
  87:LEDcontrol.c  ****         index2 = index2+0.01;
  88:LEDcontrol.c  ****         if (index2 == MAXLEDINTENSE)count = 0;
  89:LEDcontrol.c  ****     }
  90:LEDcontrol.c  ****     
  91:LEDcontrol.c  **** }
  92:LEDcontrol.c  **** 
  93:LEDcontrol.c  **** CY_ISR(isr_BlinkLED)
  94:LEDcontrol.c  **** {
  95:LEDcontrol.c  ****     switch (count3)
  96:LEDcontrol.c  ****     {
  97:LEDcontrol.c  ****         case 0: //Tænder LED-strip
  98:LEDcontrol.c  ****         {
  99:LEDcontrol.c  ****             if(rgbLED1->blink == 1) fillcolor(rgbLED1->h, rgbLED1->s,1, rgbLED1);
 100:LEDcontrol.c  ****             if(rgbLED2->blink == 1) fillcolor(rgbLED2->h, rgbLED2->s,1, rgbLED2);
 101:LEDcontrol.c  ****             count3++;
 102:LEDcontrol.c  ****         }
 103:LEDcontrol.c  ****         break;
 104:LEDcontrol.c  ****         case 1: //Slukker LED-strip
 105:LEDcontrol.c  ****         {
 106:LEDcontrol.c  ****             if(rgbLED1->blink == 1)fillcolor(rgbLED1->h, rgbLED1->s,0, rgbLED1);
 107:LEDcontrol.c  ****             if(rgbLED2->blink == 1)fillcolor(rgbLED2->h, rgbLED2->s,0, rgbLED2);
 108:LEDcontrol.c  ****             count3 = 0;
 109:LEDcontrol.c  ****         }
 110:LEDcontrol.c  ****         break;
 111:LEDcontrol.c  ****     }
 112:LEDcontrol.c  ****   
 113:LEDcontrol.c  **** }
 114:LEDcontrol.c  **** 
 115:LEDcontrol.c  **** CY_ISR(isr_delay)
 116:LEDcontrol.c  **** {
 117:LEDcontrol.c  ****     count2++;
 118:LEDcontrol.c  ****     startSeq(rgbLED1, rgbLED2);
 119:LEDcontrol.c  **** }
 120:LEDcontrol.c  **** 
 121:LEDcontrol.c  **** void setrefreshrate(int Hz)
 122:LEDcontrol.c  **** {
  32              		.loc 1 122 0
  33              		.cfi_startproc
  34              		@ args = 0, pretend = 0, frame = 0
  35              		@ frame_needed = 0, uses_anonymous_args = 0
  36              	.LVL0:
  37 0000 08B5     		push	{r3, lr}
  38              		.cfi_def_cfa_offset 8
  39              		.cfi_offset 3, -8
  40              		.cfi_offset 14, -4
 123:LEDcontrol.c  ****     Hz = 1/(float)Hz*1000*10; //Omregner HZ til en bestemt periode for timeren
  41              		.loc 1 123 0
  42 0002 FFF7FEFF 		bl	__aeabi_i2f
  43              	.LVL1:
  44 0006 0146     		mov	r1, r0
  45 0008 4FF07E50 		mov	r0, #1065353216
  46 000c FFF7FEFF 		bl	__aeabi_fdiv
  47              	.LVL2:
  48 0010 0549     		ldr	r1, .L3
ARM GAS  C:\Users\cring\AppData\Local\Temp\ccsXHiuh.s 			page 4


  49 0012 FFF7FEFF 		bl	__aeabi_fmul
  50              	.LVL3:
  51 0016 0549     		ldr	r1, .L3+4
  52 0018 FFF7FEFF 		bl	__aeabi_fmul
  53              	.LVL4:
  54 001c FFF7FEFF 		bl	__aeabi_f2iz
  55              	.LVL5:
 124:LEDcontrol.c  ****     Timer1_WritePeriod(Hz);
  56              		.loc 1 124 0
  57 0020 80B2     		uxth	r0, r0
  58              	.LVL6:
  59 0022 FFF7FEFF 		bl	Timer1_WritePeriod
  60              	.LVL7:
  61 0026 08BD     		pop	{r3, pc}
  62              	.L4:
  63              		.align	2
  64              	.L3:
  65 0028 00007A44 		.word	1148846080
  66 002c 00002041 		.word	1092616192
  67              		.cfi_endproc
  68              	.LFE69:
  69              		.size	setrefreshrate, .-setrefreshrate
  70              		.section	.text.setspeed,"ax",%progbits
  71              		.align	2
  72              		.global	setspeed
  73              		.thumb
  74              		.thumb_func
  75              		.type	setspeed, %function
  76              	setspeed:
  77              	.LFB73:
 125:LEDcontrol.c  **** }
 126:LEDcontrol.c  **** 
 127:LEDcontrol.c  **** void addLEDstrip(int LEDlength_, LEDctrl *rgbLED_, int strip)
 128:LEDcontrol.c  **** {
 129:LEDcontrol.c  ****     if (strip == 1) //Sammen kobler den givende objekt med enten rgbLED1 eller 2
 130:LEDcontrol.c  ****     {
 131:LEDcontrol.c  ****         rgbLED1 = rgbLED_;
 132:LEDcontrol.c  ****     }else{
 133:LEDcontrol.c  ****         rgbLED2 = rgbLED_;
 134:LEDcontrol.c  ****     }
 135:LEDcontrol.c  ****     
 136:LEDcontrol.c  ****     rgbLED_->LEDlength = LEDlength_; //Sammen kobler varibel LEDlength
 137:LEDcontrol.c  ****     rgbLED_->pin = strip; //Sammen kobler varibel strip
 138:LEDcontrol.c  ****     LEDOff(rgbLED_); //Slukker for alle sekvenser for objektet
 139:LEDcontrol.c  ****     
 140:LEDcontrol.c  ****     for(int i = 0; i < rgbLED_->LEDlength; i++)
 141:LEDcontrol.c  ****     {
 142:LEDcontrol.c  ****         setcolorLED(0,0,0,i, rgbLED_); //Slukker for alle LED'er
 143:LEDcontrol.c  ****     }
 144:LEDcontrol.c  **** }
 145:LEDcontrol.c  **** 
 146:LEDcontrol.c  **** void initLED(int Hz)
 147:LEDcontrol.c  **** {    
 148:LEDcontrol.c  ****     //Sætter alle interrupts op
 149:LEDcontrol.c  ****     isr_LED_refreshrate_StartEx(isr_refreshrate);
 150:LEDcontrol.c  ****     isr_LED_ring_StartEx(isr_LED_ring);
 151:LEDcontrol.c  ****     isr_LED_pulse_StartEx(isr_LED_pulse);
ARM GAS  C:\Users\cring\AppData\Local\Temp\ccsXHiuh.s 			page 5


 152:LEDcontrol.c  ****     isr_BlinkLED_StartEx(isr_BlinkLED);
 153:LEDcontrol.c  ****     isr_delay_StartEx(isr_delay);
 154:LEDcontrol.c  ****     
 155:LEDcontrol.c  ****     //Slukker for alle sekvenser
 156:LEDcontrol.c  ****     LEDOff(rgbLED1);
 157:LEDcontrol.c  ****     LEDOff(rgbLED2);
 158:LEDcontrol.c  ****     
 159:LEDcontrol.c  ****     //Sætter defeault værdier for globale variabler
 160:LEDcontrol.c  ****     pulselength_ = 0;
 161:LEDcontrol.c  ****     index_ = 0;
 162:LEDcontrol.c  ****     index2 = MAXLEDINTENSE;
 163:LEDcontrol.c  ****     count = 0;
 164:LEDcontrol.c  ****     count2 = 0;
 165:LEDcontrol.c  ****     count3 = 0;
 166:LEDcontrol.c  ****     
 167:LEDcontrol.c  ****     //Starter timerer og SPI-modul
 168:LEDcontrol.c  ****     SPIM_1_Start();
 169:LEDcontrol.c  ****     Timer1_Start();
 170:LEDcontrol.c  ****     Timer2_Start();
 171:LEDcontrol.c  ****     Timer3_Start();
 172:LEDcontrol.c  ****     Timer4_Start();
 173:LEDcontrol.c  ****     
 174:LEDcontrol.c  ****     //Sætter LED-strips refreshrate 
 175:LEDcontrol.c  ****     setrefreshrate(Hz);
 176:LEDcontrol.c  ****     
 177:LEDcontrol.c  **** }
 178:LEDcontrol.c  **** 
 179:LEDcontrol.c  **** 
 180:LEDcontrol.c  **** void fillcolor(double h, double s, double v, LEDctrl *rgbLED)
 181:LEDcontrol.c  **** {
 182:LEDcontrol.c  ****     //Sætter farven på hele LED-strip'en
 183:LEDcontrol.c  ****     for(int i = 0; i < rgbLED->LEDlength; i++)
 184:LEDcontrol.c  ****     {
 185:LEDcontrol.c  ****         setcolorLED(h, s, v, i, rgbLED);
 186:LEDcontrol.c  ****     }
 187:LEDcontrol.c  **** }
 188:LEDcontrol.c  **** 
 189:LEDcontrol.c  **** void setspeed(int ms_ring, int ms_pulse, int ms_blink)
 190:LEDcontrol.c  **** {
  78              		.loc 1 190 0
  79              		.cfi_startproc
  80              		@ args = 0, pretend = 0, frame = 0
  81              		@ frame_needed = 0, uses_anonymous_args = 0
  82              	.LVL8:
  83 0000 38B5     		push	{r3, r4, r5, lr}
  84              		.cfi_def_cfa_offset 16
  85              		.cfi_offset 3, -16
  86              		.cfi_offset 4, -12
  87              		.cfi_offset 5, -8
  88              		.cfi_offset 14, -4
  89 0002 0546     		mov	r5, r0
  90 0004 1446     		mov	r4, r2
 191:LEDcontrol.c  ****     //Ændre hvor hurtigt timerne interrupt, og derved hastigheden på sekvenserne
 192:LEDcontrol.c  ****     Timer2_WritePeriod(ms_pulse*10);
  91              		.loc 1 192 0
  92 0006 01EB8101 		add	r1, r1, r1, lsl #2
  93              	.LVL9:
ARM GAS  C:\Users\cring\AppData\Local\Temp\ccsXHiuh.s 			page 6


  94 000a 4800     		lsls	r0, r1, #1
  95              	.LVL10:
  96 000c 80B2     		uxth	r0, r0
  97 000e FFF7FEFF 		bl	Timer2_WritePeriod
  98              	.LVL11:
 193:LEDcontrol.c  ****     Timer3_WritePeriod(ms_ring*10);
  99              		.loc 1 193 0
 100 0012 05EB8505 		add	r5, r5, r5, lsl #2
 101              	.LVL12:
 102 0016 6800     		lsls	r0, r5, #1
 103 0018 80B2     		uxth	r0, r0
 104 001a FFF7FEFF 		bl	Timer3_WritePeriod
 105              	.LVL13:
 194:LEDcontrol.c  ****     Timer4_WritePeriod(ms_blink*10);
 106              		.loc 1 194 0
 107 001e 04EB8404 		add	r4, r4, r4, lsl #2
 108              	.LVL14:
 109 0022 6000     		lsls	r0, r4, #1
 110 0024 80B2     		uxth	r0, r0
 111 0026 FFF7FEFF 		bl	Timer4_WritePeriod
 112              	.LVL15:
 113 002a 38BD     		pop	{r3, r4, r5, pc}
 114              		.cfi_endproc
 115              	.LFE73:
 116              		.size	setspeed, .-setspeed
 117              		.global	__aeabi_dcmpgt
 118              		.global	__aeabi_dcmple
 119              		.global	__aeabi_d2iz
 120              		.global	__aeabi_dmul
 121              		.global	__aeabi_ddiv
 122              		.global	__aeabi_dsub
 123              		.global	__aeabi_dadd
 124              		.global	__aeabi_dcmplt
 125              		.section	.text.hsv2rgb,"ax",%progbits
 126              		.align	2
 127              		.global	hsv2rgb
 128              		.thumb
 129              		.thumb_func
 130              		.type	hsv2rgb, %function
 131              	hsv2rgb:
 132              	.LFB77:
 195:LEDcontrol.c  **** }
 196:LEDcontrol.c  **** 
 197:LEDcontrol.c  **** 
 198:LEDcontrol.c  **** void pulseLED(double h1, double s1, double v1, LEDctrl *rgbLED)
 199:LEDcontrol.c  **** {
 200:LEDcontrol.c  ****     LEDOff(rgbLED);     //Slukker alle sekvenser for det givende objekt
 201:LEDcontrol.c  ****     rgbLED->pulse = 1;  //Tænder for pulse sekvens for det givende objekt
 202:LEDcontrol.c  ****     
 203:LEDcontrol.c  ****     //Gemmer farven der er givet med
 204:LEDcontrol.c  ****     rgbLED->h = h1;     
 205:LEDcontrol.c  ****     rgbLED->s = s1;
 206:LEDcontrol.c  ****     rgbLED->v = v1;
 207:LEDcontrol.c  ****     
 208:LEDcontrol.c  ****     //Sætter farven på hele LED-strip'en for det givende objekt
 209:LEDcontrol.c  ****     fillcolor(h1,s1,v1, rgbLED);
 210:LEDcontrol.c  **** }
ARM GAS  C:\Users\cring\AppData\Local\Temp\ccsXHiuh.s 			page 7


 211:LEDcontrol.c  **** 
 212:LEDcontrol.c  **** void ringLED(int pulselength, double h1, double s1, double v1, LEDctrl *rgbLED)
 213:LEDcontrol.c  **** {
 214:LEDcontrol.c  ****     
 215:LEDcontrol.c  ****     pulselength_ = pulselength;
 216:LEDcontrol.c  ****     LEDOff(rgbLED);
 217:LEDcontrol.c  ****     rgbLED->ring = 1;
 218:LEDcontrol.c  ****     
 219:LEDcontrol.c  ****     for(int i = 0; i<rgbLED->LEDlength; i++)
 220:LEDcontrol.c  ****     {
 221:LEDcontrol.c  ****         (rgbLED + i)->h = h1;
 222:LEDcontrol.c  ****         (rgbLED + i)->s = s1;
 223:LEDcontrol.c  ****         (rgbLED + i)->v = v1;
 224:LEDcontrol.c  ****     }
 225:LEDcontrol.c  **** }
 226:LEDcontrol.c  **** 
 227:LEDcontrol.c  **** void BlinkLED(double h1, double s1, double v1, LEDctrl *rgbLED)
 228:LEDcontrol.c  **** {
 229:LEDcontrol.c  ****     LEDOff(rgbLED);
 230:LEDcontrol.c  ****     rgbLED->blink = 1;
 231:LEDcontrol.c  ****     
 232:LEDcontrol.c  ****     for(int i = 0; i<rgbLED->LEDlength; i++)
 233:LEDcontrol.c  ****     {
 234:LEDcontrol.c  ****         (rgbLED + i)->h = h1;
 235:LEDcontrol.c  ****         (rgbLED + i)->s = s1;
 236:LEDcontrol.c  ****         (rgbLED + i)->v = v1;
 237:LEDcontrol.c  ****     }
 238:LEDcontrol.c  **** }
 239:LEDcontrol.c  **** 
 240:LEDcontrol.c  **** 
 241:LEDcontrol.c  **** void hsv2rgb(double h, double s, double v, int LED, LEDctrl *rgbLED)
 242:LEDcontrol.c  **** {
 133              		.loc 1 242 0
 134              		.cfi_startproc
 135              		@ args = 16, pretend = 0, frame = 8
 136              		@ frame_needed = 0, uses_anonymous_args = 0
 137              	.LVL16:
 138 0000 2DE9F04F 		push	{r4, r5, r6, r7, r8, r9, r10, fp, lr}
 139              		.cfi_def_cfa_offset 36
 140              		.cfi_offset 4, -36
 141              		.cfi_offset 5, -32
 142              		.cfi_offset 6, -28
 143              		.cfi_offset 7, -24
 144              		.cfi_offset 8, -20
 145              		.cfi_offset 9, -16
 146              		.cfi_offset 10, -12
 147              		.cfi_offset 11, -8
 148              		.cfi_offset 14, -4
 149 0004 83B0     		sub	sp, sp, #12
 150              		.cfi_def_cfa_offset 48
 151 0006 8046     		mov	r8, r0
 152 0008 8946     		mov	r9, r1
 153 000a 1446     		mov	r4, r2
 154 000c 1D46     		mov	r5, r3
 155 000e 0E9E     		ldr	r6, [sp, #56]
 156 0010 0F9F     		ldr	r7, [sp, #60]
 243:LEDcontrol.c  ****     double  C, hh, X, m, r, g, b;
ARM GAS  C:\Users\cring\AppData\Local\Temp\ccsXHiuh.s 			page 8


 244:LEDcontrol.c  ****     int i;
 245:LEDcontrol.c  ****     
 246:LEDcontrol.c  ****     if(v > MAXLEDINTENSE) v = MAXLEDINTENSE;
 157              		.loc 1 246 0
 158 0012 0022     		movs	r2, #0
 159              	.LVL17:
 160 0014 764B     		ldr	r3, .L33+8
 161 0016 DDE90C01 		ldrd	r0, [sp, #48]
 162              	.LVL18:
 163 001a FFF7FEFF 		bl	__aeabi_dcmpgt
 164              	.LVL19:
 165 001e 18B1     		cbz	r0, .L8
 166 0020 0022     		movs	r2, #0
 167 0022 734B     		ldr	r3, .L33+8
 168 0024 CDE90C23 		strd	r2, [sp, #48]
 169              	.L8:
 247:LEDcontrol.c  **** 
 248:LEDcontrol.c  ****     if(s <= 0.0) {       // < is bogus, just shuts up warnings
 170              		.loc 1 248 0
 171 0028 0022     		movs	r2, #0
 172 002a 0023     		movs	r3, #0
 173 002c 2046     		mov	r0, r4
 174 002e 2946     		mov	r1, r5
 175 0030 FFF7FEFF 		bl	__aeabi_dcmple
 176              	.LVL20:
 177 0034 58B1     		cbz	r0, .L31
 249:LEDcontrol.c  ****         (rgbLED + LED)->green = v;
 178              		.loc 1 249 0
 179 0036 5823     		movs	r3, #88
 180 0038 03FB06F6 		mul	r6, r3, r6
 181 003c BC19     		adds	r4, r7, r6
 182 003e DDE90C01 		ldrd	r0, [sp, #48]
 183 0042 FFF7FEFF 		bl	__aeabi_d2iz
 184              	.LVL21:
 185 0046 6060     		str	r0, [r4, #4]
 250:LEDcontrol.c  ****         (rgbLED + LED)->red = v;
 186              		.loc 1 250 0
 187 0048 B851     		str	r0, [r7, r6]
 251:LEDcontrol.c  ****         (rgbLED + LED)->blue = v;
 188              		.loc 1 251 0
 189 004a A060     		str	r0, [r4, #8]
 252:LEDcontrol.c  ****         return;
 190              		.loc 1 252 0
 191 004c C7E0     		b	.L7
 192              	.L31:
 253:LEDcontrol.c  ****     }
 254:LEDcontrol.c  ****     
 255:LEDcontrol.c  ****     //HSV til RGB beregning
 256:LEDcontrol.c  ****     C = v * s;
 193              		.loc 1 256 0
 194 004e 2246     		mov	r2, r4
 195 0050 2B46     		mov	r3, r5
 196 0052 DDE90C01 		ldrd	r0, [sp, #48]
 197 0056 FFF7FEFF 		bl	__aeabi_dmul
 198              	.LVL22:
 199 005a 0446     		mov	r4, r0
 200 005c 0D46     		mov	r5, r1
ARM GAS  C:\Users\cring\AppData\Local\Temp\ccsXHiuh.s 			page 9


 201              	.LVL23:
 257:LEDcontrol.c  ****     hh = h / 60.0;
 202              		.loc 1 257 0
 203 005e 0022     		movs	r2, #0
 204 0060 644B     		ldr	r3, .L33+12
 205 0062 4046     		mov	r0, r8
 206 0064 4946     		mov	r1, r9
 207 0066 FFF7FEFF 		bl	__aeabi_ddiv
 208              	.LVL24:
 209 006a CDE90001 		strd	r0, [sp]
 210              	.LVL25:
 258:LEDcontrol.c  ****     X = C * (1- fabs(fmod(hh, 2) -1));
 211              		.loc 1 258 0
 212 006e 0022     		movs	r2, #0
 213 0070 4FF08043 		mov	r3, #1073741824
 214 0074 FFF7FEFF 		bl	fmod
 215              	.LVL26:
 216 0078 0022     		movs	r2, #0
 217 007a 5F4B     		ldr	r3, .L33+16
 218 007c FFF7FEFF 		bl	__aeabi_dsub
 219              	.LVL27:
 220 0080 0246     		mov	r2, r0
 221 0082 21F00043 		bic	r3, r1, #-2147483648
 222 0086 0020     		movs	r0, #0
 223 0088 5B49     		ldr	r1, .L33+16
 224 008a FFF7FEFF 		bl	__aeabi_dsub
 225              	.LVL28:
 226 008e 0246     		mov	r2, r0
 227 0090 0B46     		mov	r3, r1
 228 0092 2046     		mov	r0, r4
 229 0094 2946     		mov	r1, r5
 230 0096 FFF7FEFF 		bl	__aeabi_dmul
 231              	.LVL29:
 232 009a 8046     		mov	r8, r0
 233 009c 8946     		mov	r9, r1
 234              	.LVL30:
 259:LEDcontrol.c  ****     m = v - C;
 235              		.loc 1 259 0
 236 009e 2246     		mov	r2, r4
 237 00a0 2B46     		mov	r3, r5
 238 00a2 DDE90C01 		ldrd	r0, [sp, #48]
 239 00a6 FFF7FEFF 		bl	__aeabi_dsub
 240              	.LVL31:
 241 00aa 8246     		mov	r10, r0
 242 00ac 8B46     		mov	fp, r1
 243              	.LVL32:
 260:LEDcontrol.c  ****     
 261:LEDcontrol.c  ****     i = hh;
 244              		.loc 1 261 0
 245 00ae DDE90001 		ldrd	r0, [sp]
 246 00b2 FFF7FEFF 		bl	__aeabi_d2iz
 247              	.LVL33:
 262:LEDcontrol.c  **** 
 263:LEDcontrol.c  ****     switch(i) {
 248              		.loc 1 263 0
 249 00b6 0428     		cmp	r0, #4
 250 00b8 24D8     		bhi	.L12
ARM GAS  C:\Users\cring\AppData\Local\Temp\ccsXHiuh.s 			page 10


 251 00ba DFE800F0 		tbb	[pc, r0]
 252              	.L14:
 253 00be 03       		.byte	(.L13-.L14)/2
 254 00bf 2A       		.byte	(.L26-.L14)/2
 255 00c0 0E       		.byte	(.L16-.L14)/2
 256 00c1 15       		.byte	(.L17-.L14)/2
 257 00c2 1E       		.byte	(.L18-.L14)/2
 258 00c3 00       		.p2align 1
 259              	.L13:
 260 00c4 4246     		mov	r2, r8
 261 00c6 4B46     		mov	r3, r9
 264:LEDcontrol.c  ****     case 0:
 265:LEDcontrol.c  ****         r = C;
 262              		.loc 1 265 0
 263 00c8 A046     		mov	r8, r4
 264              	.LVL34:
 265 00ca A946     		mov	r9, r5
 266:LEDcontrol.c  ****         g = X;
 266              		.loc 1 266 0
 267 00cc 1446     		mov	r4, r2
 268              	.LVL35:
 269 00ce 1D46     		mov	r5, r3
 267:LEDcontrol.c  ****         b = 0.0;
 270              		.loc 1 267 0
 271 00d0 0022     		movs	r2, #0
 272 00d2 0023     		movs	r3, #0
 273 00d4 CDE90023 		strd	r2, [sp]
 274              	.LVL36:
 275 00d8 1FE0     		b	.L15
 276              	.LVL37:
 277              	.L16:
 268:LEDcontrol.c  ****         break;
 269:LEDcontrol.c  ****     case 1:
 270:LEDcontrol.c  ****         r = X;
 271:LEDcontrol.c  ****         g = C;
 272:LEDcontrol.c  ****         b = 0.0;
 273:LEDcontrol.c  ****         break;
 274:LEDcontrol.c  ****     case 2:
 275:LEDcontrol.c  ****         r = 0.0;
 276:LEDcontrol.c  ****         g = C;
 277:LEDcontrol.c  ****         b = X;
 278              		.loc 1 277 0
 279 00da CDE90089 		strd	r8, [sp]
 280              	.LVL38:
 275:LEDcontrol.c  ****         g = C;
 281              		.loc 1 275 0
 282 00de 4FF00008 		mov	r8, #0
 283              	.LVL39:
 284 00e2 4FF00009 		mov	r9, #0
 278:LEDcontrol.c  ****         break;
 285              		.loc 1 278 0
 286 00e6 18E0     		b	.L15
 287              	.LVL40:
 288              	.L17:
 279:LEDcontrol.c  **** 
 280:LEDcontrol.c  ****     case 3:
 281:LEDcontrol.c  ****         r = 0.0;
ARM GAS  C:\Users\cring\AppData\Local\Temp\ccsXHiuh.s 			page 11


 282:LEDcontrol.c  ****         g = X;
 283:LEDcontrol.c  ****         b = C;
 289              		.loc 1 283 0
 290 00e8 CDE90045 		strd	r4, [sp]
 291              	.LVL41:
 282:LEDcontrol.c  ****         b = C;
 292              		.loc 1 282 0
 293 00ec 4446     		mov	r4, r8
 294              	.LVL42:
 295 00ee 4D46     		mov	r5, r9
 281:LEDcontrol.c  ****         g = X;
 296              		.loc 1 281 0
 297 00f0 4FF00008 		mov	r8, #0
 298              	.LVL43:
 299 00f4 4FF00009 		mov	r9, #0
 284:LEDcontrol.c  ****         break;
 300              		.loc 1 284 0
 301 00f8 0FE0     		b	.L15
 302              	.LVL44:
 303              	.L18:
 285:LEDcontrol.c  ****     case 4:
 286:LEDcontrol.c  ****         r = X;
 287:LEDcontrol.c  ****         g = 0.0;
 288:LEDcontrol.c  ****         b = C;
 304              		.loc 1 288 0
 305 00fa CDE90045 		strd	r4, [sp]
 306              	.LVL45:
 287:LEDcontrol.c  ****         b = C;
 307              		.loc 1 287 0
 308 00fe 0024     		movs	r4, #0
 309              	.LVL46:
 310 0100 0025     		movs	r5, #0
 289:LEDcontrol.c  ****         break;
 311              		.loc 1 289 0
 312 0102 0AE0     		b	.L15
 313              	.LVL47:
 314              	.L12:
 290:LEDcontrol.c  ****     case 5:
 291:LEDcontrol.c  ****     default:
 292:LEDcontrol.c  ****         r = C;
 293:LEDcontrol.c  ****         g = 0.0;
 294:LEDcontrol.c  ****         b = X;
 315              		.loc 1 294 0
 316 0104 CDE90089 		strd	r8, [sp]
 317              	.LVL48:
 292:LEDcontrol.c  ****         g = 0.0;
 318              		.loc 1 292 0
 319 0108 A046     		mov	r8, r4
 320              	.LVL49:
 321 010a A946     		mov	r9, r5
 293:LEDcontrol.c  ****         b = X;
 322              		.loc 1 293 0
 323 010c 0024     		movs	r4, #0
 324              	.LVL50:
 325 010e 0025     		movs	r5, #0
 295:LEDcontrol.c  ****         break;
 326              		.loc 1 295 0
ARM GAS  C:\Users\cring\AppData\Local\Temp\ccsXHiuh.s 			page 12


 327 0110 03E0     		b	.L15
 328              	.LVL51:
 329              	.L26:
 272:LEDcontrol.c  ****         break;
 330              		.loc 1 272 0
 331 0112 0022     		movs	r2, #0
 332 0114 0023     		movs	r3, #0
 333 0116 CDE90023 		strd	r2, [sp]
 334              	.LVL52:
 335              	.L15:
 296:LEDcontrol.c  ****     }
 297:LEDcontrol.c  ****     
 298:LEDcontrol.c  ****     //Sætter RGB værdier til at være fra 0-255 og ikke 0-1
 299:LEDcontrol.c  ****     r = round((r + m)*255.0);
 336              		.loc 1 299 0
 337 011a 5246     		mov	r2, r10
 338 011c 5B46     		mov	r3, fp
 339 011e 4046     		mov	r0, r8
 340              	.LVL53:
 341 0120 4946     		mov	r1, r9
 342 0122 FFF7FEFF 		bl	__aeabi_dadd
 343              	.LVL54:
 344 0126 30A3     		adr	r3, .L33
 345 0128 D3E90023 		ldrd	r2, [r3]
 346 012c FFF7FEFF 		bl	__aeabi_dmul
 347              	.LVL55:
 348 0130 FFF7FEFF 		bl	round
 349              	.LVL56:
 350 0134 8046     		mov	r8, r0
 351              	.LVL57:
 352 0136 8946     		mov	r9, r1
 353              	.LVL58:
 300:LEDcontrol.c  ****     g = round((g + m)*255.0);
 354              		.loc 1 300 0
 355 0138 5246     		mov	r2, r10
 356 013a 5B46     		mov	r3, fp
 357 013c 2046     		mov	r0, r4
 358 013e 2946     		mov	r1, r5
 359 0140 FFF7FEFF 		bl	__aeabi_dadd
 360              	.LVL59:
 361 0144 28A3     		adr	r3, .L33
 362 0146 D3E90023 		ldrd	r2, [r3]
 363 014a FFF7FEFF 		bl	__aeabi_dmul
 364              	.LVL60:
 365 014e FFF7FEFF 		bl	round
 366              	.LVL61:
 367 0152 0446     		mov	r4, r0
 368              	.LVL62:
 369 0154 0D46     		mov	r5, r1
 370              	.LVL63:
 301:LEDcontrol.c  ****     b = round((b + m)*255.0);
 371              		.loc 1 301 0
 372 0156 5246     		mov	r2, r10
 373 0158 5B46     		mov	r3, fp
 374 015a DDE90001 		ldrd	r0, [sp]
 375 015e FFF7FEFF 		bl	__aeabi_dadd
 376              	.LVL64:
ARM GAS  C:\Users\cring\AppData\Local\Temp\ccsXHiuh.s 			page 13


 377 0162 21A3     		adr	r3, .L33
 378 0164 D3E90023 		ldrd	r2, [r3]
 379 0168 FFF7FEFF 		bl	__aeabi_dmul
 380              	.LVL65:
 381 016c FFF7FEFF 		bl	round
 382              	.LVL66:
 383 0170 CDE90001 		strd	r0, [sp]
 384              	.LVL67:
 302:LEDcontrol.c  ****     
 303:LEDcontrol.c  ****     //Sikre ingen negative værdier
 304:LEDcontrol.c  ****     r = r < 0 ? 0 : r;
 385              		.loc 1 304 0
 386 0174 0022     		movs	r2, #0
 387 0176 0023     		movs	r3, #0
 388 0178 4046     		mov	r0, r8
 389              	.LVL68:
 390 017a 4946     		mov	r1, r9
 391 017c FFF7FEFF 		bl	__aeabi_dcmplt
 392              	.LVL69:
 393 0180 18B1     		cbz	r0, .L19
 394 0182 4FF00008 		mov	r8, #0
 395              	.LVL70:
 396 0186 4FF00009 		mov	r9, #0
 397              	.L19:
 398              	.LVL71:
 305:LEDcontrol.c  ****     g = g < 0 ? 0 : g;
 399              		.loc 1 305 0 discriminator 4
 400 018a 0022     		movs	r2, #0
 401 018c 0023     		movs	r3, #0
 402 018e 2046     		mov	r0, r4
 403 0190 2946     		mov	r1, r5
 404 0192 FFF7FEFF 		bl	__aeabi_dcmplt
 405              	.LVL72:
 406 0196 08B1     		cbz	r0, .L21
 407              		.loc 1 305 0 is_stmt 0
 408 0198 0024     		movs	r4, #0
 409              	.LVL73:
 410 019a 0025     		movs	r5, #0
 411              	.L21:
 412              	.LVL74:
 306:LEDcontrol.c  ****     b = b < 0 ? 0 : b;
 413              		.loc 1 306 0 is_stmt 1 discriminator 4
 414 019c 0022     		movs	r2, #0
 415 019e 0023     		movs	r3, #0
 416 01a0 DDE90001 		ldrd	r0, [sp]
 417 01a4 FFF7FEFF 		bl	__aeabi_dcmplt
 418              	.LVL75:
 419 01a8 18B1     		cbz	r0, .L23
 420              		.loc 1 306 0 is_stmt 0
 421 01aa 0022     		movs	r2, #0
 422 01ac 0023     		movs	r3, #0
 423 01ae CDE90023 		strd	r2, [sp]
 424              	.LVL76:
 425              	.L23:
 307:LEDcontrol.c  ****     
 308:LEDcontrol.c  ****     //Giver det givende objekt nye RGB værdier
 309:LEDcontrol.c  ****     (rgbLED + LED)->green = g;
ARM GAS  C:\Users\cring\AppData\Local\Temp\ccsXHiuh.s 			page 14


 426              		.loc 1 309 0 is_stmt 1 discriminator 4
 427 01b2 5823     		movs	r3, #88
 428 01b4 03FB06F6 		mul	r6, r3, r6
 429 01b8 07EB060A 		add	r10, r7, r6
 430              	.LVL77:
 431 01bc 2046     		mov	r0, r4
 432 01be 2946     		mov	r1, r5
 433 01c0 FFF7FEFF 		bl	__aeabi_d2iz
 434              	.LVL78:
 435 01c4 CAF80400 		str	r0, [r10, #4]
 310:LEDcontrol.c  ****     (rgbLED + LED)->red = r;
 436              		.loc 1 310 0 discriminator 4
 437 01c8 4046     		mov	r0, r8
 438 01ca 4946     		mov	r1, r9
 439 01cc FFF7FEFF 		bl	__aeabi_d2iz
 440              	.LVL79:
 441 01d0 B851     		str	r0, [r7, r6]
 311:LEDcontrol.c  ****     (rgbLED + LED)->blue = b;
 442              		.loc 1 311 0 discriminator 4
 443 01d2 DDE90001 		ldrd	r0, [sp]
 444 01d6 FFF7FEFF 		bl	__aeabi_d2iz
 445              	.LVL80:
 446 01da CAF80800 		str	r0, [r10, #8]
 447              	.LVL81:
 448              	.L7:
 312:LEDcontrol.c  ****     return;
 313:LEDcontrol.c  ****     
 314:LEDcontrol.c  **** }
 449              		.loc 1 314 0
 450 01de 03B0     		add	sp, sp, #12
 451              		.cfi_def_cfa_offset 36
 452              		@ sp needed
 453 01e0 BDE8F08F 		pop	{r4, r5, r6, r7, r8, r9, r10, fp, pc}
 454              	.LVL82:
 455              	.L34:
 456 01e4 AFF30080 		.align	3
 457              	.L33:
 458 01e8 00000000 		.word	0
 459 01ec 00E06F40 		.word	1081073664
 460 01f0 0000E03F 		.word	1071644672
 461 01f4 00004E40 		.word	1078853632
 462 01f8 0000F03F 		.word	1072693248
 463              		.cfi_endproc
 464              	.LFE77:
 465              		.size	hsv2rgb, .-hsv2rgb
 466              		.section	.text.UpdateLED,"ax",%progbits
 467              		.align	2
 468              		.global	UpdateLED
 469              		.thumb
 470              		.thumb_func
 471              		.type	UpdateLED, %function
 472              	UpdateLED:
 473              	.LFB78:
 315:LEDcontrol.c  **** 
 316:LEDcontrol.c  **** void UpdateLED(LEDctrl *rgbLED)
 317:LEDcontrol.c  **** {
 474              		.loc 1 317 0
ARM GAS  C:\Users\cring\AppData\Local\Temp\ccsXHiuh.s 			page 15


 475              		.cfi_startproc
 476              		@ args = 0, pretend = 0, frame = 0
 477              		@ frame_needed = 0, uses_anonymous_args = 0
 478              	.LVL83:
 479 0000 70B5     		push	{r4, r5, r6, lr}
 480              		.cfi_def_cfa_offset 16
 481              		.cfi_offset 4, -16
 482              		.cfi_offset 5, -12
 483              		.cfi_offset 6, -8
 484              		.cfi_offset 14, -4
 485 0002 0646     		mov	r6, r0
 318:LEDcontrol.c  ****     if(rgbLED->pin == 1){ //Hvis LED strip til pin 1 skiftes SPIM til at output til LEDdata2
 486              		.loc 1 318 0
 487 0004 436C     		ldr	r3, [r0, #68]
 488 0006 012B     		cmp	r3, #1
 489 0008 04D1     		bne	.L36
 319:LEDcontrol.c  ****         SPIMOutCtrl_Write(1);
 490              		.loc 1 319 0
 491 000a 0120     		movs	r0, #1
 492              	.LVL84:
 493 000c FFF7FEFF 		bl	SPIMOutCtrl_Write
 494              	.LVL85:
 495              	.L39:
 317:LEDcontrol.c  ****     if(rgbLED->pin == 1){ //Hvis LED strip til pin 1 skiftes SPIM til at output til LEDdata2
 496              		.loc 1 317 0 discriminator 1
 497 0010 0025     		movs	r5, #0
 498 0012 1BE0     		b	.L37
 499              	.LVL86:
 500              	.L36:
 320:LEDcontrol.c  ****     }else if (rgbLED->pin == 2){ //Hvis LEd stip til pin 2 skiftes SPIM til at output til LEDdata
 501              		.loc 1 320 0
 502 0014 022B     		cmp	r3, #2
 503 0016 1CD1     		bne	.L35
 321:LEDcontrol.c  ****         SPIMOutCtrl_Write(0);
 504              		.loc 1 321 0
 505 0018 0020     		movs	r0, #0
 506              	.LVL87:
 507 001a FFF7FEFF 		bl	SPIMOutCtrl_Write
 508              	.LVL88:
 509 001e F7E7     		b	.L39
 510              	.LVL89:
 511              	.L40:
 512              	.LBB2:
 322:LEDcontrol.c  ****     }else{
 323:LEDcontrol.c  ****         return;
 324:LEDcontrol.c  ****     }
 325:LEDcontrol.c  ****     for(int i = 0; i < rgbLED->LEDlength; i++) //Sender data til LED strip
 326:LEDcontrol.c  ****     {
 327:LEDcontrol.c  ****         //8bit grøn farve
 328:LEDcontrol.c  ****         SPIM_1_WriteTxData((rgbLED + i)->green1);
 513              		.loc 1 328 0 discriminator 3
 514 0020 5824     		movs	r4, #88
 515 0022 04FB0564 		mla	r4, r4, r5, r6
 516 0026 208D     		ldrh	r0, [r4, #40]
 517 0028 FFF7FEFF 		bl	SPIM_1_WriteTxData
 518              	.LVL90:
 329:LEDcontrol.c  ****         SPIM_1_WriteTxData((rgbLED + i)->green2);
ARM GAS  C:\Users\cring\AppData\Local\Temp\ccsXHiuh.s 			page 16


 519              		.loc 1 329 0 discriminator 3
 520 002c A08D     		ldrh	r0, [r4, #44]
 521 002e FFF7FEFF 		bl	SPIM_1_WriteTxData
 522              	.LVL91:
 330:LEDcontrol.c  ****         
 331:LEDcontrol.c  ****         //8bit rød farve
 332:LEDcontrol.c  ****         SPIM_1_WriteTxData((rgbLED + i)->red1);
 523              		.loc 1 332 0 discriminator 3
 524 0032 208E     		ldrh	r0, [r4, #48]
 525 0034 FFF7FEFF 		bl	SPIM_1_WriteTxData
 526              	.LVL92:
 333:LEDcontrol.c  ****         SPIM_1_WriteTxData((rgbLED + i)->red2);
 527              		.loc 1 333 0 discriminator 3
 528 0038 A08E     		ldrh	r0, [r4, #52]
 529 003a FFF7FEFF 		bl	SPIM_1_WriteTxData
 530              	.LVL93:
 334:LEDcontrol.c  ****         
 335:LEDcontrol.c  ****         //8bit blå farve
 336:LEDcontrol.c  ****         SPIM_1_WriteTxData((rgbLED + i)->blue1);
 531              		.loc 1 336 0 discriminator 3
 532 003e 208F     		ldrh	r0, [r4, #56]
 533 0040 FFF7FEFF 		bl	SPIM_1_WriteTxData
 534              	.LVL94:
 337:LEDcontrol.c  ****         SPIM_1_WriteTxData((rgbLED + i)->blue2);
 535              		.loc 1 337 0 discriminator 3
 536 0044 A08F     		ldrh	r0, [r4, #60]
 537 0046 FFF7FEFF 		bl	SPIM_1_WriteTxData
 538              	.LVL95:
 325:LEDcontrol.c  ****     {
 539              		.loc 1 325 0 discriminator 3
 540 004a 0135     		adds	r5, r5, #1
 541              	.LVL96:
 542              	.L37:
 325:LEDcontrol.c  ****     {
 543              		.loc 1 325 0 is_stmt 0 discriminator 1
 544 004c 336C     		ldr	r3, [r6, #64]
 545 004e 9D42     		cmp	r5, r3
 546 0050 E6DB     		blt	.L40
 547              	.LVL97:
 548              	.L35:
 549 0052 70BD     		pop	{r4, r5, r6, pc}
 550              	.LBE2:
 551              		.cfi_endproc
 552              	.LFE78:
 553              		.size	UpdateLED, .-UpdateLED
 554              		.section	.text.isr_refreshrate,"ax",%progbits
 555              		.align	2
 556              		.global	isr_refreshrate
 557              		.thumb
 558              		.thumb_func
 559              		.type	isr_refreshrate, %function
 560              	isr_refreshrate:
 561              	.LFB64:
  30:LEDcontrol.c  ****     Timer1_Stop();     //Timer stoppes, så der sendes for at sikre stabilitet
 562              		.loc 1 30 0 is_stmt 1
 563              		.cfi_startproc
 564              		@ args = 0, pretend = 0, frame = 0
ARM GAS  C:\Users\cring\AppData\Local\Temp\ccsXHiuh.s 			page 17


 565              		@ frame_needed = 0, uses_anonymous_args = 0
 566 0000 08B5     		push	{r3, lr}
 567              		.cfi_def_cfa_offset 8
 568              		.cfi_offset 3, -8
 569              		.cfi_offset 14, -4
  31:LEDcontrol.c  ****     //isr_refreshrate_LCD_Disable();
 570              		.loc 1 31 0
 571 0002 FFF7FEFF 		bl	Timer1_Stop
 572              	.LVL98:
  33:LEDcontrol.c  ****     {
 573              		.loc 1 33 0
 574 0006 094B     		ldr	r3, .L46
 575 0008 1868     		ldr	r0, [r3]
 576 000a 08B1     		cbz	r0, .L43
  35:LEDcontrol.c  ****     }
 577              		.loc 1 35 0
 578 000c FFF7FEFF 		bl	UpdateLED
 579              	.LVL99:
 580              	.L43:
  37:LEDcontrol.c  ****     if (rgbLED2 != NULL)
 581              		.loc 1 37 0
 582 0010 6420     		movs	r0, #100
 583 0012 FFF7FEFF 		bl	CyDelayUs
 584              	.LVL100:
  38:LEDcontrol.c  ****     {
 585              		.loc 1 38 0
 586 0016 054B     		ldr	r3, .L46
 587 0018 5868     		ldr	r0, [r3, #4]
 588 001a 08B1     		cbz	r0, .L44
  40:LEDcontrol.c  ****     }
 589              		.loc 1 40 0
 590 001c FFF7FEFF 		bl	UpdateLED
 591              	.LVL101:
 592              	.L44:
  42:LEDcontrol.c  ****     //isr_refreshrate_LCD_Enable();
 593              		.loc 1 42 0
 594 0020 6420     		movs	r0, #100
 595 0022 FFF7FEFF 		bl	CyDelayUs
 596              	.LVL102:
  44:LEDcontrol.c  **** }
 597              		.loc 1 44 0
 598 0026 FFF7FEFF 		bl	Timer1_Start
 599              	.LVL103:
 600 002a 08BD     		pop	{r3, pc}
 601              	.L47:
 602              		.align	2
 603              	.L46:
 604 002c 00000000 		.word	.LANCHOR0
 605              		.cfi_endproc
 606              	.LFE64:
 607              		.size	isr_refreshrate, .-isr_refreshrate
 608              		.section	.text.setcolorLED,"ax",%progbits
 609              		.align	2
 610              		.global	setcolorLED
 611              		.thumb
 612              		.thumb_func
 613              		.type	setcolorLED, %function
ARM GAS  C:\Users\cring\AppData\Local\Temp\ccsXHiuh.s 			page 18


 614              	setcolorLED:
 615              	.LFB79:
 338:LEDcontrol.c  ****     }
 339:LEDcontrol.c  **** }
 340:LEDcontrol.c  **** 
 341:LEDcontrol.c  **** void setcolorLED(double h, double s, double v, int LED, LEDctrl *rgbLED)
 342:LEDcontrol.c  **** {
 616              		.loc 1 342 0
 617              		.cfi_startproc
 618              		@ args = 16, pretend = 0, frame = 48
 619              		@ frame_needed = 0, uses_anonymous_args = 0
 620              	.LVL104:
 621 0000 F0B5     		push	{r4, r5, r6, r7, lr}
 622              		.cfi_def_cfa_offset 20
 623              		.cfi_offset 4, -20
 624              		.cfi_offset 5, -16
 625              		.cfi_offset 6, -12
 626              		.cfi_offset 7, -8
 627              		.cfi_offset 14, -4
 628 0002 91B0     		sub	sp, sp, #68
 629              		.cfi_def_cfa_offset 88
 630 0004 189D     		ldr	r5, [sp, #96]
 631 0006 199C     		ldr	r4, [sp, #100]
 343:LEDcontrol.c  ****     int Red, Green, Blue;
 344:LEDcontrol.c  ****     
 345:LEDcontrol.c  ****     hsv2rgb(h,s,v,LED, rgbLED); //hsv konverteres til RGB og gemmes i rgbLED's red, green blue
 632              		.loc 1 345 0
 633 0008 0394     		str	r4, [sp, #12]
 634 000a 0295     		str	r5, [sp, #8]
 635 000c DDE91667 		ldrd	r6, [sp, #88]
 636 0010 CDE90067 		strd	r6, [sp]
 637 0014 FFF7FEFF 		bl	hsv2rgb
 638              	.LVL105:
 346:LEDcontrol.c  ****     
 347:LEDcontrol.c  ****     Red = (rgbLED + LED)->red;
 639              		.loc 1 347 0
 640 0018 5823     		movs	r3, #88
 641 001a 03FB05F3 		mul	r3, r3, r5
 642 001e E518     		adds	r5, r4, r3
 643 0020 E158     		ldr	r1, [r4, r3]
 644              	.LVL106:
 348:LEDcontrol.c  ****     Green = (rgbLED + LED)->green;
 645              		.loc 1 348 0
 646 0022 6868     		ldr	r0, [r5, #4]
 647              	.LVL107:
 349:LEDcontrol.c  ****     Blue = (rgbLED + LED)->blue;
 648              		.loc 1 349 0
 649 0024 AA68     		ldr	r2, [r5, #8]
 650              	.LVL108:
 651              	.LBB3:
 350:LEDcontrol.c  ****  
 351:LEDcontrol.c  ****     int x = Green;
 352:LEDcontrol.c  ****     int buf[12];
 353:LEDcontrol.c  ****     
 354:LEDcontrol.c  ****     for (int i = 0; i<8; i++) //Hver farve er 8bit lang derfor konvertes hver bit til det delay som
 652              		.loc 1 354 0
 653 0026 0023     		movs	r3, #0
ARM GAS  C:\Users\cring\AppData\Local\Temp\ccsXHiuh.s 			page 19


 654 0028 11E0     		b	.L49
 655              	.LVL109:
 656              	.L52:
 355:LEDcontrol.c  ****     {
 356:LEDcontrol.c  ****         if(x & 128)     //Tjekker om det bittet på bit plads 7 er 1
 657              		.loc 1 356 0
 658 002a 10F0800F 		tst	r0, #128
 659 002e 06D0     		beq	.L50
 357:LEDcontrol.c  ****         {
 358:LEDcontrol.c  ****             buf[i] = 0b110; //Konverterer 1 til det tilsvarende delay
 660              		.loc 1 358 0
 661 0030 0626     		movs	r6, #6
 662 0032 10AC     		add	r4, sp, #64
 663 0034 04EB8304 		add	r4, r4, r3, lsl #2
 664 0038 44F8306C 		str	r6, [r4, #-48]
 665 003c 05E0     		b	.L51
 666              	.L50:
 359:LEDcontrol.c  ****         }else{
 360:LEDcontrol.c  ****             buf[i] = 0b100; //Konverterer 0 til det tilsvarende delay
 667              		.loc 1 360 0
 668 003e 0426     		movs	r6, #4
 669 0040 10AC     		add	r4, sp, #64
 670 0042 04EB8304 		add	r4, r4, r3, lsl #2
 671 0046 44F8306C 		str	r6, [r4, #-48]
 672              	.L51:
 361:LEDcontrol.c  ****         }
 362:LEDcontrol.c  ****         x = x<<1;   //Flytter alle bit i x til venstre, så næste bit gang tjekkes
 673              		.loc 1 362 0 discriminator 2
 674 004a 4000     		lsls	r0, r0, #1
 675              	.LVL110:
 354:LEDcontrol.c  ****     {
 676              		.loc 1 354 0 discriminator 2
 677 004c 0133     		adds	r3, r3, #1
 678              	.LVL111:
 679              	.L49:
 354:LEDcontrol.c  ****     {
 680              		.loc 1 354 0 is_stmt 0 discriminator 1
 681 004e 072B     		cmp	r3, #7
 682 0050 EBDD     		ble	.L52
 683              	.LBE3:
 363:LEDcontrol.c  ****     }
 364:LEDcontrol.c  ****     //Da SPI komponenten maks kan sende 16bit af gange og der skal sendes 24bit for hver farve dele
 365:LEDcontrol.c  ****     (rgbLED + LED)->green1 = (buf[0]<<9) + (buf[1]<<6) + (buf[2]<<3) + buf[3];
 684              		.loc 1 365 0 is_stmt 1
 685 0052 059B     		ldr	r3, [sp, #20]
 686              	.LVL112:
 687 0054 9B01     		lsls	r3, r3, #6
 688 0056 0498     		ldr	r0, [sp, #16]
 689              	.LVL113:
 690 0058 03EB4023 		add	r3, r3, r0, lsl #9
 691 005c 0698     		ldr	r0, [sp, #24]
 692 005e 03EBC003 		add	r3, r3, r0, lsl #3
 693 0062 0798     		ldr	r0, [sp, #28]
 694 0064 0344     		add	r3, r3, r0
 695 0066 AB62     		str	r3, [r5, #40]
 366:LEDcontrol.c  ****     (rgbLED + LED)->green2 = (buf[4]<<9) + (buf[5]<<6) + (buf[6]<<3) + buf[7];
 696              		.loc 1 366 0
ARM GAS  C:\Users\cring\AppData\Local\Temp\ccsXHiuh.s 			page 20


 697 0068 099B     		ldr	r3, [sp, #36]
 698 006a 9B01     		lsls	r3, r3, #6
 699 006c 0898     		ldr	r0, [sp, #32]
 700 006e 03EB4023 		add	r3, r3, r0, lsl #9
 701 0072 0A98     		ldr	r0, [sp, #40]
 702 0074 03EBC003 		add	r3, r3, r0, lsl #3
 703 0078 0B98     		ldr	r0, [sp, #44]
 704 007a 0344     		add	r3, r3, r0
 705 007c EB62     		str	r3, [r5, #44]
 706              	.LVL114:
 707              	.LBB4:
 367:LEDcontrol.c  ****     
 368:LEDcontrol.c  ****     x = Red;
 369:LEDcontrol.c  ****     for (int i = 0; i<8; i++)
 708              		.loc 1 369 0
 709 007e 0023     		movs	r3, #0
 710 0080 11E0     		b	.L53
 711              	.LVL115:
 712              	.L56:
 370:LEDcontrol.c  ****     {
 371:LEDcontrol.c  ****         if(x & 128)
 713              		.loc 1 371 0
 714 0082 11F0800F 		tst	r1, #128
 715 0086 06D0     		beq	.L54
 372:LEDcontrol.c  ****         {
 373:LEDcontrol.c  ****             buf[i] = 0b110;
 716              		.loc 1 373 0
 717 0088 0624     		movs	r4, #6
 718 008a 10A8     		add	r0, sp, #64
 719 008c 00EB8300 		add	r0, r0, r3, lsl #2
 720 0090 40F8304C 		str	r4, [r0, #-48]
 721 0094 05E0     		b	.L55
 722              	.L54:
 374:LEDcontrol.c  ****         }else{
 375:LEDcontrol.c  ****             buf[i] = 0b100;
 723              		.loc 1 375 0
 724 0096 0424     		movs	r4, #4
 725 0098 10A8     		add	r0, sp, #64
 726 009a 00EB8300 		add	r0, r0, r3, lsl #2
 727 009e 40F8304C 		str	r4, [r0, #-48]
 728              	.L55:
 376:LEDcontrol.c  ****         }
 377:LEDcontrol.c  ****         x = x<<1;
 729              		.loc 1 377 0 discriminator 2
 730 00a2 4900     		lsls	r1, r1, #1
 731              	.LVL116:
 369:LEDcontrol.c  ****     {
 732              		.loc 1 369 0 discriminator 2
 733 00a4 0133     		adds	r3, r3, #1
 734              	.LVL117:
 735              	.L53:
 369:LEDcontrol.c  ****     {
 736              		.loc 1 369 0 is_stmt 0 discriminator 1
 737 00a6 072B     		cmp	r3, #7
 738 00a8 EBDD     		ble	.L56
 739              	.LBE4:
 378:LEDcontrol.c  ****     }
ARM GAS  C:\Users\cring\AppData\Local\Temp\ccsXHiuh.s 			page 21


 379:LEDcontrol.c  ****     (rgbLED + LED)->red1 = (buf[0]<<9) + (buf[1]<<6) + (buf[2]<<3) + buf[3];
 740              		.loc 1 379 0 is_stmt 1
 741 00aa 059B     		ldr	r3, [sp, #20]
 742              	.LVL118:
 743 00ac 9B01     		lsls	r3, r3, #6
 744 00ae 0499     		ldr	r1, [sp, #16]
 745              	.LVL119:
 746 00b0 03EB4123 		add	r3, r3, r1, lsl #9
 747 00b4 0699     		ldr	r1, [sp, #24]
 748 00b6 03EBC103 		add	r3, r3, r1, lsl #3
 749 00ba 0799     		ldr	r1, [sp, #28]
 750 00bc 0B44     		add	r3, r3, r1
 751 00be 2B63     		str	r3, [r5, #48]
 380:LEDcontrol.c  ****     (rgbLED + LED)->red2 = (buf[4]<<9) + (buf[5]<<6) + (buf[6]<<3) + buf[7];
 752              		.loc 1 380 0
 753 00c0 099B     		ldr	r3, [sp, #36]
 754 00c2 9B01     		lsls	r3, r3, #6
 755 00c4 0899     		ldr	r1, [sp, #32]
 756 00c6 03EB4123 		add	r3, r3, r1, lsl #9
 757 00ca 0A99     		ldr	r1, [sp, #40]
 758 00cc 03EBC103 		add	r3, r3, r1, lsl #3
 759 00d0 0B99     		ldr	r1, [sp, #44]
 760 00d2 0B44     		add	r3, r3, r1
 761 00d4 6B63     		str	r3, [r5, #52]
 762              	.LVL120:
 763              	.LBB5:
 381:LEDcontrol.c  ****     
 382:LEDcontrol.c  ****     x = Blue;
 383:LEDcontrol.c  ****     for (int i = 0; i<8; i++)
 764              		.loc 1 383 0
 765 00d6 0023     		movs	r3, #0
 766 00d8 11E0     		b	.L57
 767              	.LVL121:
 768              	.L60:
 384:LEDcontrol.c  ****     {
 385:LEDcontrol.c  ****         if(x & 128)
 769              		.loc 1 385 0
 770 00da 12F0800F 		tst	r2, #128
 771 00de 06D0     		beq	.L58
 386:LEDcontrol.c  ****         {
 387:LEDcontrol.c  ****             buf[i] = 0b110;
 772              		.loc 1 387 0
 773 00e0 0620     		movs	r0, #6
 774 00e2 10A9     		add	r1, sp, #64
 775 00e4 01EB8301 		add	r1, r1, r3, lsl #2
 776 00e8 41F8300C 		str	r0, [r1, #-48]
 777 00ec 05E0     		b	.L59
 778              	.L58:
 388:LEDcontrol.c  ****         }else{
 389:LEDcontrol.c  ****             buf[i] = 0b100;
 779              		.loc 1 389 0
 780 00ee 0420     		movs	r0, #4
 781 00f0 10A9     		add	r1, sp, #64
 782 00f2 01EB8301 		add	r1, r1, r3, lsl #2
 783 00f6 41F8300C 		str	r0, [r1, #-48]
 784              	.L59:
 390:LEDcontrol.c  ****         }
ARM GAS  C:\Users\cring\AppData\Local\Temp\ccsXHiuh.s 			page 22


 391:LEDcontrol.c  ****         x = x<<1;
 785              		.loc 1 391 0 discriminator 2
 786 00fa 5200     		lsls	r2, r2, #1
 787              	.LVL122:
 383:LEDcontrol.c  ****     {
 788              		.loc 1 383 0 discriminator 2
 789 00fc 0133     		adds	r3, r3, #1
 790              	.LVL123:
 791              	.L57:
 383:LEDcontrol.c  ****     {
 792              		.loc 1 383 0 is_stmt 0 discriminator 1
 793 00fe 072B     		cmp	r3, #7
 794 0100 EBDD     		ble	.L60
 795              	.LBE5:
 392:LEDcontrol.c  ****     }
 393:LEDcontrol.c  ****     (rgbLED + LED)->blue1 = (buf[0]<<9) + (buf[1]<<6) + (buf[2]<<3) + buf[3];
 796              		.loc 1 393 0 is_stmt 1
 797 0102 059B     		ldr	r3, [sp, #20]
 798              	.LVL124:
 799 0104 9B01     		lsls	r3, r3, #6
 800 0106 049A     		ldr	r2, [sp, #16]
 801              	.LVL125:
 802 0108 03EB4223 		add	r3, r3, r2, lsl #9
 803 010c 069A     		ldr	r2, [sp, #24]
 804 010e 03EBC203 		add	r3, r3, r2, lsl #3
 805 0112 079A     		ldr	r2, [sp, #28]
 806 0114 1344     		add	r3, r3, r2
 807 0116 AB63     		str	r3, [r5, #56]
 394:LEDcontrol.c  ****     (rgbLED + LED)->blue2 = (buf[4]<<9) + (buf[5]<<6) + (buf[6]<<3) + buf[7];
 808              		.loc 1 394 0
 809 0118 099B     		ldr	r3, [sp, #36]
 810 011a 9B01     		lsls	r3, r3, #6
 811 011c 089A     		ldr	r2, [sp, #32]
 812 011e 03EB4223 		add	r3, r3, r2, lsl #9
 813 0122 0A9A     		ldr	r2, [sp, #40]
 814 0124 03EBC203 		add	r3, r3, r2, lsl #3
 815 0128 0B9A     		ldr	r2, [sp, #44]
 816 012a 1344     		add	r3, r3, r2
 817 012c EB63     		str	r3, [r5, #60]
 395:LEDcontrol.c  **** 
 396:LEDcontrol.c  **** }
 818              		.loc 1 396 0
 819 012e 11B0     		add	sp, sp, #68
 820              		.cfi_def_cfa_offset 20
 821              		@ sp needed
 822 0130 F0BD     		pop	{r4, r5, r6, r7, pc}
 823              		.cfi_endproc
 824              	.LFE79:
 825              		.size	setcolorLED, .-setcolorLED
 826 0132 00BF     		.section	.text.fillcolor,"ax",%progbits
 827              		.align	2
 828              		.global	fillcolor
 829              		.thumb
 830              		.thumb_func
 831              		.type	fillcolor, %function
 832              	fillcolor:
 833              	.LFB72:
ARM GAS  C:\Users\cring\AppData\Local\Temp\ccsXHiuh.s 			page 23


 181:LEDcontrol.c  ****     //Sætter farven på hele LED-strip'en
 834              		.loc 1 181 0
 835              		.cfi_startproc
 836              		@ args = 12, pretend = 0, frame = 0
 837              		@ frame_needed = 0, uses_anonymous_args = 0
 838              	.LVL126:
 839 0000 2DE9F04F 		push	{r4, r5, r6, r7, r8, r9, r10, fp, lr}
 840              		.cfi_def_cfa_offset 36
 841              		.cfi_offset 4, -36
 842              		.cfi_offset 5, -32
 843              		.cfi_offset 6, -28
 844              		.cfi_offset 7, -24
 845              		.cfi_offset 8, -20
 846              		.cfi_offset 9, -16
 847              		.cfi_offset 10, -12
 848              		.cfi_offset 11, -8
 849              		.cfi_offset 14, -4
 850 0004 85B0     		sub	sp, sp, #20
 851              		.cfi_def_cfa_offset 56
 852 0006 8046     		mov	r8, r0
 853 0008 8946     		mov	r9, r1
 854 000a 9246     		mov	r10, r2
 855 000c 9B46     		mov	fp, r3
 856 000e DDE90E45 		ldrd	r4, [sp, #56]
 857 0012 109F     		ldr	r7, [sp, #64]
 858              	.LVL127:
 859              	.LBB6:
 183:LEDcontrol.c  ****     {
 860              		.loc 1 183 0
 861 0014 0026     		movs	r6, #0
 862 0016 0AE0     		b	.L63
 863              	.LVL128:
 864              	.L64:
 185:LEDcontrol.c  ****     }
 865              		.loc 1 185 0 discriminator 3
 866 0018 0397     		str	r7, [sp, #12]
 867 001a 0296     		str	r6, [sp, #8]
 868 001c CDE90045 		strd	r4, [sp]
 869 0020 5246     		mov	r2, r10
 870 0022 5B46     		mov	r3, fp
 871 0024 4046     		mov	r0, r8
 872 0026 4946     		mov	r1, r9
 873 0028 FFF7FEFF 		bl	setcolorLED
 874              	.LVL129:
 183:LEDcontrol.c  ****     {
 875              		.loc 1 183 0 discriminator 3
 876 002c 0136     		adds	r6, r6, #1
 877              	.LVL130:
 878              	.L63:
 183:LEDcontrol.c  ****     {
 879              		.loc 1 183 0 is_stmt 0 discriminator 1
 880 002e 3B6C     		ldr	r3, [r7, #64]
 881 0030 9E42     		cmp	r6, r3
 882 0032 F1DB     		blt	.L64
 883              	.LBE6:
 187:LEDcontrol.c  **** 
 884              		.loc 1 187 0 is_stmt 1
ARM GAS  C:\Users\cring\AppData\Local\Temp\ccsXHiuh.s 			page 24


 885 0034 05B0     		add	sp, sp, #20
 886              		.cfi_def_cfa_offset 36
 887              		@ sp needed
 888 0036 BDE8F08F 		pop	{r4, r5, r6, r7, r8, r9, r10, fp, pc}
 889              		.cfi_endproc
 890              	.LFE72:
 891              		.size	fillcolor, .-fillcolor
 892              		.global	__aeabi_f2d
 893              		.global	__aeabi_d2f
 894              		.global	__aeabi_fcmplt
 895              		.global	__aeabi_fcmpeq
 896 003a 00BF     		.section	.text.isr_LED_pulse,"ax",%progbits
 897              		.align	2
 898              		.global	isr_LED_pulse
 899              		.thumb
 900              		.thumb_func
 901              		.type	isr_LED_pulse, %function
 902              	isr_LED_pulse:
 903              	.LFB66:
  76:LEDcontrol.c  ****     
 904              		.loc 1 76 0
 905              		.cfi_startproc
 906              		@ args = 0, pretend = 0, frame = 0
 907              		@ frame_needed = 0, uses_anonymous_args = 0
 908 0000 F0B5     		push	{r4, r5, r6, r7, lr}
 909              		.cfi_def_cfa_offset 20
 910              		.cfi_offset 4, -20
 911              		.cfi_offset 5, -16
 912              		.cfi_offset 6, -12
 913              		.cfi_offset 7, -8
 914              		.cfi_offset 14, -4
 915 0002 85B0     		sub	sp, sp, #20
 916              		.cfi_def_cfa_offset 40
  78:LEDcontrol.c  ****     {
 917              		.loc 1 78 0
 918 0004 464B     		ldr	r3, .L78+8
 919 0006 9B68     		ldr	r3, [r3, #8]
 920 0008 002B     		cmp	r3, #0
 921 000a 40D1     		bne	.L67
  80:LEDcontrol.c  ****         if (rgbLED2->pulse == 1)fillcolor(rgbLED2->h,rgbLED2->s,index2, rgbLED2);
 922              		.loc 1 80 0
 923 000c 444B     		ldr	r3, .L78+8
 924 000e 1B68     		ldr	r3, [r3]
 925 0010 DA6C     		ldr	r2, [r3, #76]
 926 0012 012A     		cmp	r2, #1
 927 0014 10D1     		bne	.L68
  80:LEDcontrol.c  ****         if (rgbLED2->pulse == 1)fillcolor(rgbLED2->h,rgbLED2->s,index2, rgbLED2);
 928              		.loc 1 80 0 is_stmt 0 discriminator 1
 929 0016 D3E90667 		ldrd	r6, [r3, #24]
 930 001a D3E90445 		ldrd	r4, [r3, #16]
 931 001e 0293     		str	r3, [sp, #8]
 932 0020 404B     		ldr	r3, .L78+12
 933 0022 1868     		ldr	r0, [r3]	@ float
 934 0024 FFF7FEFF 		bl	__aeabi_f2d
 935              	.LVL131:
 936 0028 CDE90001 		strd	r0, [sp]
 937 002c 3246     		mov	r2, r6
ARM GAS  C:\Users\cring\AppData\Local\Temp\ccsXHiuh.s 			page 25


 938 002e 3B46     		mov	r3, r7
 939 0030 2046     		mov	r0, r4
 940 0032 2946     		mov	r1, r5
 941 0034 FFF7FEFF 		bl	fillcolor
 942              	.LVL132:
 943              	.L68:
  81:LEDcontrol.c  ****         index2 = index2-0.01;
 944              		.loc 1 81 0 is_stmt 1
 945 0038 394B     		ldr	r3, .L78+8
 946 003a 5B68     		ldr	r3, [r3, #4]
 947 003c DA6C     		ldr	r2, [r3, #76]
 948 003e 012A     		cmp	r2, #1
 949 0040 10D1     		bne	.L69
  81:LEDcontrol.c  ****         index2 = index2-0.01;
 950              		.loc 1 81 0 is_stmt 0 discriminator 1
 951 0042 D3E90667 		ldrd	r6, [r3, #24]
 952 0046 D3E90445 		ldrd	r4, [r3, #16]
 953 004a 0293     		str	r3, [sp, #8]
 954 004c 354B     		ldr	r3, .L78+12
 955 004e 1868     		ldr	r0, [r3]	@ float
 956 0050 FFF7FEFF 		bl	__aeabi_f2d
 957              	.LVL133:
 958 0054 CDE90001 		strd	r0, [sp]
 959 0058 3246     		mov	r2, r6
 960 005a 3B46     		mov	r3, r7
 961 005c 2046     		mov	r0, r4
 962 005e 2946     		mov	r1, r5
 963 0060 FFF7FEFF 		bl	fillcolor
 964              	.LVL134:
 965              	.L69:
  82:LEDcontrol.c  ****         if (index2 < 0)count = 1;
 966              		.loc 1 82 0 is_stmt 1
 967 0064 2F4C     		ldr	r4, .L78+12
 968 0066 2068     		ldr	r0, [r4]	@ float
 969 0068 FFF7FEFF 		bl	__aeabi_f2d
 970              	.LVL135:
 971 006c 2AA3     		adr	r3, .L78
 972 006e D3E90023 		ldrd	r2, [r3]
 973 0072 FFF7FEFF 		bl	__aeabi_dsub
 974              	.LVL136:
 975 0076 FFF7FEFF 		bl	__aeabi_d2f
 976              	.LVL137:
 977 007a 2060     		str	r0, [r4]	@ float
  83:LEDcontrol.c  ****     }else if(count == 1){ //Øger lysstyrke på LED-strip
 978              		.loc 1 83 0
 979 007c 0021     		movs	r1, #0
 980 007e FFF7FEFF 		bl	__aeabi_fcmplt
 981              	.LVL138:
 982 0082 0028     		cmp	r0, #0
 983 0084 45D0     		beq	.L66
  83:LEDcontrol.c  ****     }else if(count == 1){ //Øger lysstyrke på LED-strip
 984              		.loc 1 83 0 is_stmt 0 discriminator 1
 985 0086 0122     		movs	r2, #1
 986 0088 254B     		ldr	r3, .L78+8
 987 008a 9A60     		str	r2, [r3, #8]
 988 008c 41E0     		b	.L66
 989              	.L67:
ARM GAS  C:\Users\cring\AppData\Local\Temp\ccsXHiuh.s 			page 26


  84:LEDcontrol.c  ****         if (rgbLED1->pulse == 1)fillcolor(rgbLED1->h,rgbLED1->s,index2, rgbLED1);
 990              		.loc 1 84 0 is_stmt 1
 991 008e 012B     		cmp	r3, #1
 992 0090 3FD1     		bne	.L66
  85:LEDcontrol.c  ****         if (rgbLED2->pulse == 1)fillcolor(rgbLED2->h,rgbLED2->s,index2, rgbLED2);
 993              		.loc 1 85 0
 994 0092 234B     		ldr	r3, .L78+8
 995 0094 1B68     		ldr	r3, [r3]
 996 0096 DA6C     		ldr	r2, [r3, #76]
 997 0098 012A     		cmp	r2, #1
 998 009a 10D1     		bne	.L72
  85:LEDcontrol.c  ****         if (rgbLED2->pulse == 1)fillcolor(rgbLED2->h,rgbLED2->s,index2, rgbLED2);
 999              		.loc 1 85 0 is_stmt 0 discriminator 1
 1000 009c D3E90667 		ldrd	r6, [r3, #24]
 1001 00a0 D3E90445 		ldrd	r4, [r3, #16]
 1002 00a4 0293     		str	r3, [sp, #8]
 1003 00a6 1F4B     		ldr	r3, .L78+12
 1004 00a8 1868     		ldr	r0, [r3]	@ float
 1005 00aa FFF7FEFF 		bl	__aeabi_f2d
 1006              	.LVL139:
 1007 00ae CDE90001 		strd	r0, [sp]
 1008 00b2 3246     		mov	r2, r6
 1009 00b4 3B46     		mov	r3, r7
 1010 00b6 2046     		mov	r0, r4
 1011 00b8 2946     		mov	r1, r5
 1012 00ba FFF7FEFF 		bl	fillcolor
 1013              	.LVL140:
 1014              	.L72:
  86:LEDcontrol.c  ****         index2 = index2+0.01;
 1015              		.loc 1 86 0 is_stmt 1
 1016 00be 184B     		ldr	r3, .L78+8
 1017 00c0 5B68     		ldr	r3, [r3, #4]
 1018 00c2 DA6C     		ldr	r2, [r3, #76]
 1019 00c4 012A     		cmp	r2, #1
 1020 00c6 10D1     		bne	.L73
  86:LEDcontrol.c  ****         index2 = index2+0.01;
 1021              		.loc 1 86 0 is_stmt 0 discriminator 1
 1022 00c8 D3E90667 		ldrd	r6, [r3, #24]
 1023 00cc D3E90445 		ldrd	r4, [r3, #16]
 1024 00d0 0293     		str	r3, [sp, #8]
 1025 00d2 144B     		ldr	r3, .L78+12
 1026 00d4 1868     		ldr	r0, [r3]	@ float
 1027 00d6 FFF7FEFF 		bl	__aeabi_f2d
 1028              	.LVL141:
 1029 00da CDE90001 		strd	r0, [sp]
 1030 00de 3246     		mov	r2, r6
 1031 00e0 3B46     		mov	r3, r7
 1032 00e2 2046     		mov	r0, r4
 1033 00e4 2946     		mov	r1, r5
 1034 00e6 FFF7FEFF 		bl	fillcolor
 1035              	.LVL142:
 1036              	.L73:
  87:LEDcontrol.c  ****         if (index2 == MAXLEDINTENSE)count = 0;
 1037              		.loc 1 87 0 is_stmt 1
 1038 00ea 0E4C     		ldr	r4, .L78+12
 1039 00ec 2068     		ldr	r0, [r4]	@ float
 1040 00ee FFF7FEFF 		bl	__aeabi_f2d
ARM GAS  C:\Users\cring\AppData\Local\Temp\ccsXHiuh.s 			page 27


 1041              	.LVL143:
 1042 00f2 09A3     		adr	r3, .L78
 1043 00f4 D3E90023 		ldrd	r2, [r3]
 1044 00f8 FFF7FEFF 		bl	__aeabi_dadd
 1045              	.LVL144:
 1046 00fc FFF7FEFF 		bl	__aeabi_d2f
 1047              	.LVL145:
 1048 0100 2060     		str	r0, [r4]	@ float
  88:LEDcontrol.c  ****     }
 1049              		.loc 1 88 0
 1050 0102 4FF07C51 		mov	r1, #1056964608
 1051 0106 FFF7FEFF 		bl	__aeabi_fcmpeq
 1052              	.LVL146:
 1053 010a 10B1     		cbz	r0, .L66
  88:LEDcontrol.c  ****     }
 1054              		.loc 1 88 0 is_stmt 0 discriminator 1
 1055 010c 0022     		movs	r2, #0
 1056 010e 044B     		ldr	r3, .L78+8
 1057 0110 9A60     		str	r2, [r3, #8]
 1058              	.L66:
  91:LEDcontrol.c  **** 
 1059              		.loc 1 91 0 is_stmt 1
 1060 0112 05B0     		add	sp, sp, #20
 1061              		.cfi_def_cfa_offset 20
 1062              		@ sp needed
 1063 0114 F0BD     		pop	{r4, r5, r6, r7, pc}
 1064              	.L79:
 1065 0116 00BF     		.align	3
 1066              	.L78:
 1067 0118 7B14AE47 		.word	1202590843
 1068 011c E17A843F 		.word	1065646817
 1069 0120 00000000 		.word	.LANCHOR0
 1070 0124 00000000 		.word	.LANCHOR1
 1071              		.cfi_endproc
 1072              	.LFE66:
 1073              		.size	isr_LED_pulse, .-isr_LED_pulse
 1074              		.section	.text.isr_BlinkLED,"ax",%progbits
 1075              		.align	2
 1076              		.global	isr_BlinkLED
 1077              		.thumb
 1078              		.thumb_func
 1079              		.type	isr_BlinkLED, %function
 1080              	isr_BlinkLED:
 1081              	.LFB67:
  94:LEDcontrol.c  ****     switch (count3)
 1082              		.loc 1 94 0
 1083              		.cfi_startproc
 1084              		@ args = 0, pretend = 0, frame = 0
 1085              		@ frame_needed = 0, uses_anonymous_args = 0
 1086 0000 30B5     		push	{r4, r5, lr}
 1087              		.cfi_def_cfa_offset 12
 1088              		.cfi_offset 4, -12
 1089              		.cfi_offset 5, -8
 1090              		.cfi_offset 14, -4
 1091 0002 85B0     		sub	sp, sp, #20
 1092              		.cfi_def_cfa_offset 32
  95:LEDcontrol.c  ****     {
ARM GAS  C:\Users\cring\AppData\Local\Temp\ccsXHiuh.s 			page 28


 1093              		.loc 1 95 0
 1094 0004 2B4B     		ldr	r3, .L89
 1095 0006 DB68     		ldr	r3, [r3, #12]
 1096 0008 13B1     		cbz	r3, .L82
 1097 000a 012B     		cmp	r3, #1
 1098 000c 29D0     		beq	.L83
 1099 000e 4FE0     		b	.L80
 1100              	.L82:
  99:LEDcontrol.c  ****             if(rgbLED2->blink == 1) fillcolor(rgbLED2->h, rgbLED2->s,1, rgbLED2);
 1101              		.loc 1 99 0
 1102 0010 284B     		ldr	r3, .L89
 1103 0012 1B68     		ldr	r3, [r3]
 1104 0014 1A6D     		ldr	r2, [r3, #80]
 1105 0016 012A     		cmp	r2, #1
 1106 0018 0CD1     		bne	.L84
  99:LEDcontrol.c  ****             if(rgbLED2->blink == 1) fillcolor(rgbLED2->h, rgbLED2->s,1, rgbLED2);
 1107              		.loc 1 99 0 is_stmt 0 discriminator 1
 1108 001a D3E90645 		ldrd	r4, [r3, #24]
 1109 001e D3E90401 		ldrd	r0, [r3, #16]
 1110 0022 0293     		str	r3, [sp, #8]
 1111 0024 0022     		movs	r2, #0
 1112 0026 244B     		ldr	r3, .L89+4
 1113 0028 CDE90023 		strd	r2, [sp]
 1114 002c 2246     		mov	r2, r4
 1115 002e 2B46     		mov	r3, r5
 1116 0030 FFF7FEFF 		bl	fillcolor
 1117              	.LVL147:
 1118              	.L84:
 100:LEDcontrol.c  ****             count3++;
 1119              		.loc 1 100 0 is_stmt 1
 1120 0034 1F4B     		ldr	r3, .L89
 1121 0036 5B68     		ldr	r3, [r3, #4]
 1122 0038 1A6D     		ldr	r2, [r3, #80]
 1123 003a 012A     		cmp	r2, #1
 1124 003c 0CD1     		bne	.L85
 100:LEDcontrol.c  ****             count3++;
 1125              		.loc 1 100 0 is_stmt 0 discriminator 1
 1126 003e D3E90645 		ldrd	r4, [r3, #24]
 1127 0042 D3E90401 		ldrd	r0, [r3, #16]
 1128 0046 0293     		str	r3, [sp, #8]
 1129 0048 0022     		movs	r2, #0
 1130 004a 1B4B     		ldr	r3, .L89+4
 1131 004c CDE90023 		strd	r2, [sp]
 1132 0050 2246     		mov	r2, r4
 1133 0052 2B46     		mov	r3, r5
 1134 0054 FFF7FEFF 		bl	fillcolor
 1135              	.LVL148:
 1136              	.L85:
 101:LEDcontrol.c  ****         }
 1137              		.loc 1 101 0 is_stmt 1
 1138 0058 164A     		ldr	r2, .L89
 1139 005a D368     		ldr	r3, [r2, #12]
 1140 005c 0133     		adds	r3, r3, #1
 1141 005e D360     		str	r3, [r2, #12]
 103:LEDcontrol.c  ****         case 1: //Slukker LED-strip
 1142              		.loc 1 103 0
 1143 0060 26E0     		b	.L80
ARM GAS  C:\Users\cring\AppData\Local\Temp\ccsXHiuh.s 			page 29


 1144              	.L83:
 106:LEDcontrol.c  ****             if(rgbLED2->blink == 1)fillcolor(rgbLED2->h, rgbLED2->s,0, rgbLED2);
 1145              		.loc 1 106 0
 1146 0062 144B     		ldr	r3, .L89
 1147 0064 1B68     		ldr	r3, [r3]
 1148 0066 1A6D     		ldr	r2, [r3, #80]
 1149 0068 012A     		cmp	r2, #1
 1150 006a 0CD1     		bne	.L86
 106:LEDcontrol.c  ****             if(rgbLED2->blink == 1)fillcolor(rgbLED2->h, rgbLED2->s,0, rgbLED2);
 1151              		.loc 1 106 0 is_stmt 0 discriminator 1
 1152 006c D3E90645 		ldrd	r4, [r3, #24]
 1153 0070 D3E90401 		ldrd	r0, [r3, #16]
 1154 0074 0293     		str	r3, [sp, #8]
 1155 0076 0022     		movs	r2, #0
 1156 0078 0023     		movs	r3, #0
 1157 007a CDE90023 		strd	r2, [sp]
 1158 007e 2246     		mov	r2, r4
 1159 0080 2B46     		mov	r3, r5
 1160 0082 FFF7FEFF 		bl	fillcolor
 1161              	.LVL149:
 1162              	.L86:
 107:LEDcontrol.c  ****             count3 = 0;
 1163              		.loc 1 107 0 is_stmt 1
 1164 0086 0B4B     		ldr	r3, .L89
 1165 0088 5B68     		ldr	r3, [r3, #4]
 1166 008a 1A6D     		ldr	r2, [r3, #80]
 1167 008c 012A     		cmp	r2, #1
 1168 008e 0CD1     		bne	.L87
 107:LEDcontrol.c  ****             count3 = 0;
 1169              		.loc 1 107 0 is_stmt 0 discriminator 1
 1170 0090 D3E90645 		ldrd	r4, [r3, #24]
 1171 0094 D3E90401 		ldrd	r0, [r3, #16]
 1172 0098 0293     		str	r3, [sp, #8]
 1173 009a 0022     		movs	r2, #0
 1174 009c 0023     		movs	r3, #0
 1175 009e CDE90023 		strd	r2, [sp]
 1176 00a2 2246     		mov	r2, r4
 1177 00a4 2B46     		mov	r3, r5
 1178 00a6 FFF7FEFF 		bl	fillcolor
 1179              	.LVL150:
 1180              	.L87:
 108:LEDcontrol.c  ****         }
 1181              		.loc 1 108 0 is_stmt 1
 1182 00aa 0022     		movs	r2, #0
 1183 00ac 014B     		ldr	r3, .L89
 1184 00ae DA60     		str	r2, [r3, #12]
 1185              	.L80:
 113:LEDcontrol.c  **** 
 1186              		.loc 1 113 0
 1187 00b0 05B0     		add	sp, sp, #20
 1188              		.cfi_def_cfa_offset 12
 1189              		@ sp needed
 1190 00b2 30BD     		pop	{r4, r5, pc}
 1191              	.L90:
 1192              		.align	2
 1193              	.L89:
 1194 00b4 00000000 		.word	.LANCHOR0
ARM GAS  C:\Users\cring\AppData\Local\Temp\ccsXHiuh.s 			page 30


 1195 00b8 0000F03F 		.word	1072693248
 1196              		.cfi_endproc
 1197              	.LFE67:
 1198              		.size	isr_BlinkLED, .-isr_BlinkLED
 1199              		.section	.text.isr_LED_ring,"ax",%progbits
 1200              		.align	2
 1201              		.global	isr_LED_ring
 1202              		.thumb
 1203              		.thumb_func
 1204              		.type	isr_LED_ring, %function
 1205              	isr_LED_ring:
 1206              	.LFB65:
  48:LEDcontrol.c  ****     if((rgbLED1->ring == 0) && (rgbLED2->ring == 0)) return;    //Gør intet hvis ring sekvens ikke
 1207              		.loc 1 48 0
 1208              		.cfi_startproc
 1209              		@ args = 0, pretend = 0, frame = 0
 1210              		@ frame_needed = 0, uses_anonymous_args = 0
 1211 0000 2DE9F043 		push	{r4, r5, r6, r7, r8, r9, lr}
 1212              		.cfi_def_cfa_offset 28
 1213              		.cfi_offset 4, -28
 1214              		.cfi_offset 5, -24
 1215              		.cfi_offset 6, -20
 1216              		.cfi_offset 7, -16
 1217              		.cfi_offset 8, -12
 1218              		.cfi_offset 9, -8
 1219              		.cfi_offset 14, -4
 1220 0004 85B0     		sub	sp, sp, #20
 1221              		.cfi_def_cfa_offset 48
  49:LEDcontrol.c  ****     if(rgbLED1->ring == 1) fillcolor(0,0,0,rgbLED1);            //Slukker alle LED'er på LED-strip
 1222              		.loc 1 49 0
 1223 0006 404B     		ldr	r3, .L110
 1224 0008 1A68     		ldr	r2, [r3]
 1225 000a 936C     		ldr	r3, [r2, #72]
 1226 000c 23B9     		cbnz	r3, .L92
  49:LEDcontrol.c  ****     if(rgbLED1->ring == 1) fillcolor(0,0,0,rgbLED1);            //Slukker alle LED'er på LED-strip
 1227              		.loc 1 49 0 is_stmt 0 discriminator 1
 1228 000e 3E49     		ldr	r1, .L110
 1229 0010 4968     		ldr	r1, [r1, #4]
 1230 0012 896C     		ldr	r1, [r1, #72]
 1231 0014 0029     		cmp	r1, #0
 1232 0016 73D0     		beq	.L91
 1233              	.L92:
  50:LEDcontrol.c  ****     if(rgbLED2->ring == 1) fillcolor(0,0,0,rgbLED2);
 1234              		.loc 1 50 0 is_stmt 1
 1235 0018 012B     		cmp	r3, #1
 1236 001a 08D1     		bne	.L94
  50:LEDcontrol.c  ****     if(rgbLED2->ring == 1) fillcolor(0,0,0,rgbLED2);
 1237              		.loc 1 50 0 is_stmt 0 discriminator 1
 1238 001c 0020     		movs	r0, #0
 1239 001e 0021     		movs	r1, #0
 1240 0020 0292     		str	r2, [sp, #8]
 1241 0022 CDE90001 		strd	r0, [sp]
 1242 0026 0246     		mov	r2, r0
 1243 0028 0B46     		mov	r3, r1
 1244 002a FFF7FEFF 		bl	fillcolor
 1245              	.LVL151:
 1246              	.L94:
ARM GAS  C:\Users\cring\AppData\Local\Temp\ccsXHiuh.s 			page 31


  51:LEDcontrol.c  ****     
 1247              		.loc 1 51 0 is_stmt 1
 1248 002e 364B     		ldr	r3, .L110
 1249 0030 5B68     		ldr	r3, [r3, #4]
 1250 0032 9A6C     		ldr	r2, [r3, #72]
 1251 0034 012A     		cmp	r2, #1
 1252 0036 08D1     		bne	.L95
  51:LEDcontrol.c  ****     
 1253              		.loc 1 51 0 is_stmt 0 discriminator 1
 1254 0038 0020     		movs	r0, #0
 1255 003a 0021     		movs	r1, #0
 1256 003c 0293     		str	r3, [sp, #8]
 1257 003e CDE90001 		strd	r0, [sp]
 1258 0042 0246     		mov	r2, r0
 1259 0044 0B46     		mov	r3, r1
 1260 0046 FFF7FEFF 		bl	fillcolor
 1261              	.LVL152:
 1262              	.L95:
 1263              	.LBB7:
  53:LEDcontrol.c  ****         {
 1264              		.loc 1 53 0 is_stmt 1
 1265 004a 2F4B     		ldr	r3, .L110
 1266 004c 1C69     		ldr	r4, [r3, #16]
 1267              	.LVL153:
 1268 004e 38E0     		b	.L96
 1269              	.L101:
  55:LEDcontrol.c  ****             {
 1270              		.loc 1 55 0
 1271 0050 2D4B     		ldr	r3, .L110
 1272 0052 1B68     		ldr	r3, [r3]
 1273 0054 9A6C     		ldr	r2, [r3, #72]
 1274 0056 012A     		cmp	r2, #1
 1275 0058 16D1     		bne	.L97
 1276              	.LBB8:
  57:LEDcontrol.c  ****                 setcolorLED((rgbLED1 + x)->h, (rgbLED1 + x)->s, (rgbLED1 + x)->v, x, rgbLED1);
 1277              		.loc 1 57 0
 1278 005a 1D6C     		ldr	r5, [r3, #64]
 1279 005c AC42     		cmp	r4, r5
 1280 005e 01DB     		blt	.L105
  57:LEDcontrol.c  ****                 setcolorLED((rgbLED1 + x)->h, (rgbLED1 + x)->s, (rgbLED1 + x)->v, x, rgbLED1);
 1281              		.loc 1 57 0 is_stmt 0 discriminator 1
 1282 0060 651B     		subs	r5, r4, r5
 1283 0062 00E0     		b	.L98
 1284              	.L105:
  57:LEDcontrol.c  ****                 setcolorLED((rgbLED1 + x)->h, (rgbLED1 + x)->s, (rgbLED1 + x)->v, x, rgbLED1);
 1285              		.loc 1 57 0
 1286 0064 2546     		mov	r5, r4
 1287              	.L98:
 1288              	.LVL154:
  58:LEDcontrol.c  ****             }
 1289              		.loc 1 58 0 is_stmt 1 discriminator 4
 1290 0066 5822     		movs	r2, #88
 1291 0068 02FB0532 		mla	r2, r2, r5, r3
 1292 006c D2E90689 		ldrd	r8, [r2, #24]
 1293 0070 D2E90401 		ldrd	r0, [r2, #16]
 1294 0074 0393     		str	r3, [sp, #12]
 1295 0076 0295     		str	r5, [sp, #8]
ARM GAS  C:\Users\cring\AppData\Local\Temp\ccsXHiuh.s 			page 32


 1296 0078 D2E90867 		ldrd	r6, [r2, #32]
 1297 007c CDE90067 		strd	r6, [sp]
 1298 0080 4246     		mov	r2, r8
 1299 0082 4B46     		mov	r3, r9
 1300 0084 FFF7FEFF 		bl	setcolorLED
 1301              	.LVL155:
 1302              	.L97:
 1303              	.LBE8:
  60:LEDcontrol.c  ****             {
 1304              		.loc 1 60 0
 1305 0088 1F4B     		ldr	r3, .L110
 1306 008a 5B68     		ldr	r3, [r3, #4]
 1307 008c 9A6C     		ldr	r2, [r3, #72]
 1308 008e 012A     		cmp	r2, #1
 1309 0090 16D1     		bne	.L99
 1310              	.LBB9:
  62:LEDcontrol.c  ****                 setcolorLED((rgbLED2 + x)->h, (rgbLED2 + x)->s, (rgbLED2 + x)->v, x, rgbLED2);  
 1311              		.loc 1 62 0
 1312 0092 1D6C     		ldr	r5, [r3, #64]
 1313 0094 AC42     		cmp	r4, r5
 1314 0096 01DB     		blt	.L106
  62:LEDcontrol.c  ****                 setcolorLED((rgbLED2 + x)->h, (rgbLED2 + x)->s, (rgbLED2 + x)->v, x, rgbLED2);  
 1315              		.loc 1 62 0 is_stmt 0 discriminator 1
 1316 0098 651B     		subs	r5, r4, r5
 1317 009a 00E0     		b	.L100
 1318              	.L106:
  62:LEDcontrol.c  ****                 setcolorLED((rgbLED2 + x)->h, (rgbLED2 + x)->s, (rgbLED2 + x)->v, x, rgbLED2);  
 1319              		.loc 1 62 0
 1320 009c 2546     		mov	r5, r4
 1321              	.L100:
 1322              	.LVL156:
  63:LEDcontrol.c  ****             }
 1323              		.loc 1 63 0 is_stmt 1 discriminator 4
 1324 009e 5822     		movs	r2, #88
 1325 00a0 02FB0532 		mla	r2, r2, r5, r3
 1326 00a4 D2E90689 		ldrd	r8, [r2, #24]
 1327 00a8 D2E90401 		ldrd	r0, [r2, #16]
 1328 00ac 0393     		str	r3, [sp, #12]
 1329 00ae 0295     		str	r5, [sp, #8]
 1330 00b0 D2E90867 		ldrd	r6, [r2, #32]
 1331 00b4 CDE90067 		strd	r6, [sp]
 1332 00b8 4246     		mov	r2, r8
 1333 00ba 4B46     		mov	r3, r9
 1334 00bc FFF7FEFF 		bl	setcolorLED
 1335              	.LVL157:
 1336              	.L99:
 1337              	.LBE9:
  53:LEDcontrol.c  ****         {
 1338              		.loc 1 53 0 discriminator 2
 1339 00c0 0134     		adds	r4, r4, #1
 1340              	.LVL158:
 1341              	.L96:
  53:LEDcontrol.c  ****         {
 1342              		.loc 1 53 0 is_stmt 0 discriminator 1
 1343 00c2 114B     		ldr	r3, .L110
 1344 00c4 1A69     		ldr	r2, [r3, #16]
 1345 00c6 5B69     		ldr	r3, [r3, #20]
ARM GAS  C:\Users\cring\AppData\Local\Temp\ccsXHiuh.s 			page 33


 1346 00c8 1344     		add	r3, r3, r2
 1347 00ca 9C42     		cmp	r4, r3
 1348 00cc C0DB     		blt	.L101
 1349              	.LBE7:
  66:LEDcontrol.c  ****     {
 1350              		.loc 1 66 0 is_stmt 1
 1351 00ce 0E4B     		ldr	r3, .L110
 1352 00d0 1B68     		ldr	r3, [r3]
 1353 00d2 4BB1     		cbz	r3, .L102
  68:LEDcontrol.c  ****         return;
 1354              		.loc 1 68 0
 1355 00d4 1B6C     		ldr	r3, [r3, #64]
 1356 00d6 013B     		subs	r3, r3, #1
 1357 00d8 9A42     		cmp	r2, r3
 1358 00da 01DA     		bge	.L107
  68:LEDcontrol.c  ****         return;
 1359              		.loc 1 68 0 is_stmt 0 discriminator 1
 1360 00dc 0132     		adds	r2, r2, #1
 1361 00de 00E0     		b	.L103
 1362              	.L107:
  68:LEDcontrol.c  ****         return;
 1363              		.loc 1 68 0
 1364 00e0 0022     		movs	r2, #0
 1365              	.L103:
  68:LEDcontrol.c  ****         return;
 1366              		.loc 1 68 0 discriminator 4
 1367 00e2 094B     		ldr	r3, .L110
 1368 00e4 1A61     		str	r2, [r3, #16]
  69:LEDcontrol.c  ****     }else if (rgbLED2 != NULL){
 1369              		.loc 1 69 0 is_stmt 1 discriminator 4
 1370 00e6 0BE0     		b	.L91
 1371              	.L102:
  70:LEDcontrol.c  ****         index_ = index_ < (rgbLED2->LEDlength-1) ? index_ + 1 : 0;
 1372              		.loc 1 70 0
 1373 00e8 074B     		ldr	r3, .L110
 1374 00ea 5B68     		ldr	r3, [r3, #4]
 1375 00ec 43B1     		cbz	r3, .L91
  71:LEDcontrol.c  ****     }
 1376              		.loc 1 71 0
 1377 00ee 1B6C     		ldr	r3, [r3, #64]
 1378 00f0 013B     		subs	r3, r3, #1
 1379 00f2 9A42     		cmp	r2, r3
 1380 00f4 01DA     		bge	.L108
  71:LEDcontrol.c  ****     }
 1381              		.loc 1 71 0 is_stmt 0 discriminator 1
 1382 00f6 0132     		adds	r2, r2, #1
 1383 00f8 00E0     		b	.L104
 1384              	.L108:
  71:LEDcontrol.c  ****     }
 1385              		.loc 1 71 0
 1386 00fa 0022     		movs	r2, #0
 1387              	.L104:
  71:LEDcontrol.c  ****     }
 1388              		.loc 1 71 0 discriminator 4
 1389 00fc 024B     		ldr	r3, .L110
 1390 00fe 1A61     		str	r2, [r3, #16]
 1391              	.LVL159:
ARM GAS  C:\Users\cring\AppData\Local\Temp\ccsXHiuh.s 			page 34


 1392              	.L91:
  73:LEDcontrol.c  **** 
 1393              		.loc 1 73 0 is_stmt 1
 1394 0100 05B0     		add	sp, sp, #20
 1395              		.cfi_def_cfa_offset 28
 1396              		@ sp needed
 1397 0102 BDE8F083 		pop	{r4, r5, r6, r7, r8, r9, pc}
 1398              	.L111:
 1399 0106 00BF     		.align	2
 1400              	.L110:
 1401 0108 00000000 		.word	.LANCHOR0
 1402              		.cfi_endproc
 1403              	.LFE65:
 1404              		.size	isr_LED_ring, .-isr_LED_ring
 1405              		.section	.text.LEDOff,"ax",%progbits
 1406              		.align	2
 1407              		.global	LEDOff
 1408              		.thumb
 1409              		.thumb_func
 1410              		.type	LEDOff, %function
 1411              	LEDOff:
 1412              	.LFB80:
 397:LEDcontrol.c  **** 
 398:LEDcontrol.c  **** void LEDOff(LEDctrl *rgbLED)
 399:LEDcontrol.c  **** {
 1413              		.loc 1 399 0
 1414              		.cfi_startproc
 1415              		@ args = 0, pretend = 0, frame = 0
 1416              		@ frame_needed = 0, uses_anonymous_args = 0
 1417              	.LVL160:
 1418 0000 10B5     		push	{r4, lr}
 1419              		.cfi_def_cfa_offset 8
 1420              		.cfi_offset 4, -8
 1421              		.cfi_offset 14, -4
 1422 0002 0446     		mov	r4, r0
 400:LEDcontrol.c  ****     //Slukker Timer5 og andre sekvenser
 401:LEDcontrol.c  ****     Timer5_Stop();
 1423              		.loc 1 401 0
 1424 0004 FFF7FEFF 		bl	Timer5_Stop
 1425              	.LVL161:
 402:LEDcontrol.c  ****     rgbLED->ring = 0;
 1426              		.loc 1 402 0
 1427 0008 0023     		movs	r3, #0
 1428 000a A364     		str	r3, [r4, #72]
 403:LEDcontrol.c  ****     rgbLED->pulse = 0;
 1429              		.loc 1 403 0
 1430 000c E364     		str	r3, [r4, #76]
 404:LEDcontrol.c  ****     rgbLED->blink = 0;
 1431              		.loc 1 404 0
 1432 000e 2365     		str	r3, [r4, #80]
 1433 0010 10BD     		pop	{r4, pc}
 1434              		.cfi_endproc
 1435              	.LFE80:
 1436              		.size	LEDOff, .-LEDOff
 1437 0012 00BF     		.section	.text.addLEDstrip,"ax",%progbits
 1438              		.align	2
 1439              		.global	addLEDstrip
ARM GAS  C:\Users\cring\AppData\Local\Temp\ccsXHiuh.s 			page 35


 1440              		.thumb
 1441              		.thumb_func
 1442              		.type	addLEDstrip, %function
 1443              	addLEDstrip:
 1444              	.LFB70:
 128:LEDcontrol.c  ****     if (strip == 1) //Sammen kobler den givende objekt med enten rgbLED1 eller 2
 1445              		.loc 1 128 0
 1446              		.cfi_startproc
 1447              		@ args = 0, pretend = 0, frame = 0
 1448              		@ frame_needed = 0, uses_anonymous_args = 0
 1449              	.LVL162:
 1450 0000 30B5     		push	{r4, r5, lr}
 1451              		.cfi_def_cfa_offset 12
 1452              		.cfi_offset 4, -12
 1453              		.cfi_offset 5, -8
 1454              		.cfi_offset 14, -4
 1455 0002 85B0     		sub	sp, sp, #20
 1456              		.cfi_def_cfa_offset 32
 1457 0004 0D46     		mov	r5, r1
 129:LEDcontrol.c  ****     {
 1458              		.loc 1 129 0
 1459 0006 012A     		cmp	r2, #1
 1460 0008 02D1     		bne	.L115
 131:LEDcontrol.c  ****     }else{
 1461              		.loc 1 131 0
 1462 000a 0E4B     		ldr	r3, .L120
 1463 000c 1960     		str	r1, [r3]
 1464 000e 01E0     		b	.L116
 1465              	.L115:
 133:LEDcontrol.c  ****     }
 1466              		.loc 1 133 0
 1467 0010 0C4B     		ldr	r3, .L120
 1468 0012 5960     		str	r1, [r3, #4]
 1469              	.L116:
 136:LEDcontrol.c  ****     rgbLED_->pin = strip; //Sammen kobler varibel strip
 1470              		.loc 1 136 0
 1471 0014 2864     		str	r0, [r5, #64]
 137:LEDcontrol.c  ****     LEDOff(rgbLED_); //Slukker for alle sekvenser for objektet
 1472              		.loc 1 137 0
 1473 0016 6A64     		str	r2, [r5, #68]
 138:LEDcontrol.c  ****     
 1474              		.loc 1 138 0
 1475 0018 2846     		mov	r0, r5
 1476              	.LVL163:
 1477 001a FFF7FEFF 		bl	LEDOff
 1478              	.LVL164:
 1479              	.LBB10:
 140:LEDcontrol.c  ****     {
 1480              		.loc 1 140 0
 1481 001e 0024     		movs	r4, #0
 1482 0020 0AE0     		b	.L117
 1483              	.LVL165:
 1484              	.L118:
 142:LEDcontrol.c  ****     }
 1485              		.loc 1 142 0 discriminator 3
 1486 0022 0020     		movs	r0, #0
 1487 0024 0021     		movs	r1, #0
ARM GAS  C:\Users\cring\AppData\Local\Temp\ccsXHiuh.s 			page 36


 1488 0026 0395     		str	r5, [sp, #12]
 1489 0028 0294     		str	r4, [sp, #8]
 1490 002a CDE90001 		strd	r0, [sp]
 1491 002e 0246     		mov	r2, r0
 1492 0030 0B46     		mov	r3, r1
 1493 0032 FFF7FEFF 		bl	setcolorLED
 1494              	.LVL166:
 140:LEDcontrol.c  ****     {
 1495              		.loc 1 140 0 discriminator 3
 1496 0036 0134     		adds	r4, r4, #1
 1497              	.LVL167:
 1498              	.L117:
 140:LEDcontrol.c  ****     {
 1499              		.loc 1 140 0 is_stmt 0 discriminator 1
 1500 0038 2B6C     		ldr	r3, [r5, #64]
 1501 003a 9C42     		cmp	r4, r3
 1502 003c F1DB     		blt	.L118
 1503              	.LBE10:
 144:LEDcontrol.c  **** 
 1504              		.loc 1 144 0 is_stmt 1
 1505 003e 05B0     		add	sp, sp, #20
 1506              		.cfi_def_cfa_offset 12
 1507              		@ sp needed
 1508 0040 30BD     		pop	{r4, r5, pc}
 1509              	.LVL168:
 1510              	.L121:
 1511 0042 00BF     		.align	2
 1512              	.L120:
 1513 0044 00000000 		.word	.LANCHOR0
 1514              		.cfi_endproc
 1515              	.LFE70:
 1516              		.size	addLEDstrip, .-addLEDstrip
 1517              		.section	.text.initLED,"ax",%progbits
 1518              		.align	2
 1519              		.global	initLED
 1520              		.thumb
 1521              		.thumb_func
 1522              		.type	initLED, %function
 1523              	initLED:
 1524              	.LFB71:
 147:LEDcontrol.c  ****     //Sætter alle interrupts op
 1525              		.loc 1 147 0
 1526              		.cfi_startproc
 1527              		@ args = 0, pretend = 0, frame = 0
 1528              		@ frame_needed = 0, uses_anonymous_args = 0
 1529              	.LVL169:
 1530 0000 38B5     		push	{r3, r4, r5, lr}
 1531              		.cfi_def_cfa_offset 16
 1532              		.cfi_offset 3, -16
 1533              		.cfi_offset 4, -12
 1534              		.cfi_offset 5, -8
 1535              		.cfi_offset 14, -4
 1536 0002 0546     		mov	r5, r0
 149:LEDcontrol.c  ****     isr_LED_ring_StartEx(isr_LED_ring);
 1537              		.loc 1 149 0
 1538 0004 1648     		ldr	r0, .L124
 1539              	.LVL170:
ARM GAS  C:\Users\cring\AppData\Local\Temp\ccsXHiuh.s 			page 37


 1540 0006 FFF7FEFF 		bl	isr_LED_refreshrate_StartEx
 1541              	.LVL171:
 150:LEDcontrol.c  ****     isr_LED_pulse_StartEx(isr_LED_pulse);
 1542              		.loc 1 150 0
 1543 000a 1648     		ldr	r0, .L124+4
 1544 000c FFF7FEFF 		bl	isr_LED_ring_StartEx
 1545              	.LVL172:
 151:LEDcontrol.c  ****     isr_BlinkLED_StartEx(isr_BlinkLED);
 1546              		.loc 1 151 0
 1547 0010 1548     		ldr	r0, .L124+8
 1548 0012 FFF7FEFF 		bl	isr_LED_pulse_StartEx
 1549              	.LVL173:
 152:LEDcontrol.c  ****     isr_delay_StartEx(isr_delay);
 1550              		.loc 1 152 0
 1551 0016 1548     		ldr	r0, .L124+12
 1552 0018 FFF7FEFF 		bl	isr_BlinkLED_StartEx
 1553              	.LVL174:
 153:LEDcontrol.c  ****     
 1554              		.loc 1 153 0
 1555 001c 1448     		ldr	r0, .L124+16
 1556 001e FFF7FEFF 		bl	isr_delay_StartEx
 1557              	.LVL175:
 156:LEDcontrol.c  ****     LEDOff(rgbLED2);
 1558              		.loc 1 156 0
 1559 0022 144C     		ldr	r4, .L124+20
 1560 0024 2068     		ldr	r0, [r4]
 1561 0026 FFF7FEFF 		bl	LEDOff
 1562              	.LVL176:
 157:LEDcontrol.c  ****     
 1563              		.loc 1 157 0
 1564 002a 6068     		ldr	r0, [r4, #4]
 1565 002c FFF7FEFF 		bl	LEDOff
 1566              	.LVL177:
 160:LEDcontrol.c  ****     index_ = 0;
 1567              		.loc 1 160 0
 1568 0030 0023     		movs	r3, #0
 1569 0032 6361     		str	r3, [r4, #20]
 161:LEDcontrol.c  ****     index2 = MAXLEDINTENSE;
 1570              		.loc 1 161 0
 1571 0034 2361     		str	r3, [r4, #16]
 162:LEDcontrol.c  ****     count = 0;
 1572              		.loc 1 162 0
 1573 0036 4FF07C51 		mov	r1, #1056964608
 1574 003a 0F4A     		ldr	r2, .L124+24
 1575 003c 1160     		str	r1, [r2]	@ float
 163:LEDcontrol.c  ****     count2 = 0;
 1576              		.loc 1 163 0
 1577 003e A360     		str	r3, [r4, #8]
 164:LEDcontrol.c  ****     count3 = 0;
 1578              		.loc 1 164 0
 1579 0040 A361     		str	r3, [r4, #24]
 165:LEDcontrol.c  ****     
 1580              		.loc 1 165 0
 1581 0042 E360     		str	r3, [r4, #12]
 168:LEDcontrol.c  ****     Timer1_Start();
 1582              		.loc 1 168 0
 1583 0044 FFF7FEFF 		bl	SPIM_1_Start
ARM GAS  C:\Users\cring\AppData\Local\Temp\ccsXHiuh.s 			page 38


 1584              	.LVL178:
 169:LEDcontrol.c  ****     Timer2_Start();
 1585              		.loc 1 169 0
 1586 0048 FFF7FEFF 		bl	Timer1_Start
 1587              	.LVL179:
 170:LEDcontrol.c  ****     Timer3_Start();
 1588              		.loc 1 170 0
 1589 004c FFF7FEFF 		bl	Timer2_Start
 1590              	.LVL180:
 171:LEDcontrol.c  ****     Timer4_Start();
 1591              		.loc 1 171 0
 1592 0050 FFF7FEFF 		bl	Timer3_Start
 1593              	.LVL181:
 172:LEDcontrol.c  ****     
 1594              		.loc 1 172 0
 1595 0054 FFF7FEFF 		bl	Timer4_Start
 1596              	.LVL182:
 175:LEDcontrol.c  ****     
 1597              		.loc 1 175 0
 1598 0058 2846     		mov	r0, r5
 1599 005a FFF7FEFF 		bl	setrefreshrate
 1600              	.LVL183:
 1601 005e 38BD     		pop	{r3, r4, r5, pc}
 1602              	.LVL184:
 1603              	.L125:
 1604              		.align	2
 1605              	.L124:
 1606 0060 00000000 		.word	isr_refreshrate
 1607 0064 00000000 		.word	isr_LED_ring
 1608 0068 00000000 		.word	isr_LED_pulse
 1609 006c 00000000 		.word	isr_BlinkLED
 1610 0070 00000000 		.word	isr_delay
 1611 0074 00000000 		.word	.LANCHOR0
 1612 0078 00000000 		.word	.LANCHOR1
 1613              		.cfi_endproc
 1614              	.LFE71:
 1615              		.size	initLED, .-initLED
 1616              		.section	.text.pulseLED,"ax",%progbits
 1617              		.align	2
 1618              		.global	pulseLED
 1619              		.thumb
 1620              		.thumb_func
 1621              		.type	pulseLED, %function
 1622              	pulseLED:
 1623              	.LFB74:
 199:LEDcontrol.c  ****     LEDOff(rgbLED);     //Slukker alle sekvenser for det givende objekt
 1624              		.loc 1 199 0
 1625              		.cfi_startproc
 1626              		@ args = 12, pretend = 0, frame = 0
 1627              		@ frame_needed = 0, uses_anonymous_args = 0
 1628              	.LVL185:
 1629 0000 2DE9F047 		push	{r4, r5, r6, r7, r8, r9, r10, lr}
 1630              		.cfi_def_cfa_offset 32
 1631              		.cfi_offset 4, -32
 1632              		.cfi_offset 5, -28
 1633              		.cfi_offset 6, -24
 1634              		.cfi_offset 7, -20
ARM GAS  C:\Users\cring\AppData\Local\Temp\ccsXHiuh.s 			page 39


 1635              		.cfi_offset 8, -16
 1636              		.cfi_offset 9, -12
 1637              		.cfi_offset 10, -8
 1638              		.cfi_offset 14, -4
 1639 0004 84B0     		sub	sp, sp, #16
 1640              		.cfi_def_cfa_offset 48
 1641 0006 0446     		mov	r4, r0
 1642 0008 0D46     		mov	r5, r1
 1643 000a 1646     		mov	r6, r2
 1644 000c 1F46     		mov	r7, r3
 1645 000e DDE90C89 		ldrd	r8, [sp, #48]
 1646 0012 DDF838A0 		ldr	r10, [sp, #56]
 200:LEDcontrol.c  ****     rgbLED->pulse = 1;  //Tænder for pulse sekvens for det givende objekt
 1647              		.loc 1 200 0
 1648 0016 5046     		mov	r0, r10
 1649              	.LVL186:
 1650 0018 FFF7FEFF 		bl	LEDOff
 1651              	.LVL187:
 201:LEDcontrol.c  ****     
 1652              		.loc 1 201 0
 1653 001c 0123     		movs	r3, #1
 1654 001e CAF84C30 		str	r3, [r10, #76]
 204:LEDcontrol.c  ****     rgbLED->s = s1;
 1655              		.loc 1 204 0
 1656 0022 CAE90445 		strd	r4, [r10, #16]
 205:LEDcontrol.c  ****     rgbLED->v = v1;
 1657              		.loc 1 205 0
 1658 0026 CAE90667 		strd	r6, [r10, #24]
 206:LEDcontrol.c  ****     
 1659              		.loc 1 206 0
 1660 002a CAE90889 		strd	r8, [r10, #32]
 209:LEDcontrol.c  **** }
 1661              		.loc 1 209 0
 1662 002e CDF808A0 		str	r10, [sp, #8]
 1663 0032 CDE90089 		strd	r8, [sp]
 1664 0036 3246     		mov	r2, r6
 1665 0038 3B46     		mov	r3, r7
 1666 003a 2046     		mov	r0, r4
 1667 003c 2946     		mov	r1, r5
 1668 003e FFF7FEFF 		bl	fillcolor
 1669              	.LVL188:
 210:LEDcontrol.c  **** 
 1670              		.loc 1 210 0
 1671 0042 04B0     		add	sp, sp, #16
 1672              		.cfi_def_cfa_offset 32
 1673              		@ sp needed
 1674 0044 BDE8F087 		pop	{r4, r5, r6, r7, r8, r9, r10, pc}
 1675              		.cfi_endproc
 1676              	.LFE74:
 1677              		.size	pulseLED, .-pulseLED
 1678              		.section	.text.ringLED,"ax",%progbits
 1679              		.align	2
 1680              		.global	ringLED
 1681              		.thumb
 1682              		.thumb_func
 1683              		.type	ringLED, %function
 1684              	ringLED:
ARM GAS  C:\Users\cring\AppData\Local\Temp\ccsXHiuh.s 			page 40


 1685              	.LFB75:
 213:LEDcontrol.c  ****     
 1686              		.loc 1 213 0
 1687              		.cfi_startproc
 1688              		@ args = 20, pretend = 0, frame = 0
 1689              		@ frame_needed = 0, uses_anonymous_args = 0
 1690              	.LVL189:
 1691 0000 2DE9F047 		push	{r4, r5, r6, r7, r8, r9, r10, lr}
 1692              		.cfi_def_cfa_offset 32
 1693              		.cfi_offset 4, -32
 1694              		.cfi_offset 5, -28
 1695              		.cfi_offset 6, -24
 1696              		.cfi_offset 7, -20
 1697              		.cfi_offset 8, -16
 1698              		.cfi_offset 9, -12
 1699              		.cfi_offset 10, -8
 1700              		.cfi_offset 14, -4
 1701 0004 9046     		mov	r8, r2
 1702 0006 9946     		mov	r9, r3
 1703 0008 DDE90867 		ldrd	r6, [sp, #32]
 1704 000c DDE90A45 		ldrd	r4, [sp, #40]
 1705 0010 DDF830A0 		ldr	r10, [sp, #48]
 215:LEDcontrol.c  ****     LEDOff(rgbLED);
 1706              		.loc 1 215 0
 1707 0014 0C4B     		ldr	r3, .L132
 1708 0016 5861     		str	r0, [r3, #20]
 216:LEDcontrol.c  ****     rgbLED->ring = 1;
 1709              		.loc 1 216 0
 1710 0018 5046     		mov	r0, r10
 1711              	.LVL190:
 1712 001a FFF7FEFF 		bl	LEDOff
 1713              	.LVL191:
 217:LEDcontrol.c  ****     
 1714              		.loc 1 217 0
 1715 001e 0123     		movs	r3, #1
 1716 0020 CAF84830 		str	r3, [r10, #72]
 1717              	.LVL192:
 1718              	.LBB11:
 219:LEDcontrol.c  ****     {
 1719              		.loc 1 219 0
 1720 0024 0022     		movs	r2, #0
 1721 0026 09E0     		b	.L129
 1722              	.LVL193:
 1723              	.L130:
 221:LEDcontrol.c  ****         (rgbLED + i)->s = s1;
 1724              		.loc 1 221 0 discriminator 3
 1725 0028 5823     		movs	r3, #88
 1726 002a 03FB02A3 		mla	r3, r3, r2, r10
 1727 002e C3E90489 		strd	r8, [r3, #16]
 222:LEDcontrol.c  ****         (rgbLED + i)->v = v1;
 1728              		.loc 1 222 0 discriminator 3
 1729 0032 C3E90667 		strd	r6, [r3, #24]
 223:LEDcontrol.c  ****     }
 1730              		.loc 1 223 0 discriminator 3
 1731 0036 C3E90845 		strd	r4, [r3, #32]
 219:LEDcontrol.c  ****     {
 1732              		.loc 1 219 0 discriminator 3
ARM GAS  C:\Users\cring\AppData\Local\Temp\ccsXHiuh.s 			page 41


 1733 003a 0132     		adds	r2, r2, #1
 1734              	.LVL194:
 1735              	.L129:
 219:LEDcontrol.c  ****     {
 1736              		.loc 1 219 0 is_stmt 0 discriminator 1
 1737 003c DAF84030 		ldr	r3, [r10, #64]
 1738 0040 9A42     		cmp	r2, r3
 1739 0042 F1DB     		blt	.L130
 1740              	.LBE11:
 225:LEDcontrol.c  **** 
 1741              		.loc 1 225 0 is_stmt 1
 1742 0044 BDE8F087 		pop	{r4, r5, r6, r7, r8, r9, r10, pc}
 1743              	.LVL195:
 1744              	.L133:
 1745              		.align	2
 1746              	.L132:
 1747 0048 00000000 		.word	.LANCHOR0
 1748              		.cfi_endproc
 1749              	.LFE75:
 1750              		.size	ringLED, .-ringLED
 1751              		.section	.text.BlinkLED,"ax",%progbits
 1752              		.align	2
 1753              		.global	BlinkLED
 1754              		.thumb
 1755              		.thumb_func
 1756              		.type	BlinkLED, %function
 1757              	BlinkLED:
 1758              	.LFB76:
 228:LEDcontrol.c  ****     LEDOff(rgbLED);
 1759              		.loc 1 228 0
 1760              		.cfi_startproc
 1761              		@ args = 12, pretend = 0, frame = 0
 1762              		@ frame_needed = 0, uses_anonymous_args = 0
 1763              	.LVL196:
 1764 0000 2DE9F047 		push	{r4, r5, r6, r7, r8, r9, r10, lr}
 1765              		.cfi_def_cfa_offset 32
 1766              		.cfi_offset 4, -32
 1767              		.cfi_offset 5, -28
 1768              		.cfi_offset 6, -24
 1769              		.cfi_offset 7, -20
 1770              		.cfi_offset 8, -16
 1771              		.cfi_offset 9, -12
 1772              		.cfi_offset 10, -8
 1773              		.cfi_offset 14, -4
 1774 0004 8046     		mov	r8, r0
 1775 0006 8946     		mov	r9, r1
 1776 0008 1646     		mov	r6, r2
 1777 000a 1F46     		mov	r7, r3
 1778 000c DDE90845 		ldrd	r4, [sp, #32]
 1779 0010 DDF828A0 		ldr	r10, [sp, #40]
 229:LEDcontrol.c  ****     rgbLED->blink = 1;
 1780              		.loc 1 229 0
 1781 0014 5046     		mov	r0, r10
 1782              	.LVL197:
 1783 0016 FFF7FEFF 		bl	LEDOff
 1784              	.LVL198:
 230:LEDcontrol.c  ****     
ARM GAS  C:\Users\cring\AppData\Local\Temp\ccsXHiuh.s 			page 42


 1785              		.loc 1 230 0
 1786 001a 0123     		movs	r3, #1
 1787 001c CAF85030 		str	r3, [r10, #80]
 1788              	.LVL199:
 1789              	.LBB12:
 232:LEDcontrol.c  ****     {
 1790              		.loc 1 232 0
 1791 0020 0022     		movs	r2, #0
 1792 0022 09E0     		b	.L135
 1793              	.LVL200:
 1794              	.L136:
 234:LEDcontrol.c  ****         (rgbLED + i)->s = s1;
 1795              		.loc 1 234 0 discriminator 3
 1796 0024 5823     		movs	r3, #88
 1797 0026 03FB02A3 		mla	r3, r3, r2, r10
 1798 002a C3E90489 		strd	r8, [r3, #16]
 235:LEDcontrol.c  ****         (rgbLED + i)->v = v1;
 1799              		.loc 1 235 0 discriminator 3
 1800 002e C3E90667 		strd	r6, [r3, #24]
 236:LEDcontrol.c  ****     }
 1801              		.loc 1 236 0 discriminator 3
 1802 0032 C3E90845 		strd	r4, [r3, #32]
 232:LEDcontrol.c  ****     {
 1803              		.loc 1 232 0 discriminator 3
 1804 0036 0132     		adds	r2, r2, #1
 1805              	.LVL201:
 1806              	.L135:
 232:LEDcontrol.c  ****     {
 1807              		.loc 1 232 0 is_stmt 0 discriminator 1
 1808 0038 DAF84030 		ldr	r3, [r10, #64]
 1809 003c 9A42     		cmp	r2, r3
 1810 003e F1DB     		blt	.L136
 1811              	.LBE12:
 238:LEDcontrol.c  **** 
 1812              		.loc 1 238 0 is_stmt 1
 1813 0040 BDE8F087 		pop	{r4, r5, r6, r7, r8, r9, r10, pc}
 1814              		.cfi_endproc
 1815              	.LFE76:
 1816              		.size	BlinkLED, .-BlinkLED
 1817              		.section	.text.LEDinitSeq,"ax",%progbits
 1818              		.align	2
 1819              		.global	LEDinitSeq
 1820              		.thumb
 1821              		.thumb_func
 1822              		.type	LEDinitSeq, %function
 1823              	LEDinitSeq:
 1824              	.LFB81:
 405:LEDcontrol.c  **** }
 406:LEDcontrol.c  **** 
 407:LEDcontrol.c  **** 
 408:LEDcontrol.c  **** 
 409:LEDcontrol.c  **** //Forskellige sekvenser til LED OBS ordforklaringer er i system arkitketur
 410:LEDcontrol.c  **** void LEDinitSeq(LEDctrl *rgbLED)    //Initieringssekvens
 411:LEDcontrol.c  **** {
 1825              		.loc 1 411 0
 1826              		.cfi_startproc
 1827              		@ args = 0, pretend = 0, frame = 0
ARM GAS  C:\Users\cring\AppData\Local\Temp\ccsXHiuh.s 			page 43


 1828              		@ frame_needed = 0, uses_anonymous_args = 0
 1829              	.LVL202:
 1830 0000 00B5     		push	{lr}
 1831              		.cfi_def_cfa_offset 4
 1832              		.cfi_offset 14, -4
 1833 0002 87B0     		sub	sp, sp, #28
 1834              		.cfi_def_cfa_offset 32
 412:LEDcontrol.c  ****     ringLED(3, 191, 1.0, 0.5, rgbLED);
 1835              		.loc 1 412 0
 1836 0004 0490     		str	r0, [sp, #16]
 1837 0006 0022     		movs	r2, #0
 1838 0008 094B     		ldr	r3, .L140+8
 1839 000a CDE90223 		strd	r2, [sp, #8]
 1840 000e 0022     		movs	r2, #0
 1841 0010 084B     		ldr	r3, .L140+12
 1842 0012 CDE90023 		strd	r2, [sp]
 1843 0016 04A3     		adr	r3, .L140
 1844 0018 D3E90023 		ldrd	r2, [r3]
 1845 001c 0320     		movs	r0, #3
 1846              	.LVL203:
 1847 001e FFF7FEFF 		bl	ringLED
 1848              	.LVL204:
 413:LEDcontrol.c  **** }
 1849              		.loc 1 413 0
 1850 0022 07B0     		add	sp, sp, #28
 1851              		.cfi_def_cfa_offset 4
 1852              		@ sp needed
 1853 0024 5DF804FB 		ldr	pc, [sp], #4
 1854              	.L141:
 1855              		.align	3
 1856              	.L140:
 1857 0028 00000000 		.word	0
 1858 002c 00E06740 		.word	1080549376
 1859 0030 0000E03F 		.word	1071644672
 1860 0034 0000F03F 		.word	1072693248
 1861              		.cfi_endproc
 1862              	.LFE81:
 1863              		.size	LEDinitSeq, .-LEDinitSeq
 1864              		.section	.text.idleSeq,"ax",%progbits
 1865              		.align	2
 1866              		.global	idleSeq
 1867              		.thumb
 1868              		.thumb_func
 1869              		.type	idleSeq, %function
 1870              	idleSeq:
 1871              	.LFB82:
 414:LEDcontrol.c  **** 
 415:LEDcontrol.c  **** void idleSeq(LEDctrl *rgbLED)      //Idle-sekvens
 416:LEDcontrol.c  **** {
 1872              		.loc 1 416 0
 1873              		.cfi_startproc
 1874              		@ args = 0, pretend = 0, frame = 0
 1875              		@ frame_needed = 0, uses_anonymous_args = 0
 1876              	.LVL205:
 1877 0000 00B5     		push	{lr}
 1878              		.cfi_def_cfa_offset 4
 1879              		.cfi_offset 14, -4
ARM GAS  C:\Users\cring\AppData\Local\Temp\ccsXHiuh.s 			page 44


 1880 0002 85B0     		sub	sp, sp, #20
 1881              		.cfi_def_cfa_offset 24
 417:LEDcontrol.c  ****     pulseLED(307, 1.0, 0.85, rgbLED);
 1882              		.loc 1 417 0
 1883 0004 0290     		str	r0, [sp, #8]
 1884 0006 08A3     		adr	r3, .L144
 1885 0008 D3E90023 		ldrd	r2, [r3]
 1886 000c CDE90023 		strd	r2, [sp]
 1887 0010 0022     		movs	r2, #0
 1888 0012 094B     		ldr	r3, .L144+16
 1889 0014 06A1     		adr	r1, .L144+8
 1890 0016 D1E90001 		ldrd	r0, [r1]
 1891              	.LVL206:
 1892 001a FFF7FEFF 		bl	pulseLED
 1893              	.LVL207:
 418:LEDcontrol.c  **** }
 1894              		.loc 1 418 0
 1895 001e 05B0     		add	sp, sp, #20
 1896              		.cfi_def_cfa_offset 4
 1897              		@ sp needed
 1898 0020 5DF804FB 		ldr	pc, [sp], #4
 1899              	.L145:
 1900 0024 AFF30080 		.align	3
 1901              	.L144:
 1902 0028 33333333 		.word	858993459
 1903 002c 3333EB3F 		.word	1072378675
 1904 0030 00000000 		.word	0
 1905 0034 00307340 		.word	1081290752
 1906 0038 0000F03F 		.word	1072693248
 1907              		.cfi_endproc
 1908              	.LFE82:
 1909              		.size	idleSeq, .-idleSeq
 1910              		.section	.text.loserSeq,"ax",%progbits
 1911              		.align	2
 1912              		.global	loserSeq
 1913              		.thumb
 1914              		.thumb_func
 1915              		.type	loserSeq, %function
 1916              	loserSeq:
 1917              	.LFB83:
 419:LEDcontrol.c  **** 
 420:LEDcontrol.c  **** void loserSeq(LEDctrl *rgbLED)     //Tabersekvens
 421:LEDcontrol.c  **** {
 1918              		.loc 1 421 0
 1919              		.cfi_startproc
 1920              		@ args = 0, pretend = 0, frame = 0
 1921              		@ frame_needed = 0, uses_anonymous_args = 0
 1922              	.LVL208:
 1923 0000 10B5     		push	{r4, lr}
 1924              		.cfi_def_cfa_offset 8
 1925              		.cfi_offset 4, -8
 1926              		.cfi_offset 14, -4
 1927 0002 84B0     		sub	sp, sp, #16
 1928              		.cfi_def_cfa_offset 24
 1929 0004 0446     		mov	r4, r0
 422:LEDcontrol.c  ****     LEDOff(rgbLED);
 1930              		.loc 1 422 0
ARM GAS  C:\Users\cring\AppData\Local\Temp\ccsXHiuh.s 			page 45


 1931 0006 FFF7FEFF 		bl	LEDOff
 1932              	.LVL209:
 423:LEDcontrol.c  ****     fillcolor(3, 1.0, 0.83, rgbLED);
 1933              		.loc 1 423 0
 1934 000a 0294     		str	r4, [sp, #8]
 1935 000c 06A3     		adr	r3, .L148
 1936 000e D3E90023 		ldrd	r2, [r3]
 1937 0012 CDE90023 		strd	r2, [sp]
 1938 0016 0022     		movs	r2, #0
 1939 0018 054B     		ldr	r3, .L148+8
 1940 001a 0020     		movs	r0, #0
 1941 001c 0549     		ldr	r1, .L148+12
 1942 001e FFF7FEFF 		bl	fillcolor
 1943              	.LVL210:
 424:LEDcontrol.c  ****     
 425:LEDcontrol.c  **** }
 1944              		.loc 1 425 0
 1945 0022 04B0     		add	sp, sp, #16
 1946              		.cfi_def_cfa_offset 8
 1947              		@ sp needed
 1948 0024 10BD     		pop	{r4, pc}
 1949              	.LVL211:
 1950              	.L149:
 1951 0026 00BF     		.align	3
 1952              	.L148:
 1953 0028 8FC2F528 		.word	687194767
 1954 002c 5C8FEA3F 		.word	1072336732
 1955 0030 0000F03F 		.word	1072693248
 1956 0034 00000840 		.word	1074266112
 1957              		.cfi_endproc
 1958              	.LFE83:
 1959              		.size	loserSeq, .-loserSeq
 1960              		.section	.text.zeroCalibrateSeq,"ax",%progbits
 1961              		.align	2
 1962              		.global	zeroCalibrateSeq
 1963              		.thumb
 1964              		.thumb_func
 1965              		.type	zeroCalibrateSeq, %function
 1966              	zeroCalibrateSeq:
 1967              	.LFB84:
 426:LEDcontrol.c  **** 
 427:LEDcontrol.c  **** void zeroCalibrateSeq(LEDctrl *rgbLED) //Kalibreringssekvens
 428:LEDcontrol.c  **** {
 1968              		.loc 1 428 0
 1969              		.cfi_startproc
 1970              		@ args = 0, pretend = 0, frame = 0
 1971              		@ frame_needed = 0, uses_anonymous_args = 0
 1972              	.LVL212:
 1973 0000 00B5     		push	{lr}
 1974              		.cfi_def_cfa_offset 4
 1975              		.cfi_offset 14, -4
 1976 0002 85B0     		sub	sp, sp, #20
 1977              		.cfi_def_cfa_offset 24
 429:LEDcontrol.c  ****     pulseLED(65, 1, 1, rgbLED);
 1978              		.loc 1 429 0
 1979 0004 0022     		movs	r2, #0
 1980 0006 054B     		ldr	r3, .L152
ARM GAS  C:\Users\cring\AppData\Local\Temp\ccsXHiuh.s 			page 46


 1981 0008 0290     		str	r0, [sp, #8]
 1982 000a CDE90023 		strd	r2, [sp]
 1983 000e 0020     		movs	r0, #0
 1984              	.LVL213:
 1985 0010 0349     		ldr	r1, .L152+4
 1986 0012 FFF7FEFF 		bl	pulseLED
 1987              	.LVL214:
 430:LEDcontrol.c  **** }
 1988              		.loc 1 430 0
 1989 0016 05B0     		add	sp, sp, #20
 1990              		.cfi_def_cfa_offset 4
 1991              		@ sp needed
 1992 0018 5DF804FB 		ldr	pc, [sp], #4
 1993              	.L153:
 1994              		.align	2
 1995              	.L152:
 1996 001c 0000F03F 		.word	1072693248
 1997 0020 00405040 		.word	1079001088
 1998              		.cfi_endproc
 1999              	.LFE84:
 2000              		.size	zeroCalibrateSeq, .-zeroCalibrateSeq
 2001              		.section	.text.checkSeq,"ax",%progbits
 2002              		.align	2
 2003              		.global	checkSeq
 2004              		.thumb
 2005              		.thumb_func
 2006              		.type	checkSeq, %function
 2007              	checkSeq:
 2008              	.LFB85:
 431:LEDcontrol.c  **** 
 432:LEDcontrol.c  **** void checkSeq(LEDctrl *rgbLED) //Tjek vægt sekvens
 433:LEDcontrol.c  **** {
 2009              		.loc 1 433 0
 2010              		.cfi_startproc
 2011              		@ args = 0, pretend = 0, frame = 0
 2012              		@ frame_needed = 0, uses_anonymous_args = 0
 2013              	.LVL215:
 2014 0000 00B5     		push	{lr}
 2015              		.cfi_def_cfa_offset 4
 2016              		.cfi_offset 14, -4
 2017 0002 87B0     		sub	sp, sp, #28
 2018              		.cfi_def_cfa_offset 32
 434:LEDcontrol.c  ****     ringLED(3, 65, 1, 1, rgbLED);
 2019              		.loc 1 434 0
 2020 0004 0490     		str	r0, [sp, #16]
 2021 0006 0022     		movs	r2, #0
 2022 0008 064B     		ldr	r3, .L156
 2023 000a CDE90223 		strd	r2, [sp, #8]
 2024 000e CDE90023 		strd	r2, [sp]
 2025 0012 0022     		movs	r2, #0
 2026 0014 044B     		ldr	r3, .L156+4
 2027 0016 0320     		movs	r0, #3
 2028              	.LVL216:
 2029 0018 FFF7FEFF 		bl	ringLED
 2030              	.LVL217:
 435:LEDcontrol.c  **** }
 2031              		.loc 1 435 0
ARM GAS  C:\Users\cring\AppData\Local\Temp\ccsXHiuh.s 			page 47


 2032 001c 07B0     		add	sp, sp, #28
 2033              		.cfi_def_cfa_offset 4
 2034              		@ sp needed
 2035 001e 5DF804FB 		ldr	pc, [sp], #4
 2036              	.L157:
 2037 0022 00BF     		.align	2
 2038              	.L156:
 2039 0024 0000F03F 		.word	1072693248
 2040 0028 00405040 		.word	1079001088
 2041              		.cfi_endproc
 2042              	.LFE85:
 2043              		.size	checkSeq, .-checkSeq
 2044              		.section	.text.weightapprovedSeq,"ax",%progbits
 2045              		.align	2
 2046              		.global	weightapprovedSeq
 2047              		.thumb
 2048              		.thumb_func
 2049              		.type	weightapprovedSeq, %function
 2050              	weightapprovedSeq:
 2051              	.LFB86:
 436:LEDcontrol.c  **** 
 437:LEDcontrol.c  **** void weightapprovedSeq(LEDctrl *rgbLED) //Vægt godkendt sekvens
 438:LEDcontrol.c  **** {
 2052              		.loc 1 438 0
 2053              		.cfi_startproc
 2054              		@ args = 0, pretend = 0, frame = 0
 2055              		@ frame_needed = 0, uses_anonymous_args = 0
 2056              	.LVL218:
 2057 0000 10B5     		push	{r4, lr}
 2058              		.cfi_def_cfa_offset 8
 2059              		.cfi_offset 4, -8
 2060              		.cfi_offset 14, -4
 2061 0002 84B0     		sub	sp, sp, #16
 2062              		.cfi_def_cfa_offset 24
 2063 0004 0446     		mov	r4, r0
 439:LEDcontrol.c  ****     LEDOff(rgbLED);
 2064              		.loc 1 439 0
 2065 0006 FFF7FEFF 		bl	LEDOff
 2066              	.LVL219:
 440:LEDcontrol.c  ****     fillcolor(116, 1, 1.0, rgbLED);
 2067              		.loc 1 440 0
 2068 000a 0022     		movs	r2, #0
 2069 000c 044B     		ldr	r3, .L160
 2070 000e 0294     		str	r4, [sp, #8]
 2071 0010 CDE90023 		strd	r2, [sp]
 2072 0014 0020     		movs	r0, #0
 2073 0016 0349     		ldr	r1, .L160+4
 2074 0018 FFF7FEFF 		bl	fillcolor
 2075              	.LVL220:
 441:LEDcontrol.c  **** }
 2076              		.loc 1 441 0
 2077 001c 04B0     		add	sp, sp, #16
 2078              		.cfi_def_cfa_offset 8
 2079              		@ sp needed
 2080 001e 10BD     		pop	{r4, pc}
 2081              	.LVL221:
 2082              	.L161:
ARM GAS  C:\Users\cring\AppData\Local\Temp\ccsXHiuh.s 			page 48


 2083              		.align	2
 2084              	.L160:
 2085 0020 0000F03F 		.word	1072693248
 2086 0024 00005D40 		.word	1079836672
 2087              		.cfi_endproc
 2088              	.LFE86:
 2089              		.size	weightapprovedSeq, .-weightapprovedSeq
 2090              		.section	.text.startSeq,"ax",%progbits
 2091              		.align	2
 2092              		.global	startSeq
 2093              		.thumb
 2094              		.thumb_func
 2095              		.type	startSeq, %function
 2096              	startSeq:
 2097              	.LFB87:
 442:LEDcontrol.c  **** 
 443:LEDcontrol.c  **** int startSeq(LEDctrl *rgbLED_1, LEDctrl *rgbLED_2) //Start sekvens
 444:LEDcontrol.c  **** {
 2098              		.loc 1 444 0
 2099              		.cfi_startproc
 2100              		@ args = 0, pretend = 0, frame = 0
 2101              		@ frame_needed = 0, uses_anonymous_args = 0
 2102              	.LVL222:
 2103 0000 2DE9F047 		push	{r4, r5, r6, r7, r8, r9, r10, lr}
 2104              		.cfi_def_cfa_offset 32
 2105              		.cfi_offset 4, -32
 2106              		.cfi_offset 5, -28
 2107              		.cfi_offset 6, -24
 2108              		.cfi_offset 7, -20
 2109              		.cfi_offset 8, -16
 2110              		.cfi_offset 9, -12
 2111              		.cfi_offset 10, -8
 2112              		.cfi_offset 14, -4
 2113 0004 84B0     		sub	sp, sp, #16
 2114              		.cfi_def_cfa_offset 48
 2115 0006 8046     		mov	r8, r0
 2116 0008 8A46     		mov	r10, r1
 445:LEDcontrol.c  ****     switch (count2)
 2117              		.loc 1 445 0
 2118 000a 494B     		ldr	r3, .L173+8
 2119 000c 9B69     		ldr	r3, [r3, #24]
 2120 000e 052B     		cmp	r3, #5
 2121 0010 00F28480 		bhi	.L171
 2122 0014 DFE803F0 		tbb	[pc, r3]
 2123              	.L165:
 2124 0018 03       		.byte	(.L164-.L165)/2
 2125 0019 0C       		.byte	(.L166-.L165)/2
 2126 001a 2A       		.byte	(.L167-.L165)/2
 2127 001b 43       		.byte	(.L168-.L165)/2
 2128 001c 5C       		.byte	(.L169-.L165)/2
 2129 001d 7D       		.byte	(.L170-.L165)/2
 2130              		.p2align 1
 2131              	.L164:
 446:LEDcontrol.c  ****     {
 447:LEDcontrol.c  ****         case 0:
 448:LEDcontrol.c  ****         {
 449:LEDcontrol.c  ****             //Slukker alle sekvenser
ARM GAS  C:\Users\cring\AppData\Local\Temp\ccsXHiuh.s 			page 49


 450:LEDcontrol.c  ****             LEDOff(rgbLED_1);
 2132              		.loc 1 450 0
 2133 001e FFF7FEFF 		bl	LEDOff
 2134              	.LVL223:
 451:LEDcontrol.c  ****             LEDOff(rgbLED_2);
 2135              		.loc 1 451 0
 2136 0022 5046     		mov	r0, r10
 2137 0024 FFF7FEFF 		bl	LEDOff
 2138              	.LVL224:
 452:LEDcontrol.c  ****             
 453:LEDcontrol.c  ****             //Tænder 1sek delay timer
 454:LEDcontrol.c  ****             Timer5_Start();
 2139              		.loc 1 454 0
 2140 0028 FFF7FEFF 		bl	Timer5_Start
 2141              	.LVL225:
 455:LEDcontrol.c  ****             isr_delay_Enable();
 2142              		.loc 1 455 0
 2143 002c FFF7FEFF 		bl	isr_delay_Enable
 2144              	.LVL226:
 2145              	.L166:
 456:LEDcontrol.c  ****         }
 457:LEDcontrol.c  ****         case 1:
 458:LEDcontrol.c  ****         {            
 459:LEDcontrol.c  ****             //Sætter rød farve på begge LED-strip
 460:LEDcontrol.c  ****             fillcolor(3, 1.0, 0.83, rgbLED_1);
 2146              		.loc 1 460 0
 2147 0030 0026     		movs	r6, #0
 2148 0032 404F     		ldr	r7, .L173+12
 2149 0034 0024     		movs	r4, #0
 2150 0036 404D     		ldr	r5, .L173+16
 2151 0038 CDF80880 		str	r8, [sp, #8]
 2152 003c 0FF2E809 		adr	r9, .L173
 2153 0040 D9E90089 		ldrd	r8, [r9]
 2154              	.LVL227:
 2155 0044 CDE90089 		strd	r8, [sp]
 2156 0048 3246     		mov	r2, r6
 2157 004a 3B46     		mov	r3, r7
 2158 004c 2046     		mov	r0, r4
 2159 004e 2946     		mov	r1, r5
 2160 0050 FFF7FEFF 		bl	fillcolor
 2161              	.LVL228:
 461:LEDcontrol.c  ****             fillcolor(3, 1.0, 0.83, rgbLED_2);
 2162              		.loc 1 461 0
 2163 0054 CDF808A0 		str	r10, [sp, #8]
 2164 0058 CDE90089 		strd	r8, [sp]
 2165 005c 3246     		mov	r2, r6
 2166 005e 3B46     		mov	r3, r7
 2167 0060 2046     		mov	r0, r4
 2168 0062 2946     		mov	r1, r5
 2169 0064 FFF7FEFF 		bl	fillcolor
 2170              	.LVL229:
 462:LEDcontrol.c  ****         }
 463:LEDcontrol.c  ****         break;
 464:LEDcontrol.c  ****         
 465:LEDcontrol.c  ****         case 2:
 466:LEDcontrol.c  ****         {
 467:LEDcontrol.c  ****             //Sætter gul farve på begge LED-strip
ARM GAS  C:\Users\cring\AppData\Local\Temp\ccsXHiuh.s 			page 50


 468:LEDcontrol.c  ****             fillcolor(65, 1, 1, rgbLED_1);
 469:LEDcontrol.c  ****             fillcolor(65, 1, 1, rgbLED_2);
 470:LEDcontrol.c  ****         }
 471:LEDcontrol.c  ****         break;
 472:LEDcontrol.c  ****         
 473:LEDcontrol.c  ****         case 3:
 474:LEDcontrol.c  ****         {
 475:LEDcontrol.c  ****             //Sætter gul farve på begge LED-strip
 476:LEDcontrol.c  ****             fillcolor(65, 1, 1, rgbLED_1);
 477:LEDcontrol.c  ****             fillcolor(65, 1, 1, rgbLED_2);
 478:LEDcontrol.c  ****         }
 479:LEDcontrol.c  ****         break;
 480:LEDcontrol.c  ****         case 4:
 481:LEDcontrol.c  ****         {
 482:LEDcontrol.c  ****             //Sætter grøn farve på begge LED-strip
 483:LEDcontrol.c  ****             fillcolor(116, 1, 1.0, rgbLED_1);
 484:LEDcontrol.c  ****             fillcolor(116, 1, 1.0, rgbLED_2);
 485:LEDcontrol.c  ****             
 486:LEDcontrol.c  ****             //Slukker for 1sek delay timer
 487:LEDcontrol.c  ****             Timer5_Stop();
 488:LEDcontrol.c  ****             isr_delay_Disable();
 489:LEDcontrol.c  ****             
 490:LEDcontrol.c  ****             count2++;
 491:LEDcontrol.c  ****         }
 492:LEDcontrol.c  ****         break;
 493:LEDcontrol.c  ****         case 5:
 494:LEDcontrol.c  ****         {  
 495:LEDcontrol.c  ****             //returner 1 for at indikere at start sekvens er færdig
 496:LEDcontrol.c  ****             count2 = 0;
 497:LEDcontrol.c  ****             return 1;
 498:LEDcontrol.c  ****         }
 499:LEDcontrol.c  ****         break;
 500:LEDcontrol.c  ****     }
 501:LEDcontrol.c  ****     return 0;
 2171              		.loc 1 501 0
 2172 0068 0020     		movs	r0, #0
 463:LEDcontrol.c  ****         
 2173              		.loc 1 463 0
 2174 006a 58E0     		b	.L163
 2175              	.LVL230:
 2176              	.L167:
 468:LEDcontrol.c  ****             fillcolor(65, 1, 1, rgbLED_2);
 2177              		.loc 1 468 0
 2178 006c 0024     		movs	r4, #0
 2179 006e 314D     		ldr	r5, .L173+12
 2180 0070 0026     		movs	r6, #0
 2181 0072 324F     		ldr	r7, .L173+20
 2182 0074 0290     		str	r0, [sp, #8]
 2183 0076 CDE90045 		strd	r4, [sp]
 2184 007a 2246     		mov	r2, r4
 2185 007c 2B46     		mov	r3, r5
 2186 007e 3046     		mov	r0, r6
 2187              	.LVL231:
 2188 0080 3946     		mov	r1, r7
 2189              	.LVL232:
 2190 0082 FFF7FEFF 		bl	fillcolor
 2191              	.LVL233:
ARM GAS  C:\Users\cring\AppData\Local\Temp\ccsXHiuh.s 			page 51


 469:LEDcontrol.c  ****         }
 2192              		.loc 1 469 0
 2193 0086 CDF808A0 		str	r10, [sp, #8]
 2194 008a CDE90045 		strd	r4, [sp]
 2195 008e 2246     		mov	r2, r4
 2196 0090 2B46     		mov	r3, r5
 2197 0092 3046     		mov	r0, r6
 2198 0094 3946     		mov	r1, r7
 2199 0096 FFF7FEFF 		bl	fillcolor
 2200              	.LVL234:
 2201              		.loc 1 501 0
 2202 009a 0020     		movs	r0, #0
 471:LEDcontrol.c  ****         
 2203              		.loc 1 471 0
 2204 009c 3FE0     		b	.L163
 2205              	.LVL235:
 2206              	.L168:
 476:LEDcontrol.c  ****             fillcolor(65, 1, 1, rgbLED_2);
 2207              		.loc 1 476 0
 2208 009e 0024     		movs	r4, #0
 2209 00a0 244D     		ldr	r5, .L173+12
 2210 00a2 0026     		movs	r6, #0
 2211 00a4 254F     		ldr	r7, .L173+20
 2212 00a6 0290     		str	r0, [sp, #8]
 2213 00a8 CDE90045 		strd	r4, [sp]
 2214 00ac 2246     		mov	r2, r4
 2215 00ae 2B46     		mov	r3, r5
 2216 00b0 3046     		mov	r0, r6
 2217              	.LVL236:
 2218 00b2 3946     		mov	r1, r7
 2219              	.LVL237:
 2220 00b4 FFF7FEFF 		bl	fillcolor
 2221              	.LVL238:
 477:LEDcontrol.c  ****         }
 2222              		.loc 1 477 0
 2223 00b8 CDF808A0 		str	r10, [sp, #8]
 2224 00bc CDE90045 		strd	r4, [sp]
 2225 00c0 2246     		mov	r2, r4
 2226 00c2 2B46     		mov	r3, r5
 2227 00c4 3046     		mov	r0, r6
 2228 00c6 3946     		mov	r1, r7
 2229 00c8 FFF7FEFF 		bl	fillcolor
 2230              	.LVL239:
 2231              		.loc 1 501 0
 2232 00cc 0020     		movs	r0, #0
 479:LEDcontrol.c  ****         case 4:
 2233              		.loc 1 479 0
 2234 00ce 26E0     		b	.L163
 2235              	.LVL240:
 2236              	.L169:
 483:LEDcontrol.c  ****             fillcolor(116, 1, 1.0, rgbLED_2);
 2237              		.loc 1 483 0
 2238 00d0 0024     		movs	r4, #0
 2239 00d2 184D     		ldr	r5, .L173+12
 2240 00d4 0026     		movs	r6, #0
 2241 00d6 1A4F     		ldr	r7, .L173+24
 2242 00d8 0290     		str	r0, [sp, #8]
ARM GAS  C:\Users\cring\AppData\Local\Temp\ccsXHiuh.s 			page 52


 2243 00da CDE90045 		strd	r4, [sp]
 2244 00de 2246     		mov	r2, r4
 2245 00e0 2B46     		mov	r3, r5
 2246 00e2 3046     		mov	r0, r6
 2247              	.LVL241:
 2248 00e4 3946     		mov	r1, r7
 2249              	.LVL242:
 2250 00e6 FFF7FEFF 		bl	fillcolor
 2251              	.LVL243:
 484:LEDcontrol.c  ****             
 2252              		.loc 1 484 0
 2253 00ea CDF808A0 		str	r10, [sp, #8]
 2254 00ee CDE90045 		strd	r4, [sp]
 2255 00f2 2246     		mov	r2, r4
 2256 00f4 2B46     		mov	r3, r5
 2257 00f6 3046     		mov	r0, r6
 2258 00f8 3946     		mov	r1, r7
 2259 00fa FFF7FEFF 		bl	fillcolor
 2260              	.LVL244:
 487:LEDcontrol.c  ****             isr_delay_Disable();
 2261              		.loc 1 487 0
 2262 00fe FFF7FEFF 		bl	Timer5_Stop
 2263              	.LVL245:
 488:LEDcontrol.c  ****             
 2264              		.loc 1 488 0
 2265 0102 FFF7FEFF 		bl	isr_delay_Disable
 2266              	.LVL246:
 490:LEDcontrol.c  ****         }
 2267              		.loc 1 490 0
 2268 0106 0A4A     		ldr	r2, .L173+8
 2269 0108 9369     		ldr	r3, [r2, #24]
 2270 010a 0133     		adds	r3, r3, #1
 2271 010c 9361     		str	r3, [r2, #24]
 2272              		.loc 1 501 0
 2273 010e 0020     		movs	r0, #0
 492:LEDcontrol.c  ****         case 5:
 2274              		.loc 1 492 0
 2275 0110 05E0     		b	.L163
 2276              	.LVL247:
 2277              	.L170:
 496:LEDcontrol.c  ****             return 1;
 2278              		.loc 1 496 0
 2279 0112 0022     		movs	r2, #0
 2280 0114 064B     		ldr	r3, .L173+8
 2281 0116 9A61     		str	r2, [r3, #24]
 497:LEDcontrol.c  ****         }
 2282              		.loc 1 497 0
 2283 0118 0120     		movs	r0, #1
 2284              	.LVL248:
 2285 011a 00E0     		b	.L163
 2286              	.LVL249:
 2287              	.L171:
 2288              		.loc 1 501 0
 2289 011c 0020     		movs	r0, #0
 2290              	.LVL250:
 2291              	.L163:
 502:LEDcontrol.c  **** }
ARM GAS  C:\Users\cring\AppData\Local\Temp\ccsXHiuh.s 			page 53


 2292              		.loc 1 502 0
 2293 011e 04B0     		add	sp, sp, #16
 2294              		.cfi_def_cfa_offset 32
 2295              		@ sp needed
 2296 0120 BDE8F087 		pop	{r4, r5, r6, r7, r8, r9, r10, pc}
 2297              	.LVL251:
 2298              	.L174:
 2299 0124 AFF30080 		.align	3
 2300              	.L173:
 2301 0128 8FC2F528 		.word	687194767
 2302 012c 5C8FEA3F 		.word	1072336732
 2303 0130 00000000 		.word	.LANCHOR0
 2304 0134 0000F03F 		.word	1072693248
 2305 0138 00000840 		.word	1074266112
 2306 013c 00405040 		.word	1079001088
 2307 0140 00005D40 		.word	1079836672
 2308              		.cfi_endproc
 2309              	.LFE87:
 2310              		.size	startSeq, .-startSeq
 2311              		.section	.text.isr_delay,"ax",%progbits
 2312              		.align	2
 2313              		.global	isr_delay
 2314              		.thumb
 2315              		.thumb_func
 2316              		.type	isr_delay, %function
 2317              	isr_delay:
 2318              	.LFB68:
 116:LEDcontrol.c  ****     count2++;
 2319              		.loc 1 116 0
 2320              		.cfi_startproc
 2321              		@ args = 0, pretend = 0, frame = 0
 2322              		@ frame_needed = 0, uses_anonymous_args = 0
 2323 0000 08B5     		push	{r3, lr}
 2324              		.cfi_def_cfa_offset 8
 2325              		.cfi_offset 3, -8
 2326              		.cfi_offset 14, -4
 117:LEDcontrol.c  ****     startSeq(rgbLED1, rgbLED2);
 2327              		.loc 1 117 0
 2328 0002 044B     		ldr	r3, .L177
 2329 0004 9A69     		ldr	r2, [r3, #24]
 2330 0006 0132     		adds	r2, r2, #1
 2331 0008 9A61     		str	r2, [r3, #24]
 118:LEDcontrol.c  **** }
 2332              		.loc 1 118 0
 2333 000a 5968     		ldr	r1, [r3, #4]
 2334 000c 1868     		ldr	r0, [r3]
 2335 000e FFF7FEFF 		bl	startSeq
 2336              	.LVL252:
 2337 0012 08BD     		pop	{r3, pc}
 2338              	.L178:
 2339              		.align	2
 2340              	.L177:
 2341 0014 00000000 		.word	.LANCHOR0
 2342              		.cfi_endproc
 2343              	.LFE68:
 2344              		.size	isr_delay, .-isr_delay
 2345              		.section	.text.errorSeq,"ax",%progbits
ARM GAS  C:\Users\cring\AppData\Local\Temp\ccsXHiuh.s 			page 54


 2346              		.align	2
 2347              		.global	errorSeq
 2348              		.thumb
 2349              		.thumb_func
 2350              		.type	errorSeq, %function
 2351              	errorSeq:
 2352              	.LFB88:
 503:LEDcontrol.c  **** 
 504:LEDcontrol.c  **** void errorSeq(LEDctrl *rgbLED) //Fejl sekvens
 505:LEDcontrol.c  **** {
 2353              		.loc 1 505 0
 2354              		.cfi_startproc
 2355              		@ args = 0, pretend = 0, frame = 0
 2356              		@ frame_needed = 0, uses_anonymous_args = 0
 2357              	.LVL253:
 2358 0000 00B5     		push	{lr}
 2359              		.cfi_def_cfa_offset 4
 2360              		.cfi_offset 14, -4
 2361 0002 85B0     		sub	sp, sp, #20
 2362              		.cfi_def_cfa_offset 24
 506:LEDcontrol.c  ****     BlinkLED(3, 1.0, 0.83, rgbLED);
 2363              		.loc 1 506 0
 2364 0004 0290     		str	r0, [sp, #8]
 2365 0006 08A3     		adr	r3, .L181
 2366 0008 D3E90023 		ldrd	r2, [r3]
 2367 000c CDE90023 		strd	r2, [sp]
 2368 0010 0022     		movs	r2, #0
 2369 0012 074B     		ldr	r3, .L181+8
 2370 0014 0020     		movs	r0, #0
 2371              	.LVL254:
 2372 0016 0749     		ldr	r1, .L181+12
 2373 0018 FFF7FEFF 		bl	BlinkLED
 2374              	.LVL255:
 507:LEDcontrol.c  **** }
 2375              		.loc 1 507 0
 2376 001c 05B0     		add	sp, sp, #20
 2377              		.cfi_def_cfa_offset 4
 2378              		@ sp needed
 2379 001e 5DF804FB 		ldr	pc, [sp], #4
 2380              	.L182:
 2381 0022 00BFAFF3 		.align	3
 2381      0080
 2382              	.L181:
 2383 0028 8FC2F528 		.word	687194767
 2384 002c 5C8FEA3F 		.word	1072336732
 2385 0030 0000F03F 		.word	1072693248
 2386 0034 00000840 		.word	1074266112
 2387              		.cfi_endproc
 2388              	.LFE88:
 2389              		.size	errorSeq, .-errorSeq
 2390              		.section	.text.winnerSeq,"ax",%progbits
 2391              		.align	2
 2392              		.global	winnerSeq
 2393              		.thumb
 2394              		.thumb_func
 2395              		.type	winnerSeq, %function
 2396              	winnerSeq:
ARM GAS  C:\Users\cring\AppData\Local\Temp\ccsXHiuh.s 			page 55


 2397              	.LFB89:
 508:LEDcontrol.c  **** 
 509:LEDcontrol.c  **** void winnerSeq(LEDctrl *rgbLED)   //Vindersekvens
 510:LEDcontrol.c  **** {
 2398              		.loc 1 510 0
 2399              		.cfi_startproc
 2400              		@ args = 0, pretend = 0, frame = 0
 2401              		@ frame_needed = 0, uses_anonymous_args = 0
 2402              	.LVL256:
 2403 0000 10B5     		push	{r4, lr}
 2404              		.cfi_def_cfa_offset 8
 2405              		.cfi_offset 4, -8
 2406              		.cfi_offset 14, -4
 2407 0002 84B0     		sub	sp, sp, #16
 2408              		.cfi_def_cfa_offset 24
 2409 0004 0446     		mov	r4, r0
 511:LEDcontrol.c  ****     LEDOff(rgbLED);
 2410              		.loc 1 511 0
 2411 0006 FFF7FEFF 		bl	LEDOff
 2412              	.LVL257:
 512:LEDcontrol.c  ****     fillcolor(116, 1, 1.0, rgbLED);
 2413              		.loc 1 512 0
 2414 000a 0022     		movs	r2, #0
 2415 000c 044B     		ldr	r3, .L185
 2416 000e 0294     		str	r4, [sp, #8]
 2417 0010 CDE90023 		strd	r2, [sp]
 2418 0014 0020     		movs	r0, #0
 2419 0016 0349     		ldr	r1, .L185+4
 2420 0018 FFF7FEFF 		bl	fillcolor
 2421              	.LVL258:
 513:LEDcontrol.c  **** }
 2422              		.loc 1 513 0
 2423 001c 04B0     		add	sp, sp, #16
 2424              		.cfi_def_cfa_offset 8
 2425              		@ sp needed
 2426 001e 10BD     		pop	{r4, pc}
 2427              	.LVL259:
 2428              	.L186:
 2429              		.align	2
 2430              	.L185:
 2431 0020 0000F03F 		.word	1072693248
 2432 0024 00005D40 		.word	1079836672
 2433              		.cfi_endproc
 2434              	.LFE89:
 2435              		.size	winnerSeq, .-winnerSeq
 2436              		.global	rgbLED2
 2437              		.global	rgbLED1
 2438              		.data
 2439              		.align	2
 2440              		.set	.LANCHOR1,. + 0
 2441              		.type	index2, %object
 2442              		.size	index2, 4
 2443              	index2:
 2444 0000 0000003F 		.word	1056964608
 2445              		.bss
 2446              		.align	2
 2447              		.set	.LANCHOR0,. + 0
ARM GAS  C:\Users\cring\AppData\Local\Temp\ccsXHiuh.s 			page 56


 2448              		.type	rgbLED1, %object
 2449              		.size	rgbLED1, 4
 2450              	rgbLED1:
 2451 0000 00000000 		.space	4
 2452              		.type	rgbLED2, %object
 2453              		.size	rgbLED2, 4
 2454              	rgbLED2:
 2455 0004 00000000 		.space	4
 2456              		.type	count, %object
 2457              		.size	count, 4
 2458              	count:
 2459 0008 00000000 		.space	4
 2460              		.type	count3, %object
 2461              		.size	count3, 4
 2462              	count3:
 2463 000c 00000000 		.space	4
 2464              		.type	index_, %object
 2465              		.size	index_, 4
 2466              	index_:
 2467 0010 00000000 		.space	4
 2468              		.type	pulselength_, %object
 2469              		.size	pulselength_, 4
 2470              	pulselength_:
 2471 0014 00000000 		.space	4
 2472              		.type	count2, %object
 2473              		.size	count2, 4
 2474              	count2:
 2475 0018 00000000 		.space	4
 2476              		.text
 2477              	.Letext0:
 2478              		.file 2 "c:\\program files (x86)\\cypress\\psoc creator\\4.3\\psoc creator\\import\\gnu\\arm\\5.4.
 2479              		.file 3 "c:\\program files (x86)\\cypress\\psoc creator\\4.3\\psoc creator\\import\\gnu\\arm\\5.4.
 2480              		.file 4 "LEDcontrol.h"
 2481              		.file 5 "Generated_Source\\PSoC5/core_cm3.h"
 2482              		.file 6 "Generated_Source\\PSoC5/Timer1.h"
 2483              		.file 7 "Generated_Source\\PSoC5/Timer2.h"
 2484              		.file 8 "Generated_Source\\PSoC5/Timer3.h"
 2485              		.file 9 "Generated_Source\\PSoC5/Timer4.h"
 2486              		.file 10 "c:\\program files (x86)\\cypress\\psoc creator\\4.3\\psoc creator\\import\\gnu\\arm\\5.4
 2487              		.file 11 "Generated_Source\\PSoC5/SPIM_1.h"
 2488              		.file 12 "Generated_Source\\PSoC5/SPIMOutCtrl.h"
 2489              		.file 13 "Generated_Source\\PSoC5/CyLib.h"
 2490              		.file 14 "Generated_Source\\PSoC5/Timer5.h"
 2491              		.file 15 "Generated_Source\\PSoC5/isr_LED_refreshrate.h"
 2492              		.file 16 "Generated_Source\\PSoC5/isr_LED_ring.h"
 2493              		.file 17 "Generated_Source\\PSoC5/isr_LED_pulse.h"
 2494              		.file 18 "Generated_Source\\PSoC5/isr_BlinkLED.h"
 2495              		.file 19 "Generated_Source\\PSoC5/isr_delay.h"
 2496              		.section	.debug_info,"",%progbits
 2497              	.Ldebug_info0:
 2498 0000 BB0F0000 		.4byte	0xfbb
 2499 0004 0400     		.2byte	0x4
 2500 0006 00000000 		.4byte	.Ldebug_abbrev0
 2501 000a 04       		.byte	0x4
 2502 000b 01       		.uleb128 0x1
 2503 000c 83030000 		.4byte	.LASF99
 2504 0010 0C       		.byte	0xc
ARM GAS  C:\Users\cring\AppData\Local\Temp\ccsXHiuh.s 			page 57


 2505 0011 47010000 		.4byte	.LASF100
 2506 0015 4D000000 		.4byte	.LASF101
 2507 0019 00000000 		.4byte	.Ldebug_ranges0+0
 2508 001d 00000000 		.4byte	0
 2509 0021 00000000 		.4byte	.Ldebug_line0
 2510 0025 02       		.uleb128 0x2
 2511 0026 08       		.byte	0x8
 2512 0027 04       		.byte	0x4
 2513 0028 54010000 		.4byte	.LASF0
 2514 002c 02       		.uleb128 0x2
 2515 002d 01       		.byte	0x1
 2516 002e 06       		.byte	0x6
 2517 002f D9000000 		.4byte	.LASF1
 2518 0033 02       		.uleb128 0x2
 2519 0034 01       		.byte	0x1
 2520 0035 08       		.byte	0x8
 2521 0036 31030000 		.4byte	.LASF2
 2522 003a 02       		.uleb128 0x2
 2523 003b 02       		.byte	0x2
 2524 003c 05       		.byte	0x5
 2525 003d 54030000 		.4byte	.LASF3
 2526 0041 02       		.uleb128 0x2
 2527 0042 02       		.byte	0x2
 2528 0043 07       		.byte	0x7
 2529 0044 D5040000 		.4byte	.LASF4
 2530 0048 03       		.uleb128 0x3
 2531 0049 C3040000 		.4byte	.LASF10
 2532 004d 02       		.byte	0x2
 2533 004e 3F       		.byte	0x3f
 2534 004f 53000000 		.4byte	0x53
 2535 0053 02       		.uleb128 0x2
 2536 0054 04       		.byte	0x4
 2537 0055 05       		.byte	0x5
 2538 0056 FB000000 		.4byte	.LASF5
 2539 005a 02       		.uleb128 0x2
 2540 005b 04       		.byte	0x4
 2541 005c 07       		.byte	0x7
 2542 005d 91010000 		.4byte	.LASF6
 2543 0061 02       		.uleb128 0x2
 2544 0062 08       		.byte	0x8
 2545 0063 05       		.byte	0x5
 2546 0064 CB000000 		.4byte	.LASF7
 2547 0068 02       		.uleb128 0x2
 2548 0069 08       		.byte	0x8
 2549 006a 07       		.byte	0x7
 2550 006b 1C000000 		.4byte	.LASF8
 2551 006f 04       		.uleb128 0x4
 2552 0070 04       		.byte	0x4
 2553 0071 05       		.byte	0x5
 2554 0072 696E7400 		.ascii	"int\000"
 2555 0076 02       		.uleb128 0x2
 2556 0077 04       		.byte	0x4
 2557 0078 07       		.byte	0x7
 2558 0079 7F010000 		.4byte	.LASF9
 2559 007d 03       		.uleb128 0x3
 2560 007e 29030000 		.4byte	.LASF11
 2561 0082 03       		.byte	0x3
ARM GAS  C:\Users\cring\AppData\Local\Temp\ccsXHiuh.s 			page 58


 2562 0083 2C       		.byte	0x2c
 2563 0084 48000000 		.4byte	0x48
 2564 0088 02       		.uleb128 0x2
 2565 0089 04       		.byte	0x4
 2566 008a 04       		.byte	0x4
 2567 008b B1020000 		.4byte	.LASF12
 2568 008f 02       		.uleb128 0x2
 2569 0090 01       		.byte	0x1
 2570 0091 08       		.byte	0x8
 2571 0092 73040000 		.4byte	.LASF13
 2572 0096 02       		.uleb128 0x2
 2573 0097 08       		.byte	0x8
 2574 0098 04       		.byte	0x4
 2575 0099 78040000 		.4byte	.LASF14
 2576 009d 02       		.uleb128 0x2
 2577 009e 04       		.byte	0x4
 2578 009f 07       		.byte	0x7
 2579 00a0 35020000 		.4byte	.LASF15
 2580 00a4 05       		.uleb128 0x5
 2581 00a5 D9010000 		.4byte	.LASF102
 2582 00a9 58       		.byte	0x58
 2583 00aa 04       		.byte	0x4
 2584 00ab 14       		.byte	0x14
 2585 00ac 77010000 		.4byte	0x177
 2586 00b0 06       		.uleb128 0x6
 2587 00b1 72656400 		.ascii	"red\000"
 2588 00b5 04       		.byte	0x4
 2589 00b6 16       		.byte	0x16
 2590 00b7 6F000000 		.4byte	0x6f
 2591 00bb 00       		.byte	0
 2592 00bc 07       		.uleb128 0x7
 2593 00bd 01050000 		.4byte	.LASF16
 2594 00c1 04       		.byte	0x4
 2595 00c2 17       		.byte	0x17
 2596 00c3 6F000000 		.4byte	0x6f
 2597 00c7 04       		.byte	0x4
 2598 00c8 07       		.uleb128 0x7
 2599 00c9 7D020000 		.4byte	.LASF17
 2600 00cd 04       		.byte	0x4
 2601 00ce 18       		.byte	0x18
 2602 00cf 6F000000 		.4byte	0x6f
 2603 00d3 08       		.byte	0x8
 2604 00d4 06       		.uleb128 0x6
 2605 00d5 6800     		.ascii	"h\000"
 2606 00d7 04       		.byte	0x4
 2607 00d8 1A       		.byte	0x1a
 2608 00d9 25000000 		.4byte	0x25
 2609 00dd 10       		.byte	0x10
 2610 00de 06       		.uleb128 0x6
 2611 00df 7300     		.ascii	"s\000"
 2612 00e1 04       		.byte	0x4
 2613 00e2 1B       		.byte	0x1b
 2614 00e3 25000000 		.4byte	0x25
 2615 00e7 18       		.byte	0x18
 2616 00e8 06       		.uleb128 0x6
 2617 00e9 7600     		.ascii	"v\000"
 2618 00eb 04       		.byte	0x4
ARM GAS  C:\Users\cring\AppData\Local\Temp\ccsXHiuh.s 			page 59


 2619 00ec 1C       		.byte	0x1c
 2620 00ed 25000000 		.4byte	0x25
 2621 00f1 20       		.byte	0x20
 2622 00f2 07       		.uleb128 0x7
 2623 00f3 ED000000 		.4byte	.LASF18
 2624 00f7 04       		.byte	0x4
 2625 00f8 1E       		.byte	0x1e
 2626 00f9 6F000000 		.4byte	0x6f
 2627 00fd 28       		.byte	0x28
 2628 00fe 07       		.uleb128 0x7
 2629 00ff F4000000 		.4byte	.LASF19
 2630 0103 04       		.byte	0x4
 2631 0104 1F       		.byte	0x1f
 2632 0105 6F000000 		.4byte	0x6f
 2633 0109 2C       		.byte	0x2c
 2634 010a 07       		.uleb128 0x7
 2635 010b 3D010000 		.4byte	.LASF20
 2636 010f 04       		.byte	0x4
 2637 0110 20       		.byte	0x20
 2638 0111 6F000000 		.4byte	0x6f
 2639 0115 30       		.byte	0x30
 2640 0116 07       		.uleb128 0x7
 2641 0117 42010000 		.4byte	.LASF21
 2642 011b 04       		.byte	0x4
 2643 011c 21       		.byte	0x21
 2644 011d 6F000000 		.4byte	0x6f
 2645 0121 34       		.byte	0x34
 2646 0122 07       		.uleb128 0x7
 2647 0123 CD010000 		.4byte	.LASF22
 2648 0127 04       		.byte	0x4
 2649 0128 22       		.byte	0x22
 2650 0129 6F000000 		.4byte	0x6f
 2651 012d 38       		.byte	0x38
 2652 012e 07       		.uleb128 0x7
 2653 012f D3010000 		.4byte	.LASF23
 2654 0133 04       		.byte	0x4
 2655 0134 23       		.byte	0x23
 2656 0135 6F000000 		.4byte	0x6f
 2657 0139 3C       		.byte	0x3c
 2658 013a 07       		.uleb128 0x7
 2659 013b 34050000 		.4byte	.LASF24
 2660 013f 04       		.byte	0x4
 2661 0140 25       		.byte	0x25
 2662 0141 6F000000 		.4byte	0x6f
 2663 0145 40       		.byte	0x40
 2664 0146 06       		.uleb128 0x6
 2665 0147 70696E00 		.ascii	"pin\000"
 2666 014b 04       		.byte	0x4
 2667 014c 26       		.byte	0x26
 2668 014d 6F000000 		.4byte	0x6f
 2669 0151 44       		.byte	0x44
 2670 0152 07       		.uleb128 0x7
 2671 0153 22050000 		.4byte	.LASF25
 2672 0157 04       		.byte	0x4
 2673 0158 28       		.byte	0x28
 2674 0159 6F000000 		.4byte	0x6f
 2675 015d 48       		.byte	0x48
ARM GAS  C:\Users\cring\AppData\Local\Temp\ccsXHiuh.s 			page 60


 2676 015e 07       		.uleb128 0x7
 2677 015f A7040000 		.4byte	.LASF26
 2678 0163 04       		.byte	0x4
 2679 0164 29       		.byte	0x29
 2680 0165 6F000000 		.4byte	0x6f
 2681 0169 4C       		.byte	0x4c
 2682 016a 07       		.uleb128 0x7
 2683 016b FB040000 		.4byte	.LASF27
 2684 016f 04       		.byte	0x4
 2685 0170 2A       		.byte	0x2a
 2686 0171 6F000000 		.4byte	0x6f
 2687 0175 50       		.byte	0x50
 2688 0176 00       		.byte	0
 2689 0177 03       		.uleb128 0x3
 2690 0178 70010000 		.4byte	.LASF28
 2691 017c 04       		.byte	0x4
 2692 017d 2B       		.byte	0x2b
 2693 017e A4000000 		.4byte	0xa4
 2694 0182 08       		.uleb128 0x8
 2695 0183 ED020000 		.4byte	.LASF29
 2696 0187 01       		.byte	0x1
 2697 0188 79       		.byte	0x79
 2698 0189 00000000 		.4byte	.LFB69
 2699 018d 30000000 		.4byte	.LFE69-.LFB69
 2700 0191 01       		.uleb128 0x1
 2701 0192 9C       		.byte	0x9c
 2702 0193 AF010000 		.4byte	0x1af
 2703 0197 09       		.uleb128 0x9
 2704 0198 487A00   		.ascii	"Hz\000"
 2705 019b 01       		.byte	0x1
 2706 019c 79       		.byte	0x79
 2707 019d 6F000000 		.4byte	0x6f
 2708 01a1 00000000 		.4byte	.LLST0
 2709 01a5 0A       		.uleb128 0xa
 2710 01a6 26000000 		.4byte	.LVL7
 2711 01aa B50E0000 		.4byte	0xeb5
 2712 01ae 00       		.byte	0
 2713 01af 0B       		.uleb128 0xb
 2714 01b0 3E020000 		.4byte	.LASF30
 2715 01b4 01       		.byte	0x1
 2716 01b5 BD       		.byte	0xbd
 2717 01b6 00000000 		.4byte	.LFB73
 2718 01ba 2C000000 		.4byte	.LFE73-.LFB73
 2719 01be 01       		.uleb128 0x1
 2720 01bf 9C       		.byte	0x9c
 2721 01c0 37020000 		.4byte	0x237
 2722 01c4 0C       		.uleb128 0xc
 2723 01c5 AD040000 		.4byte	.LASF31
 2724 01c9 01       		.byte	0x1
 2725 01ca BD       		.byte	0xbd
 2726 01cb 6F000000 		.4byte	0x6f
 2727 01cf 2C000000 		.4byte	.LLST1
 2728 01d3 0C       		.uleb128 0xc
 2729 01d4 3E050000 		.4byte	.LASF32
 2730 01d8 01       		.byte	0x1
 2731 01d9 BD       		.byte	0xbd
 2732 01da 6F000000 		.4byte	0x6f
ARM GAS  C:\Users\cring\AppData\Local\Temp\ccsXHiuh.s 			page 61


 2733 01de 58000000 		.4byte	.LLST2
 2734 01e2 0C       		.uleb128 0xc
 2735 01e3 13000000 		.4byte	.LASF33
 2736 01e7 01       		.byte	0x1
 2737 01e8 BD       		.byte	0xbd
 2738 01e9 6F000000 		.4byte	0x6f
 2739 01ed 79000000 		.4byte	.LLST3
 2740 01f1 0D       		.uleb128 0xd
 2741 01f2 12000000 		.4byte	.LVL11
 2742 01f6 C00E0000 		.4byte	0xec0
 2743 01fa 0E020000 		.4byte	0x20e
 2744 01fe 0E       		.uleb128 0xe
 2745 01ff 01       		.uleb128 0x1
 2746 0200 50       		.byte	0x50
 2747 0201 0B       		.uleb128 0xb
 2748 0202 F3       		.byte	0xf3
 2749 0203 01       		.uleb128 0x1
 2750 0204 51       		.byte	0x51
 2751 0205 32       		.byte	0x32
 2752 0206 24       		.byte	0x24
 2753 0207 F3       		.byte	0xf3
 2754 0208 01       		.uleb128 0x1
 2755 0209 51       		.byte	0x51
 2756 020a 22       		.byte	0x22
 2757 020b 31       		.byte	0x31
 2758 020c 24       		.byte	0x24
 2759 020d 00       		.byte	0
 2760 020e 0D       		.uleb128 0xd
 2761 020f 1E000000 		.4byte	.LVL13
 2762 0213 CB0E0000 		.4byte	0xecb
 2763 0217 24020000 		.4byte	0x224
 2764 021b 0E       		.uleb128 0xe
 2765 021c 01       		.uleb128 0x1
 2766 021d 50       		.byte	0x50
 2767 021e 04       		.uleb128 0x4
 2768 021f 75       		.byte	0x75
 2769 0220 00       		.sleb128 0
 2770 0221 31       		.byte	0x31
 2771 0222 24       		.byte	0x24
 2772 0223 00       		.byte	0
 2773 0224 0F       		.uleb128 0xf
 2774 0225 2A000000 		.4byte	.LVL15
 2775 0229 D60E0000 		.4byte	0xed6
 2776 022d 0E       		.uleb128 0xe
 2777 022e 01       		.uleb128 0x1
 2778 022f 50       		.byte	0x50
 2779 0230 04       		.uleb128 0x4
 2780 0231 74       		.byte	0x74
 2781 0232 00       		.sleb128 0
 2782 0233 31       		.byte	0x31
 2783 0234 24       		.byte	0x24
 2784 0235 00       		.byte	0
 2785 0236 00       		.byte	0
 2786 0237 08       		.uleb128 0x8
 2787 0238 E5000000 		.4byte	.LASF34
 2788 023c 01       		.byte	0x1
 2789 023d F1       		.byte	0xf1
ARM GAS  C:\Users\cring\AppData\Local\Temp\ccsXHiuh.s 			page 62


 2790 023e 00000000 		.4byte	.LFB77
 2791 0242 FC010000 		.4byte	.LFE77-.LFB77
 2792 0246 01       		.uleb128 0x1
 2793 0247 9C       		.byte	0x9c
 2794 0248 32030000 		.4byte	0x332
 2795 024c 09       		.uleb128 0x9
 2796 024d 6800     		.ascii	"h\000"
 2797 024f 01       		.byte	0x1
 2798 0250 F1       		.byte	0xf1
 2799 0251 25000000 		.4byte	0x25
 2800 0255 A5000000 		.4byte	.LLST4
 2801 0259 09       		.uleb128 0x9
 2802 025a 7300     		.ascii	"s\000"
 2803 025c 01       		.byte	0x1
 2804 025d F1       		.byte	0xf1
 2805 025e 25000000 		.4byte	0x25
 2806 0262 CD000000 		.4byte	.LLST5
 2807 0266 09       		.uleb128 0x9
 2808 0267 7600     		.ascii	"v\000"
 2809 0269 01       		.byte	0x1
 2810 026a F1       		.byte	0xf1
 2811 026b 25000000 		.4byte	0x25
 2812 026f F5000000 		.4byte	.LLST6
 2813 0273 09       		.uleb128 0x9
 2814 0274 4C454400 		.ascii	"LED\000"
 2815 0278 01       		.byte	0x1
 2816 0279 F1       		.byte	0xf1
 2817 027a 6F000000 		.4byte	0x6f
 2818 027e 15010000 		.4byte	.LLST7
 2819 0282 0C       		.uleb128 0xc
 2820 0283 78010000 		.4byte	.LASF35
 2821 0287 01       		.byte	0x1
 2822 0288 F1       		.byte	0xf1
 2823 0289 32030000 		.4byte	0x332
 2824 028d 35010000 		.4byte	.LLST8
 2825 0291 10       		.uleb128 0x10
 2826 0292 4300     		.ascii	"C\000"
 2827 0294 01       		.byte	0x1
 2828 0295 F3       		.byte	0xf3
 2829 0296 25000000 		.4byte	0x25
 2830 029a 55010000 		.4byte	.LLST9
 2831 029e 10       		.uleb128 0x10
 2832 029f 686800   		.ascii	"hh\000"
 2833 02a2 01       		.byte	0x1
 2834 02a3 F3       		.byte	0xf3
 2835 02a4 25000000 		.4byte	0x25
 2836 02a8 C5010000 		.4byte	.LLST10
 2837 02ac 10       		.uleb128 0x10
 2838 02ad 5800     		.ascii	"X\000"
 2839 02af 01       		.byte	0x1
 2840 02b0 F3       		.byte	0xf3
 2841 02b1 25000000 		.4byte	0x25
 2842 02b5 25020000 		.4byte	.LLST11
 2843 02b9 10       		.uleb128 0x10
 2844 02ba 6D00     		.ascii	"m\000"
 2845 02bc 01       		.byte	0x1
 2846 02bd F3       		.byte	0xf3
ARM GAS  C:\Users\cring\AppData\Local\Temp\ccsXHiuh.s 			page 63


 2847 02be 25000000 		.4byte	0x25
 2848 02c2 95020000 		.4byte	.LLST12
 2849 02c6 10       		.uleb128 0x10
 2850 02c7 7200     		.ascii	"r\000"
 2851 02c9 01       		.byte	0x1
 2852 02ca F3       		.byte	0xf3
 2853 02cb 25000000 		.4byte	0x25
 2854 02cf AD020000 		.4byte	.LLST13
 2855 02d3 10       		.uleb128 0x10
 2856 02d4 6700     		.ascii	"g\000"
 2857 02d6 01       		.byte	0x1
 2858 02d7 F3       		.byte	0xf3
 2859 02d8 25000000 		.4byte	0x25
 2860 02dc 19030000 		.4byte	.LLST14
 2861 02e0 10       		.uleb128 0x10
 2862 02e1 6200     		.ascii	"b\000"
 2863 02e3 01       		.byte	0x1
 2864 02e4 F3       		.byte	0xf3
 2865 02e5 25000000 		.4byte	0x25
 2866 02e9 85030000 		.4byte	.LLST15
 2867 02ed 10       		.uleb128 0x10
 2868 02ee 6900     		.ascii	"i\000"
 2869 02f0 01       		.byte	0x1
 2870 02f1 F4       		.byte	0xf4
 2871 02f2 6F000000 		.4byte	0x6f
 2872 02f6 25040000 		.4byte	.LLST16
 2873 02fa 0D       		.uleb128 0xd
 2874 02fb 78000000 		.4byte	.LVL26
 2875 02ff E10E0000 		.4byte	0xee1
 2876 0303 16030000 		.4byte	0x316
 2877 0307 0E       		.uleb128 0xe
 2878 0308 06       		.uleb128 0x6
 2879 0309 50       		.byte	0x50
 2880 030a 93       		.byte	0x93
 2881 030b 04       		.uleb128 0x4
 2882 030c 51       		.byte	0x51
 2883 030d 93       		.byte	0x93
 2884 030e 04       		.uleb128 0x4
 2885 030f 05       		.uleb128 0x5
 2886 0310 7D       		.byte	0x7d
 2887 0311 00       		.sleb128 0
 2888 0312 F6       		.byte	0xf6
 2889 0313 08       		.byte	0x8
 2890 0314 25       		.uleb128 0x25
 2891 0315 00       		.byte	0
 2892 0316 0A       		.uleb128 0xa
 2893 0317 34010000 		.4byte	.LVL56
 2894 031b EC0E0000 		.4byte	0xeec
 2895 031f 0A       		.uleb128 0xa
 2896 0320 52010000 		.4byte	.LVL61
 2897 0324 EC0E0000 		.4byte	0xeec
 2898 0328 0A       		.uleb128 0xa
 2899 0329 70010000 		.4byte	.LVL66
 2900 032d EC0E0000 		.4byte	0xeec
 2901 0331 00       		.byte	0
 2902 0332 11       		.uleb128 0x11
 2903 0333 04       		.byte	0x4
ARM GAS  C:\Users\cring\AppData\Local\Temp\ccsXHiuh.s 			page 64


 2904 0334 77010000 		.4byte	0x177
 2905 0338 12       		.uleb128 0x12
 2906 0339 A7020000 		.4byte	.LASF36
 2907 033d 01       		.byte	0x1
 2908 033e 3C01     		.2byte	0x13c
 2909 0340 00000000 		.4byte	.LFB78
 2910 0344 54000000 		.4byte	.LFE78-.LFB78
 2911 0348 01       		.uleb128 0x1
 2912 0349 9C       		.byte	0x9c
 2913 034a D3030000 		.4byte	0x3d3
 2914 034e 13       		.uleb128 0x13
 2915 034f 78010000 		.4byte	.LASF35
 2916 0353 01       		.byte	0x1
 2917 0354 3C01     		.2byte	0x13c
 2918 0356 32030000 		.4byte	0x332
 2919 035a 38040000 		.4byte	.LLST17
 2920 035e 14       		.uleb128 0x14
 2921 035f 20000000 		.4byte	.LBB2
 2922 0363 34000000 		.4byte	.LBE2-.LBB2
 2923 0367 B0030000 		.4byte	0x3b0
 2924 036b 15       		.uleb128 0x15
 2925 036c 6900     		.ascii	"i\000"
 2926 036e 01       		.byte	0x1
 2927 036f 4501     		.2byte	0x145
 2928 0371 6F000000 		.4byte	0x6f
 2929 0375 6C040000 		.4byte	.LLST18
 2930 0379 0A       		.uleb128 0xa
 2931 037a 2C000000 		.4byte	.LVL90
 2932 037e F80E0000 		.4byte	0xef8
 2933 0382 0A       		.uleb128 0xa
 2934 0383 32000000 		.4byte	.LVL91
 2935 0387 F80E0000 		.4byte	0xef8
 2936 038b 0A       		.uleb128 0xa
 2937 038c 38000000 		.4byte	.LVL92
 2938 0390 F80E0000 		.4byte	0xef8
 2939 0394 0A       		.uleb128 0xa
 2940 0395 3E000000 		.4byte	.LVL93
 2941 0399 F80E0000 		.4byte	0xef8
 2942 039d 0A       		.uleb128 0xa
 2943 039e 44000000 		.4byte	.LVL94
 2944 03a2 F80E0000 		.4byte	0xef8
 2945 03a6 0A       		.uleb128 0xa
 2946 03a7 4A000000 		.4byte	.LVL95
 2947 03ab F80E0000 		.4byte	0xef8
 2948 03af 00       		.byte	0
 2949 03b0 0D       		.uleb128 0xd
 2950 03b1 10000000 		.4byte	.LVL85
 2951 03b5 030F0000 		.4byte	0xf03
 2952 03b9 C3030000 		.4byte	0x3c3
 2953 03bd 0E       		.uleb128 0xe
 2954 03be 01       		.uleb128 0x1
 2955 03bf 50       		.byte	0x50
 2956 03c0 01       		.uleb128 0x1
 2957 03c1 31       		.byte	0x31
 2958 03c2 00       		.byte	0
 2959 03c3 0F       		.uleb128 0xf
 2960 03c4 1E000000 		.4byte	.LVL88
ARM GAS  C:\Users\cring\AppData\Local\Temp\ccsXHiuh.s 			page 65


 2961 03c8 030F0000 		.4byte	0xf03
 2962 03cc 0E       		.uleb128 0xe
 2963 03cd 01       		.uleb128 0x1
 2964 03ce 50       		.byte	0x50
 2965 03cf 01       		.uleb128 0x1
 2966 03d0 30       		.byte	0x30
 2967 03d1 00       		.byte	0
 2968 03d2 00       		.byte	0
 2969 03d3 0B       		.uleb128 0xb
 2970 03d4 17040000 		.4byte	.LASF37
 2971 03d8 01       		.byte	0x1
 2972 03d9 1D       		.byte	0x1d
 2973 03da 00000000 		.4byte	.LFB64
 2974 03de 30000000 		.4byte	.LFE64-.LFB64
 2975 03e2 01       		.uleb128 0x1
 2976 03e3 9C       		.byte	0x9c
 2977 03e4 35040000 		.4byte	0x435
 2978 03e8 0A       		.uleb128 0xa
 2979 03e9 06000000 		.4byte	.LVL98
 2980 03ed 0E0F0000 		.4byte	0xf0e
 2981 03f1 0A       		.uleb128 0xa
 2982 03f2 10000000 		.4byte	.LVL99
 2983 03f6 38030000 		.4byte	0x338
 2984 03fa 0D       		.uleb128 0xd
 2985 03fb 16000000 		.4byte	.LVL100
 2986 03ff 190F0000 		.4byte	0xf19
 2987 0403 0E040000 		.4byte	0x40e
 2988 0407 0E       		.uleb128 0xe
 2989 0408 01       		.uleb128 0x1
 2990 0409 50       		.byte	0x50
 2991 040a 02       		.uleb128 0x2
 2992 040b 08       		.byte	0x8
 2993 040c 64       		.byte	0x64
 2994 040d 00       		.byte	0
 2995 040e 0A       		.uleb128 0xa
 2996 040f 20000000 		.4byte	.LVL101
 2997 0413 38030000 		.4byte	0x338
 2998 0417 0D       		.uleb128 0xd
 2999 0418 26000000 		.4byte	.LVL102
 3000 041c 190F0000 		.4byte	0xf19
 3001 0420 2B040000 		.4byte	0x42b
 3002 0424 0E       		.uleb128 0xe
 3003 0425 01       		.uleb128 0x1
 3004 0426 50       		.byte	0x50
 3005 0427 02       		.uleb128 0x2
 3006 0428 08       		.byte	0x8
 3007 0429 64       		.byte	0x64
 3008 042a 00       		.byte	0
 3009 042b 0A       		.uleb128 0xa
 3010 042c 2A000000 		.4byte	.LVL103
 3011 0430 240F0000 		.4byte	0xf24
 3012 0434 00       		.byte	0
 3013 0435 12       		.uleb128 0x12
 3014 0436 3F040000 		.4byte	.LASF38
 3015 043a 01       		.byte	0x1
 3016 043b 5501     		.2byte	0x155
 3017 043d 00000000 		.4byte	.LFB79
ARM GAS  C:\Users\cring\AppData\Local\Temp\ccsXHiuh.s 			page 66


 3018 0441 32010000 		.4byte	.LFE79-.LFB79
 3019 0445 01       		.uleb128 0x1
 3020 0446 9C       		.byte	0x9c
 3021 0447 71050000 		.4byte	0x571
 3022 044b 16       		.uleb128 0x16
 3023 044c 6800     		.ascii	"h\000"
 3024 044e 01       		.byte	0x1
 3025 044f 5501     		.2byte	0x155
 3026 0451 25000000 		.4byte	0x25
 3027 0455 7F040000 		.4byte	.LLST19
 3028 0459 16       		.uleb128 0x16
 3029 045a 7300     		.ascii	"s\000"
 3030 045c 01       		.byte	0x1
 3031 045d 5501     		.2byte	0x155
 3032 045f 25000000 		.4byte	0x25
 3033 0463 A7040000 		.4byte	.LLST20
 3034 0467 17       		.uleb128 0x17
 3035 0468 7600     		.ascii	"v\000"
 3036 046a 01       		.byte	0x1
 3037 046b 5501     		.2byte	0x155
 3038 046d 25000000 		.4byte	0x25
 3039 0471 02       		.uleb128 0x2
 3040 0472 91       		.byte	0x91
 3041 0473 00       		.sleb128 0
 3042 0474 17       		.uleb128 0x17
 3043 0475 4C454400 		.ascii	"LED\000"
 3044 0479 01       		.byte	0x1
 3045 047a 5501     		.2byte	0x155
 3046 047c 6F000000 		.4byte	0x6f
 3047 0480 02       		.uleb128 0x2
 3048 0481 91       		.byte	0x91
 3049 0482 08       		.sleb128 8
 3050 0483 18       		.uleb128 0x18
 3051 0484 78010000 		.4byte	.LASF35
 3052 0488 01       		.byte	0x1
 3053 0489 5501     		.2byte	0x155
 3054 048b 32030000 		.4byte	0x332
 3055 048f 02       		.uleb128 0x2
 3056 0490 91       		.byte	0x91
 3057 0491 0C       		.sleb128 12
 3058 0492 15       		.uleb128 0x15
 3059 0493 52656400 		.ascii	"Red\000"
 3060 0497 01       		.byte	0x1
 3061 0498 5701     		.2byte	0x157
 3062 049a 6F000000 		.4byte	0x6f
 3063 049e CF040000 		.4byte	.LLST21
 3064 04a2 19       		.uleb128 0x19
 3065 04a3 A1040000 		.4byte	.LASF39
 3066 04a7 01       		.byte	0x1
 3067 04a8 5701     		.2byte	0x157
 3068 04aa 6F000000 		.4byte	0x6f
 3069 04ae EE040000 		.4byte	.LLST22
 3070 04b2 19       		.uleb128 0x19
 3071 04b3 61010000 		.4byte	.LASF40
 3072 04b7 01       		.byte	0x1
 3073 04b8 5701     		.2byte	0x157
 3074 04ba 6F000000 		.4byte	0x6f
ARM GAS  C:\Users\cring\AppData\Local\Temp\ccsXHiuh.s 			page 67


 3075 04be 0D050000 		.4byte	.LLST23
 3076 04c2 15       		.uleb128 0x15
 3077 04c3 7800     		.ascii	"x\000"
 3078 04c5 01       		.byte	0x1
 3079 04c6 5F01     		.2byte	0x15f
 3080 04c8 6F000000 		.4byte	0x6f
 3081 04cc 2C050000 		.4byte	.LLST24
 3082 04d0 1A       		.uleb128 0x1a
 3083 04d1 62756600 		.ascii	"buf\000"
 3084 04d5 01       		.byte	0x1
 3085 04d6 6001     		.2byte	0x160
 3086 04d8 71050000 		.4byte	0x571
 3087 04dc 03       		.uleb128 0x3
 3088 04dd 91       		.byte	0x91
 3089 04de B87F     		.sleb128 -72
 3090 04e0 14       		.uleb128 0x14
 3091 04e1 26000000 		.4byte	.LBB3
 3092 04e5 2C000000 		.4byte	.LBE3-.LBB3
 3093 04e9 FC040000 		.4byte	0x4fc
 3094 04ed 15       		.uleb128 0x15
 3095 04ee 6900     		.ascii	"i\000"
 3096 04f0 01       		.byte	0x1
 3097 04f1 6201     		.2byte	0x162
 3098 04f3 6F000000 		.4byte	0x6f
 3099 04f7 55050000 		.4byte	.LLST25
 3100 04fb 00       		.byte	0
 3101 04fc 14       		.uleb128 0x14
 3102 04fd 7E000000 		.4byte	.LBB4
 3103 0501 2C000000 		.4byte	.LBE4-.LBB4
 3104 0505 18050000 		.4byte	0x518
 3105 0509 15       		.uleb128 0x15
 3106 050a 6900     		.ascii	"i\000"
 3107 050c 01       		.byte	0x1
 3108 050d 7101     		.2byte	0x171
 3109 050f 6F000000 		.4byte	0x6f
 3110 0513 74050000 		.4byte	.LLST26
 3111 0517 00       		.byte	0
 3112 0518 14       		.uleb128 0x14
 3113 0519 D6000000 		.4byte	.LBB5
 3114 051d 2C000000 		.4byte	.LBE5-.LBB5
 3115 0521 34050000 		.4byte	0x534
 3116 0525 15       		.uleb128 0x15
 3117 0526 6900     		.ascii	"i\000"
 3118 0528 01       		.byte	0x1
 3119 0529 7F01     		.2byte	0x17f
 3120 052b 6F000000 		.4byte	0x6f
 3121 052f 93050000 		.4byte	.LLST27
 3122 0533 00       		.byte	0
 3123 0534 0F       		.uleb128 0xf
 3124 0535 18000000 		.4byte	.LVL105
 3125 0539 37020000 		.4byte	0x237
 3126 053d 0E       		.uleb128 0xe
 3127 053e 06       		.uleb128 0x6
 3128 053f 50       		.byte	0x50
 3129 0540 93       		.byte	0x93
 3130 0541 04       		.uleb128 0x4
 3131 0542 51       		.byte	0x51
ARM GAS  C:\Users\cring\AppData\Local\Temp\ccsXHiuh.s 			page 68


 3132 0543 93       		.byte	0x93
 3133 0544 04       		.uleb128 0x4
 3134 0545 05       		.uleb128 0x5
 3135 0546 F3       		.byte	0xf3
 3136 0547 03       		.uleb128 0x3
 3137 0548 F5       		.byte	0xf5
 3138 0549 00       		.uleb128 0
 3139 054a 25       		.uleb128 0x25
 3140 054b 0E       		.uleb128 0xe
 3141 054c 06       		.uleb128 0x6
 3142 054d 52       		.byte	0x52
 3143 054e 93       		.byte	0x93
 3144 054f 04       		.uleb128 0x4
 3145 0550 53       		.byte	0x53
 3146 0551 93       		.byte	0x93
 3147 0552 04       		.uleb128 0x4
 3148 0553 05       		.uleb128 0x5
 3149 0554 F3       		.byte	0xf3
 3150 0555 03       		.uleb128 0x3
 3151 0556 F5       		.byte	0xf5
 3152 0557 02       		.uleb128 0x2
 3153 0558 25       		.uleb128 0x25
 3154 0559 0E       		.uleb128 0xe
 3155 055a 02       		.uleb128 0x2
 3156 055b 7D       		.byte	0x7d
 3157 055c 00       		.sleb128 0
 3158 055d 03       		.uleb128 0x3
 3159 055e F5       		.byte	0xf5
 3160 055f 06       		.uleb128 0x6
 3161 0560 25       		.uleb128 0x25
 3162 0561 0E       		.uleb128 0xe
 3163 0562 02       		.uleb128 0x2
 3164 0563 7D       		.byte	0x7d
 3165 0564 08       		.sleb128 8
 3166 0565 02       		.uleb128 0x2
 3167 0566 75       		.byte	0x75
 3168 0567 00       		.sleb128 0
 3169 0568 0E       		.uleb128 0xe
 3170 0569 02       		.uleb128 0x2
 3171 056a 7D       		.byte	0x7d
 3172 056b 0C       		.sleb128 12
 3173 056c 02       		.uleb128 0x2
 3174 056d 74       		.byte	0x74
 3175 056e 00       		.sleb128 0
 3176 056f 00       		.byte	0
 3177 0570 00       		.byte	0
 3178 0571 1B       		.uleb128 0x1b
 3179 0572 6F000000 		.4byte	0x6f
 3180 0576 81050000 		.4byte	0x581
 3181 057a 1C       		.uleb128 0x1c
 3182 057b 9D000000 		.4byte	0x9d
 3183 057f 0B       		.byte	0xb
 3184 0580 00       		.byte	0
 3185 0581 0B       		.uleb128 0xb
 3186 0582 69040000 		.4byte	.LASF41
 3187 0586 01       		.byte	0x1
 3188 0587 B4       		.byte	0xb4
ARM GAS  C:\Users\cring\AppData\Local\Temp\ccsXHiuh.s 			page 69


 3189 0588 00000000 		.4byte	.LFB72
 3190 058c 3A000000 		.4byte	.LFE72-.LFB72
 3191 0590 01       		.uleb128 0x1
 3192 0591 9C       		.byte	0x9c
 3193 0592 02060000 		.4byte	0x602
 3194 0596 09       		.uleb128 0x9
 3195 0597 6800     		.ascii	"h\000"
 3196 0599 01       		.byte	0x1
 3197 059a B4       		.byte	0xb4
 3198 059b 25000000 		.4byte	0x25
 3199 059f B2050000 		.4byte	.LLST28
 3200 05a3 09       		.uleb128 0x9
 3201 05a4 7300     		.ascii	"s\000"
 3202 05a6 01       		.byte	0x1
 3203 05a7 B4       		.byte	0xb4
 3204 05a8 25000000 		.4byte	0x25
 3205 05ac DA050000 		.4byte	.LLST29
 3206 05b0 1D       		.uleb128 0x1d
 3207 05b1 7600     		.ascii	"v\000"
 3208 05b3 01       		.byte	0x1
 3209 05b4 B4       		.byte	0xb4
 3210 05b5 25000000 		.4byte	0x25
 3211 05b9 02       		.uleb128 0x2
 3212 05ba 91       		.byte	0x91
 3213 05bb 00       		.sleb128 0
 3214 05bc 1E       		.uleb128 0x1e
 3215 05bd 78010000 		.4byte	.LASF35
 3216 05c1 01       		.byte	0x1
 3217 05c2 B4       		.byte	0xb4
 3218 05c3 32030000 		.4byte	0x332
 3219 05c7 02       		.uleb128 0x2
 3220 05c8 91       		.byte	0x91
 3221 05c9 08       		.sleb128 8
 3222 05ca 1F       		.uleb128 0x1f
 3223 05cb 14000000 		.4byte	.LBB6
 3224 05cf 20000000 		.4byte	.LBE6-.LBB6
 3225 05d3 10       		.uleb128 0x10
 3226 05d4 6900     		.ascii	"i\000"
 3227 05d6 01       		.byte	0x1
 3228 05d7 B7       		.byte	0xb7
 3229 05d8 6F000000 		.4byte	0x6f
 3230 05dc 02060000 		.4byte	.LLST30
 3231 05e0 0F       		.uleb128 0xf
 3232 05e1 2C000000 		.4byte	.LVL129
 3233 05e5 35040000 		.4byte	0x435
 3234 05e9 0E       		.uleb128 0xe
 3235 05ea 02       		.uleb128 0x2
 3236 05eb 7D       		.byte	0x7d
 3237 05ec 00       		.sleb128 0
 3238 05ed 03       		.uleb128 0x3
 3239 05ee F5       		.byte	0xf5
 3240 05ef 04       		.uleb128 0x4
 3241 05f0 25       		.uleb128 0x25
 3242 05f1 0E       		.uleb128 0xe
 3243 05f2 02       		.uleb128 0x2
 3244 05f3 7D       		.byte	0x7d
 3245 05f4 08       		.sleb128 8
ARM GAS  C:\Users\cring\AppData\Local\Temp\ccsXHiuh.s 			page 70


 3246 05f5 02       		.uleb128 0x2
 3247 05f6 76       		.byte	0x76
 3248 05f7 00       		.sleb128 0
 3249 05f8 0E       		.uleb128 0xe
 3250 05f9 02       		.uleb128 0x2
 3251 05fa 7D       		.byte	0x7d
 3252 05fb 0C       		.sleb128 12
 3253 05fc 02       		.uleb128 0x2
 3254 05fd 77       		.byte	0x77
 3255 05fe 00       		.sleb128 0
 3256 05ff 00       		.byte	0
 3257 0600 00       		.byte	0
 3258 0601 00       		.byte	0
 3259 0602 08       		.uleb128 0x8
 3260 0603 B5040000 		.4byte	.LASF42
 3261 0607 01       		.byte	0x1
 3262 0608 4B       		.byte	0x4b
 3263 0609 00000000 		.4byte	.LFB66
 3264 060d 28010000 		.4byte	.LFE66-.LFB66
 3265 0611 01       		.uleb128 0x1
 3266 0612 9C       		.byte	0x9c
 3267 0613 3C060000 		.4byte	0x63c
 3268 0617 0A       		.uleb128 0xa
 3269 0618 38000000 		.4byte	.LVL132
 3270 061c 81050000 		.4byte	0x581
 3271 0620 0A       		.uleb128 0xa
 3272 0621 64000000 		.4byte	.LVL134
 3273 0625 81050000 		.4byte	0x581
 3274 0629 0A       		.uleb128 0xa
 3275 062a BE000000 		.4byte	.LVL140
 3276 062e 81050000 		.4byte	0x581
 3277 0632 0A       		.uleb128 0xa
 3278 0633 EA000000 		.4byte	.LVL142
 3279 0637 81050000 		.4byte	0x581
 3280 063b 00       		.byte	0
 3281 063c 0B       		.uleb128 0xb
 3282 063d F7010000 		.4byte	.LASF43
 3283 0641 01       		.byte	0x1
 3284 0642 5D       		.byte	0x5d
 3285 0643 00000000 		.4byte	.LFB67
 3286 0647 BC000000 		.4byte	.LFE67-.LFB67
 3287 064b 01       		.uleb128 0x1
 3288 064c 9C       		.byte	0x9c
 3289 064d 76060000 		.4byte	0x676
 3290 0651 0A       		.uleb128 0xa
 3291 0652 34000000 		.4byte	.LVL147
 3292 0656 81050000 		.4byte	0x581
 3293 065a 0A       		.uleb128 0xa
 3294 065b 58000000 		.4byte	.LVL148
 3295 065f 81050000 		.4byte	0x581
 3296 0663 0A       		.uleb128 0xa
 3297 0664 86000000 		.4byte	.LVL149
 3298 0668 81050000 		.4byte	0x581
 3299 066c 0A       		.uleb128 0xa
 3300 066d AA000000 		.4byte	.LVL150
 3301 0671 81050000 		.4byte	0x581
 3302 0675 00       		.byte	0
ARM GAS  C:\Users\cring\AppData\Local\Temp\ccsXHiuh.s 			page 71


 3303 0676 0B       		.uleb128 0xb
 3304 0677 15050000 		.4byte	.LASF44
 3305 067b 01       		.byte	0x1
 3306 067c 2F       		.byte	0x2f
 3307 067d 00000000 		.4byte	.LFB65
 3308 0681 0C010000 		.4byte	.LFE65-.LFB65
 3309 0685 01       		.uleb128 0x1
 3310 0686 9C       		.byte	0x9c
 3311 0687 1E070000 		.4byte	0x71e
 3312 068b 14       		.uleb128 0x14
 3313 068c 4A000000 		.4byte	.LBB7
 3314 0690 84000000 		.4byte	.LBE7-.LBB7
 3315 0694 0B070000 		.4byte	0x70b
 3316 0698 10       		.uleb128 0x10
 3317 0699 693200   		.ascii	"i2\000"
 3318 069c 01       		.byte	0x1
 3319 069d 35       		.byte	0x35
 3320 069e 6F000000 		.4byte	0x6f
 3321 06a2 21060000 		.4byte	.LLST31
 3322 06a6 14       		.uleb128 0x14
 3323 06a7 5A000000 		.4byte	.LBB8
 3324 06ab 2E000000 		.4byte	.LBE8-.LBB8
 3325 06af DA060000 		.4byte	0x6da
 3326 06b3 10       		.uleb128 0x10
 3327 06b4 7800     		.ascii	"x\000"
 3328 06b6 01       		.byte	0x1
 3329 06b7 39       		.byte	0x39
 3330 06b8 6F000000 		.4byte	0x6f
 3331 06bc 34060000 		.4byte	.LLST32
 3332 06c0 0F       		.uleb128 0xf
 3333 06c1 88000000 		.4byte	.LVL155
 3334 06c5 35040000 		.4byte	0x435
 3335 06c9 0E       		.uleb128 0xe
 3336 06ca 02       		.uleb128 0x2
 3337 06cb 7D       		.byte	0x7d
 3338 06cc 00       		.sleb128 0
 3339 06cd 03       		.uleb128 0x3
 3340 06ce F5       		.byte	0xf5
 3341 06cf 06       		.uleb128 0x6
 3342 06d0 25       		.uleb128 0x25
 3343 06d1 0E       		.uleb128 0xe
 3344 06d2 02       		.uleb128 0x2
 3345 06d3 7D       		.byte	0x7d
 3346 06d4 08       		.sleb128 8
 3347 06d5 02       		.uleb128 0x2
 3348 06d6 75       		.byte	0x75
 3349 06d7 00       		.sleb128 0
 3350 06d8 00       		.byte	0
 3351 06d9 00       		.byte	0
 3352 06da 1F       		.uleb128 0x1f
 3353 06db 92000000 		.4byte	.LBB9
 3354 06df 2E000000 		.4byte	.LBE9-.LBB9
 3355 06e3 10       		.uleb128 0x10
 3356 06e4 7800     		.ascii	"x\000"
 3357 06e6 01       		.byte	0x1
 3358 06e7 3E       		.byte	0x3e
 3359 06e8 6F000000 		.4byte	0x6f
ARM GAS  C:\Users\cring\AppData\Local\Temp\ccsXHiuh.s 			page 72


 3360 06ec 47060000 		.4byte	.LLST33
 3361 06f0 0F       		.uleb128 0xf
 3362 06f1 C0000000 		.4byte	.LVL157
 3363 06f5 35040000 		.4byte	0x435
 3364 06f9 0E       		.uleb128 0xe
 3365 06fa 02       		.uleb128 0x2
 3366 06fb 7D       		.byte	0x7d
 3367 06fc 00       		.sleb128 0
 3368 06fd 03       		.uleb128 0x3
 3369 06fe F5       		.byte	0xf5
 3370 06ff 06       		.uleb128 0x6
 3371 0700 25       		.uleb128 0x25
 3372 0701 0E       		.uleb128 0xe
 3373 0702 02       		.uleb128 0x2
 3374 0703 7D       		.byte	0x7d
 3375 0704 08       		.sleb128 8
 3376 0705 02       		.uleb128 0x2
 3377 0706 75       		.byte	0x75
 3378 0707 00       		.sleb128 0
 3379 0708 00       		.byte	0
 3380 0709 00       		.byte	0
 3381 070a 00       		.byte	0
 3382 070b 0A       		.uleb128 0xa
 3383 070c 2E000000 		.4byte	.LVL151
 3384 0710 81050000 		.4byte	0x581
 3385 0714 0A       		.uleb128 0xa
 3386 0715 4A000000 		.4byte	.LVL152
 3387 0719 81050000 		.4byte	0x581
 3388 071d 00       		.byte	0
 3389 071e 12       		.uleb128 0x12
 3390 071f E8040000 		.4byte	.LASF45
 3391 0723 01       		.byte	0x1
 3392 0724 8E01     		.2byte	0x18e
 3393 0726 00000000 		.4byte	.LFB80
 3394 072a 12000000 		.4byte	.LFE80-.LFB80
 3395 072e 01       		.uleb128 0x1
 3396 072f 9C       		.byte	0x9c
 3397 0730 4E070000 		.4byte	0x74e
 3398 0734 13       		.uleb128 0x13
 3399 0735 78010000 		.4byte	.LASF35
 3400 0739 01       		.byte	0x1
 3401 073a 8E01     		.2byte	0x18e
 3402 073c 32030000 		.4byte	0x332
 3403 0740 5A060000 		.4byte	.LLST34
 3404 0744 0A       		.uleb128 0xa
 3405 0745 08000000 		.4byte	.LVL161
 3406 0749 2F0F0000 		.4byte	0xf2f
 3407 074d 00       		.byte	0
 3408 074e 0B       		.uleb128 0xb
 3409 074f 4B040000 		.4byte	.LASF46
 3410 0753 01       		.byte	0x1
 3411 0754 7F       		.byte	0x7f
 3412 0755 00000000 		.4byte	.LFB70
 3413 0759 48000000 		.4byte	.LFE70-.LFB70
 3414 075d 01       		.uleb128 0x1
 3415 075e 9C       		.byte	0x9c
 3416 075f D4070000 		.4byte	0x7d4
ARM GAS  C:\Users\cring\AppData\Local\Temp\ccsXHiuh.s 			page 73


 3417 0763 0C       		.uleb128 0xc
 3418 0764 04010000 		.4byte	.LASF47
 3419 0768 01       		.byte	0x1
 3420 0769 7F       		.byte	0x7f
 3421 076a 6F000000 		.4byte	0x6f
 3422 076e 78060000 		.4byte	.LLST35
 3423 0772 0C       		.uleb128 0xc
 3424 0773 2E040000 		.4byte	.LASF48
 3425 0777 01       		.byte	0x1
 3426 0778 7F       		.byte	0x7f
 3427 0779 32030000 		.4byte	0x332
 3428 077d A6060000 		.4byte	.LLST36
 3429 0781 0C       		.uleb128 0xc
 3430 0782 68030000 		.4byte	.LASF49
 3431 0786 01       		.byte	0x1
 3432 0787 7F       		.byte	0x7f
 3433 0788 6F000000 		.4byte	0x6f
 3434 078c D2060000 		.4byte	.LLST37
 3435 0790 14       		.uleb128 0x14
 3436 0791 1E000000 		.4byte	.LBB10
 3437 0795 20000000 		.4byte	.LBE10-.LBB10
 3438 0799 C3070000 		.4byte	0x7c3
 3439 079d 10       		.uleb128 0x10
 3440 079e 6900     		.ascii	"i\000"
 3441 07a0 01       		.byte	0x1
 3442 07a1 8C       		.byte	0x8c
 3443 07a2 6F000000 		.4byte	0x6f
 3444 07a6 F3060000 		.4byte	.LLST38
 3445 07aa 0F       		.uleb128 0xf
 3446 07ab 36000000 		.4byte	.LVL166
 3447 07af 35040000 		.4byte	0x435
 3448 07b3 0E       		.uleb128 0xe
 3449 07b4 02       		.uleb128 0x2
 3450 07b5 7D       		.byte	0x7d
 3451 07b6 08       		.sleb128 8
 3452 07b7 02       		.uleb128 0x2
 3453 07b8 74       		.byte	0x74
 3454 07b9 00       		.sleb128 0
 3455 07ba 0E       		.uleb128 0xe
 3456 07bb 02       		.uleb128 0x2
 3457 07bc 7D       		.byte	0x7d
 3458 07bd 0C       		.sleb128 12
 3459 07be 02       		.uleb128 0x2
 3460 07bf 75       		.byte	0x75
 3461 07c0 00       		.sleb128 0
 3462 07c1 00       		.byte	0
 3463 07c2 00       		.byte	0
 3464 07c3 0F       		.uleb128 0xf
 3465 07c4 1E000000 		.4byte	.LVL164
 3466 07c8 1E070000 		.4byte	0x71e
 3467 07cc 0E       		.uleb128 0xe
 3468 07cd 01       		.uleb128 0x1
 3469 07ce 50       		.byte	0x50
 3470 07cf 02       		.uleb128 0x2
 3471 07d0 75       		.byte	0x75
 3472 07d1 00       		.sleb128 0
 3473 07d2 00       		.byte	0
ARM GAS  C:\Users\cring\AppData\Local\Temp\ccsXHiuh.s 			page 74


 3474 07d3 00       		.byte	0
 3475 07d4 0B       		.uleb128 0xb
 3476 07d5 A3010000 		.4byte	.LASF50
 3477 07d9 01       		.byte	0x1
 3478 07da 92       		.byte	0x92
 3479 07db 00000000 		.4byte	.LFB71
 3480 07df 7C000000 		.4byte	.LFE71-.LFB71
 3481 07e3 01       		.uleb128 0x1
 3482 07e4 9C       		.byte	0x9c
 3483 07e5 BA080000 		.4byte	0x8ba
 3484 07e9 09       		.uleb128 0x9
 3485 07ea 487A00   		.ascii	"Hz\000"
 3486 07ed 01       		.byte	0x1
 3487 07ee 92       		.byte	0x92
 3488 07ef 6F000000 		.4byte	0x6f
 3489 07f3 12070000 		.4byte	.LLST39
 3490 07f7 0D       		.uleb128 0xd
 3491 07f8 0A000000 		.4byte	.LVL171
 3492 07fc 3A0F0000 		.4byte	0xf3a
 3493 0800 0E080000 		.4byte	0x80e
 3494 0804 0E       		.uleb128 0xe
 3495 0805 01       		.uleb128 0x1
 3496 0806 50       		.byte	0x50
 3497 0807 05       		.uleb128 0x5
 3498 0808 03       		.byte	0x3
 3499 0809 00000000 		.4byte	isr_refreshrate
 3500 080d 00       		.byte	0
 3501 080e 0D       		.uleb128 0xd
 3502 080f 10000000 		.4byte	.LVL172
 3503 0813 450F0000 		.4byte	0xf45
 3504 0817 25080000 		.4byte	0x825
 3505 081b 0E       		.uleb128 0xe
 3506 081c 01       		.uleb128 0x1
 3507 081d 50       		.byte	0x50
 3508 081e 05       		.uleb128 0x5
 3509 081f 03       		.byte	0x3
 3510 0820 00000000 		.4byte	isr_LED_ring
 3511 0824 00       		.byte	0
 3512 0825 0D       		.uleb128 0xd
 3513 0826 16000000 		.4byte	.LVL173
 3514 082a 500F0000 		.4byte	0xf50
 3515 082e 3C080000 		.4byte	0x83c
 3516 0832 0E       		.uleb128 0xe
 3517 0833 01       		.uleb128 0x1
 3518 0834 50       		.byte	0x50
 3519 0835 05       		.uleb128 0x5
 3520 0836 03       		.byte	0x3
 3521 0837 00000000 		.4byte	isr_LED_pulse
 3522 083b 00       		.byte	0
 3523 083c 0D       		.uleb128 0xd
 3524 083d 1C000000 		.4byte	.LVL174
 3525 0841 5B0F0000 		.4byte	0xf5b
 3526 0845 53080000 		.4byte	0x853
 3527 0849 0E       		.uleb128 0xe
 3528 084a 01       		.uleb128 0x1
 3529 084b 50       		.byte	0x50
 3530 084c 05       		.uleb128 0x5
ARM GAS  C:\Users\cring\AppData\Local\Temp\ccsXHiuh.s 			page 75


 3531 084d 03       		.byte	0x3
 3532 084e 00000000 		.4byte	isr_BlinkLED
 3533 0852 00       		.byte	0
 3534 0853 0D       		.uleb128 0xd
 3535 0854 22000000 		.4byte	.LVL175
 3536 0858 660F0000 		.4byte	0xf66
 3537 085c 6A080000 		.4byte	0x86a
 3538 0860 0E       		.uleb128 0xe
 3539 0861 01       		.uleb128 0x1
 3540 0862 50       		.byte	0x50
 3541 0863 05       		.uleb128 0x5
 3542 0864 03       		.byte	0x3
 3543 0865 00000000 		.4byte	isr_delay
 3544 0869 00       		.byte	0
 3545 086a 0A       		.uleb128 0xa
 3546 086b 2A000000 		.4byte	.LVL176
 3547 086f 1E070000 		.4byte	0x71e
 3548 0873 0A       		.uleb128 0xa
 3549 0874 30000000 		.4byte	.LVL177
 3550 0878 1E070000 		.4byte	0x71e
 3551 087c 0A       		.uleb128 0xa
 3552 087d 48000000 		.4byte	.LVL178
 3553 0881 710F0000 		.4byte	0xf71
 3554 0885 0A       		.uleb128 0xa
 3555 0886 4C000000 		.4byte	.LVL179
 3556 088a 240F0000 		.4byte	0xf24
 3557 088e 0A       		.uleb128 0xa
 3558 088f 50000000 		.4byte	.LVL180
 3559 0893 7C0F0000 		.4byte	0xf7c
 3560 0897 0A       		.uleb128 0xa
 3561 0898 54000000 		.4byte	.LVL181
 3562 089c 870F0000 		.4byte	0xf87
 3563 08a0 0A       		.uleb128 0xa
 3564 08a1 58000000 		.4byte	.LVL182
 3565 08a5 920F0000 		.4byte	0xf92
 3566 08a9 0F       		.uleb128 0xf
 3567 08aa 5E000000 		.4byte	.LVL183
 3568 08ae 82010000 		.4byte	0x182
 3569 08b2 0E       		.uleb128 0xe
 3570 08b3 01       		.uleb128 0x1
 3571 08b4 50       		.byte	0x50
 3572 08b5 02       		.uleb128 0x2
 3573 08b6 75       		.byte	0x75
 3574 08b7 00       		.sleb128 0
 3575 08b8 00       		.byte	0
 3576 08b9 00       		.byte	0
 3577 08ba 0B       		.uleb128 0xb
 3578 08bb 0F010000 		.4byte	.LASF51
 3579 08bf 01       		.byte	0x1
 3580 08c0 C6       		.byte	0xc6
 3581 08c1 00000000 		.4byte	.LFB74
 3582 08c5 48000000 		.4byte	.LFE74-.LFB74
 3583 08c9 01       		.uleb128 0x1
 3584 08ca 9C       		.byte	0x9c
 3585 08cb 34090000 		.4byte	0x934
 3586 08cf 09       		.uleb128 0x9
 3587 08d0 683100   		.ascii	"h1\000"
ARM GAS  C:\Users\cring\AppData\Local\Temp\ccsXHiuh.s 			page 76


 3588 08d3 01       		.byte	0x1
 3589 08d4 C6       		.byte	0xc6
 3590 08d5 25000000 		.4byte	0x25
 3591 08d9 3E070000 		.4byte	.LLST40
 3592 08dd 09       		.uleb128 0x9
 3593 08de 733100   		.ascii	"s1\000"
 3594 08e1 01       		.byte	0x1
 3595 08e2 C6       		.byte	0xc6
 3596 08e3 25000000 		.4byte	0x25
 3597 08e7 66070000 		.4byte	.LLST41
 3598 08eb 1D       		.uleb128 0x1d
 3599 08ec 763100   		.ascii	"v1\000"
 3600 08ef 01       		.byte	0x1
 3601 08f0 C6       		.byte	0xc6
 3602 08f1 25000000 		.4byte	0x25
 3603 08f5 02       		.uleb128 0x2
 3604 08f6 91       		.byte	0x91
 3605 08f7 00       		.sleb128 0
 3606 08f8 1E       		.uleb128 0x1e
 3607 08f9 78010000 		.4byte	.LASF35
 3608 08fd 01       		.byte	0x1
 3609 08fe C6       		.byte	0xc6
 3610 08ff 32030000 		.4byte	0x332
 3611 0903 02       		.uleb128 0x2
 3612 0904 91       		.byte	0x91
 3613 0905 08       		.sleb128 8
 3614 0906 0D       		.uleb128 0xd
 3615 0907 1C000000 		.4byte	.LVL187
 3616 090b 1E070000 		.4byte	0x71e
 3617 090f 1A090000 		.4byte	0x91a
 3618 0913 0E       		.uleb128 0xe
 3619 0914 01       		.uleb128 0x1
 3620 0915 50       		.byte	0x50
 3621 0916 02       		.uleb128 0x2
 3622 0917 7A       		.byte	0x7a
 3623 0918 00       		.sleb128 0
 3624 0919 00       		.byte	0
 3625 091a 0F       		.uleb128 0xf
 3626 091b 42000000 		.4byte	.LVL188
 3627 091f 81050000 		.4byte	0x581
 3628 0923 0E       		.uleb128 0xe
 3629 0924 02       		.uleb128 0x2
 3630 0925 7D       		.byte	0x7d
 3631 0926 00       		.sleb128 0
 3632 0927 03       		.uleb128 0x3
 3633 0928 F5       		.byte	0xf5
 3634 0929 08       		.uleb128 0x8
 3635 092a 25       		.uleb128 0x25
 3636 092b 0E       		.uleb128 0xe
 3637 092c 02       		.uleb128 0x2
 3638 092d 7D       		.byte	0x7d
 3639 092e 08       		.sleb128 8
 3640 092f 02       		.uleb128 0x2
 3641 0930 7A       		.byte	0x7a
 3642 0931 00       		.sleb128 0
 3643 0932 00       		.byte	0
 3644 0933 00       		.byte	0
ARM GAS  C:\Users\cring\AppData\Local\Temp\ccsXHiuh.s 			page 77


 3645 0934 0B       		.uleb128 0xb
 3646 0935 3F030000 		.4byte	.LASF52
 3647 0939 01       		.byte	0x1
 3648 093a D4       		.byte	0xd4
 3649 093b 00000000 		.4byte	.LFB75
 3650 093f 4C000000 		.4byte	.LFE75-.LFB75
 3651 0943 01       		.uleb128 0x1
 3652 0944 9C       		.byte	0x9c
 3653 0945 BD090000 		.4byte	0x9bd
 3654 0949 0C       		.uleb128 0xc
 3655 094a 16020000 		.4byte	.LASF53
 3656 094e 01       		.byte	0x1
 3657 094f D4       		.byte	0xd4
 3658 0950 6F000000 		.4byte	0x6f
 3659 0954 8E070000 		.4byte	.LLST42
 3660 0958 09       		.uleb128 0x9
 3661 0959 683100   		.ascii	"h1\000"
 3662 095c 01       		.byte	0x1
 3663 095d D4       		.byte	0xd4
 3664 095e 25000000 		.4byte	0x25
 3665 0962 BE070000 		.4byte	.LLST43
 3666 0966 09       		.uleb128 0x9
 3667 0967 733100   		.ascii	"s1\000"
 3668 096a 01       		.byte	0x1
 3669 096b D4       		.byte	0xd4
 3670 096c 25000000 		.4byte	0x25
 3671 0970 E6070000 		.4byte	.LLST44
 3672 0974 09       		.uleb128 0x9
 3673 0975 763100   		.ascii	"v1\000"
 3674 0978 01       		.byte	0x1
 3675 0979 D4       		.byte	0xd4
 3676 097a 25000000 		.4byte	0x25
 3677 097e 06080000 		.4byte	.LLST45
 3678 0982 0C       		.uleb128 0xc
 3679 0983 78010000 		.4byte	.LASF35
 3680 0987 01       		.byte	0x1
 3681 0988 D4       		.byte	0xd4
 3682 0989 32030000 		.4byte	0x332
 3683 098d 26080000 		.4byte	.LLST46
 3684 0991 14       		.uleb128 0x14
 3685 0992 24000000 		.4byte	.LBB11
 3686 0996 20000000 		.4byte	.LBE11-.LBB11
 3687 099a AC090000 		.4byte	0x9ac
 3688 099e 10       		.uleb128 0x10
 3689 099f 6900     		.ascii	"i\000"
 3690 09a1 01       		.byte	0x1
 3691 09a2 DB       		.byte	0xdb
 3692 09a3 6F000000 		.4byte	0x6f
 3693 09a7 46080000 		.4byte	.LLST47
 3694 09ab 00       		.byte	0
 3695 09ac 0F       		.uleb128 0xf
 3696 09ad 1E000000 		.4byte	.LVL191
 3697 09b1 1E070000 		.4byte	0x71e
 3698 09b5 0E       		.uleb128 0xe
 3699 09b6 01       		.uleb128 0x1
 3700 09b7 50       		.byte	0x50
 3701 09b8 02       		.uleb128 0x2
ARM GAS  C:\Users\cring\AppData\Local\Temp\ccsXHiuh.s 			page 78


 3702 09b9 7A       		.byte	0x7a
 3703 09ba 00       		.sleb128 0
 3704 09bb 00       		.byte	0
 3705 09bc 00       		.byte	0
 3706 09bd 0B       		.uleb128 0xb
 3707 09be 47020000 		.4byte	.LASF54
 3708 09c2 01       		.byte	0x1
 3709 09c3 E3       		.byte	0xe3
 3710 09c4 00000000 		.4byte	.LFB76
 3711 09c8 44000000 		.4byte	.LFE76-.LFB76
 3712 09cc 01       		.uleb128 0x1
 3713 09cd 9C       		.byte	0x9c
 3714 09ce 350A0000 		.4byte	0xa35
 3715 09d2 09       		.uleb128 0x9
 3716 09d3 683100   		.ascii	"h1\000"
 3717 09d6 01       		.byte	0x1
 3718 09d7 E3       		.byte	0xe3
 3719 09d8 25000000 		.4byte	0x25
 3720 09dc 65080000 		.4byte	.LLST48
 3721 09e0 09       		.uleb128 0x9
 3722 09e1 733100   		.ascii	"s1\000"
 3723 09e4 01       		.byte	0x1
 3724 09e5 E3       		.byte	0xe3
 3725 09e6 25000000 		.4byte	0x25
 3726 09ea 8D080000 		.4byte	.LLST49
 3727 09ee 1D       		.uleb128 0x1d
 3728 09ef 763100   		.ascii	"v1\000"
 3729 09f2 01       		.byte	0x1
 3730 09f3 E3       		.byte	0xe3
 3731 09f4 25000000 		.4byte	0x25
 3732 09f8 02       		.uleb128 0x2
 3733 09f9 91       		.byte	0x91
 3734 09fa 00       		.sleb128 0
 3735 09fb 1E       		.uleb128 0x1e
 3736 09fc 78010000 		.4byte	.LASF35
 3737 0a00 01       		.byte	0x1
 3738 0a01 E3       		.byte	0xe3
 3739 0a02 32030000 		.4byte	0x332
 3740 0a06 02       		.uleb128 0x2
 3741 0a07 91       		.byte	0x91
 3742 0a08 08       		.sleb128 8
 3743 0a09 14       		.uleb128 0x14
 3744 0a0a 20000000 		.4byte	.LBB12
 3745 0a0e 20000000 		.4byte	.LBE12-.LBB12
 3746 0a12 240A0000 		.4byte	0xa24
 3747 0a16 10       		.uleb128 0x10
 3748 0a17 6900     		.ascii	"i\000"
 3749 0a19 01       		.byte	0x1
 3750 0a1a E8       		.byte	0xe8
 3751 0a1b 6F000000 		.4byte	0x6f
 3752 0a1f B5080000 		.4byte	.LLST50
 3753 0a23 00       		.byte	0
 3754 0a24 0F       		.uleb128 0xf
 3755 0a25 1A000000 		.4byte	.LVL198
 3756 0a29 1E070000 		.4byte	0x71e
 3757 0a2d 0E       		.uleb128 0xe
 3758 0a2e 01       		.uleb128 0x1
ARM GAS  C:\Users\cring\AppData\Local\Temp\ccsXHiuh.s 			page 79


 3759 0a2f 50       		.byte	0x50
 3760 0a30 02       		.uleb128 0x2
 3761 0a31 7A       		.byte	0x7a
 3762 0a32 00       		.sleb128 0
 3763 0a33 00       		.byte	0
 3764 0a34 00       		.byte	0
 3765 0a35 12       		.uleb128 0x12
 3766 0a36 C4020000 		.4byte	.LASF55
 3767 0a3a 01       		.byte	0x1
 3768 0a3b 9A01     		.2byte	0x19a
 3769 0a3d 00000000 		.4byte	.LFB81
 3770 0a41 38000000 		.4byte	.LFE81-.LFB81
 3771 0a45 01       		.uleb128 0x1
 3772 0a46 9C       		.byte	0x9c
 3773 0a47 870A0000 		.4byte	0xa87
 3774 0a4b 13       		.uleb128 0x13
 3775 0a4c 78010000 		.4byte	.LASF35
 3776 0a50 01       		.byte	0x1
 3777 0a51 9A01     		.2byte	0x19a
 3778 0a53 32030000 		.4byte	0x332
 3779 0a57 D4080000 		.4byte	.LLST51
 3780 0a5b 0F       		.uleb128 0xf
 3781 0a5c 22000000 		.4byte	.LVL204
 3782 0a60 34090000 		.4byte	0x934
 3783 0a64 0E       		.uleb128 0xe
 3784 0a65 01       		.uleb128 0x1
 3785 0a66 50       		.byte	0x50
 3786 0a67 01       		.uleb128 0x1
 3787 0a68 33       		.byte	0x33
 3788 0a69 0E       		.uleb128 0xe
 3789 0a6a 06       		.uleb128 0x6
 3790 0a6b 52       		.byte	0x52
 3791 0a6c 93       		.byte	0x93
 3792 0a6d 04       		.uleb128 0x4
 3793 0a6e 53       		.byte	0x53
 3794 0a6f 93       		.byte	0x93
 3795 0a70 04       		.uleb128 0x4
 3796 0a71 0B       		.uleb128 0xb
 3797 0a72 F4       		.byte	0xf4
 3798 0a73 25       		.uleb128 0x25
 3799 0a74 08       		.byte	0x8
 3800 0a75 00000000 		.4byte	0
 3801 0a79 00E06740 		.4byte	0x4067e000
 3802 0a7d 0E       		.uleb128 0xe
 3803 0a7e 02       		.uleb128 0x2
 3804 0a7f 7D       		.byte	0x7d
 3805 0a80 10       		.sleb128 16
 3806 0a81 03       		.uleb128 0x3
 3807 0a82 F3       		.byte	0xf3
 3808 0a83 01       		.uleb128 0x1
 3809 0a84 50       		.byte	0x50
 3810 0a85 00       		.byte	0
 3811 0a86 00       		.byte	0
 3812 0a87 12       		.uleb128 0x12
 3813 0a88 CD040000 		.4byte	.LASF56
 3814 0a8c 01       		.byte	0x1
 3815 0a8d 9F01     		.2byte	0x19f
ARM GAS  C:\Users\cring\AppData\Local\Temp\ccsXHiuh.s 			page 80


 3816 0a8f 00000000 		.4byte	.LFB82
 3817 0a93 3C000000 		.4byte	.LFE82-.LFB82
 3818 0a97 01       		.uleb128 0x1
 3819 0a98 9C       		.byte	0x9c
 3820 0a99 E40A0000 		.4byte	0xae4
 3821 0a9d 13       		.uleb128 0x13
 3822 0a9e 78010000 		.4byte	.LASF35
 3823 0aa2 01       		.byte	0x1
 3824 0aa3 9F01     		.2byte	0x19f
 3825 0aa5 32030000 		.4byte	0x332
 3826 0aa9 01090000 		.4byte	.LLST52
 3827 0aad 0F       		.uleb128 0xf
 3828 0aae 1E000000 		.4byte	.LVL207
 3829 0ab2 BA080000 		.4byte	0x8ba
 3830 0ab6 0E       		.uleb128 0xe
 3831 0ab7 06       		.uleb128 0x6
 3832 0ab8 50       		.byte	0x50
 3833 0ab9 93       		.byte	0x93
 3834 0aba 04       		.uleb128 0x4
 3835 0abb 51       		.byte	0x51
 3836 0abc 93       		.byte	0x93
 3837 0abd 04       		.uleb128 0x4
 3838 0abe 0B       		.uleb128 0xb
 3839 0abf F4       		.byte	0xf4
 3840 0ac0 25       		.uleb128 0x25
 3841 0ac1 08       		.byte	0x8
 3842 0ac2 00000000 		.4byte	0
 3843 0ac6 00307340 		.4byte	0x40733000
 3844 0aca 0E       		.uleb128 0xe
 3845 0acb 02       		.uleb128 0x2
 3846 0acc 7D       		.byte	0x7d
 3847 0acd 00       		.sleb128 0
 3848 0ace 0B       		.uleb128 0xb
 3849 0acf F4       		.byte	0xf4
 3850 0ad0 25       		.uleb128 0x25
 3851 0ad1 08       		.byte	0x8
 3852 0ad2 33333333 		.4byte	0x33333333
 3853 0ad6 3333EB3F 		.4byte	0x3feb3333
 3854 0ada 0E       		.uleb128 0xe
 3855 0adb 02       		.uleb128 0x2
 3856 0adc 7D       		.byte	0x7d
 3857 0add 08       		.sleb128 8
 3858 0ade 03       		.uleb128 0x3
 3859 0adf F3       		.byte	0xf3
 3860 0ae0 01       		.uleb128 0x1
 3861 0ae1 50       		.byte	0x50
 3862 0ae2 00       		.byte	0
 3863 0ae3 00       		.byte	0
 3864 0ae4 12       		.uleb128 0x12
 3865 0ae5 CF020000 		.4byte	.LASF57
 3866 0ae9 01       		.byte	0x1
 3867 0aea A401     		.2byte	0x1a4
 3868 0aec 00000000 		.4byte	.LFB83
 3869 0af0 38000000 		.4byte	.LFE83-.LFB83
 3870 0af4 01       		.uleb128 0x1
 3871 0af5 9C       		.byte	0x9c
 3872 0af6 400B0000 		.4byte	0xb40
ARM GAS  C:\Users\cring\AppData\Local\Temp\ccsXHiuh.s 			page 81


 3873 0afa 13       		.uleb128 0x13
 3874 0afb 78010000 		.4byte	.LASF35
 3875 0aff 01       		.byte	0x1
 3876 0b00 A401     		.2byte	0x1a4
 3877 0b02 32030000 		.4byte	0x332
 3878 0b06 2E090000 		.4byte	.LLST53
 3879 0b0a 0D       		.uleb128 0xd
 3880 0b0b 0A000000 		.4byte	.LVL209
 3881 0b0f 1E070000 		.4byte	0x71e
 3882 0b13 1E0B0000 		.4byte	0xb1e
 3883 0b17 0E       		.uleb128 0xe
 3884 0b18 01       		.uleb128 0x1
 3885 0b19 50       		.byte	0x50
 3886 0b1a 02       		.uleb128 0x2
 3887 0b1b 74       		.byte	0x74
 3888 0b1c 00       		.sleb128 0
 3889 0b1d 00       		.byte	0
 3890 0b1e 0F       		.uleb128 0xf
 3891 0b1f 22000000 		.4byte	.LVL210
 3892 0b23 81050000 		.4byte	0x581
 3893 0b27 0E       		.uleb128 0xe
 3894 0b28 02       		.uleb128 0x2
 3895 0b29 7D       		.byte	0x7d
 3896 0b2a 00       		.sleb128 0
 3897 0b2b 0B       		.uleb128 0xb
 3898 0b2c F4       		.byte	0xf4
 3899 0b2d 25       		.uleb128 0x25
 3900 0b2e 08       		.byte	0x8
 3901 0b2f 8FC2F528 		.4byte	0x28f5c28f
 3902 0b33 5C8FEA3F 		.4byte	0x3fea8f5c
 3903 0b37 0E       		.uleb128 0xe
 3904 0b38 02       		.uleb128 0x2
 3905 0b39 7D       		.byte	0x7d
 3906 0b3a 08       		.sleb128 8
 3907 0b3b 02       		.uleb128 0x2
 3908 0b3c 74       		.byte	0x74
 3909 0b3d 00       		.sleb128 0
 3910 0b3e 00       		.byte	0
 3911 0b3f 00       		.byte	0
 3912 0b40 12       		.uleb128 0x12
 3913 0b41 BC010000 		.4byte	.LASF58
 3914 0b45 01       		.byte	0x1
 3915 0b46 AB01     		.2byte	0x1ab
 3916 0b48 00000000 		.4byte	.LFB84
 3917 0b4c 24000000 		.4byte	.LFE84-.LFB84
 3918 0b50 01       		.uleb128 0x1
 3919 0b51 9C       		.byte	0x9c
 3920 0b52 790B0000 		.4byte	0xb79
 3921 0b56 13       		.uleb128 0x13
 3922 0b57 78010000 		.4byte	.LASF35
 3923 0b5b 01       		.byte	0x1
 3924 0b5c AB01     		.2byte	0x1ab
 3925 0b5e 32030000 		.4byte	0x332
 3926 0b62 5A090000 		.4byte	.LLST54
 3927 0b66 0F       		.uleb128 0xf
 3928 0b67 16000000 		.4byte	.LVL214
 3929 0b6b BA080000 		.4byte	0x8ba
ARM GAS  C:\Users\cring\AppData\Local\Temp\ccsXHiuh.s 			page 82


 3930 0b6f 0E       		.uleb128 0xe
 3931 0b70 02       		.uleb128 0x2
 3932 0b71 7D       		.byte	0x7d
 3933 0b72 08       		.sleb128 8
 3934 0b73 03       		.uleb128 0x3
 3935 0b74 F3       		.byte	0xf3
 3936 0b75 01       		.uleb128 0x1
 3937 0b76 50       		.byte	0x50
 3938 0b77 00       		.byte	0
 3939 0b78 00       		.byte	0
 3940 0b79 12       		.uleb128 0x12
 3941 0b7a 36040000 		.4byte	.LASF59
 3942 0b7e 01       		.byte	0x1
 3943 0b7f B001     		.2byte	0x1b0
 3944 0b81 00000000 		.4byte	.LFB85
 3945 0b85 2C000000 		.4byte	.LFE85-.LFB85
 3946 0b89 01       		.uleb128 0x1
 3947 0b8a 9C       		.byte	0x9c
 3948 0b8b B70B0000 		.4byte	0xbb7
 3949 0b8f 13       		.uleb128 0x13
 3950 0b90 78010000 		.4byte	.LASF35
 3951 0b94 01       		.byte	0x1
 3952 0b95 B001     		.2byte	0x1b0
 3953 0b97 32030000 		.4byte	0x332
 3954 0b9b 87090000 		.4byte	.LLST55
 3955 0b9f 0F       		.uleb128 0xf
 3956 0ba0 1C000000 		.4byte	.LVL217
 3957 0ba4 34090000 		.4byte	0x934
 3958 0ba8 0E       		.uleb128 0xe
 3959 0ba9 01       		.uleb128 0x1
 3960 0baa 50       		.byte	0x50
 3961 0bab 01       		.uleb128 0x1
 3962 0bac 33       		.byte	0x33
 3963 0bad 0E       		.uleb128 0xe
 3964 0bae 02       		.uleb128 0x2
 3965 0baf 7D       		.byte	0x7d
 3966 0bb0 10       		.sleb128 16
 3967 0bb1 03       		.uleb128 0x3
 3968 0bb2 F3       		.byte	0xf3
 3969 0bb3 01       		.uleb128 0x1
 3970 0bb4 50       		.byte	0x50
 3971 0bb5 00       		.byte	0
 3972 0bb6 00       		.byte	0
 3973 0bb7 12       		.uleb128 0x12
 3974 0bb8 AC000000 		.4byte	.LASF60
 3975 0bbc 01       		.byte	0x1
 3976 0bbd B501     		.2byte	0x1b5
 3977 0bbf 00000000 		.4byte	.LFB86
 3978 0bc3 28000000 		.4byte	.LFE86-.LFB86
 3979 0bc7 01       		.uleb128 0x1
 3980 0bc8 9C       		.byte	0x9c
 3981 0bc9 030C0000 		.4byte	0xc03
 3982 0bcd 13       		.uleb128 0x13
 3983 0bce 78010000 		.4byte	.LASF35
 3984 0bd2 01       		.byte	0x1
 3985 0bd3 B501     		.2byte	0x1b5
 3986 0bd5 32030000 		.4byte	0x332
ARM GAS  C:\Users\cring\AppData\Local\Temp\ccsXHiuh.s 			page 83


 3987 0bd9 B4090000 		.4byte	.LLST56
 3988 0bdd 0D       		.uleb128 0xd
 3989 0bde 0A000000 		.4byte	.LVL219
 3990 0be2 1E070000 		.4byte	0x71e
 3991 0be6 F10B0000 		.4byte	0xbf1
 3992 0bea 0E       		.uleb128 0xe
 3993 0beb 01       		.uleb128 0x1
 3994 0bec 50       		.byte	0x50
 3995 0bed 02       		.uleb128 0x2
 3996 0bee 74       		.byte	0x74
 3997 0bef 00       		.sleb128 0
 3998 0bf0 00       		.byte	0
 3999 0bf1 0F       		.uleb128 0xf
 4000 0bf2 1C000000 		.4byte	.LVL220
 4001 0bf6 81050000 		.4byte	0x581
 4002 0bfa 0E       		.uleb128 0xe
 4003 0bfb 02       		.uleb128 0x2
 4004 0bfc 7D       		.byte	0x7d
 4005 0bfd 08       		.sleb128 8
 4006 0bfe 02       		.uleb128 0x2
 4007 0bff 74       		.byte	0x74
 4008 0c00 00       		.sleb128 0
 4009 0c01 00       		.byte	0
 4010 0c02 00       		.byte	0
 4011 0c03 20       		.uleb128 0x20
 4012 0c04 D8020000 		.4byte	.LASF103
 4013 0c08 01       		.byte	0x1
 4014 0c09 BB01     		.2byte	0x1bb
 4015 0c0b 6F000000 		.4byte	0x6f
 4016 0c0f 00000000 		.4byte	.LFB87
 4017 0c13 44010000 		.4byte	.LFE87-.LFB87
 4018 0c17 01       		.uleb128 0x1
 4019 0c18 9C       		.byte	0x9c
 4020 0c19 680D0000 		.4byte	0xd68
 4021 0c1d 13       		.uleb128 0x13
 4022 0c1e 9A000000 		.4byte	.LASF61
 4023 0c22 01       		.byte	0x1
 4024 0c23 BB01     		.2byte	0x1bb
 4025 0c25 32030000 		.4byte	0x332
 4026 0c29 E0090000 		.4byte	.LLST57
 4027 0c2d 13       		.uleb128 0x13
 4028 0c2e A3000000 		.4byte	.LASF62
 4029 0c32 01       		.byte	0x1
 4030 0c33 BB01     		.2byte	0x1bb
 4031 0c35 32030000 		.4byte	0x332
 4032 0c39 890A0000 		.4byte	.LLST58
 4033 0c3d 0A       		.uleb128 0xa
 4034 0c3e 22000000 		.4byte	.LVL223
 4035 0c42 1E070000 		.4byte	0x71e
 4036 0c46 0D       		.uleb128 0xd
 4037 0c47 28000000 		.4byte	.LVL224
 4038 0c4b 1E070000 		.4byte	0x71e
 4039 0c4f 5A0C0000 		.4byte	0xc5a
 4040 0c53 0E       		.uleb128 0xe
 4041 0c54 01       		.uleb128 0x1
 4042 0c55 50       		.byte	0x50
 4043 0c56 02       		.uleb128 0x2
ARM GAS  C:\Users\cring\AppData\Local\Temp\ccsXHiuh.s 			page 84


 4044 0c57 7A       		.byte	0x7a
 4045 0c58 00       		.sleb128 0
 4046 0c59 00       		.byte	0
 4047 0c5a 0A       		.uleb128 0xa
 4048 0c5b 2C000000 		.4byte	.LVL225
 4049 0c5f 9D0F0000 		.4byte	0xf9d
 4050 0c63 0A       		.uleb128 0xa
 4051 0c64 30000000 		.4byte	.LVL226
 4052 0c68 A80F0000 		.4byte	0xfa8
 4053 0c6c 0D       		.uleb128 0xd
 4054 0c6d 54000000 		.4byte	.LVL228
 4055 0c71 81050000 		.4byte	0x581
 4056 0c75 8A0C0000 		.4byte	0xc8a
 4057 0c79 0E       		.uleb128 0xe
 4058 0c7a 02       		.uleb128 0x2
 4059 0c7b 7D       		.byte	0x7d
 4060 0c7c 00       		.sleb128 0
 4061 0c7d 03       		.uleb128 0x3
 4062 0c7e F5       		.byte	0xf5
 4063 0c7f 08       		.uleb128 0x8
 4064 0c80 25       		.uleb128 0x25
 4065 0c81 0E       		.uleb128 0xe
 4066 0c82 02       		.uleb128 0x2
 4067 0c83 7D       		.byte	0x7d
 4068 0c84 08       		.sleb128 8
 4069 0c85 03       		.uleb128 0x3
 4070 0c86 F3       		.byte	0xf3
 4071 0c87 01       		.uleb128 0x1
 4072 0c88 50       		.byte	0x50
 4073 0c89 00       		.byte	0
 4074 0c8a 0D       		.uleb128 0xd
 4075 0c8b 68000000 		.4byte	.LVL229
 4076 0c8f 81050000 		.4byte	0x581
 4077 0c93 A70C0000 		.4byte	0xca7
 4078 0c97 0E       		.uleb128 0xe
 4079 0c98 02       		.uleb128 0x2
 4080 0c99 7D       		.byte	0x7d
 4081 0c9a 00       		.sleb128 0
 4082 0c9b 03       		.uleb128 0x3
 4083 0c9c F5       		.byte	0xf5
 4084 0c9d 08       		.uleb128 0x8
 4085 0c9e 25       		.uleb128 0x25
 4086 0c9f 0E       		.uleb128 0xe
 4087 0ca0 02       		.uleb128 0x2
 4088 0ca1 7D       		.byte	0x7d
 4089 0ca2 08       		.sleb128 8
 4090 0ca3 02       		.uleb128 0x2
 4091 0ca4 7A       		.byte	0x7a
 4092 0ca5 00       		.sleb128 0
 4093 0ca6 00       		.byte	0
 4094 0ca7 0D       		.uleb128 0xd
 4095 0ca8 86000000 		.4byte	.LVL233
 4096 0cac 81050000 		.4byte	0x581
 4097 0cb0 C40C0000 		.4byte	0xcc4
 4098 0cb4 0E       		.uleb128 0xe
 4099 0cb5 02       		.uleb128 0x2
 4100 0cb6 7D       		.byte	0x7d
ARM GAS  C:\Users\cring\AppData\Local\Temp\ccsXHiuh.s 			page 85


 4101 0cb7 00       		.sleb128 0
 4102 0cb8 03       		.uleb128 0x3
 4103 0cb9 F5       		.byte	0xf5
 4104 0cba 04       		.uleb128 0x4
 4105 0cbb 25       		.uleb128 0x25
 4106 0cbc 0E       		.uleb128 0xe
 4107 0cbd 02       		.uleb128 0x2
 4108 0cbe 7D       		.byte	0x7d
 4109 0cbf 08       		.sleb128 8
 4110 0cc0 02       		.uleb128 0x2
 4111 0cc1 78       		.byte	0x78
 4112 0cc2 00       		.sleb128 0
 4113 0cc3 00       		.byte	0
 4114 0cc4 0D       		.uleb128 0xd
 4115 0cc5 9A000000 		.4byte	.LVL234
 4116 0cc9 81050000 		.4byte	0x581
 4117 0ccd E10C0000 		.4byte	0xce1
 4118 0cd1 0E       		.uleb128 0xe
 4119 0cd2 02       		.uleb128 0x2
 4120 0cd3 7D       		.byte	0x7d
 4121 0cd4 00       		.sleb128 0
 4122 0cd5 03       		.uleb128 0x3
 4123 0cd6 F5       		.byte	0xf5
 4124 0cd7 04       		.uleb128 0x4
 4125 0cd8 25       		.uleb128 0x25
 4126 0cd9 0E       		.uleb128 0xe
 4127 0cda 02       		.uleb128 0x2
 4128 0cdb 7D       		.byte	0x7d
 4129 0cdc 08       		.sleb128 8
 4130 0cdd 02       		.uleb128 0x2
 4131 0cde 7A       		.byte	0x7a
 4132 0cdf 00       		.sleb128 0
 4133 0ce0 00       		.byte	0
 4134 0ce1 0D       		.uleb128 0xd
 4135 0ce2 B8000000 		.4byte	.LVL238
 4136 0ce6 81050000 		.4byte	0x581
 4137 0cea FE0C0000 		.4byte	0xcfe
 4138 0cee 0E       		.uleb128 0xe
 4139 0cef 02       		.uleb128 0x2
 4140 0cf0 7D       		.byte	0x7d
 4141 0cf1 00       		.sleb128 0
 4142 0cf2 03       		.uleb128 0x3
 4143 0cf3 F5       		.byte	0xf5
 4144 0cf4 04       		.uleb128 0x4
 4145 0cf5 25       		.uleb128 0x25
 4146 0cf6 0E       		.uleb128 0xe
 4147 0cf7 02       		.uleb128 0x2
 4148 0cf8 7D       		.byte	0x7d
 4149 0cf9 08       		.sleb128 8
 4150 0cfa 02       		.uleb128 0x2
 4151 0cfb 78       		.byte	0x78
 4152 0cfc 00       		.sleb128 0
 4153 0cfd 00       		.byte	0
 4154 0cfe 0D       		.uleb128 0xd
 4155 0cff CC000000 		.4byte	.LVL239
 4156 0d03 81050000 		.4byte	0x581
 4157 0d07 1B0D0000 		.4byte	0xd1b
ARM GAS  C:\Users\cring\AppData\Local\Temp\ccsXHiuh.s 			page 86


 4158 0d0b 0E       		.uleb128 0xe
 4159 0d0c 02       		.uleb128 0x2
 4160 0d0d 7D       		.byte	0x7d
 4161 0d0e 00       		.sleb128 0
 4162 0d0f 03       		.uleb128 0x3
 4163 0d10 F5       		.byte	0xf5
 4164 0d11 04       		.uleb128 0x4
 4165 0d12 25       		.uleb128 0x25
 4166 0d13 0E       		.uleb128 0xe
 4167 0d14 02       		.uleb128 0x2
 4168 0d15 7D       		.byte	0x7d
 4169 0d16 08       		.sleb128 8
 4170 0d17 02       		.uleb128 0x2
 4171 0d18 7A       		.byte	0x7a
 4172 0d19 00       		.sleb128 0
 4173 0d1a 00       		.byte	0
 4174 0d1b 0D       		.uleb128 0xd
 4175 0d1c EA000000 		.4byte	.LVL243
 4176 0d20 81050000 		.4byte	0x581
 4177 0d24 380D0000 		.4byte	0xd38
 4178 0d28 0E       		.uleb128 0xe
 4179 0d29 02       		.uleb128 0x2
 4180 0d2a 7D       		.byte	0x7d
 4181 0d2b 00       		.sleb128 0
 4182 0d2c 03       		.uleb128 0x3
 4183 0d2d F5       		.byte	0xf5
 4184 0d2e 04       		.uleb128 0x4
 4185 0d2f 25       		.uleb128 0x25
 4186 0d30 0E       		.uleb128 0xe
 4187 0d31 02       		.uleb128 0x2
 4188 0d32 7D       		.byte	0x7d
 4189 0d33 08       		.sleb128 8
 4190 0d34 02       		.uleb128 0x2
 4191 0d35 78       		.byte	0x78
 4192 0d36 00       		.sleb128 0
 4193 0d37 00       		.byte	0
 4194 0d38 0D       		.uleb128 0xd
 4195 0d39 FE000000 		.4byte	.LVL244
 4196 0d3d 81050000 		.4byte	0x581
 4197 0d41 550D0000 		.4byte	0xd55
 4198 0d45 0E       		.uleb128 0xe
 4199 0d46 02       		.uleb128 0x2
 4200 0d47 7D       		.byte	0x7d
 4201 0d48 00       		.sleb128 0
 4202 0d49 03       		.uleb128 0x3
 4203 0d4a F5       		.byte	0xf5
 4204 0d4b 04       		.uleb128 0x4
 4205 0d4c 25       		.uleb128 0x25
 4206 0d4d 0E       		.uleb128 0xe
 4207 0d4e 02       		.uleb128 0x2
 4208 0d4f 7D       		.byte	0x7d
 4209 0d50 08       		.sleb128 8
 4210 0d51 02       		.uleb128 0x2
 4211 0d52 7A       		.byte	0x7a
 4212 0d53 00       		.sleb128 0
 4213 0d54 00       		.byte	0
 4214 0d55 0A       		.uleb128 0xa
ARM GAS  C:\Users\cring\AppData\Local\Temp\ccsXHiuh.s 			page 87


 4215 0d56 02010000 		.4byte	.LVL245
 4216 0d5a 2F0F0000 		.4byte	0xf2f
 4217 0d5e 0A       		.uleb128 0xa
 4218 0d5f 06010000 		.4byte	.LVL246
 4219 0d63 B30F0000 		.4byte	0xfb3
 4220 0d67 00       		.byte	0
 4221 0d68 0B       		.uleb128 0xb
 4222 0d69 66010000 		.4byte	.LASF63
 4223 0d6d 01       		.byte	0x1
 4224 0d6e 73       		.byte	0x73
 4225 0d6f 00000000 		.4byte	.LFB68
 4226 0d73 18000000 		.4byte	.LFE68-.LFB68
 4227 0d77 01       		.uleb128 0x1
 4228 0d78 9C       		.byte	0x9c
 4229 0d79 870D0000 		.4byte	0xd87
 4230 0d7d 0A       		.uleb128 0xa
 4231 0d7e 12000000 		.4byte	.LVL252
 4232 0d82 030C0000 		.4byte	0xc03
 4233 0d86 00       		.byte	0
 4234 0d87 12       		.uleb128 0x12
 4235 0d88 9E020000 		.4byte	.LASF64
 4236 0d8c 01       		.byte	0x1
 4237 0d8d F801     		.2byte	0x1f8
 4238 0d8f 00000000 		.4byte	.LFB88
 4239 0d93 38000000 		.4byte	.LFE88-.LFB88
 4240 0d97 01       		.uleb128 0x1
 4241 0d98 9C       		.byte	0x9c
 4242 0d99 D00D0000 		.4byte	0xdd0
 4243 0d9d 13       		.uleb128 0x13
 4244 0d9e 78010000 		.4byte	.LASF35
 4245 0da2 01       		.byte	0x1
 4246 0da3 F801     		.2byte	0x1f8
 4247 0da5 32030000 		.4byte	0x332
 4248 0da9 0D0B0000 		.4byte	.LLST59
 4249 0dad 0F       		.uleb128 0xf
 4250 0dae 1C000000 		.4byte	.LVL255
 4251 0db2 BD090000 		.4byte	0x9bd
 4252 0db6 0E       		.uleb128 0xe
 4253 0db7 02       		.uleb128 0x2
 4254 0db8 7D       		.byte	0x7d
 4255 0db9 00       		.sleb128 0
 4256 0dba 0B       		.uleb128 0xb
 4257 0dbb F4       		.byte	0xf4
 4258 0dbc 25       		.uleb128 0x25
 4259 0dbd 08       		.byte	0x8
 4260 0dbe 8FC2F528 		.4byte	0x28f5c28f
 4261 0dc2 5C8FEA3F 		.4byte	0x3fea8f5c
 4262 0dc6 0E       		.uleb128 0xe
 4263 0dc7 02       		.uleb128 0x2
 4264 0dc8 7D       		.byte	0x7d
 4265 0dc9 08       		.sleb128 8
 4266 0dca 03       		.uleb128 0x3
 4267 0dcb F3       		.byte	0xf3
 4268 0dcc 01       		.uleb128 0x1
 4269 0dcd 50       		.byte	0x50
 4270 0dce 00       		.byte	0
 4271 0dcf 00       		.byte	0
ARM GAS  C:\Users\cring\AppData\Local\Temp\ccsXHiuh.s 			page 88


 4272 0dd0 12       		.uleb128 0x12
 4273 0dd1 5E030000 		.4byte	.LASF65
 4274 0dd5 01       		.byte	0x1
 4275 0dd6 FD01     		.2byte	0x1fd
 4276 0dd8 00000000 		.4byte	.LFB89
 4277 0ddc 28000000 		.4byte	.LFE89-.LFB89
 4278 0de0 01       		.uleb128 0x1
 4279 0de1 9C       		.byte	0x9c
 4280 0de2 1C0E0000 		.4byte	0xe1c
 4281 0de6 13       		.uleb128 0x13
 4282 0de7 78010000 		.4byte	.LASF35
 4283 0deb 01       		.byte	0x1
 4284 0dec FD01     		.2byte	0x1fd
 4285 0dee 32030000 		.4byte	0x332
 4286 0df2 3A0B0000 		.4byte	.LLST60
 4287 0df6 0D       		.uleb128 0xd
 4288 0df7 0A000000 		.4byte	.LVL257
 4289 0dfb 1E070000 		.4byte	0x71e
 4290 0dff 0A0E0000 		.4byte	0xe0a
 4291 0e03 0E       		.uleb128 0xe
 4292 0e04 01       		.uleb128 0x1
 4293 0e05 50       		.byte	0x50
 4294 0e06 02       		.uleb128 0x2
 4295 0e07 74       		.byte	0x74
 4296 0e08 00       		.sleb128 0
 4297 0e09 00       		.byte	0
 4298 0e0a 0F       		.uleb128 0xf
 4299 0e0b 1C000000 		.4byte	.LVL258
 4300 0e0f 81050000 		.4byte	0x581
 4301 0e13 0E       		.uleb128 0xe
 4302 0e14 02       		.uleb128 0x2
 4303 0e15 7D       		.byte	0x7d
 4304 0e16 08       		.sleb128 8
 4305 0e17 02       		.uleb128 0x2
 4306 0e18 74       		.byte	0x74
 4307 0e19 00       		.sleb128 0
 4308 0e1a 00       		.byte	0
 4309 0e1b 00       		.byte	0
 4310 0e1c 21       		.uleb128 0x21
 4311 0e1d 50020000 		.4byte	.LASF66
 4312 0e21 01       		.byte	0x1
 4313 0e22 12       		.byte	0x12
 4314 0e23 6F000000 		.4byte	0x6f
 4315 0e27 05       		.uleb128 0x5
 4316 0e28 03       		.byte	0x3
 4317 0e29 14000000 		.4byte	pulselength_
 4318 0e2d 21       		.uleb128 0x21
 4319 0e2e 27040000 		.4byte	.LASF67
 4320 0e32 01       		.byte	0x1
 4321 0e33 13       		.byte	0x13
 4322 0e34 6F000000 		.4byte	0x6f
 4323 0e38 05       		.uleb128 0x5
 4324 0e39 03       		.byte	0x3
 4325 0e3a 10000000 		.4byte	index_
 4326 0e3e 21       		.uleb128 0x21
 4327 0e3f FC020000 		.4byte	.LASF68
 4328 0e43 01       		.byte	0x1
ARM GAS  C:\Users\cring\AppData\Local\Temp\ccsXHiuh.s 			page 89


 4329 0e44 14       		.byte	0x14
 4330 0e45 88000000 		.4byte	0x88
 4331 0e49 05       		.uleb128 0x5
 4332 0e4a 03       		.byte	0x3
 4333 0e4b 00000000 		.4byte	index2
 4334 0e4f 21       		.uleb128 0x21
 4335 0e50 5B010000 		.4byte	.LASF69
 4336 0e54 01       		.byte	0x1
 4337 0e55 15       		.byte	0x15
 4338 0e56 6F000000 		.4byte	0x6f
 4339 0e5a 05       		.uleb128 0x5
 4340 0e5b 03       		.byte	0x3
 4341 0e5c 08000000 		.4byte	count
 4342 0e60 21       		.uleb128 0x21
 4343 0e61 07050000 		.4byte	.LASF70
 4344 0e65 01       		.byte	0x1
 4345 0e66 16       		.byte	0x16
 4346 0e67 6F000000 		.4byte	0x6f
 4347 0e6b 05       		.uleb128 0x5
 4348 0e6c 03       		.byte	0x3
 4349 0e6d 18000000 		.4byte	count2
 4350 0e71 21       		.uleb128 0x21
 4351 0e72 0E050000 		.4byte	.LASF71
 4352 0e76 01       		.byte	0x1
 4353 0e77 17       		.byte	0x17
 4354 0e78 6F000000 		.4byte	0x6f
 4355 0e7c 05       		.uleb128 0x5
 4356 0e7d 03       		.byte	0x3
 4357 0e7e 0C000000 		.4byte	count3
 4358 0e82 22       		.uleb128 0x22
 4359 0e83 40000000 		.4byte	.LASF72
 4360 0e87 05       		.byte	0x5
 4361 0e88 1207     		.2byte	0x712
 4362 0e8a 8E0E0000 		.4byte	0xe8e
 4363 0e8e 23       		.uleb128 0x23
 4364 0e8f 7D000000 		.4byte	0x7d
 4365 0e93 24       		.uleb128 0x24
 4366 0e94 03030000 		.4byte	.LASF73
 4367 0e98 01       		.byte	0x1
 4368 0e99 19       		.byte	0x19
 4369 0e9a 32030000 		.4byte	0x332
 4370 0e9e 05       		.uleb128 0x5
 4371 0e9f 03       		.byte	0x3
 4372 0ea0 00000000 		.4byte	rgbLED1
 4373 0ea4 24       		.uleb128 0x24
 4374 0ea5 0B030000 		.4byte	.LASF74
 4375 0ea9 01       		.byte	0x1
 4376 0eaa 1A       		.byte	0x1a
 4377 0eab 32030000 		.4byte	0x332
 4378 0eaf 05       		.uleb128 0x5
 4379 0eb0 03       		.byte	0x3
 4380 0eb1 00000000 		.4byte	rgbLED2
 4381 0eb5 25       		.uleb128 0x25
 4382 0eb6 2A010000 		.4byte	.LASF75
 4383 0eba 2A010000 		.4byte	.LASF75
 4384 0ebe 06       		.byte	0x6
 4385 0ebf 68       		.byte	0x68
ARM GAS  C:\Users\cring\AppData\Local\Temp\ccsXHiuh.s 			page 90


 4386 0ec0 25       		.uleb128 0x25
 4387 0ec1 22020000 		.4byte	.LASF76
 4388 0ec5 22020000 		.4byte	.LASF76
 4389 0ec9 07       		.byte	0x7
 4390 0eca 68       		.byte	0x68
 4391 0ecb 25       		.uleb128 0x25
 4392 0ecc 00000000 		.4byte	.LASF77
 4393 0ed0 00000000 		.4byte	.LASF77
 4394 0ed4 08       		.byte	0x8
 4395 0ed5 68       		.byte	0x68
 4396 0ed6 25       		.uleb128 0x25
 4397 0ed7 5D020000 		.4byte	.LASF78
 4398 0edb 5D020000 		.4byte	.LASF78
 4399 0edf 09       		.byte	0x9
 4400 0ee0 68       		.byte	0x68
 4401 0ee1 25       		.uleb128 0x25
 4402 0ee2 8C010000 		.4byte	.LASF79
 4403 0ee6 8C010000 		.4byte	.LASF79
 4404 0eea 0A       		.byte	0xa
 4405 0eeb 88       		.byte	0x88
 4406 0eec 26       		.uleb128 0x26
 4407 0eed 11040000 		.4byte	.LASF80
 4408 0ef1 11040000 		.4byte	.LASF80
 4409 0ef5 0A       		.byte	0xa
 4410 0ef6 4B01     		.2byte	0x14b
 4411 0ef8 25       		.uleb128 0x25
 4412 0ef9 84040000 		.4byte	.LASF81
 4413 0efd 84040000 		.4byte	.LASF81
 4414 0f01 0B       		.byte	0xb
 4415 0f02 5E       		.byte	0x5e
 4416 0f03 25       		.uleb128 0x25
 4417 0f04 57040000 		.4byte	.LASF82
 4418 0f08 57040000 		.4byte	.LASF82
 4419 0f0c 0C       		.byte	0xc
 4420 0f0d 2F       		.byte	0x2f
 4421 0f0e 25       		.uleb128 0x25
 4422 0f0f EF040000 		.4byte	.LASF83
 4423 0f13 EF040000 		.4byte	.LASF83
 4424 0f17 06       		.byte	0x6
 4425 0f18 5B       		.byte	0x5b
 4426 0f19 25       		.uleb128 0x25
 4427 0f1a 97040000 		.4byte	.LASF84
 4428 0f1e 97040000 		.4byte	.LASF84
 4429 0f22 0D       		.byte	0xd
 4430 0f23 77       		.byte	0x77
 4431 0f24 25       		.uleb128 0x25
 4432 0f25 B7020000 		.4byte	.LASF85
 4433 0f29 B7020000 		.4byte	.LASF85
 4434 0f2d 06       		.byte	0x6
 4435 0f2e 5A       		.byte	0x5a
 4436 0f2f 25       		.uleb128 0x25
 4437 0f30 E1020000 		.4byte	.LASF86
 4438 0f34 E1020000 		.4byte	.LASF86
 4439 0f38 0E       		.byte	0xe
 4440 0f39 5B       		.byte	0x5b
 4441 0f3a 25       		.uleb128 0x25
 4442 0f3b 82020000 		.4byte	.LASF87
ARM GAS  C:\Users\cring\AppData\Local\Temp\ccsXHiuh.s 			page 91


 4443 0f3f 82020000 		.4byte	.LASF87
 4444 0f43 0F       		.byte	0xf
 4445 0f44 18       		.byte	0x18
 4446 0f45 25       		.uleb128 0x25
 4447 0f46 E2010000 		.4byte	.LASF88
 4448 0f4a E2010000 		.4byte	.LASF88
 4449 0f4e 10       		.byte	0x10
 4450 0f4f 18       		.byte	0x18
 4451 0f50 25       		.uleb128 0x25
 4452 0f51 13030000 		.4byte	.LASF89
 4453 0f55 13030000 		.4byte	.LASF89
 4454 0f59 11       		.byte	0x11
 4455 0f5a 18       		.byte	0x18
 4456 0f5b 25       		.uleb128 0x25
 4457 0f5c 6E030000 		.4byte	.LASF90
 4458 0f60 6E030000 		.4byte	.LASF90
 4459 0f64 12       		.byte	0x12
 4460 0f65 18       		.byte	0x18
 4461 0f66 25       		.uleb128 0x25
 4462 0f67 18010000 		.4byte	.LASF91
 4463 0f6b 18010000 		.4byte	.LASF91
 4464 0f6f 13       		.byte	0x13
 4465 0f70 18       		.byte	0x18
 4466 0f71 25       		.uleb128 0x25
 4467 0f72 27050000 		.4byte	.LASF92
 4468 0f76 27050000 		.4byte	.LASF92
 4469 0f7a 0B       		.byte	0xb
 4470 0f7b 4D       		.byte	0x4d
 4471 0f7c 25       		.uleb128 0x25
 4472 0f7d 33000000 		.4byte	.LASF93
 4473 0f81 33000000 		.4byte	.LASF93
 4474 0f85 07       		.byte	0x7
 4475 0f86 5A       		.byte	0x5a
 4476 0f87 25       		.uleb128 0x25
 4477 0f88 70020000 		.4byte	.LASF94
 4478 0f8c 70020000 		.4byte	.LASF94
 4479 0f90 08       		.byte	0x8
 4480 0f91 5A       		.byte	0x5a
 4481 0f92 25       		.uleb128 0x25
 4482 0f93 BE000000 		.4byte	.LASF95
 4483 0f97 BE000000 		.4byte	.LASF95
 4484 0f9b 09       		.byte	0x9
 4485 0f9c 5A       		.byte	0x5a
 4486 0f9d 25       		.uleb128 0x25
 4487 0f9e 47030000 		.4byte	.LASF96
 4488 0fa2 47030000 		.4byte	.LASF96
 4489 0fa6 0E       		.byte	0xe
 4490 0fa7 5A       		.byte	0x5a
 4491 0fa8 25       		.uleb128 0x25
 4492 0fa9 AB010000 		.4byte	.LASF97
 4493 0fad AB010000 		.4byte	.LASF97
 4494 0fb1 13       		.byte	0x13
 4495 0fb2 23       		.byte	0x23
 4496 0fb3 25       		.uleb128 0x25
 4497 0fb4 04020000 		.4byte	.LASF98
 4498 0fb8 04020000 		.4byte	.LASF98
 4499 0fbc 13       		.byte	0x13
ARM GAS  C:\Users\cring\AppData\Local\Temp\ccsXHiuh.s 			page 92


 4500 0fbd 25       		.byte	0x25
 4501 0fbe 00       		.byte	0
 4502              		.section	.debug_abbrev,"",%progbits
 4503              	.Ldebug_abbrev0:
 4504 0000 01       		.uleb128 0x1
 4505 0001 11       		.uleb128 0x11
 4506 0002 01       		.byte	0x1
 4507 0003 25       		.uleb128 0x25
 4508 0004 0E       		.uleb128 0xe
 4509 0005 13       		.uleb128 0x13
 4510 0006 0B       		.uleb128 0xb
 4511 0007 03       		.uleb128 0x3
 4512 0008 0E       		.uleb128 0xe
 4513 0009 1B       		.uleb128 0x1b
 4514 000a 0E       		.uleb128 0xe
 4515 000b 55       		.uleb128 0x55
 4516 000c 17       		.uleb128 0x17
 4517 000d 11       		.uleb128 0x11
 4518 000e 01       		.uleb128 0x1
 4519 000f 10       		.uleb128 0x10
 4520 0010 17       		.uleb128 0x17
 4521 0011 00       		.byte	0
 4522 0012 00       		.byte	0
 4523 0013 02       		.uleb128 0x2
 4524 0014 24       		.uleb128 0x24
 4525 0015 00       		.byte	0
 4526 0016 0B       		.uleb128 0xb
 4527 0017 0B       		.uleb128 0xb
 4528 0018 3E       		.uleb128 0x3e
 4529 0019 0B       		.uleb128 0xb
 4530 001a 03       		.uleb128 0x3
 4531 001b 0E       		.uleb128 0xe
 4532 001c 00       		.byte	0
 4533 001d 00       		.byte	0
 4534 001e 03       		.uleb128 0x3
 4535 001f 16       		.uleb128 0x16
 4536 0020 00       		.byte	0
 4537 0021 03       		.uleb128 0x3
 4538 0022 0E       		.uleb128 0xe
 4539 0023 3A       		.uleb128 0x3a
 4540 0024 0B       		.uleb128 0xb
 4541 0025 3B       		.uleb128 0x3b
 4542 0026 0B       		.uleb128 0xb
 4543 0027 49       		.uleb128 0x49
 4544 0028 13       		.uleb128 0x13
 4545 0029 00       		.byte	0
 4546 002a 00       		.byte	0
 4547 002b 04       		.uleb128 0x4
 4548 002c 24       		.uleb128 0x24
 4549 002d 00       		.byte	0
 4550 002e 0B       		.uleb128 0xb
 4551 002f 0B       		.uleb128 0xb
 4552 0030 3E       		.uleb128 0x3e
 4553 0031 0B       		.uleb128 0xb
 4554 0032 03       		.uleb128 0x3
 4555 0033 08       		.uleb128 0x8
 4556 0034 00       		.byte	0
ARM GAS  C:\Users\cring\AppData\Local\Temp\ccsXHiuh.s 			page 93


 4557 0035 00       		.byte	0
 4558 0036 05       		.uleb128 0x5
 4559 0037 13       		.uleb128 0x13
 4560 0038 01       		.byte	0x1
 4561 0039 03       		.uleb128 0x3
 4562 003a 0E       		.uleb128 0xe
 4563 003b 0B       		.uleb128 0xb
 4564 003c 0B       		.uleb128 0xb
 4565 003d 3A       		.uleb128 0x3a
 4566 003e 0B       		.uleb128 0xb
 4567 003f 3B       		.uleb128 0x3b
 4568 0040 0B       		.uleb128 0xb
 4569 0041 01       		.uleb128 0x1
 4570 0042 13       		.uleb128 0x13
 4571 0043 00       		.byte	0
 4572 0044 00       		.byte	0
 4573 0045 06       		.uleb128 0x6
 4574 0046 0D       		.uleb128 0xd
 4575 0047 00       		.byte	0
 4576 0048 03       		.uleb128 0x3
 4577 0049 08       		.uleb128 0x8
 4578 004a 3A       		.uleb128 0x3a
 4579 004b 0B       		.uleb128 0xb
 4580 004c 3B       		.uleb128 0x3b
 4581 004d 0B       		.uleb128 0xb
 4582 004e 49       		.uleb128 0x49
 4583 004f 13       		.uleb128 0x13
 4584 0050 38       		.uleb128 0x38
 4585 0051 0B       		.uleb128 0xb
 4586 0052 00       		.byte	0
 4587 0053 00       		.byte	0
 4588 0054 07       		.uleb128 0x7
 4589 0055 0D       		.uleb128 0xd
 4590 0056 00       		.byte	0
 4591 0057 03       		.uleb128 0x3
 4592 0058 0E       		.uleb128 0xe
 4593 0059 3A       		.uleb128 0x3a
 4594 005a 0B       		.uleb128 0xb
 4595 005b 3B       		.uleb128 0x3b
 4596 005c 0B       		.uleb128 0xb
 4597 005d 49       		.uleb128 0x49
 4598 005e 13       		.uleb128 0x13
 4599 005f 38       		.uleb128 0x38
 4600 0060 0B       		.uleb128 0xb
 4601 0061 00       		.byte	0
 4602 0062 00       		.byte	0
 4603 0063 08       		.uleb128 0x8
 4604 0064 2E       		.uleb128 0x2e
 4605 0065 01       		.byte	0x1
 4606 0066 3F       		.uleb128 0x3f
 4607 0067 19       		.uleb128 0x19
 4608 0068 03       		.uleb128 0x3
 4609 0069 0E       		.uleb128 0xe
 4610 006a 3A       		.uleb128 0x3a
 4611 006b 0B       		.uleb128 0xb
 4612 006c 3B       		.uleb128 0x3b
 4613 006d 0B       		.uleb128 0xb
ARM GAS  C:\Users\cring\AppData\Local\Temp\ccsXHiuh.s 			page 94


 4614 006e 27       		.uleb128 0x27
 4615 006f 19       		.uleb128 0x19
 4616 0070 11       		.uleb128 0x11
 4617 0071 01       		.uleb128 0x1
 4618 0072 12       		.uleb128 0x12
 4619 0073 06       		.uleb128 0x6
 4620 0074 40       		.uleb128 0x40
 4621 0075 18       		.uleb128 0x18
 4622 0076 9642     		.uleb128 0x2116
 4623 0078 19       		.uleb128 0x19
 4624 0079 01       		.uleb128 0x1
 4625 007a 13       		.uleb128 0x13
 4626 007b 00       		.byte	0
 4627 007c 00       		.byte	0
 4628 007d 09       		.uleb128 0x9
 4629 007e 05       		.uleb128 0x5
 4630 007f 00       		.byte	0
 4631 0080 03       		.uleb128 0x3
 4632 0081 08       		.uleb128 0x8
 4633 0082 3A       		.uleb128 0x3a
 4634 0083 0B       		.uleb128 0xb
 4635 0084 3B       		.uleb128 0x3b
 4636 0085 0B       		.uleb128 0xb
 4637 0086 49       		.uleb128 0x49
 4638 0087 13       		.uleb128 0x13
 4639 0088 02       		.uleb128 0x2
 4640 0089 17       		.uleb128 0x17
 4641 008a 00       		.byte	0
 4642 008b 00       		.byte	0
 4643 008c 0A       		.uleb128 0xa
 4644 008d 898201   		.uleb128 0x4109
 4645 0090 00       		.byte	0
 4646 0091 11       		.uleb128 0x11
 4647 0092 01       		.uleb128 0x1
 4648 0093 31       		.uleb128 0x31
 4649 0094 13       		.uleb128 0x13
 4650 0095 00       		.byte	0
 4651 0096 00       		.byte	0
 4652 0097 0B       		.uleb128 0xb
 4653 0098 2E       		.uleb128 0x2e
 4654 0099 01       		.byte	0x1
 4655 009a 3F       		.uleb128 0x3f
 4656 009b 19       		.uleb128 0x19
 4657 009c 03       		.uleb128 0x3
 4658 009d 0E       		.uleb128 0xe
 4659 009e 3A       		.uleb128 0x3a
 4660 009f 0B       		.uleb128 0xb
 4661 00a0 3B       		.uleb128 0x3b
 4662 00a1 0B       		.uleb128 0xb
 4663 00a2 27       		.uleb128 0x27
 4664 00a3 19       		.uleb128 0x19
 4665 00a4 11       		.uleb128 0x11
 4666 00a5 01       		.uleb128 0x1
 4667 00a6 12       		.uleb128 0x12
 4668 00a7 06       		.uleb128 0x6
 4669 00a8 40       		.uleb128 0x40
 4670 00a9 18       		.uleb128 0x18
ARM GAS  C:\Users\cring\AppData\Local\Temp\ccsXHiuh.s 			page 95


 4671 00aa 9742     		.uleb128 0x2117
 4672 00ac 19       		.uleb128 0x19
 4673 00ad 01       		.uleb128 0x1
 4674 00ae 13       		.uleb128 0x13
 4675 00af 00       		.byte	0
 4676 00b0 00       		.byte	0
 4677 00b1 0C       		.uleb128 0xc
 4678 00b2 05       		.uleb128 0x5
 4679 00b3 00       		.byte	0
 4680 00b4 03       		.uleb128 0x3
 4681 00b5 0E       		.uleb128 0xe
 4682 00b6 3A       		.uleb128 0x3a
 4683 00b7 0B       		.uleb128 0xb
 4684 00b8 3B       		.uleb128 0x3b
 4685 00b9 0B       		.uleb128 0xb
 4686 00ba 49       		.uleb128 0x49
 4687 00bb 13       		.uleb128 0x13
 4688 00bc 02       		.uleb128 0x2
 4689 00bd 17       		.uleb128 0x17
 4690 00be 00       		.byte	0
 4691 00bf 00       		.byte	0
 4692 00c0 0D       		.uleb128 0xd
 4693 00c1 898201   		.uleb128 0x4109
 4694 00c4 01       		.byte	0x1
 4695 00c5 11       		.uleb128 0x11
 4696 00c6 01       		.uleb128 0x1
 4697 00c7 31       		.uleb128 0x31
 4698 00c8 13       		.uleb128 0x13
 4699 00c9 01       		.uleb128 0x1
 4700 00ca 13       		.uleb128 0x13
 4701 00cb 00       		.byte	0
 4702 00cc 00       		.byte	0
 4703 00cd 0E       		.uleb128 0xe
 4704 00ce 8A8201   		.uleb128 0x410a
 4705 00d1 00       		.byte	0
 4706 00d2 02       		.uleb128 0x2
 4707 00d3 18       		.uleb128 0x18
 4708 00d4 9142     		.uleb128 0x2111
 4709 00d6 18       		.uleb128 0x18
 4710 00d7 00       		.byte	0
 4711 00d8 00       		.byte	0
 4712 00d9 0F       		.uleb128 0xf
 4713 00da 898201   		.uleb128 0x4109
 4714 00dd 01       		.byte	0x1
 4715 00de 11       		.uleb128 0x11
 4716 00df 01       		.uleb128 0x1
 4717 00e0 31       		.uleb128 0x31
 4718 00e1 13       		.uleb128 0x13
 4719 00e2 00       		.byte	0
 4720 00e3 00       		.byte	0
 4721 00e4 10       		.uleb128 0x10
 4722 00e5 34       		.uleb128 0x34
 4723 00e6 00       		.byte	0
 4724 00e7 03       		.uleb128 0x3
 4725 00e8 08       		.uleb128 0x8
 4726 00e9 3A       		.uleb128 0x3a
 4727 00ea 0B       		.uleb128 0xb
ARM GAS  C:\Users\cring\AppData\Local\Temp\ccsXHiuh.s 			page 96


 4728 00eb 3B       		.uleb128 0x3b
 4729 00ec 0B       		.uleb128 0xb
 4730 00ed 49       		.uleb128 0x49
 4731 00ee 13       		.uleb128 0x13
 4732 00ef 02       		.uleb128 0x2
 4733 00f0 17       		.uleb128 0x17
 4734 00f1 00       		.byte	0
 4735 00f2 00       		.byte	0
 4736 00f3 11       		.uleb128 0x11
 4737 00f4 0F       		.uleb128 0xf
 4738 00f5 00       		.byte	0
 4739 00f6 0B       		.uleb128 0xb
 4740 00f7 0B       		.uleb128 0xb
 4741 00f8 49       		.uleb128 0x49
 4742 00f9 13       		.uleb128 0x13
 4743 00fa 00       		.byte	0
 4744 00fb 00       		.byte	0
 4745 00fc 12       		.uleb128 0x12
 4746 00fd 2E       		.uleb128 0x2e
 4747 00fe 01       		.byte	0x1
 4748 00ff 3F       		.uleb128 0x3f
 4749 0100 19       		.uleb128 0x19
 4750 0101 03       		.uleb128 0x3
 4751 0102 0E       		.uleb128 0xe
 4752 0103 3A       		.uleb128 0x3a
 4753 0104 0B       		.uleb128 0xb
 4754 0105 3B       		.uleb128 0x3b
 4755 0106 05       		.uleb128 0x5
 4756 0107 27       		.uleb128 0x27
 4757 0108 19       		.uleb128 0x19
 4758 0109 11       		.uleb128 0x11
 4759 010a 01       		.uleb128 0x1
 4760 010b 12       		.uleb128 0x12
 4761 010c 06       		.uleb128 0x6
 4762 010d 40       		.uleb128 0x40
 4763 010e 18       		.uleb128 0x18
 4764 010f 9742     		.uleb128 0x2117
 4765 0111 19       		.uleb128 0x19
 4766 0112 01       		.uleb128 0x1
 4767 0113 13       		.uleb128 0x13
 4768 0114 00       		.byte	0
 4769 0115 00       		.byte	0
 4770 0116 13       		.uleb128 0x13
 4771 0117 05       		.uleb128 0x5
 4772 0118 00       		.byte	0
 4773 0119 03       		.uleb128 0x3
 4774 011a 0E       		.uleb128 0xe
 4775 011b 3A       		.uleb128 0x3a
 4776 011c 0B       		.uleb128 0xb
 4777 011d 3B       		.uleb128 0x3b
 4778 011e 05       		.uleb128 0x5
 4779 011f 49       		.uleb128 0x49
 4780 0120 13       		.uleb128 0x13
 4781 0121 02       		.uleb128 0x2
 4782 0122 17       		.uleb128 0x17
 4783 0123 00       		.byte	0
 4784 0124 00       		.byte	0
ARM GAS  C:\Users\cring\AppData\Local\Temp\ccsXHiuh.s 			page 97


 4785 0125 14       		.uleb128 0x14
 4786 0126 0B       		.uleb128 0xb
 4787 0127 01       		.byte	0x1
 4788 0128 11       		.uleb128 0x11
 4789 0129 01       		.uleb128 0x1
 4790 012a 12       		.uleb128 0x12
 4791 012b 06       		.uleb128 0x6
 4792 012c 01       		.uleb128 0x1
 4793 012d 13       		.uleb128 0x13
 4794 012e 00       		.byte	0
 4795 012f 00       		.byte	0
 4796 0130 15       		.uleb128 0x15
 4797 0131 34       		.uleb128 0x34
 4798 0132 00       		.byte	0
 4799 0133 03       		.uleb128 0x3
 4800 0134 08       		.uleb128 0x8
 4801 0135 3A       		.uleb128 0x3a
 4802 0136 0B       		.uleb128 0xb
 4803 0137 3B       		.uleb128 0x3b
 4804 0138 05       		.uleb128 0x5
 4805 0139 49       		.uleb128 0x49
 4806 013a 13       		.uleb128 0x13
 4807 013b 02       		.uleb128 0x2
 4808 013c 17       		.uleb128 0x17
 4809 013d 00       		.byte	0
 4810 013e 00       		.byte	0
 4811 013f 16       		.uleb128 0x16
 4812 0140 05       		.uleb128 0x5
 4813 0141 00       		.byte	0
 4814 0142 03       		.uleb128 0x3
 4815 0143 08       		.uleb128 0x8
 4816 0144 3A       		.uleb128 0x3a
 4817 0145 0B       		.uleb128 0xb
 4818 0146 3B       		.uleb128 0x3b
 4819 0147 05       		.uleb128 0x5
 4820 0148 49       		.uleb128 0x49
 4821 0149 13       		.uleb128 0x13
 4822 014a 02       		.uleb128 0x2
 4823 014b 17       		.uleb128 0x17
 4824 014c 00       		.byte	0
 4825 014d 00       		.byte	0
 4826 014e 17       		.uleb128 0x17
 4827 014f 05       		.uleb128 0x5
 4828 0150 00       		.byte	0
 4829 0151 03       		.uleb128 0x3
 4830 0152 08       		.uleb128 0x8
 4831 0153 3A       		.uleb128 0x3a
 4832 0154 0B       		.uleb128 0xb
 4833 0155 3B       		.uleb128 0x3b
 4834 0156 05       		.uleb128 0x5
 4835 0157 49       		.uleb128 0x49
 4836 0158 13       		.uleb128 0x13
 4837 0159 02       		.uleb128 0x2
 4838 015a 18       		.uleb128 0x18
 4839 015b 00       		.byte	0
 4840 015c 00       		.byte	0
 4841 015d 18       		.uleb128 0x18
ARM GAS  C:\Users\cring\AppData\Local\Temp\ccsXHiuh.s 			page 98


 4842 015e 05       		.uleb128 0x5
 4843 015f 00       		.byte	0
 4844 0160 03       		.uleb128 0x3
 4845 0161 0E       		.uleb128 0xe
 4846 0162 3A       		.uleb128 0x3a
 4847 0163 0B       		.uleb128 0xb
 4848 0164 3B       		.uleb128 0x3b
 4849 0165 05       		.uleb128 0x5
 4850 0166 49       		.uleb128 0x49
 4851 0167 13       		.uleb128 0x13
 4852 0168 02       		.uleb128 0x2
 4853 0169 18       		.uleb128 0x18
 4854 016a 00       		.byte	0
 4855 016b 00       		.byte	0
 4856 016c 19       		.uleb128 0x19
 4857 016d 34       		.uleb128 0x34
 4858 016e 00       		.byte	0
 4859 016f 03       		.uleb128 0x3
 4860 0170 0E       		.uleb128 0xe
 4861 0171 3A       		.uleb128 0x3a
 4862 0172 0B       		.uleb128 0xb
 4863 0173 3B       		.uleb128 0x3b
 4864 0174 05       		.uleb128 0x5
 4865 0175 49       		.uleb128 0x49
 4866 0176 13       		.uleb128 0x13
 4867 0177 02       		.uleb128 0x2
 4868 0178 17       		.uleb128 0x17
 4869 0179 00       		.byte	0
 4870 017a 00       		.byte	0
 4871 017b 1A       		.uleb128 0x1a
 4872 017c 34       		.uleb128 0x34
 4873 017d 00       		.byte	0
 4874 017e 03       		.uleb128 0x3
 4875 017f 08       		.uleb128 0x8
 4876 0180 3A       		.uleb128 0x3a
 4877 0181 0B       		.uleb128 0xb
 4878 0182 3B       		.uleb128 0x3b
 4879 0183 05       		.uleb128 0x5
 4880 0184 49       		.uleb128 0x49
 4881 0185 13       		.uleb128 0x13
 4882 0186 02       		.uleb128 0x2
 4883 0187 18       		.uleb128 0x18
 4884 0188 00       		.byte	0
 4885 0189 00       		.byte	0
 4886 018a 1B       		.uleb128 0x1b
 4887 018b 01       		.uleb128 0x1
 4888 018c 01       		.byte	0x1
 4889 018d 49       		.uleb128 0x49
 4890 018e 13       		.uleb128 0x13
 4891 018f 01       		.uleb128 0x1
 4892 0190 13       		.uleb128 0x13
 4893 0191 00       		.byte	0
 4894 0192 00       		.byte	0
 4895 0193 1C       		.uleb128 0x1c
 4896 0194 21       		.uleb128 0x21
 4897 0195 00       		.byte	0
 4898 0196 49       		.uleb128 0x49
ARM GAS  C:\Users\cring\AppData\Local\Temp\ccsXHiuh.s 			page 99


 4899 0197 13       		.uleb128 0x13
 4900 0198 2F       		.uleb128 0x2f
 4901 0199 0B       		.uleb128 0xb
 4902 019a 00       		.byte	0
 4903 019b 00       		.byte	0
 4904 019c 1D       		.uleb128 0x1d
 4905 019d 05       		.uleb128 0x5
 4906 019e 00       		.byte	0
 4907 019f 03       		.uleb128 0x3
 4908 01a0 08       		.uleb128 0x8
 4909 01a1 3A       		.uleb128 0x3a
 4910 01a2 0B       		.uleb128 0xb
 4911 01a3 3B       		.uleb128 0x3b
 4912 01a4 0B       		.uleb128 0xb
 4913 01a5 49       		.uleb128 0x49
 4914 01a6 13       		.uleb128 0x13
 4915 01a7 02       		.uleb128 0x2
 4916 01a8 18       		.uleb128 0x18
 4917 01a9 00       		.byte	0
 4918 01aa 00       		.byte	0
 4919 01ab 1E       		.uleb128 0x1e
 4920 01ac 05       		.uleb128 0x5
 4921 01ad 00       		.byte	0
 4922 01ae 03       		.uleb128 0x3
 4923 01af 0E       		.uleb128 0xe
 4924 01b0 3A       		.uleb128 0x3a
 4925 01b1 0B       		.uleb128 0xb
 4926 01b2 3B       		.uleb128 0x3b
 4927 01b3 0B       		.uleb128 0xb
 4928 01b4 49       		.uleb128 0x49
 4929 01b5 13       		.uleb128 0x13
 4930 01b6 02       		.uleb128 0x2
 4931 01b7 18       		.uleb128 0x18
 4932 01b8 00       		.byte	0
 4933 01b9 00       		.byte	0
 4934 01ba 1F       		.uleb128 0x1f
 4935 01bb 0B       		.uleb128 0xb
 4936 01bc 01       		.byte	0x1
 4937 01bd 11       		.uleb128 0x11
 4938 01be 01       		.uleb128 0x1
 4939 01bf 12       		.uleb128 0x12
 4940 01c0 06       		.uleb128 0x6
 4941 01c1 00       		.byte	0
 4942 01c2 00       		.byte	0
 4943 01c3 20       		.uleb128 0x20
 4944 01c4 2E       		.uleb128 0x2e
 4945 01c5 01       		.byte	0x1
 4946 01c6 3F       		.uleb128 0x3f
 4947 01c7 19       		.uleb128 0x19
 4948 01c8 03       		.uleb128 0x3
 4949 01c9 0E       		.uleb128 0xe
 4950 01ca 3A       		.uleb128 0x3a
 4951 01cb 0B       		.uleb128 0xb
 4952 01cc 3B       		.uleb128 0x3b
 4953 01cd 05       		.uleb128 0x5
 4954 01ce 27       		.uleb128 0x27
 4955 01cf 19       		.uleb128 0x19
ARM GAS  C:\Users\cring\AppData\Local\Temp\ccsXHiuh.s 			page 100


 4956 01d0 49       		.uleb128 0x49
 4957 01d1 13       		.uleb128 0x13
 4958 01d2 11       		.uleb128 0x11
 4959 01d3 01       		.uleb128 0x1
 4960 01d4 12       		.uleb128 0x12
 4961 01d5 06       		.uleb128 0x6
 4962 01d6 40       		.uleb128 0x40
 4963 01d7 18       		.uleb128 0x18
 4964 01d8 9742     		.uleb128 0x2117
 4965 01da 19       		.uleb128 0x19
 4966 01db 01       		.uleb128 0x1
 4967 01dc 13       		.uleb128 0x13
 4968 01dd 00       		.byte	0
 4969 01de 00       		.byte	0
 4970 01df 21       		.uleb128 0x21
 4971 01e0 34       		.uleb128 0x34
 4972 01e1 00       		.byte	0
 4973 01e2 03       		.uleb128 0x3
 4974 01e3 0E       		.uleb128 0xe
 4975 01e4 3A       		.uleb128 0x3a
 4976 01e5 0B       		.uleb128 0xb
 4977 01e6 3B       		.uleb128 0x3b
 4978 01e7 0B       		.uleb128 0xb
 4979 01e8 49       		.uleb128 0x49
 4980 01e9 13       		.uleb128 0x13
 4981 01ea 02       		.uleb128 0x2
 4982 01eb 18       		.uleb128 0x18
 4983 01ec 00       		.byte	0
 4984 01ed 00       		.byte	0
 4985 01ee 22       		.uleb128 0x22
 4986 01ef 34       		.uleb128 0x34
 4987 01f0 00       		.byte	0
 4988 01f1 03       		.uleb128 0x3
 4989 01f2 0E       		.uleb128 0xe
 4990 01f3 3A       		.uleb128 0x3a
 4991 01f4 0B       		.uleb128 0xb
 4992 01f5 3B       		.uleb128 0x3b
 4993 01f6 05       		.uleb128 0x5
 4994 01f7 49       		.uleb128 0x49
 4995 01f8 13       		.uleb128 0x13
 4996 01f9 3F       		.uleb128 0x3f
 4997 01fa 19       		.uleb128 0x19
 4998 01fb 3C       		.uleb128 0x3c
 4999 01fc 19       		.uleb128 0x19
 5000 01fd 00       		.byte	0
 5001 01fe 00       		.byte	0
 5002 01ff 23       		.uleb128 0x23
 5003 0200 35       		.uleb128 0x35
 5004 0201 00       		.byte	0
 5005 0202 49       		.uleb128 0x49
 5006 0203 13       		.uleb128 0x13
 5007 0204 00       		.byte	0
 5008 0205 00       		.byte	0
 5009 0206 24       		.uleb128 0x24
 5010 0207 34       		.uleb128 0x34
 5011 0208 00       		.byte	0
 5012 0209 03       		.uleb128 0x3
ARM GAS  C:\Users\cring\AppData\Local\Temp\ccsXHiuh.s 			page 101


 5013 020a 0E       		.uleb128 0xe
 5014 020b 3A       		.uleb128 0x3a
 5015 020c 0B       		.uleb128 0xb
 5016 020d 3B       		.uleb128 0x3b
 5017 020e 0B       		.uleb128 0xb
 5018 020f 49       		.uleb128 0x49
 5019 0210 13       		.uleb128 0x13
 5020 0211 3F       		.uleb128 0x3f
 5021 0212 19       		.uleb128 0x19
 5022 0213 02       		.uleb128 0x2
 5023 0214 18       		.uleb128 0x18
 5024 0215 00       		.byte	0
 5025 0216 00       		.byte	0
 5026 0217 25       		.uleb128 0x25
 5027 0218 2E       		.uleb128 0x2e
 5028 0219 00       		.byte	0
 5029 021a 3F       		.uleb128 0x3f
 5030 021b 19       		.uleb128 0x19
 5031 021c 3C       		.uleb128 0x3c
 5032 021d 19       		.uleb128 0x19
 5033 021e 6E       		.uleb128 0x6e
 5034 021f 0E       		.uleb128 0xe
 5035 0220 03       		.uleb128 0x3
 5036 0221 0E       		.uleb128 0xe
 5037 0222 3A       		.uleb128 0x3a
 5038 0223 0B       		.uleb128 0xb
 5039 0224 3B       		.uleb128 0x3b
 5040 0225 0B       		.uleb128 0xb
 5041 0226 00       		.byte	0
 5042 0227 00       		.byte	0
 5043 0228 26       		.uleb128 0x26
 5044 0229 2E       		.uleb128 0x2e
 5045 022a 00       		.byte	0
 5046 022b 3F       		.uleb128 0x3f
 5047 022c 19       		.uleb128 0x19
 5048 022d 3C       		.uleb128 0x3c
 5049 022e 19       		.uleb128 0x19
 5050 022f 6E       		.uleb128 0x6e
 5051 0230 0E       		.uleb128 0xe
 5052 0231 03       		.uleb128 0x3
 5053 0232 0E       		.uleb128 0xe
 5054 0233 3A       		.uleb128 0x3a
 5055 0234 0B       		.uleb128 0xb
 5056 0235 3B       		.uleb128 0x3b
 5057 0236 05       		.uleb128 0x5
 5058 0237 00       		.byte	0
 5059 0238 00       		.byte	0
 5060 0239 00       		.byte	0
 5061              		.section	.debug_loc,"",%progbits
 5062              	.Ldebug_loc0:
 5063              	.LLST0:
 5064 0000 00000000 		.4byte	.LVL0
 5065 0004 05000000 		.4byte	.LVL1-1
 5066 0008 0100     		.2byte	0x1
 5067 000a 50       		.byte	0x50
 5068 000b 05000000 		.4byte	.LVL1-1
 5069 000f 20000000 		.4byte	.LVL5
ARM GAS  C:\Users\cring\AppData\Local\Temp\ccsXHiuh.s 			page 102


 5070 0013 0400     		.2byte	0x4
 5071 0015 F3       		.byte	0xf3
 5072 0016 01       		.uleb128 0x1
 5073 0017 50       		.byte	0x50
 5074 0018 9F       		.byte	0x9f
 5075 0019 20000000 		.4byte	.LVL5
 5076 001d 22000000 		.4byte	.LVL6
 5077 0021 0100     		.2byte	0x1
 5078 0023 50       		.byte	0x50
 5079 0024 00000000 		.4byte	0
 5080 0028 00000000 		.4byte	0
 5081              	.LLST1:
 5082 002c 00000000 		.4byte	.LVL8
 5083 0030 0C000000 		.4byte	.LVL10
 5084 0034 0100     		.2byte	0x1
 5085 0036 50       		.byte	0x50
 5086 0037 0C000000 		.4byte	.LVL10
 5087 003b 16000000 		.4byte	.LVL12
 5088 003f 0100     		.2byte	0x1
 5089 0041 55       		.byte	0x55
 5090 0042 16000000 		.4byte	.LVL12
 5091 0046 2C000000 		.4byte	.LFE73
 5092 004a 0400     		.2byte	0x4
 5093 004c F3       		.byte	0xf3
 5094 004d 01       		.uleb128 0x1
 5095 004e 50       		.byte	0x50
 5096 004f 9F       		.byte	0x9f
 5097 0050 00000000 		.4byte	0
 5098 0054 00000000 		.4byte	0
 5099              	.LLST2:
 5100 0058 00000000 		.4byte	.LVL8
 5101 005c 0A000000 		.4byte	.LVL9
 5102 0060 0100     		.2byte	0x1
 5103 0062 51       		.byte	0x51
 5104 0063 0A000000 		.4byte	.LVL9
 5105 0067 2C000000 		.4byte	.LFE73
 5106 006b 0400     		.2byte	0x4
 5107 006d F3       		.byte	0xf3
 5108 006e 01       		.uleb128 0x1
 5109 006f 51       		.byte	0x51
 5110 0070 9F       		.byte	0x9f
 5111 0071 00000000 		.4byte	0
 5112 0075 00000000 		.4byte	0
 5113              	.LLST3:
 5114 0079 00000000 		.4byte	.LVL8
 5115 007d 11000000 		.4byte	.LVL11-1
 5116 0081 0100     		.2byte	0x1
 5117 0083 52       		.byte	0x52
 5118 0084 11000000 		.4byte	.LVL11-1
 5119 0088 22000000 		.4byte	.LVL14
 5120 008c 0100     		.2byte	0x1
 5121 008e 54       		.byte	0x54
 5122 008f 22000000 		.4byte	.LVL14
 5123 0093 2C000000 		.4byte	.LFE73
 5124 0097 0400     		.2byte	0x4
 5125 0099 F3       		.byte	0xf3
 5126 009a 01       		.uleb128 0x1
ARM GAS  C:\Users\cring\AppData\Local\Temp\ccsXHiuh.s 			page 103


 5127 009b 52       		.byte	0x52
 5128 009c 9F       		.byte	0x9f
 5129 009d 00000000 		.4byte	0
 5130 00a1 00000000 		.4byte	0
 5131              	.LLST4:
 5132 00a5 00000000 		.4byte	.LVL16
 5133 00a9 1A000000 		.4byte	.LVL18
 5134 00ad 0600     		.2byte	0x6
 5135 00af 50       		.byte	0x50
 5136 00b0 93       		.byte	0x93
 5137 00b1 04       		.uleb128 0x4
 5138 00b2 51       		.byte	0x51
 5139 00b3 93       		.byte	0x93
 5140 00b4 04       		.uleb128 0x4
 5141 00b5 1A000000 		.4byte	.LVL18
 5142 00b9 FC010000 		.4byte	.LFE77
 5143 00bd 0600     		.2byte	0x6
 5144 00bf F3       		.byte	0xf3
 5145 00c0 03       		.uleb128 0x3
 5146 00c1 F5       		.byte	0xf5
 5147 00c2 00       		.uleb128 0
 5148 00c3 25       		.uleb128 0x25
 5149 00c4 9F       		.byte	0x9f
 5150 00c5 00000000 		.4byte	0
 5151 00c9 00000000 		.4byte	0
 5152              	.LLST5:
 5153 00cd 00000000 		.4byte	.LVL16
 5154 00d1 14000000 		.4byte	.LVL17
 5155 00d5 0600     		.2byte	0x6
 5156 00d7 52       		.byte	0x52
 5157 00d8 93       		.byte	0x93
 5158 00d9 04       		.uleb128 0x4
 5159 00da 53       		.byte	0x53
 5160 00db 93       		.byte	0x93
 5161 00dc 04       		.uleb128 0x4
 5162 00dd 14000000 		.4byte	.LVL17
 5163 00e1 FC010000 		.4byte	.LFE77
 5164 00e5 0600     		.2byte	0x6
 5165 00e7 F3       		.byte	0xf3
 5166 00e8 03       		.uleb128 0x3
 5167 00e9 F5       		.byte	0xf5
 5168 00ea 02       		.uleb128 0x2
 5169 00eb 25       		.uleb128 0x25
 5170 00ec 9F       		.byte	0x9f
 5171 00ed 00000000 		.4byte	0
 5172 00f1 00000000 		.4byte	0
 5173              	.LLST6:
 5174 00f5 00000000 		.4byte	.LVL16
 5175 00f9 E4010000 		.4byte	.LVL82
 5176 00fd 0200     		.2byte	0x2
 5177 00ff 91       		.byte	0x91
 5178 0100 00       		.sleb128 0
 5179 0101 E4010000 		.4byte	.LVL82
 5180 0105 FC010000 		.4byte	.LFE77
 5181 0109 0200     		.2byte	0x2
 5182 010b 7D       		.byte	0x7d
 5183 010c 00       		.sleb128 0
ARM GAS  C:\Users\cring\AppData\Local\Temp\ccsXHiuh.s 			page 104


 5184 010d 00000000 		.4byte	0
 5185 0111 00000000 		.4byte	0
 5186              	.LLST7:
 5187 0115 00000000 		.4byte	.LVL16
 5188 0119 E4010000 		.4byte	.LVL82
 5189 011d 0200     		.2byte	0x2
 5190 011f 91       		.byte	0x91
 5191 0120 08       		.sleb128 8
 5192 0121 E4010000 		.4byte	.LVL82
 5193 0125 FC010000 		.4byte	.LFE77
 5194 0129 0200     		.2byte	0x2
 5195 012b 7D       		.byte	0x7d
 5196 012c 08       		.sleb128 8
 5197 012d 00000000 		.4byte	0
 5198 0131 00000000 		.4byte	0
 5199              	.LLST8:
 5200 0135 00000000 		.4byte	.LVL16
 5201 0139 E4010000 		.4byte	.LVL82
 5202 013d 0200     		.2byte	0x2
 5203 013f 91       		.byte	0x91
 5204 0140 0C       		.sleb128 12
 5205 0141 E4010000 		.4byte	.LVL82
 5206 0145 FC010000 		.4byte	.LFE77
 5207 0149 0200     		.2byte	0x2
 5208 014b 7D       		.byte	0x7d
 5209 014c 0C       		.sleb128 12
 5210 014d 00000000 		.4byte	0
 5211 0151 00000000 		.4byte	0
 5212              	.LLST9:
 5213 0155 5E000000 		.4byte	.LVL23
 5214 0159 CE000000 		.4byte	.LVL35
 5215 015d 0600     		.2byte	0x6
 5216 015f 54       		.byte	0x54
 5217 0160 93       		.byte	0x93
 5218 0161 04       		.uleb128 0x4
 5219 0162 55       		.byte	0x55
 5220 0163 93       		.byte	0x93
 5221 0164 04       		.uleb128 0x4
 5222 0165 DA000000 		.4byte	.LVL37
 5223 0169 EE000000 		.4byte	.LVL42
 5224 016d 0600     		.2byte	0x6
 5225 016f 54       		.byte	0x54
 5226 0170 93       		.byte	0x93
 5227 0171 04       		.uleb128 0x4
 5228 0172 55       		.byte	0x55
 5229 0173 93       		.byte	0x93
 5230 0174 04       		.uleb128 0x4
 5231 0175 EE000000 		.4byte	.LVL42
 5232 0179 FA000000 		.4byte	.LVL44
 5233 017d 0200     		.2byte	0x2
 5234 017f 7D       		.byte	0x7d
 5235 0180 00       		.sleb128 0
 5236 0181 FA000000 		.4byte	.LVL44
 5237 0185 00010000 		.4byte	.LVL46
 5238 0189 0600     		.2byte	0x6
 5239 018b 54       		.byte	0x54
 5240 018c 93       		.byte	0x93
ARM GAS  C:\Users\cring\AppData\Local\Temp\ccsXHiuh.s 			page 105


 5241 018d 04       		.uleb128 0x4
 5242 018e 55       		.byte	0x55
 5243 018f 93       		.byte	0x93
 5244 0190 04       		.uleb128 0x4
 5245 0191 00010000 		.4byte	.LVL46
 5246 0195 04010000 		.4byte	.LVL47
 5247 0199 0200     		.2byte	0x2
 5248 019b 7D       		.byte	0x7d
 5249 019c 00       		.sleb128 0
 5250 019d 04010000 		.4byte	.LVL47
 5251 01a1 0E010000 		.4byte	.LVL50
 5252 01a5 0600     		.2byte	0x6
 5253 01a7 54       		.byte	0x54
 5254 01a8 93       		.byte	0x93
 5255 01a9 04       		.uleb128 0x4
 5256 01aa 55       		.byte	0x55
 5257 01ab 93       		.byte	0x93
 5258 01ac 04       		.uleb128 0x4
 5259 01ad 12010000 		.4byte	.LVL51
 5260 01b1 1A010000 		.4byte	.LVL52
 5261 01b5 0600     		.2byte	0x6
 5262 01b7 54       		.byte	0x54
 5263 01b8 93       		.byte	0x93
 5264 01b9 04       		.uleb128 0x4
 5265 01ba 55       		.byte	0x55
 5266 01bb 93       		.byte	0x93
 5267 01bc 04       		.uleb128 0x4
 5268 01bd 00000000 		.4byte	0
 5269 01c1 00000000 		.4byte	0
 5270              	.LLST10:
 5271 01c5 6E000000 		.4byte	.LVL25
 5272 01c9 77000000 		.4byte	.LVL26-1
 5273 01cd 0600     		.2byte	0x6
 5274 01cf 50       		.byte	0x50
 5275 01d0 93       		.byte	0x93
 5276 01d1 04       		.uleb128 0x4
 5277 01d2 51       		.byte	0x51
 5278 01d3 93       		.byte	0x93
 5279 01d4 04       		.uleb128 0x4
 5280 01d5 77000000 		.4byte	.LVL26-1
 5281 01d9 D8000000 		.4byte	.LVL36
 5282 01dd 0200     		.2byte	0x2
 5283 01df 7D       		.byte	0x7d
 5284 01e0 00       		.sleb128 0
 5285 01e1 DA000000 		.4byte	.LVL37
 5286 01e5 DE000000 		.4byte	.LVL38
 5287 01e9 0200     		.2byte	0x2
 5288 01eb 7D       		.byte	0x7d
 5289 01ec 00       		.sleb128 0
 5290 01ed E8000000 		.4byte	.LVL40
 5291 01f1 EC000000 		.4byte	.LVL41
 5292 01f5 0200     		.2byte	0x2
 5293 01f7 7D       		.byte	0x7d
 5294 01f8 00       		.sleb128 0
 5295 01f9 FA000000 		.4byte	.LVL44
 5296 01fd FE000000 		.4byte	.LVL45
 5297 0201 0200     		.2byte	0x2
ARM GAS  C:\Users\cring\AppData\Local\Temp\ccsXHiuh.s 			page 106


 5298 0203 7D       		.byte	0x7d
 5299 0204 00       		.sleb128 0
 5300 0205 04010000 		.4byte	.LVL47
 5301 0209 08010000 		.4byte	.LVL48
 5302 020d 0200     		.2byte	0x2
 5303 020f 7D       		.byte	0x7d
 5304 0210 00       		.sleb128 0
 5305 0211 12010000 		.4byte	.LVL51
 5306 0215 1A010000 		.4byte	.LVL52
 5307 0219 0200     		.2byte	0x2
 5308 021b 7D       		.byte	0x7d
 5309 021c 00       		.sleb128 0
 5310 021d 00000000 		.4byte	0
 5311 0221 00000000 		.4byte	0
 5312              	.LLST11:
 5313 0225 9E000000 		.4byte	.LVL30
 5314 0229 CA000000 		.4byte	.LVL34
 5315 022d 0600     		.2byte	0x6
 5316 022f 58       		.byte	0x58
 5317 0230 93       		.byte	0x93
 5318 0231 04       		.uleb128 0x4
 5319 0232 59       		.byte	0x59
 5320 0233 93       		.byte	0x93
 5321 0234 04       		.uleb128 0x4
 5322 0235 DA000000 		.4byte	.LVL37
 5323 0239 E2000000 		.4byte	.LVL39
 5324 023d 0600     		.2byte	0x6
 5325 023f 58       		.byte	0x58
 5326 0240 93       		.byte	0x93
 5327 0241 04       		.uleb128 0x4
 5328 0242 59       		.byte	0x59
 5329 0243 93       		.byte	0x93
 5330 0244 04       		.uleb128 0x4
 5331 0245 E2000000 		.4byte	.LVL39
 5332 0249 E8000000 		.4byte	.LVL40
 5333 024d 0200     		.2byte	0x2
 5334 024f 7D       		.byte	0x7d
 5335 0250 00       		.sleb128 0
 5336 0251 E8000000 		.4byte	.LVL40
 5337 0255 F4000000 		.4byte	.LVL43
 5338 0259 0600     		.2byte	0x6
 5339 025b 58       		.byte	0x58
 5340 025c 93       		.byte	0x93
 5341 025d 04       		.uleb128 0x4
 5342 025e 59       		.byte	0x59
 5343 025f 93       		.byte	0x93
 5344 0260 04       		.uleb128 0x4
 5345 0261 FA000000 		.4byte	.LVL44
 5346 0265 0A010000 		.4byte	.LVL49
 5347 0269 0600     		.2byte	0x6
 5348 026b 58       		.byte	0x58
 5349 026c 93       		.byte	0x93
 5350 026d 04       		.uleb128 0x4
 5351 026e 59       		.byte	0x59
 5352 026f 93       		.byte	0x93
 5353 0270 04       		.uleb128 0x4
 5354 0271 0A010000 		.4byte	.LVL49
ARM GAS  C:\Users\cring\AppData\Local\Temp\ccsXHiuh.s 			page 107


 5355 0275 12010000 		.4byte	.LVL51
 5356 0279 0200     		.2byte	0x2
 5357 027b 7D       		.byte	0x7d
 5358 027c 00       		.sleb128 0
 5359 027d 12010000 		.4byte	.LVL51
 5360 0281 1A010000 		.4byte	.LVL52
 5361 0285 0600     		.2byte	0x6
 5362 0287 58       		.byte	0x58
 5363 0288 93       		.byte	0x93
 5364 0289 04       		.uleb128 0x4
 5365 028a 59       		.byte	0x59
 5366 028b 93       		.byte	0x93
 5367 028c 04       		.uleb128 0x4
 5368 028d 00000000 		.4byte	0
 5369 0291 00000000 		.4byte	0
 5370              	.LLST12:
 5371 0295 AE000000 		.4byte	.LVL32
 5372 0299 BC010000 		.4byte	.LVL77
 5373 029d 0600     		.2byte	0x6
 5374 029f 5A       		.byte	0x5a
 5375 02a0 93       		.byte	0x93
 5376 02a1 04       		.uleb128 0x4
 5377 02a2 5B       		.byte	0x5b
 5378 02a3 93       		.byte	0x93
 5379 02a4 04       		.uleb128 0x4
 5380 02a5 00000000 		.4byte	0
 5381 02a9 00000000 		.4byte	0
 5382              	.LLST13:
 5383 02ad DA000000 		.4byte	.LVL37
 5384 02b1 FA000000 		.4byte	.LVL44
 5385 02b5 0A00     		.2byte	0xa
 5386 02b7 9E       		.byte	0x9e
 5387 02b8 08       		.uleb128 0x8
 5388 02b9 00000000 		.4byte	0
 5389 02bd 00000000 		.4byte	0
 5390 02c1 FA000000 		.4byte	.LVL44
 5391 02c5 04010000 		.4byte	.LVL47
 5392 02c9 0600     		.2byte	0x6
 5393 02cb 58       		.byte	0x58
 5394 02cc 93       		.byte	0x93
 5395 02cd 04       		.uleb128 0x4
 5396 02ce 59       		.byte	0x59
 5397 02cf 93       		.byte	0x93
 5398 02d0 04       		.uleb128 0x4
 5399 02d1 04010000 		.4byte	.LVL47
 5400 02d5 0E010000 		.4byte	.LVL50
 5401 02d9 0600     		.2byte	0x6
 5402 02db 54       		.byte	0x54
 5403 02dc 93       		.byte	0x93
 5404 02dd 04       		.uleb128 0x4
 5405 02de 55       		.byte	0x55
 5406 02df 93       		.byte	0x93
 5407 02e0 04       		.uleb128 0x4
 5408 02e1 1A010000 		.4byte	.LVL52
 5409 02e5 36010000 		.4byte	.LVL57
 5410 02e9 0600     		.2byte	0x6
 5411 02eb 58       		.byte	0x58
ARM GAS  C:\Users\cring\AppData\Local\Temp\ccsXHiuh.s 			page 108


 5412 02ec 93       		.byte	0x93
 5413 02ed 04       		.uleb128 0x4
 5414 02ee 59       		.byte	0x59
 5415 02ef 93       		.byte	0x93
 5416 02f0 04       		.uleb128 0x4
 5417 02f1 38010000 		.4byte	.LVL58
 5418 02f5 86010000 		.4byte	.LVL70
 5419 02f9 0600     		.2byte	0x6
 5420 02fb 58       		.byte	0x58
 5421 02fc 93       		.byte	0x93
 5422 02fd 04       		.uleb128 0x4
 5423 02fe 59       		.byte	0x59
 5424 02ff 93       		.byte	0x93
 5425 0300 04       		.uleb128 0x4
 5426 0301 8A010000 		.4byte	.LVL71
 5427 0305 DE010000 		.4byte	.LVL81
 5428 0309 0600     		.2byte	0x6
 5429 030b 58       		.byte	0x58
 5430 030c 93       		.byte	0x93
 5431 030d 04       		.uleb128 0x4
 5432 030e 59       		.byte	0x59
 5433 030f 93       		.byte	0x93
 5434 0310 04       		.uleb128 0x4
 5435 0311 00000000 		.4byte	0
 5436 0315 00000000 		.4byte	0
 5437              	.LLST14:
 5438 0319 DA000000 		.4byte	.LVL37
 5439 031d E8000000 		.4byte	.LVL40
 5440 0321 0600     		.2byte	0x6
 5441 0323 54       		.byte	0x54
 5442 0324 93       		.byte	0x93
 5443 0325 04       		.uleb128 0x4
 5444 0326 55       		.byte	0x55
 5445 0327 93       		.byte	0x93
 5446 0328 04       		.uleb128 0x4
 5447 0329 E8000000 		.4byte	.LVL40
 5448 032d F4000000 		.4byte	.LVL43
 5449 0331 0600     		.2byte	0x6
 5450 0333 58       		.byte	0x58
 5451 0334 93       		.byte	0x93
 5452 0335 04       		.uleb128 0x4
 5453 0336 59       		.byte	0x59
 5454 0337 93       		.byte	0x93
 5455 0338 04       		.uleb128 0x4
 5456 0339 FA000000 		.4byte	.LVL44
 5457 033d 12010000 		.4byte	.LVL51
 5458 0341 0A00     		.2byte	0xa
 5459 0343 9E       		.byte	0x9e
 5460 0344 08       		.uleb128 0x8
 5461 0345 00000000 		.4byte	0
 5462 0349 00000000 		.4byte	0
 5463 034d 1A010000 		.4byte	.LVL52
 5464 0351 54010000 		.4byte	.LVL62
 5465 0355 0600     		.2byte	0x6
 5466 0357 54       		.byte	0x54
 5467 0358 93       		.byte	0x93
 5468 0359 04       		.uleb128 0x4
ARM GAS  C:\Users\cring\AppData\Local\Temp\ccsXHiuh.s 			page 109


 5469 035a 55       		.byte	0x55
 5470 035b 93       		.byte	0x93
 5471 035c 04       		.uleb128 0x4
 5472 035d 56010000 		.4byte	.LVL63
 5473 0361 9A010000 		.4byte	.LVL73
 5474 0365 0600     		.2byte	0x6
 5475 0367 54       		.byte	0x54
 5476 0368 93       		.byte	0x93
 5477 0369 04       		.uleb128 0x4
 5478 036a 55       		.byte	0x55
 5479 036b 93       		.byte	0x93
 5480 036c 04       		.uleb128 0x4
 5481 036d 9C010000 		.4byte	.LVL74
 5482 0371 DE010000 		.4byte	.LVL81
 5483 0375 0600     		.2byte	0x6
 5484 0377 54       		.byte	0x54
 5485 0378 93       		.byte	0x93
 5486 0379 04       		.uleb128 0x4
 5487 037a 55       		.byte	0x55
 5488 037b 93       		.byte	0x93
 5489 037c 04       		.uleb128 0x4
 5490 037d 00000000 		.4byte	0
 5491 0381 00000000 		.4byte	0
 5492              	.LLST15:
 5493 0385 DA000000 		.4byte	.LVL37
 5494 0389 E2000000 		.4byte	.LVL39
 5495 038d 0600     		.2byte	0x6
 5496 038f 58       		.byte	0x58
 5497 0390 93       		.byte	0x93
 5498 0391 04       		.uleb128 0x4
 5499 0392 59       		.byte	0x59
 5500 0393 93       		.byte	0x93
 5501 0394 04       		.uleb128 0x4
 5502 0395 E2000000 		.4byte	.LVL39
 5503 0399 E8000000 		.4byte	.LVL40
 5504 039d 0200     		.2byte	0x2
 5505 039f 7D       		.byte	0x7d
 5506 03a0 00       		.sleb128 0
 5507 03a1 E8000000 		.4byte	.LVL40
 5508 03a5 EE000000 		.4byte	.LVL42
 5509 03a9 0600     		.2byte	0x6
 5510 03ab 54       		.byte	0x54
 5511 03ac 93       		.byte	0x93
 5512 03ad 04       		.uleb128 0x4
 5513 03ae 55       		.byte	0x55
 5514 03af 93       		.byte	0x93
 5515 03b0 04       		.uleb128 0x4
 5516 03b1 EE000000 		.4byte	.LVL42
 5517 03b5 FA000000 		.4byte	.LVL44
 5518 03b9 0200     		.2byte	0x2
 5519 03bb 7D       		.byte	0x7d
 5520 03bc 00       		.sleb128 0
 5521 03bd FA000000 		.4byte	.LVL44
 5522 03c1 00010000 		.4byte	.LVL46
 5523 03c5 0600     		.2byte	0x6
 5524 03c7 54       		.byte	0x54
 5525 03c8 93       		.byte	0x93
ARM GAS  C:\Users\cring\AppData\Local\Temp\ccsXHiuh.s 			page 110


 5526 03c9 04       		.uleb128 0x4
 5527 03ca 55       		.byte	0x55
 5528 03cb 93       		.byte	0x93
 5529 03cc 04       		.uleb128 0x4
 5530 03cd 00010000 		.4byte	.LVL46
 5531 03d1 04010000 		.4byte	.LVL47
 5532 03d5 0200     		.2byte	0x2
 5533 03d7 7D       		.byte	0x7d
 5534 03d8 00       		.sleb128 0
 5535 03d9 04010000 		.4byte	.LVL47
 5536 03dd 0A010000 		.4byte	.LVL49
 5537 03e1 0600     		.2byte	0x6
 5538 03e3 58       		.byte	0x58
 5539 03e4 93       		.byte	0x93
 5540 03e5 04       		.uleb128 0x4
 5541 03e6 59       		.byte	0x59
 5542 03e7 93       		.byte	0x93
 5543 03e8 04       		.uleb128 0x4
 5544 03e9 0A010000 		.4byte	.LVL49
 5545 03ed 12010000 		.4byte	.LVL51
 5546 03f1 0200     		.2byte	0x2
 5547 03f3 7D       		.byte	0x7d
 5548 03f4 00       		.sleb128 0
 5549 03f5 1A010000 		.4byte	.LVL52
 5550 03f9 74010000 		.4byte	.LVL67
 5551 03fd 0200     		.2byte	0x2
 5552 03ff 7D       		.byte	0x7d
 5553 0400 00       		.sleb128 0
 5554 0401 74010000 		.4byte	.LVL67
 5555 0405 7A010000 		.4byte	.LVL68
 5556 0409 0600     		.2byte	0x6
 5557 040b 50       		.byte	0x50
 5558 040c 93       		.byte	0x93
 5559 040d 04       		.uleb128 0x4
 5560 040e 51       		.byte	0x51
 5561 040f 93       		.byte	0x93
 5562 0410 04       		.uleb128 0x4
 5563 0411 7A010000 		.4byte	.LVL68
 5564 0415 DE010000 		.4byte	.LVL81
 5565 0419 0200     		.2byte	0x2
 5566 041b 7D       		.byte	0x7d
 5567 041c 00       		.sleb128 0
 5568 041d 00000000 		.4byte	0
 5569 0421 00000000 		.4byte	0
 5570              	.LLST16:
 5571 0425 B6000000 		.4byte	.LVL33
 5572 0429 20010000 		.4byte	.LVL53
 5573 042d 0100     		.2byte	0x1
 5574 042f 50       		.byte	0x50
 5575 0430 00000000 		.4byte	0
 5576 0434 00000000 		.4byte	0
 5577              	.LLST17:
 5578 0438 00000000 		.4byte	.LVL83
 5579 043c 0C000000 		.4byte	.LVL84
 5580 0440 0100     		.2byte	0x1
 5581 0442 50       		.byte	0x50
 5582 0443 0C000000 		.4byte	.LVL84
ARM GAS  C:\Users\cring\AppData\Local\Temp\ccsXHiuh.s 			page 111


 5583 0447 14000000 		.4byte	.LVL86
 5584 044b 0100     		.2byte	0x1
 5585 044d 56       		.byte	0x56
 5586 044e 14000000 		.4byte	.LVL86
 5587 0452 1A000000 		.4byte	.LVL87
 5588 0456 0100     		.2byte	0x1
 5589 0458 50       		.byte	0x50
 5590 0459 1A000000 		.4byte	.LVL87
 5591 045d 54000000 		.4byte	.LFE78
 5592 0461 0100     		.2byte	0x1
 5593 0463 56       		.byte	0x56
 5594 0464 00000000 		.4byte	0
 5595 0468 00000000 		.4byte	0
 5596              	.LLST18:
 5597 046c 20000000 		.4byte	.LVL89
 5598 0470 52000000 		.4byte	.LVL97
 5599 0474 0100     		.2byte	0x1
 5600 0476 55       		.byte	0x55
 5601 0477 00000000 		.4byte	0
 5602 047b 00000000 		.4byte	0
 5603              	.LLST19:
 5604 047f 00000000 		.4byte	.LVL104
 5605 0483 17000000 		.4byte	.LVL105-1
 5606 0487 0600     		.2byte	0x6
 5607 0489 50       		.byte	0x50
 5608 048a 93       		.byte	0x93
 5609 048b 04       		.uleb128 0x4
 5610 048c 51       		.byte	0x51
 5611 048d 93       		.byte	0x93
 5612 048e 04       		.uleb128 0x4
 5613 048f 17000000 		.4byte	.LVL105-1
 5614 0493 32010000 		.4byte	.LFE79
 5615 0497 0600     		.2byte	0x6
 5616 0499 F3       		.byte	0xf3
 5617 049a 03       		.uleb128 0x3
 5618 049b F5       		.byte	0xf5
 5619 049c 00       		.uleb128 0
 5620 049d 25       		.uleb128 0x25
 5621 049e 9F       		.byte	0x9f
 5622 049f 00000000 		.4byte	0
 5623 04a3 00000000 		.4byte	0
 5624              	.LLST20:
 5625 04a7 00000000 		.4byte	.LVL104
 5626 04ab 17000000 		.4byte	.LVL105-1
 5627 04af 0600     		.2byte	0x6
 5628 04b1 52       		.byte	0x52
 5629 04b2 93       		.byte	0x93
 5630 04b3 04       		.uleb128 0x4
 5631 04b4 53       		.byte	0x53
 5632 04b5 93       		.byte	0x93
 5633 04b6 04       		.uleb128 0x4
 5634 04b7 17000000 		.4byte	.LVL105-1
 5635 04bb 32010000 		.4byte	.LFE79
 5636 04bf 0600     		.2byte	0x6
 5637 04c1 F3       		.byte	0xf3
 5638 04c2 03       		.uleb128 0x3
 5639 04c3 F5       		.byte	0xf5
ARM GAS  C:\Users\cring\AppData\Local\Temp\ccsXHiuh.s 			page 112


 5640 04c4 02       		.uleb128 0x2
 5641 04c5 25       		.uleb128 0x25
 5642 04c6 9F       		.byte	0x9f
 5643 04c7 00000000 		.4byte	0
 5644 04cb 00000000 		.4byte	0
 5645              	.LLST21:
 5646 04cf 22000000 		.4byte	.LVL106
 5647 04d3 82000000 		.4byte	.LVL115
 5648 04d7 0100     		.2byte	0x1
 5649 04d9 51       		.byte	0x51
 5650 04da 82000000 		.4byte	.LVL115
 5651 04de 32010000 		.4byte	.LFE79
 5652 04e2 0200     		.2byte	0x2
 5653 04e4 75       		.byte	0x75
 5654 04e5 00       		.sleb128 0
 5655 04e6 00000000 		.4byte	0
 5656 04ea 00000000 		.4byte	0
 5657              	.LLST22:
 5658 04ee 24000000 		.4byte	.LVL107
 5659 04f2 2A000000 		.4byte	.LVL109
 5660 04f6 0100     		.2byte	0x1
 5661 04f8 50       		.byte	0x50
 5662 04f9 2A000000 		.4byte	.LVL109
 5663 04fd 32010000 		.4byte	.LFE79
 5664 0501 0200     		.2byte	0x2
 5665 0503 75       		.byte	0x75
 5666 0504 04       		.sleb128 4
 5667 0505 00000000 		.4byte	0
 5668 0509 00000000 		.4byte	0
 5669              	.LLST23:
 5670 050d 26000000 		.4byte	.LVL108
 5671 0511 DA000000 		.4byte	.LVL121
 5672 0515 0100     		.2byte	0x1
 5673 0517 52       		.byte	0x52
 5674 0518 DA000000 		.4byte	.LVL121
 5675 051c 32010000 		.4byte	.LFE79
 5676 0520 0200     		.2byte	0x2
 5677 0522 75       		.byte	0x75
 5678 0523 08       		.sleb128 8
 5679 0524 00000000 		.4byte	0
 5680 0528 00000000 		.4byte	0
 5681              	.LLST24:
 5682 052c 26000000 		.4byte	.LVL108
 5683 0530 58000000 		.4byte	.LVL113
 5684 0534 0100     		.2byte	0x1
 5685 0536 50       		.byte	0x50
 5686 0537 7E000000 		.4byte	.LVL114
 5687 053b B0000000 		.4byte	.LVL119
 5688 053f 0100     		.2byte	0x1
 5689 0541 51       		.byte	0x51
 5690 0542 D6000000 		.4byte	.LVL120
 5691 0546 08010000 		.4byte	.LVL125
 5692 054a 0100     		.2byte	0x1
 5693 054c 52       		.byte	0x52
 5694 054d 00000000 		.4byte	0
 5695 0551 00000000 		.4byte	0
 5696              	.LLST25:
ARM GAS  C:\Users\cring\AppData\Local\Temp\ccsXHiuh.s 			page 113


 5697 0555 26000000 		.4byte	.LVL108
 5698 0559 2A000000 		.4byte	.LVL109
 5699 055d 0200     		.2byte	0x2
 5700 055f 30       		.byte	0x30
 5701 0560 9F       		.byte	0x9f
 5702 0561 2A000000 		.4byte	.LVL109
 5703 0565 54000000 		.4byte	.LVL112
 5704 0569 0100     		.2byte	0x1
 5705 056b 53       		.byte	0x53
 5706 056c 00000000 		.4byte	0
 5707 0570 00000000 		.4byte	0
 5708              	.LLST26:
 5709 0574 7E000000 		.4byte	.LVL114
 5710 0578 82000000 		.4byte	.LVL115
 5711 057c 0200     		.2byte	0x2
 5712 057e 30       		.byte	0x30
 5713 057f 9F       		.byte	0x9f
 5714 0580 82000000 		.4byte	.LVL115
 5715 0584 AC000000 		.4byte	.LVL118
 5716 0588 0100     		.2byte	0x1
 5717 058a 53       		.byte	0x53
 5718 058b 00000000 		.4byte	0
 5719 058f 00000000 		.4byte	0
 5720              	.LLST27:
 5721 0593 D6000000 		.4byte	.LVL120
 5722 0597 DA000000 		.4byte	.LVL121
 5723 059b 0200     		.2byte	0x2
 5724 059d 30       		.byte	0x30
 5725 059e 9F       		.byte	0x9f
 5726 059f DA000000 		.4byte	.LVL121
 5727 05a3 04010000 		.4byte	.LVL124
 5728 05a7 0100     		.2byte	0x1
 5729 05a9 53       		.byte	0x53
 5730 05aa 00000000 		.4byte	0
 5731 05ae 00000000 		.4byte	0
 5732              	.LLST28:
 5733 05b2 00000000 		.4byte	.LVL126
 5734 05b6 18000000 		.4byte	.LVL128
 5735 05ba 0600     		.2byte	0x6
 5736 05bc 50       		.byte	0x50
 5737 05bd 93       		.byte	0x93
 5738 05be 04       		.uleb128 0x4
 5739 05bf 51       		.byte	0x51
 5740 05c0 93       		.byte	0x93
 5741 05c1 04       		.uleb128 0x4
 5742 05c2 18000000 		.4byte	.LVL128
 5743 05c6 3A000000 		.4byte	.LFE72
 5744 05ca 0600     		.2byte	0x6
 5745 05cc F3       		.byte	0xf3
 5746 05cd 03       		.uleb128 0x3
 5747 05ce F5       		.byte	0xf5
 5748 05cf 00       		.uleb128 0
 5749 05d0 25       		.uleb128 0x25
 5750 05d1 9F       		.byte	0x9f
 5751 05d2 00000000 		.4byte	0
 5752 05d6 00000000 		.4byte	0
 5753              	.LLST29:
ARM GAS  C:\Users\cring\AppData\Local\Temp\ccsXHiuh.s 			page 114


 5754 05da 00000000 		.4byte	.LVL126
 5755 05de 18000000 		.4byte	.LVL128
 5756 05e2 0600     		.2byte	0x6
 5757 05e4 52       		.byte	0x52
 5758 05e5 93       		.byte	0x93
 5759 05e6 04       		.uleb128 0x4
 5760 05e7 53       		.byte	0x53
 5761 05e8 93       		.byte	0x93
 5762 05e9 04       		.uleb128 0x4
 5763 05ea 18000000 		.4byte	.LVL128
 5764 05ee 3A000000 		.4byte	.LFE72
 5765 05f2 0600     		.2byte	0x6
 5766 05f4 F3       		.byte	0xf3
 5767 05f5 03       		.uleb128 0x3
 5768 05f6 F5       		.byte	0xf5
 5769 05f7 02       		.uleb128 0x2
 5770 05f8 25       		.uleb128 0x25
 5771 05f9 9F       		.byte	0x9f
 5772 05fa 00000000 		.4byte	0
 5773 05fe 00000000 		.4byte	0
 5774              	.LLST30:
 5775 0602 14000000 		.4byte	.LVL127
 5776 0606 18000000 		.4byte	.LVL128
 5777 060a 0200     		.2byte	0x2
 5778 060c 30       		.byte	0x30
 5779 060d 9F       		.byte	0x9f
 5780 060e 18000000 		.4byte	.LVL128
 5781 0612 3A000000 		.4byte	.LFE72
 5782 0616 0100     		.2byte	0x1
 5783 0618 56       		.byte	0x56
 5784 0619 00000000 		.4byte	0
 5785 061d 00000000 		.4byte	0
 5786              	.LLST31:
 5787 0621 4E000000 		.4byte	.LVL153
 5788 0625 00010000 		.4byte	.LVL159
 5789 0629 0100     		.2byte	0x1
 5790 062b 54       		.byte	0x54
 5791 062c 00000000 		.4byte	0
 5792 0630 00000000 		.4byte	0
 5793              	.LLST32:
 5794 0634 66000000 		.4byte	.LVL154
 5795 0638 88000000 		.4byte	.LVL155
 5796 063c 0100     		.2byte	0x1
 5797 063e 55       		.byte	0x55
 5798 063f 00000000 		.4byte	0
 5799 0643 00000000 		.4byte	0
 5800              	.LLST33:
 5801 0647 9E000000 		.4byte	.LVL156
 5802 064b C0000000 		.4byte	.LVL157
 5803 064f 0100     		.2byte	0x1
 5804 0651 55       		.byte	0x55
 5805 0652 00000000 		.4byte	0
 5806 0656 00000000 		.4byte	0
 5807              	.LLST34:
 5808 065a 00000000 		.4byte	.LVL160
 5809 065e 07000000 		.4byte	.LVL161-1
 5810 0662 0100     		.2byte	0x1
ARM GAS  C:\Users\cring\AppData\Local\Temp\ccsXHiuh.s 			page 115


 5811 0664 50       		.byte	0x50
 5812 0665 07000000 		.4byte	.LVL161-1
 5813 0669 12000000 		.4byte	.LFE80
 5814 066d 0100     		.2byte	0x1
 5815 066f 54       		.byte	0x54
 5816 0670 00000000 		.4byte	0
 5817 0674 00000000 		.4byte	0
 5818              	.LLST35:
 5819 0678 00000000 		.4byte	.LVL162
 5820 067c 1A000000 		.4byte	.LVL163
 5821 0680 0100     		.2byte	0x1
 5822 0682 50       		.byte	0x50
 5823 0683 1A000000 		.4byte	.LVL163
 5824 0687 1D000000 		.4byte	.LVL164-1
 5825 068b 0300     		.2byte	0x3
 5826 068d 70       		.byte	0x70
 5827 068e C000     		.sleb128 64
 5828 0690 1D000000 		.4byte	.LVL164-1
 5829 0694 48000000 		.4byte	.LFE70
 5830 0698 0400     		.2byte	0x4
 5831 069a F3       		.byte	0xf3
 5832 069b 01       		.uleb128 0x1
 5833 069c 50       		.byte	0x50
 5834 069d 9F       		.byte	0x9f
 5835 069e 00000000 		.4byte	0
 5836 06a2 00000000 		.4byte	0
 5837              	.LLST36:
 5838 06a6 00000000 		.4byte	.LVL162
 5839 06aa 1D000000 		.4byte	.LVL164-1
 5840 06ae 0100     		.2byte	0x1
 5841 06b0 51       		.byte	0x51
 5842 06b1 1D000000 		.4byte	.LVL164-1
 5843 06b5 42000000 		.4byte	.LVL168
 5844 06b9 0100     		.2byte	0x1
 5845 06bb 55       		.byte	0x55
 5846 06bc 42000000 		.4byte	.LVL168
 5847 06c0 48000000 		.4byte	.LFE70
 5848 06c4 0400     		.2byte	0x4
 5849 06c6 F3       		.byte	0xf3
 5850 06c7 01       		.uleb128 0x1
 5851 06c8 51       		.byte	0x51
 5852 06c9 9F       		.byte	0x9f
 5853 06ca 00000000 		.4byte	0
 5854 06ce 00000000 		.4byte	0
 5855              	.LLST37:
 5856 06d2 00000000 		.4byte	.LVL162
 5857 06d6 1D000000 		.4byte	.LVL164-1
 5858 06da 0100     		.2byte	0x1
 5859 06dc 52       		.byte	0x52
 5860 06dd 1D000000 		.4byte	.LVL164-1
 5861 06e1 48000000 		.4byte	.LFE70
 5862 06e5 0400     		.2byte	0x4
 5863 06e7 F3       		.byte	0xf3
 5864 06e8 01       		.uleb128 0x1
 5865 06e9 52       		.byte	0x52
 5866 06ea 9F       		.byte	0x9f
 5867 06eb 00000000 		.4byte	0
ARM GAS  C:\Users\cring\AppData\Local\Temp\ccsXHiuh.s 			page 116


 5868 06ef 00000000 		.4byte	0
 5869              	.LLST38:
 5870 06f3 1E000000 		.4byte	.LVL164
 5871 06f7 22000000 		.4byte	.LVL165
 5872 06fb 0200     		.2byte	0x2
 5873 06fd 30       		.byte	0x30
 5874 06fe 9F       		.byte	0x9f
 5875 06ff 22000000 		.4byte	.LVL165
 5876 0703 42000000 		.4byte	.LVL168
 5877 0707 0100     		.2byte	0x1
 5878 0709 54       		.byte	0x54
 5879 070a 00000000 		.4byte	0
 5880 070e 00000000 		.4byte	0
 5881              	.LLST39:
 5882 0712 00000000 		.4byte	.LVL169
 5883 0716 06000000 		.4byte	.LVL170
 5884 071a 0100     		.2byte	0x1
 5885 071c 50       		.byte	0x50
 5886 071d 06000000 		.4byte	.LVL170
 5887 0721 60000000 		.4byte	.LVL184
 5888 0725 0100     		.2byte	0x1
 5889 0727 55       		.byte	0x55
 5890 0728 60000000 		.4byte	.LVL184
 5891 072c 7C000000 		.4byte	.LFE71
 5892 0730 0400     		.2byte	0x4
 5893 0732 F3       		.byte	0xf3
 5894 0733 01       		.uleb128 0x1
 5895 0734 50       		.byte	0x50
 5896 0735 9F       		.byte	0x9f
 5897 0736 00000000 		.4byte	0
 5898 073a 00000000 		.4byte	0
 5899              	.LLST40:
 5900 073e 00000000 		.4byte	.LVL185
 5901 0742 18000000 		.4byte	.LVL186
 5902 0746 0600     		.2byte	0x6
 5903 0748 50       		.byte	0x50
 5904 0749 93       		.byte	0x93
 5905 074a 04       		.uleb128 0x4
 5906 074b 51       		.byte	0x51
 5907 074c 93       		.byte	0x93
 5908 074d 04       		.uleb128 0x4
 5909 074e 18000000 		.4byte	.LVL186
 5910 0752 48000000 		.4byte	.LFE74
 5911 0756 0600     		.2byte	0x6
 5912 0758 F3       		.byte	0xf3
 5913 0759 03       		.uleb128 0x3
 5914 075a F5       		.byte	0xf5
 5915 075b 00       		.uleb128 0
 5916 075c 25       		.uleb128 0x25
 5917 075d 9F       		.byte	0x9f
 5918 075e 00000000 		.4byte	0
 5919 0762 00000000 		.4byte	0
 5920              	.LLST41:
 5921 0766 00000000 		.4byte	.LVL185
 5922 076a 1B000000 		.4byte	.LVL187-1
 5923 076e 0600     		.2byte	0x6
 5924 0770 52       		.byte	0x52
ARM GAS  C:\Users\cring\AppData\Local\Temp\ccsXHiuh.s 			page 117


 5925 0771 93       		.byte	0x93
 5926 0772 04       		.uleb128 0x4
 5927 0773 53       		.byte	0x53
 5928 0774 93       		.byte	0x93
 5929 0775 04       		.uleb128 0x4
 5930 0776 1B000000 		.4byte	.LVL187-1
 5931 077a 48000000 		.4byte	.LFE74
 5932 077e 0600     		.2byte	0x6
 5933 0780 F3       		.byte	0xf3
 5934 0781 03       		.uleb128 0x3
 5935 0782 F5       		.byte	0xf5
 5936 0783 02       		.uleb128 0x2
 5937 0784 25       		.uleb128 0x25
 5938 0785 9F       		.byte	0x9f
 5939 0786 00000000 		.4byte	0
 5940 078a 00000000 		.4byte	0
 5941              	.LLST42:
 5942 078e 00000000 		.4byte	.LVL189
 5943 0792 1A000000 		.4byte	.LVL190
 5944 0796 0100     		.2byte	0x1
 5945 0798 50       		.byte	0x50
 5946 0799 1A000000 		.4byte	.LVL190
 5947 079d 1D000000 		.4byte	.LVL191-1
 5948 07a1 0500     		.2byte	0x5
 5949 07a3 03       		.byte	0x3
 5950 07a4 14000000 		.4byte	pulselength_
 5951 07a8 1D000000 		.4byte	.LVL191-1
 5952 07ac 4C000000 		.4byte	.LFE75
 5953 07b0 0400     		.2byte	0x4
 5954 07b2 F3       		.byte	0xf3
 5955 07b3 01       		.uleb128 0x1
 5956 07b4 50       		.byte	0x50
 5957 07b5 9F       		.byte	0x9f
 5958 07b6 00000000 		.4byte	0
 5959 07ba 00000000 		.4byte	0
 5960              	.LLST43:
 5961 07be 00000000 		.4byte	.LVL189
 5962 07c2 1D000000 		.4byte	.LVL191-1
 5963 07c6 0600     		.2byte	0x6
 5964 07c8 52       		.byte	0x52
 5965 07c9 93       		.byte	0x93
 5966 07ca 04       		.uleb128 0x4
 5967 07cb 53       		.byte	0x53
 5968 07cc 93       		.byte	0x93
 5969 07cd 04       		.uleb128 0x4
 5970 07ce 1D000000 		.4byte	.LVL191-1
 5971 07d2 4C000000 		.4byte	.LFE75
 5972 07d6 0600     		.2byte	0x6
 5973 07d8 F3       		.byte	0xf3
 5974 07d9 03       		.uleb128 0x3
 5975 07da F5       		.byte	0xf5
 5976 07db 02       		.uleb128 0x2
 5977 07dc 25       		.uleb128 0x25
 5978 07dd 9F       		.byte	0x9f
 5979 07de 00000000 		.4byte	0
 5980 07e2 00000000 		.4byte	0
 5981              	.LLST44:
ARM GAS  C:\Users\cring\AppData\Local\Temp\ccsXHiuh.s 			page 118


 5982 07e6 00000000 		.4byte	.LVL189
 5983 07ea 48000000 		.4byte	.LVL195
 5984 07ee 0200     		.2byte	0x2
 5985 07f0 91       		.byte	0x91
 5986 07f1 00       		.sleb128 0
 5987 07f2 48000000 		.4byte	.LVL195
 5988 07f6 4C000000 		.4byte	.LFE75
 5989 07fa 0200     		.2byte	0x2
 5990 07fc 7D       		.byte	0x7d
 5991 07fd 00       		.sleb128 0
 5992 07fe 00000000 		.4byte	0
 5993 0802 00000000 		.4byte	0
 5994              	.LLST45:
 5995 0806 00000000 		.4byte	.LVL189
 5996 080a 48000000 		.4byte	.LVL195
 5997 080e 0200     		.2byte	0x2
 5998 0810 91       		.byte	0x91
 5999 0811 08       		.sleb128 8
 6000 0812 48000000 		.4byte	.LVL195
 6001 0816 4C000000 		.4byte	.LFE75
 6002 081a 0200     		.2byte	0x2
 6003 081c 7D       		.byte	0x7d
 6004 081d 08       		.sleb128 8
 6005 081e 00000000 		.4byte	0
 6006 0822 00000000 		.4byte	0
 6007              	.LLST46:
 6008 0826 00000000 		.4byte	.LVL189
 6009 082a 48000000 		.4byte	.LVL195
 6010 082e 0200     		.2byte	0x2
 6011 0830 91       		.byte	0x91
 6012 0831 10       		.sleb128 16
 6013 0832 48000000 		.4byte	.LVL195
 6014 0836 4C000000 		.4byte	.LFE75
 6015 083a 0200     		.2byte	0x2
 6016 083c 7D       		.byte	0x7d
 6017 083d 10       		.sleb128 16
 6018 083e 00000000 		.4byte	0
 6019 0842 00000000 		.4byte	0
 6020              	.LLST47:
 6021 0846 24000000 		.4byte	.LVL192
 6022 084a 28000000 		.4byte	.LVL193
 6023 084e 0200     		.2byte	0x2
 6024 0850 30       		.byte	0x30
 6025 0851 9F       		.byte	0x9f
 6026 0852 28000000 		.4byte	.LVL193
 6027 0856 4C000000 		.4byte	.LFE75
 6028 085a 0100     		.2byte	0x1
 6029 085c 52       		.byte	0x52
 6030 085d 00000000 		.4byte	0
 6031 0861 00000000 		.4byte	0
 6032              	.LLST48:
 6033 0865 00000000 		.4byte	.LVL196
 6034 0869 16000000 		.4byte	.LVL197
 6035 086d 0600     		.2byte	0x6
 6036 086f 50       		.byte	0x50
 6037 0870 93       		.byte	0x93
 6038 0871 04       		.uleb128 0x4
ARM GAS  C:\Users\cring\AppData\Local\Temp\ccsXHiuh.s 			page 119


 6039 0872 51       		.byte	0x51
 6040 0873 93       		.byte	0x93
 6041 0874 04       		.uleb128 0x4
 6042 0875 16000000 		.4byte	.LVL197
 6043 0879 44000000 		.4byte	.LFE76
 6044 087d 0600     		.2byte	0x6
 6045 087f F3       		.byte	0xf3
 6046 0880 03       		.uleb128 0x3
 6047 0881 F5       		.byte	0xf5
 6048 0882 00       		.uleb128 0
 6049 0883 25       		.uleb128 0x25
 6050 0884 9F       		.byte	0x9f
 6051 0885 00000000 		.4byte	0
 6052 0889 00000000 		.4byte	0
 6053              	.LLST49:
 6054 088d 00000000 		.4byte	.LVL196
 6055 0891 19000000 		.4byte	.LVL198-1
 6056 0895 0600     		.2byte	0x6
 6057 0897 52       		.byte	0x52
 6058 0898 93       		.byte	0x93
 6059 0899 04       		.uleb128 0x4
 6060 089a 53       		.byte	0x53
 6061 089b 93       		.byte	0x93
 6062 089c 04       		.uleb128 0x4
 6063 089d 19000000 		.4byte	.LVL198-1
 6064 08a1 44000000 		.4byte	.LFE76
 6065 08a5 0600     		.2byte	0x6
 6066 08a7 F3       		.byte	0xf3
 6067 08a8 03       		.uleb128 0x3
 6068 08a9 F5       		.byte	0xf5
 6069 08aa 02       		.uleb128 0x2
 6070 08ab 25       		.uleb128 0x25
 6071 08ac 9F       		.byte	0x9f
 6072 08ad 00000000 		.4byte	0
 6073 08b1 00000000 		.4byte	0
 6074              	.LLST50:
 6075 08b5 20000000 		.4byte	.LVL199
 6076 08b9 24000000 		.4byte	.LVL200
 6077 08bd 0200     		.2byte	0x2
 6078 08bf 30       		.byte	0x30
 6079 08c0 9F       		.byte	0x9f
 6080 08c1 24000000 		.4byte	.LVL200
 6081 08c5 44000000 		.4byte	.LFE76
 6082 08c9 0100     		.2byte	0x1
 6083 08cb 52       		.byte	0x52
 6084 08cc 00000000 		.4byte	0
 6085 08d0 00000000 		.4byte	0
 6086              	.LLST51:
 6087 08d4 00000000 		.4byte	.LVL202
 6088 08d8 1E000000 		.4byte	.LVL203
 6089 08dc 0100     		.2byte	0x1
 6090 08de 50       		.byte	0x50
 6091 08df 1E000000 		.4byte	.LVL203
 6092 08e3 21000000 		.4byte	.LVL204-1
 6093 08e7 0200     		.2byte	0x2
 6094 08e9 91       		.byte	0x91
 6095 08ea 70       		.sleb128 -16
ARM GAS  C:\Users\cring\AppData\Local\Temp\ccsXHiuh.s 			page 120


 6096 08eb 21000000 		.4byte	.LVL204-1
 6097 08ef 38000000 		.4byte	.LFE81
 6098 08f3 0400     		.2byte	0x4
 6099 08f5 F3       		.byte	0xf3
 6100 08f6 01       		.uleb128 0x1
 6101 08f7 50       		.byte	0x50
 6102 08f8 9F       		.byte	0x9f
 6103 08f9 00000000 		.4byte	0
 6104 08fd 00000000 		.4byte	0
 6105              	.LLST52:
 6106 0901 00000000 		.4byte	.LVL205
 6107 0905 1A000000 		.4byte	.LVL206
 6108 0909 0100     		.2byte	0x1
 6109 090b 50       		.byte	0x50
 6110 090c 1A000000 		.4byte	.LVL206
 6111 0910 1D000000 		.4byte	.LVL207-1
 6112 0914 0200     		.2byte	0x2
 6113 0916 91       		.byte	0x91
 6114 0917 70       		.sleb128 -16
 6115 0918 1D000000 		.4byte	.LVL207-1
 6116 091c 3C000000 		.4byte	.LFE82
 6117 0920 0400     		.2byte	0x4
 6118 0922 F3       		.byte	0xf3
 6119 0923 01       		.uleb128 0x1
 6120 0924 50       		.byte	0x50
 6121 0925 9F       		.byte	0x9f
 6122 0926 00000000 		.4byte	0
 6123 092a 00000000 		.4byte	0
 6124              	.LLST53:
 6125 092e 00000000 		.4byte	.LVL208
 6126 0932 09000000 		.4byte	.LVL209-1
 6127 0936 0100     		.2byte	0x1
 6128 0938 50       		.byte	0x50
 6129 0939 09000000 		.4byte	.LVL209-1
 6130 093d 26000000 		.4byte	.LVL211
 6131 0941 0100     		.2byte	0x1
 6132 0943 54       		.byte	0x54
 6133 0944 26000000 		.4byte	.LVL211
 6134 0948 38000000 		.4byte	.LFE83
 6135 094c 0400     		.2byte	0x4
 6136 094e F3       		.byte	0xf3
 6137 094f 01       		.uleb128 0x1
 6138 0950 50       		.byte	0x50
 6139 0951 9F       		.byte	0x9f
 6140 0952 00000000 		.4byte	0
 6141 0956 00000000 		.4byte	0
 6142              	.LLST54:
 6143 095a 00000000 		.4byte	.LVL212
 6144 095e 10000000 		.4byte	.LVL213
 6145 0962 0100     		.2byte	0x1
 6146 0964 50       		.byte	0x50
 6147 0965 10000000 		.4byte	.LVL213
 6148 0969 15000000 		.4byte	.LVL214-1
 6149 096d 0200     		.2byte	0x2
 6150 096f 91       		.byte	0x91
 6151 0970 70       		.sleb128 -16
 6152 0971 15000000 		.4byte	.LVL214-1
ARM GAS  C:\Users\cring\AppData\Local\Temp\ccsXHiuh.s 			page 121


 6153 0975 24000000 		.4byte	.LFE84
 6154 0979 0400     		.2byte	0x4
 6155 097b F3       		.byte	0xf3
 6156 097c 01       		.uleb128 0x1
 6157 097d 50       		.byte	0x50
 6158 097e 9F       		.byte	0x9f
 6159 097f 00000000 		.4byte	0
 6160 0983 00000000 		.4byte	0
 6161              	.LLST55:
 6162 0987 00000000 		.4byte	.LVL215
 6163 098b 18000000 		.4byte	.LVL216
 6164 098f 0100     		.2byte	0x1
 6165 0991 50       		.byte	0x50
 6166 0992 18000000 		.4byte	.LVL216
 6167 0996 1B000000 		.4byte	.LVL217-1
 6168 099a 0200     		.2byte	0x2
 6169 099c 91       		.byte	0x91
 6170 099d 70       		.sleb128 -16
 6171 099e 1B000000 		.4byte	.LVL217-1
 6172 09a2 2C000000 		.4byte	.LFE85
 6173 09a6 0400     		.2byte	0x4
 6174 09a8 F3       		.byte	0xf3
 6175 09a9 01       		.uleb128 0x1
 6176 09aa 50       		.byte	0x50
 6177 09ab 9F       		.byte	0x9f
 6178 09ac 00000000 		.4byte	0
 6179 09b0 00000000 		.4byte	0
 6180              	.LLST56:
 6181 09b4 00000000 		.4byte	.LVL218
 6182 09b8 09000000 		.4byte	.LVL219-1
 6183 09bc 0100     		.2byte	0x1
 6184 09be 50       		.byte	0x50
 6185 09bf 09000000 		.4byte	.LVL219-1
 6186 09c3 20000000 		.4byte	.LVL221
 6187 09c7 0100     		.2byte	0x1
 6188 09c9 54       		.byte	0x54
 6189 09ca 20000000 		.4byte	.LVL221
 6190 09ce 28000000 		.4byte	.LFE86
 6191 09d2 0400     		.2byte	0x4
 6192 09d4 F3       		.byte	0xf3
 6193 09d5 01       		.uleb128 0x1
 6194 09d6 50       		.byte	0x50
 6195 09d7 9F       		.byte	0x9f
 6196 09d8 00000000 		.4byte	0
 6197 09dc 00000000 		.4byte	0
 6198              	.LLST57:
 6199 09e0 00000000 		.4byte	.LVL222
 6200 09e4 21000000 		.4byte	.LVL223-1
 6201 09e8 0100     		.2byte	0x1
 6202 09ea 50       		.byte	0x50
 6203 09eb 21000000 		.4byte	.LVL223-1
 6204 09ef 44000000 		.4byte	.LVL227
 6205 09f3 0100     		.2byte	0x1
 6206 09f5 58       		.byte	0x58
 6207 09f6 44000000 		.4byte	.LVL227
 6208 09fa 53000000 		.4byte	.LVL228-1
 6209 09fe 0200     		.2byte	0x2
ARM GAS  C:\Users\cring\AppData\Local\Temp\ccsXHiuh.s 			page 122


 6210 0a00 91       		.byte	0x91
 6211 0a01 58       		.sleb128 -40
 6212 0a02 53000000 		.4byte	.LVL228-1
 6213 0a06 6C000000 		.4byte	.LVL230
 6214 0a0a 0400     		.2byte	0x4
 6215 0a0c F3       		.byte	0xf3
 6216 0a0d 01       		.uleb128 0x1
 6217 0a0e 50       		.byte	0x50
 6218 0a0f 9F       		.byte	0x9f
 6219 0a10 6C000000 		.4byte	.LVL230
 6220 0a14 80000000 		.4byte	.LVL231
 6221 0a18 0100     		.2byte	0x1
 6222 0a1a 50       		.byte	0x50
 6223 0a1b 80000000 		.4byte	.LVL231
 6224 0a1f 9E000000 		.4byte	.LVL235
 6225 0a23 0100     		.2byte	0x1
 6226 0a25 58       		.byte	0x58
 6227 0a26 9E000000 		.4byte	.LVL235
 6228 0a2a B2000000 		.4byte	.LVL236
 6229 0a2e 0100     		.2byte	0x1
 6230 0a30 50       		.byte	0x50
 6231 0a31 B2000000 		.4byte	.LVL236
 6232 0a35 D0000000 		.4byte	.LVL240
 6233 0a39 0100     		.2byte	0x1
 6234 0a3b 58       		.byte	0x58
 6235 0a3c D0000000 		.4byte	.LVL240
 6236 0a40 E4000000 		.4byte	.LVL241
 6237 0a44 0100     		.2byte	0x1
 6238 0a46 50       		.byte	0x50
 6239 0a47 E4000000 		.4byte	.LVL241
 6240 0a4b 12010000 		.4byte	.LVL247
 6241 0a4f 0100     		.2byte	0x1
 6242 0a51 58       		.byte	0x58
 6243 0a52 12010000 		.4byte	.LVL247
 6244 0a56 1A010000 		.4byte	.LVL248
 6245 0a5a 0100     		.2byte	0x1
 6246 0a5c 50       		.byte	0x50
 6247 0a5d 1A010000 		.4byte	.LVL248
 6248 0a61 1C010000 		.4byte	.LVL249
 6249 0a65 0100     		.2byte	0x1
 6250 0a67 58       		.byte	0x58
 6251 0a68 1C010000 		.4byte	.LVL249
 6252 0a6c 1E010000 		.4byte	.LVL250
 6253 0a70 0100     		.2byte	0x1
 6254 0a72 50       		.byte	0x50
 6255 0a73 1E010000 		.4byte	.LVL250
 6256 0a77 44010000 		.4byte	.LFE87
 6257 0a7b 0400     		.2byte	0x4
 6258 0a7d F3       		.byte	0xf3
 6259 0a7e 01       		.uleb128 0x1
 6260 0a7f 50       		.byte	0x50
 6261 0a80 9F       		.byte	0x9f
 6262 0a81 00000000 		.4byte	0
 6263 0a85 00000000 		.4byte	0
 6264              	.LLST58:
 6265 0a89 00000000 		.4byte	.LVL222
 6266 0a8d 21000000 		.4byte	.LVL223-1
ARM GAS  C:\Users\cring\AppData\Local\Temp\ccsXHiuh.s 			page 123


 6267 0a91 0100     		.2byte	0x1
 6268 0a93 51       		.byte	0x51
 6269 0a94 21000000 		.4byte	.LVL223-1
 6270 0a98 6C000000 		.4byte	.LVL230
 6271 0a9c 0100     		.2byte	0x1
 6272 0a9e 5A       		.byte	0x5a
 6273 0a9f 6C000000 		.4byte	.LVL230
 6274 0aa3 82000000 		.4byte	.LVL232
 6275 0aa7 0100     		.2byte	0x1
 6276 0aa9 51       		.byte	0x51
 6277 0aaa 82000000 		.4byte	.LVL232
 6278 0aae 9E000000 		.4byte	.LVL235
 6279 0ab2 0100     		.2byte	0x1
 6280 0ab4 5A       		.byte	0x5a
 6281 0ab5 9E000000 		.4byte	.LVL235
 6282 0ab9 B4000000 		.4byte	.LVL237
 6283 0abd 0100     		.2byte	0x1
 6284 0abf 51       		.byte	0x51
 6285 0ac0 B4000000 		.4byte	.LVL237
 6286 0ac4 D0000000 		.4byte	.LVL240
 6287 0ac8 0100     		.2byte	0x1
 6288 0aca 5A       		.byte	0x5a
 6289 0acb D0000000 		.4byte	.LVL240
 6290 0acf E6000000 		.4byte	.LVL242
 6291 0ad3 0100     		.2byte	0x1
 6292 0ad5 51       		.byte	0x51
 6293 0ad6 E6000000 		.4byte	.LVL242
 6294 0ada 12010000 		.4byte	.LVL247
 6295 0ade 0100     		.2byte	0x1
 6296 0ae0 5A       		.byte	0x5a
 6297 0ae1 12010000 		.4byte	.LVL247
 6298 0ae5 1E010000 		.4byte	.LVL250
 6299 0ae9 0100     		.2byte	0x1
 6300 0aeb 51       		.byte	0x51
 6301 0aec 1E010000 		.4byte	.LVL250
 6302 0af0 24010000 		.4byte	.LVL251
 6303 0af4 0100     		.2byte	0x1
 6304 0af6 5A       		.byte	0x5a
 6305 0af7 24010000 		.4byte	.LVL251
 6306 0afb 44010000 		.4byte	.LFE87
 6307 0aff 0400     		.2byte	0x4
 6308 0b01 F3       		.byte	0xf3
 6309 0b02 01       		.uleb128 0x1
 6310 0b03 51       		.byte	0x51
 6311 0b04 9F       		.byte	0x9f
 6312 0b05 00000000 		.4byte	0
 6313 0b09 00000000 		.4byte	0
 6314              	.LLST59:
 6315 0b0d 00000000 		.4byte	.LVL253
 6316 0b11 16000000 		.4byte	.LVL254
 6317 0b15 0100     		.2byte	0x1
 6318 0b17 50       		.byte	0x50
 6319 0b18 16000000 		.4byte	.LVL254
 6320 0b1c 1B000000 		.4byte	.LVL255-1
 6321 0b20 0200     		.2byte	0x2
 6322 0b22 91       		.byte	0x91
 6323 0b23 70       		.sleb128 -16
ARM GAS  C:\Users\cring\AppData\Local\Temp\ccsXHiuh.s 			page 124


 6324 0b24 1B000000 		.4byte	.LVL255-1
 6325 0b28 38000000 		.4byte	.LFE88
 6326 0b2c 0400     		.2byte	0x4
 6327 0b2e F3       		.byte	0xf3
 6328 0b2f 01       		.uleb128 0x1
 6329 0b30 50       		.byte	0x50
 6330 0b31 9F       		.byte	0x9f
 6331 0b32 00000000 		.4byte	0
 6332 0b36 00000000 		.4byte	0
 6333              	.LLST60:
 6334 0b3a 00000000 		.4byte	.LVL256
 6335 0b3e 09000000 		.4byte	.LVL257-1
 6336 0b42 0100     		.2byte	0x1
 6337 0b44 50       		.byte	0x50
 6338 0b45 09000000 		.4byte	.LVL257-1
 6339 0b49 20000000 		.4byte	.LVL259
 6340 0b4d 0100     		.2byte	0x1
 6341 0b4f 54       		.byte	0x54
 6342 0b50 20000000 		.4byte	.LVL259
 6343 0b54 28000000 		.4byte	.LFE89
 6344 0b58 0400     		.2byte	0x4
 6345 0b5a F3       		.byte	0xf3
 6346 0b5b 01       		.uleb128 0x1
 6347 0b5c 50       		.byte	0x50
 6348 0b5d 9F       		.byte	0x9f
 6349 0b5e 00000000 		.4byte	0
 6350 0b62 00000000 		.4byte	0
 6351              		.section	.debug_aranges,"",%progbits
 6352 0000 E4000000 		.4byte	0xe4
 6353 0004 0200     		.2byte	0x2
 6354 0006 00000000 		.4byte	.Ldebug_info0
 6355 000a 04       		.byte	0x4
 6356 000b 00       		.byte	0
 6357 000c 0000     		.2byte	0
 6358 000e 0000     		.2byte	0
 6359 0010 00000000 		.4byte	.LFB69
 6360 0014 30000000 		.4byte	.LFE69-.LFB69
 6361 0018 00000000 		.4byte	.LFB73
 6362 001c 2C000000 		.4byte	.LFE73-.LFB73
 6363 0020 00000000 		.4byte	.LFB77
 6364 0024 FC010000 		.4byte	.LFE77-.LFB77
 6365 0028 00000000 		.4byte	.LFB78
 6366 002c 54000000 		.4byte	.LFE78-.LFB78
 6367 0030 00000000 		.4byte	.LFB64
 6368 0034 30000000 		.4byte	.LFE64-.LFB64
 6369 0038 00000000 		.4byte	.LFB79
 6370 003c 32010000 		.4byte	.LFE79-.LFB79
 6371 0040 00000000 		.4byte	.LFB72
 6372 0044 3A000000 		.4byte	.LFE72-.LFB72
 6373 0048 00000000 		.4byte	.LFB66
 6374 004c 28010000 		.4byte	.LFE66-.LFB66
 6375 0050 00000000 		.4byte	.LFB67
 6376 0054 BC000000 		.4byte	.LFE67-.LFB67
 6377 0058 00000000 		.4byte	.LFB65
 6378 005c 0C010000 		.4byte	.LFE65-.LFB65
 6379 0060 00000000 		.4byte	.LFB80
 6380 0064 12000000 		.4byte	.LFE80-.LFB80
ARM GAS  C:\Users\cring\AppData\Local\Temp\ccsXHiuh.s 			page 125


 6381 0068 00000000 		.4byte	.LFB70
 6382 006c 48000000 		.4byte	.LFE70-.LFB70
 6383 0070 00000000 		.4byte	.LFB71
 6384 0074 7C000000 		.4byte	.LFE71-.LFB71
 6385 0078 00000000 		.4byte	.LFB74
 6386 007c 48000000 		.4byte	.LFE74-.LFB74
 6387 0080 00000000 		.4byte	.LFB75
 6388 0084 4C000000 		.4byte	.LFE75-.LFB75
 6389 0088 00000000 		.4byte	.LFB76
 6390 008c 44000000 		.4byte	.LFE76-.LFB76
 6391 0090 00000000 		.4byte	.LFB81
 6392 0094 38000000 		.4byte	.LFE81-.LFB81
 6393 0098 00000000 		.4byte	.LFB82
 6394 009c 3C000000 		.4byte	.LFE82-.LFB82
 6395 00a0 00000000 		.4byte	.LFB83
 6396 00a4 38000000 		.4byte	.LFE83-.LFB83
 6397 00a8 00000000 		.4byte	.LFB84
 6398 00ac 24000000 		.4byte	.LFE84-.LFB84
 6399 00b0 00000000 		.4byte	.LFB85
 6400 00b4 2C000000 		.4byte	.LFE85-.LFB85
 6401 00b8 00000000 		.4byte	.LFB86
 6402 00bc 28000000 		.4byte	.LFE86-.LFB86
 6403 00c0 00000000 		.4byte	.LFB87
 6404 00c4 44010000 		.4byte	.LFE87-.LFB87
 6405 00c8 00000000 		.4byte	.LFB68
 6406 00cc 18000000 		.4byte	.LFE68-.LFB68
 6407 00d0 00000000 		.4byte	.LFB88
 6408 00d4 38000000 		.4byte	.LFE88-.LFB88
 6409 00d8 00000000 		.4byte	.LFB89
 6410 00dc 28000000 		.4byte	.LFE89-.LFB89
 6411 00e0 00000000 		.4byte	0
 6412 00e4 00000000 		.4byte	0
 6413              		.section	.debug_ranges,"",%progbits
 6414              	.Ldebug_ranges0:
 6415 0000 00000000 		.4byte	.LFB69
 6416 0004 30000000 		.4byte	.LFE69
 6417 0008 00000000 		.4byte	.LFB73
 6418 000c 2C000000 		.4byte	.LFE73
 6419 0010 00000000 		.4byte	.LFB77
 6420 0014 FC010000 		.4byte	.LFE77
 6421 0018 00000000 		.4byte	.LFB78
 6422 001c 54000000 		.4byte	.LFE78
 6423 0020 00000000 		.4byte	.LFB64
 6424 0024 30000000 		.4byte	.LFE64
 6425 0028 00000000 		.4byte	.LFB79
 6426 002c 32010000 		.4byte	.LFE79
 6427 0030 00000000 		.4byte	.LFB72
 6428 0034 3A000000 		.4byte	.LFE72
 6429 0038 00000000 		.4byte	.LFB66
 6430 003c 28010000 		.4byte	.LFE66
 6431 0040 00000000 		.4byte	.LFB67
 6432 0044 BC000000 		.4byte	.LFE67
 6433 0048 00000000 		.4byte	.LFB65
 6434 004c 0C010000 		.4byte	.LFE65
 6435 0050 00000000 		.4byte	.LFB80
 6436 0054 12000000 		.4byte	.LFE80
 6437 0058 00000000 		.4byte	.LFB70
ARM GAS  C:\Users\cring\AppData\Local\Temp\ccsXHiuh.s 			page 126


 6438 005c 48000000 		.4byte	.LFE70
 6439 0060 00000000 		.4byte	.LFB71
 6440 0064 7C000000 		.4byte	.LFE71
 6441 0068 00000000 		.4byte	.LFB74
 6442 006c 48000000 		.4byte	.LFE74
 6443 0070 00000000 		.4byte	.LFB75
 6444 0074 4C000000 		.4byte	.LFE75
 6445 0078 00000000 		.4byte	.LFB76
 6446 007c 44000000 		.4byte	.LFE76
 6447 0080 00000000 		.4byte	.LFB81
 6448 0084 38000000 		.4byte	.LFE81
 6449 0088 00000000 		.4byte	.LFB82
 6450 008c 3C000000 		.4byte	.LFE82
 6451 0090 00000000 		.4byte	.LFB83
 6452 0094 38000000 		.4byte	.LFE83
 6453 0098 00000000 		.4byte	.LFB84
 6454 009c 24000000 		.4byte	.LFE84
 6455 00a0 00000000 		.4byte	.LFB85
 6456 00a4 2C000000 		.4byte	.LFE85
 6457 00a8 00000000 		.4byte	.LFB86
 6458 00ac 28000000 		.4byte	.LFE86
 6459 00b0 00000000 		.4byte	.LFB87
 6460 00b4 44010000 		.4byte	.LFE87
 6461 00b8 00000000 		.4byte	.LFB68
 6462 00bc 18000000 		.4byte	.LFE68
 6463 00c0 00000000 		.4byte	.LFB88
 6464 00c4 38000000 		.4byte	.LFE88
 6465 00c8 00000000 		.4byte	.LFB89
 6466 00cc 28000000 		.4byte	.LFE89
 6467 00d0 00000000 		.4byte	0
 6468 00d4 00000000 		.4byte	0
 6469              		.section	.debug_line,"",%progbits
 6470              	.Ldebug_line0:
 6471 0000 A4060000 		.section	.debug_str,"MS",%progbits,1
 6471      02008A02 
 6471      00000201 
 6471      FB0E0D00 
 6471      01010101 
 6472              	.LASF77:
 6473 0000 54696D65 		.ascii	"Timer3_WritePeriod\000"
 6473      72335F57 
 6473      72697465 
 6473      50657269 
 6473      6F6400
 6474              	.LASF33:
 6475 0013 6D735F62 		.ascii	"ms_blink\000"
 6475      6C696E6B 
 6475      00
 6476              	.LASF8:
 6477 001c 6C6F6E67 		.ascii	"long long unsigned int\000"
 6477      206C6F6E 
 6477      6720756E 
 6477      7369676E 
 6477      65642069 
 6478              	.LASF93:
 6479 0033 54696D65 		.ascii	"Timer2_Start\000"
 6479      72325F53 
ARM GAS  C:\Users\cring\AppData\Local\Temp\ccsXHiuh.s 			page 127


 6479      74617274 
 6479      00
 6480              	.LASF72:
 6481 0040 49544D5F 		.ascii	"ITM_RxBuffer\000"
 6481      52784275 
 6481      66666572 
 6481      00
 6482              	.LASF101:
 6483 004d 433A5C55 		.ascii	"C:\\Users\\cring\\Documents\\GitHub\\E5PRJ3\\LED ko"
 6483      73657273 
 6483      5C637269 
 6483      6E675C44 
 6483      6F63756D 
 6484 007a 64655C4C 		.ascii	"de\\LEDcontrol\\LED_control.cydsn\000"
 6484      4544636F 
 6484      6E74726F 
 6484      6C5C4C45 
 6484      445F636F 
 6485              	.LASF61:
 6486 009a 7267624C 		.ascii	"rgbLED_1\000"
 6486      45445F31 
 6486      00
 6487              	.LASF62:
 6488 00a3 7267624C 		.ascii	"rgbLED_2\000"
 6488      45445F32 
 6488      00
 6489              	.LASF60:
 6490 00ac 77656967 		.ascii	"weightapprovedSeq\000"
 6490      68746170 
 6490      70726F76 
 6490      65645365 
 6490      7100
 6491              	.LASF95:
 6492 00be 54696D65 		.ascii	"Timer4_Start\000"
 6492      72345F53 
 6492      74617274 
 6492      00
 6493              	.LASF7:
 6494 00cb 6C6F6E67 		.ascii	"long long int\000"
 6494      206C6F6E 
 6494      6720696E 
 6494      7400
 6495              	.LASF1:
 6496 00d9 7369676E 		.ascii	"signed char\000"
 6496      65642063 
 6496      68617200 
 6497              	.LASF34:
 6498 00e5 68737632 		.ascii	"hsv2rgb\000"
 6498      72676200 
 6499              	.LASF18:
 6500 00ed 67726565 		.ascii	"green1\000"
 6500      6E3100
 6501              	.LASF19:
 6502 00f4 67726565 		.ascii	"green2\000"
 6502      6E3200
 6503              	.LASF5:
 6504 00fb 6C6F6E67 		.ascii	"long int\000"
ARM GAS  C:\Users\cring\AppData\Local\Temp\ccsXHiuh.s 			page 128


 6504      20696E74 
 6504      00
 6505              	.LASF47:
 6506 0104 4C45446C 		.ascii	"LEDlength_\000"
 6506      656E6774 
 6506      685F00
 6507              	.LASF51:
 6508 010f 70756C73 		.ascii	"pulseLED\000"
 6508      654C4544 
 6508      00
 6509              	.LASF91:
 6510 0118 6973725F 		.ascii	"isr_delay_StartEx\000"
 6510      64656C61 
 6510      795F5374 
 6510      61727445 
 6510      7800
 6511              	.LASF75:
 6512 012a 54696D65 		.ascii	"Timer1_WritePeriod\000"
 6512      72315F57 
 6512      72697465 
 6512      50657269 
 6512      6F6400
 6513              	.LASF20:
 6514 013d 72656431 		.ascii	"red1\000"
 6514      00
 6515              	.LASF21:
 6516 0142 72656432 		.ascii	"red2\000"
 6516      00
 6517              	.LASF100:
 6518 0147 4C454463 		.ascii	"LEDcontrol.c\000"
 6518      6F6E7472 
 6518      6F6C2E63 
 6518      00
 6519              	.LASF0:
 6520 0154 646F7562 		.ascii	"double\000"
 6520      6C6500
 6521              	.LASF69:
 6522 015b 636F756E 		.ascii	"count\000"
 6522      7400
 6523              	.LASF40:
 6524 0161 426C7565 		.ascii	"Blue\000"
 6524      00
 6525              	.LASF63:
 6526 0166 6973725F 		.ascii	"isr_delay\000"
 6526      64656C61 
 6526      7900
 6527              	.LASF28:
 6528 0170 4C454463 		.ascii	"LEDctrl\000"
 6528      74726C00 
 6529              	.LASF35:
 6530 0178 7267624C 		.ascii	"rgbLED\000"
 6530      454400
 6531              	.LASF9:
 6532 017f 756E7369 		.ascii	"unsigned int\000"
 6532      676E6564 
 6532      20696E74 
 6532      00
ARM GAS  C:\Users\cring\AppData\Local\Temp\ccsXHiuh.s 			page 129


 6533              	.LASF79:
 6534 018c 666D6F64 		.ascii	"fmod\000"
 6534      00
 6535              	.LASF6:
 6536 0191 6C6F6E67 		.ascii	"long unsigned int\000"
 6536      20756E73 
 6536      69676E65 
 6536      6420696E 
 6536      7400
 6537              	.LASF50:
 6538 01a3 696E6974 		.ascii	"initLED\000"
 6538      4C454400 
 6539              	.LASF97:
 6540 01ab 6973725F 		.ascii	"isr_delay_Enable\000"
 6540      64656C61 
 6540      795F456E 
 6540      61626C65 
 6540      00
 6541              	.LASF58:
 6542 01bc 7A65726F 		.ascii	"zeroCalibrateSeq\000"
 6542      43616C69 
 6542      62726174 
 6542      65536571 
 6542      00
 6543              	.LASF22:
 6544 01cd 626C7565 		.ascii	"blue1\000"
 6544      3100
 6545              	.LASF23:
 6546 01d3 626C7565 		.ascii	"blue2\000"
 6546      3200
 6547              	.LASF102:
 6548 01d9 4C454463 		.ascii	"LEDctrl_\000"
 6548      74726C5F 
 6548      00
 6549              	.LASF88:
 6550 01e2 6973725F 		.ascii	"isr_LED_ring_StartEx\000"
 6550      4C45445F 
 6550      72696E67 
 6550      5F537461 
 6550      72744578 
 6551              	.LASF43:
 6552 01f7 6973725F 		.ascii	"isr_BlinkLED\000"
 6552      426C696E 
 6552      6B4C4544 
 6552      00
 6553              	.LASF98:
 6554 0204 6973725F 		.ascii	"isr_delay_Disable\000"
 6554      64656C61 
 6554      795F4469 
 6554      7361626C 
 6554      6500
 6555              	.LASF53:
 6556 0216 70756C73 		.ascii	"pulselength\000"
 6556      656C656E 
 6556      67746800 
 6557              	.LASF76:
 6558 0222 54696D65 		.ascii	"Timer2_WritePeriod\000"
ARM GAS  C:\Users\cring\AppData\Local\Temp\ccsXHiuh.s 			page 130


 6558      72325F57 
 6558      72697465 
 6558      50657269 
 6558      6F6400
 6559              	.LASF15:
 6560 0235 73697A65 		.ascii	"sizetype\000"
 6560      74797065 
 6560      00
 6561              	.LASF30:
 6562 023e 73657473 		.ascii	"setspeed\000"
 6562      70656564 
 6562      00
 6563              	.LASF54:
 6564 0247 426C696E 		.ascii	"BlinkLED\000"
 6564      6B4C4544 
 6564      00
 6565              	.LASF66:
 6566 0250 70756C73 		.ascii	"pulselength_\000"
 6566      656C656E 
 6566      6774685F 
 6566      00
 6567              	.LASF78:
 6568 025d 54696D65 		.ascii	"Timer4_WritePeriod\000"
 6568      72345F57 
 6568      72697465 
 6568      50657269 
 6568      6F6400
 6569              	.LASF94:
 6570 0270 54696D65 		.ascii	"Timer3_Start\000"
 6570      72335F53 
 6570      74617274 
 6570      00
 6571              	.LASF17:
 6572 027d 626C7565 		.ascii	"blue\000"
 6572      00
 6573              	.LASF87:
 6574 0282 6973725F 		.ascii	"isr_LED_refreshrate_StartEx\000"
 6574      4C45445F 
 6574      72656672 
 6574      65736872 
 6574      6174655F 
 6575              	.LASF64:
 6576 029e 6572726F 		.ascii	"errorSeq\000"
 6576      72536571 
 6576      00
 6577              	.LASF36:
 6578 02a7 55706461 		.ascii	"UpdateLED\000"
 6578      74654C45 
 6578      4400
 6579              	.LASF12:
 6580 02b1 666C6F61 		.ascii	"float\000"
 6580      7400
 6581              	.LASF85:
 6582 02b7 54696D65 		.ascii	"Timer1_Start\000"
 6582      72315F53 
 6582      74617274 
 6582      00
ARM GAS  C:\Users\cring\AppData\Local\Temp\ccsXHiuh.s 			page 131


 6583              	.LASF55:
 6584 02c4 4C454469 		.ascii	"LEDinitSeq\000"
 6584      6E697453 
 6584      657100
 6585              	.LASF57:
 6586 02cf 6C6F7365 		.ascii	"loserSeq\000"
 6586      72536571 
 6586      00
 6587              	.LASF103:
 6588 02d8 73746172 		.ascii	"startSeq\000"
 6588      74536571 
 6588      00
 6589              	.LASF86:
 6590 02e1 54696D65 		.ascii	"Timer5_Stop\000"
 6590      72355F53 
 6590      746F7000 
 6591              	.LASF29:
 6592 02ed 73657472 		.ascii	"setrefreshrate\000"
 6592      65667265 
 6592      73687261 
 6592      746500
 6593              	.LASF68:
 6594 02fc 696E6465 		.ascii	"index2\000"
 6594      783200
 6595              	.LASF73:
 6596 0303 7267624C 		.ascii	"rgbLED1\000"
 6596      45443100 
 6597              	.LASF74:
 6598 030b 7267624C 		.ascii	"rgbLED2\000"
 6598      45443200 
 6599              	.LASF89:
 6600 0313 6973725F 		.ascii	"isr_LED_pulse_StartEx\000"
 6600      4C45445F 
 6600      70756C73 
 6600      655F5374 
 6600      61727445 
 6601              	.LASF11:
 6602 0329 696E7433 		.ascii	"int32_t\000"
 6602      325F7400 
 6603              	.LASF2:
 6604 0331 756E7369 		.ascii	"unsigned char\000"
 6604      676E6564 
 6604      20636861 
 6604      7200
 6605              	.LASF52:
 6606 033f 72696E67 		.ascii	"ringLED\000"
 6606      4C454400 
 6607              	.LASF96:
 6608 0347 54696D65 		.ascii	"Timer5_Start\000"
 6608      72355F53 
 6608      74617274 
 6608      00
 6609              	.LASF3:
 6610 0354 73686F72 		.ascii	"short int\000"
 6610      7420696E 
 6610      7400
 6611              	.LASF65:
ARM GAS  C:\Users\cring\AppData\Local\Temp\ccsXHiuh.s 			page 132


 6612 035e 77696E6E 		.ascii	"winnerSeq\000"
 6612      65725365 
 6612      7100
 6613              	.LASF49:
 6614 0368 73747269 		.ascii	"strip\000"
 6614      7000
 6615              	.LASF90:
 6616 036e 6973725F 		.ascii	"isr_BlinkLED_StartEx\000"
 6616      426C696E 
 6616      6B4C4544 
 6616      5F537461 
 6616      72744578 
 6617              	.LASF99:
 6618 0383 474E5520 		.ascii	"GNU C11 5.4.1 20160609 (release) [ARM/embedded-5-br"
 6618      43313120 
 6618      352E342E 
 6618      31203230 
 6618      31363036 
 6619 03b6 616E6368 		.ascii	"anch revision 237715] -mcpu=cortex-m3 -mthumb -g -O"
 6619      20726576 
 6619      6973696F 
 6619      6E203233 
 6619      37373135 
 6620 03e9 67202D66 		.ascii	"g -ffunction-sections -ffat-lto-objects\000"
 6620      66756E63 
 6620      74696F6E 
 6620      2D736563 
 6620      74696F6E 
 6621              	.LASF80:
 6622 0411 726F756E 		.ascii	"round\000"
 6622      6400
 6623              	.LASF37:
 6624 0417 6973725F 		.ascii	"isr_refreshrate\000"
 6624      72656672 
 6624      65736872 
 6624      61746500 
 6625              	.LASF67:
 6626 0427 696E6465 		.ascii	"index_\000"
 6626      785F00
 6627              	.LASF48:
 6628 042e 7267624C 		.ascii	"rgbLED_\000"
 6628      45445F00 
 6629              	.LASF59:
 6630 0436 63686563 		.ascii	"checkSeq\000"
 6630      6B536571 
 6630      00
 6631              	.LASF38:
 6632 043f 73657463 		.ascii	"setcolorLED\000"
 6632      6F6C6F72 
 6632      4C454400 
 6633              	.LASF46:
 6634 044b 6164644C 		.ascii	"addLEDstrip\000"
 6634      45447374 
 6634      72697000 
 6635              	.LASF82:
 6636 0457 5350494D 		.ascii	"SPIMOutCtrl_Write\000"
 6636      4F757443 
ARM GAS  C:\Users\cring\AppData\Local\Temp\ccsXHiuh.s 			page 133


 6636      74726C5F 
 6636      57726974 
 6636      6500
 6637              	.LASF41:
 6638 0469 66696C6C 		.ascii	"fillcolor\000"
 6638      636F6C6F 
 6638      7200
 6639              	.LASF13:
 6640 0473 63686172 		.ascii	"char\000"
 6640      00
 6641              	.LASF14:
 6642 0478 6C6F6E67 		.ascii	"long double\000"
 6642      20646F75 
 6642      626C6500 
 6643              	.LASF81:
 6644 0484 5350494D 		.ascii	"SPIM_1_WriteTxData\000"
 6644      5F315F57 
 6644      72697465 
 6644      54784461 
 6644      746100
 6645              	.LASF84:
 6646 0497 43794465 		.ascii	"CyDelayUs\000"
 6646      6C617955 
 6646      7300
 6647              	.LASF39:
 6648 04a1 47726565 		.ascii	"Green\000"
 6648      6E00
 6649              	.LASF26:
 6650 04a7 70756C73 		.ascii	"pulse\000"
 6650      6500
 6651              	.LASF31:
 6652 04ad 6D735F72 		.ascii	"ms_ring\000"
 6652      696E6700 
 6653              	.LASF42:
 6654 04b5 6973725F 		.ascii	"isr_LED_pulse\000"
 6654      4C45445F 
 6654      70756C73 
 6654      6500
 6655              	.LASF10:
 6656 04c3 5F5F696E 		.ascii	"__int32_t\000"
 6656      7433325F 
 6656      7400
 6657              	.LASF56:
 6658 04cd 69646C65 		.ascii	"idleSeq\000"
 6658      53657100 
 6659              	.LASF4:
 6660 04d5 73686F72 		.ascii	"short unsigned int\000"
 6660      7420756E 
 6660      7369676E 
 6660      65642069 
 6660      6E7400
 6661              	.LASF45:
 6662 04e8 4C45444F 		.ascii	"LEDOff\000"
 6662      666600
 6663              	.LASF83:
 6664 04ef 54696D65 		.ascii	"Timer1_Stop\000"
 6664      72315F53 
ARM GAS  C:\Users\cring\AppData\Local\Temp\ccsXHiuh.s 			page 134


 6664      746F7000 
 6665              	.LASF27:
 6666 04fb 626C696E 		.ascii	"blink\000"
 6666      6B00
 6667              	.LASF16:
 6668 0501 67726565 		.ascii	"green\000"
 6668      6E00
 6669              	.LASF70:
 6670 0507 636F756E 		.ascii	"count2\000"
 6670      743200
 6671              	.LASF71:
 6672 050e 636F756E 		.ascii	"count3\000"
 6672      743300
 6673              	.LASF44:
 6674 0515 6973725F 		.ascii	"isr_LED_ring\000"
 6674      4C45445F 
 6674      72696E67 
 6674      00
 6675              	.LASF25:
 6676 0522 72696E67 		.ascii	"ring\000"
 6676      00
 6677              	.LASF92:
 6678 0527 5350494D 		.ascii	"SPIM_1_Start\000"
 6678      5F315F53 
 6678      74617274 
 6678      00
 6679              	.LASF24:
 6680 0534 4C45446C 		.ascii	"LEDlength\000"
 6680      656E6774 
 6680      6800
 6681              	.LASF32:
 6682 053e 6D735F70 		.ascii	"ms_pulse\000"
 6682      756C7365 
 6682      00
 6683              		.ident	"GCC: (GNU Tools for ARM Embedded Processors) 5.4.1 20160609 (release) [ARM/embedded-5-bran
