ARM GAS  C:\Users\cring\AppData\Local\Temp\ccGk4Etb.s 			page 1


   1              		.syntax unified
   2              		.cpu cortex-m3
   3              		.fpu softvfp
   4              		.eabi_attribute 20, 1
   5              		.eabi_attribute 21, 1
   6              		.eabi_attribute 23, 3
   7              		.eabi_attribute 24, 1
   8              		.eabi_attribute 25, 1
   9              		.eabi_attribute 26, 1
  10              		.eabi_attribute 30, 1
  11              		.eabi_attribute 34, 1
  12              		.eabi_attribute 18, 4
  13              		.thumb
  14              		.syntax unified
  15              		.file	"LEDcontrol.c"
  16              		.text
  17              	.Ltext0:
  18              		.cfi_sections	.debug_frame
  19              		.global	__aeabi_i2f
  20              		.global	__aeabi_fdiv
  21              		.global	__aeabi_fmul
  22              		.global	__aeabi_f2iz
  23              		.section	.text.setrefreshrate,"ax",%progbits
  24              		.align	2
  25              		.global	setrefreshrate
  26              		.thumb
  27              		.thumb_func
  28              		.type	setrefreshrate, %function
  29              	setrefreshrate:
  30              	.LFB69:
  31              		.file 1 "LEDcontrol.c"
   1:LEDcontrol.c  **** /* ========================================
   2:LEDcontrol.c  ****  *
   3:LEDcontrol.c  ****  * Copyright YOUR COMPANY, THE YEAR
   4:LEDcontrol.c  ****  * All Rights Reserved
   5:LEDcontrol.c  ****  * UNPUBLISHED, LICENSED SOFTWARE.
   6:LEDcontrol.c  ****  *
   7:LEDcontrol.c  ****  * CONFIDENTIAL AND PROPRIETARY INFORMATION
   8:LEDcontrol.c  ****  * WHICH IS THE PROPERTY OF your company.
   9:LEDcontrol.c  ****  *
  10:LEDcontrol.c  ****  * ========================================
  11:LEDcontrol.c  **** */
  12:LEDcontrol.c  **** 
  13:LEDcontrol.c  **** /* [] END OF FILE */
  14:LEDcontrol.c  **** #define MAXLEDINTENSE 0.5
  15:LEDcontrol.c  **** #include "LEDcontrol.h"
  16:LEDcontrol.c  **** 
  17:LEDcontrol.c  **** static int pulselength_ = 0;
  18:LEDcontrol.c  **** static int index_ = 0;
  19:LEDcontrol.c  **** static float index2 = MAXLEDINTENSE;
  20:LEDcontrol.c  **** static int count = 0;
  21:LEDcontrol.c  **** static int count2 = 0;
  22:LEDcontrol.c  **** static int count3 = 0;
  23:LEDcontrol.c  **** 
  24:LEDcontrol.c  **** LEDctrl *rgbLED1 = NULL;
  25:LEDcontrol.c  **** LEDctrl *rgbLED2 = NULL;
  26:LEDcontrol.c  **** 
ARM GAS  C:\Users\cring\AppData\Local\Temp\ccGk4Etb.s 			page 2


  27:LEDcontrol.c  **** 
  28:LEDcontrol.c  **** CY_ISR(isr_refreshrate)
  29:LEDcontrol.c  **** {
  30:LEDcontrol.c  ****     Timer1_Stop();
  31:LEDcontrol.c  ****     //isr_LED_refreshrate_Disable();
  32:LEDcontrol.c  ****     if (rgbLED1 != NULL)
  33:LEDcontrol.c  ****     {
  34:LEDcontrol.c  ****     UpdateLED(rgbLED1);
  35:LEDcontrol.c  ****     }
  36:LEDcontrol.c  ****     CyDelayUs(100);
  37:LEDcontrol.c  ****     if (rgbLED2 != NULL)
  38:LEDcontrol.c  ****     {
  39:LEDcontrol.c  ****     UpdateLED(rgbLED2);
  40:LEDcontrol.c  ****     }
  41:LEDcontrol.c  ****     CyDelayUs(100);
  42:LEDcontrol.c  ****     //isr_LED_refreshrate_Enable();
  43:LEDcontrol.c  ****     Timer1_Start();
  44:LEDcontrol.c  **** }
  45:LEDcontrol.c  **** 
  46:LEDcontrol.c  **** CY_ISR(isr_LED_ring)
  47:LEDcontrol.c  **** {
  48:LEDcontrol.c  ****     if((rgbLED1->ring == 0) && (rgbLED2->ring == 0)) return;
  49:LEDcontrol.c  ****     if(rgbLED1->ring == 1) fillcolor(0,0,0,rgbLED1);
  50:LEDcontrol.c  ****     if(rgbLED2->ring == 1) fillcolor(0,0,0,rgbLED2);
  51:LEDcontrol.c  ****     
  52:LEDcontrol.c  ****         for(int i2 = index_; i2 < pulselength_+index_; i2++)
  53:LEDcontrol.c  ****         {
  54:LEDcontrol.c  ****             if(rgbLED1->ring == 1)
  55:LEDcontrol.c  ****             {
  56:LEDcontrol.c  ****                 int x = i2 >= rgbLED1->LEDlength ? i2 - rgbLED1->LEDlength : i2;
  57:LEDcontrol.c  ****                 setcolorLED((rgbLED1 + x)->h, (rgbLED1 + x)->s, (rgbLED1 + x)->v, x, rgbLED1);
  58:LEDcontrol.c  ****             }
  59:LEDcontrol.c  ****             if(rgbLED2->ring == 1)
  60:LEDcontrol.c  ****             {
  61:LEDcontrol.c  ****                 int x = i2 >= rgbLED2->LEDlength ? i2 - rgbLED2->LEDlength : i2;
  62:LEDcontrol.c  ****                 setcolorLED((rgbLED2 + x)->h, (rgbLED2 + x)->s, (rgbLED2 + x)->v, x, rgbLED2);  
  63:LEDcontrol.c  ****             }
  64:LEDcontrol.c  ****         }
  65:LEDcontrol.c  ****     if (rgbLED1 != NULL)
  66:LEDcontrol.c  ****     {
  67:LEDcontrol.c  ****         index_ = index_ < (rgbLED1->LEDlength-1) ? index_ + 1 : 0;
  68:LEDcontrol.c  ****         return;
  69:LEDcontrol.c  ****     }else if (rgbLED2 != NULL){
  70:LEDcontrol.c  ****         index_ = index_ < (rgbLED2->LEDlength-1) ? index_ + 1 : 0;
  71:LEDcontrol.c  ****     }
  72:LEDcontrol.c  **** }
  73:LEDcontrol.c  **** 
  74:LEDcontrol.c  **** CY_ISR(isr_LED_pulse)
  75:LEDcontrol.c  **** {
  76:LEDcontrol.c  ****     
  77:LEDcontrol.c  ****     if(count == 0)
  78:LEDcontrol.c  ****     {
  79:LEDcontrol.c  ****         if (rgbLED1->pulse == 1)fillcolor(rgbLED1->h,rgbLED1->s,index2, rgbLED1);
  80:LEDcontrol.c  ****         if (rgbLED2->pulse == 1)fillcolor(rgbLED2->h,rgbLED2->s,index2, rgbLED2);
  81:LEDcontrol.c  ****         index2 = index2-0.01;
  82:LEDcontrol.c  ****         if (index2 < 0)count = 1;
  83:LEDcontrol.c  ****     }else if(count == 1){
ARM GAS  C:\Users\cring\AppData\Local\Temp\ccGk4Etb.s 			page 3


  84:LEDcontrol.c  ****         if (rgbLED1->pulse == 1)fillcolor(rgbLED1->h,rgbLED1->s,index2, rgbLED1);
  85:LEDcontrol.c  ****         if (rgbLED2->pulse == 1)fillcolor(rgbLED2->h,rgbLED2->s,index2, rgbLED2);
  86:LEDcontrol.c  ****         index2 = index2+0.01;
  87:LEDcontrol.c  ****         if (index2 == MAXLEDINTENSE)count = 0;
  88:LEDcontrol.c  ****     }
  89:LEDcontrol.c  ****     
  90:LEDcontrol.c  **** }
  91:LEDcontrol.c  **** 
  92:LEDcontrol.c  **** CY_ISR(isr_BlinkLED)
  93:LEDcontrol.c  **** {
  94:LEDcontrol.c  ****     switch (count3)
  95:LEDcontrol.c  ****     {
  96:LEDcontrol.c  ****         case 0:
  97:LEDcontrol.c  ****         {
  98:LEDcontrol.c  ****             if(rgbLED1->blink == 1) fillcolor(rgbLED1->h, rgbLED1->s,1, rgbLED1);
  99:LEDcontrol.c  ****             if(rgbLED2->blink == 1) fillcolor(rgbLED2->h, rgbLED2->s,1, rgbLED2);
 100:LEDcontrol.c  ****             count3++;
 101:LEDcontrol.c  ****         }
 102:LEDcontrol.c  ****         break;
 103:LEDcontrol.c  ****         case 1:
 104:LEDcontrol.c  ****         {
 105:LEDcontrol.c  ****             if(rgbLED1->blink == 1)fillcolor(rgbLED1->h, rgbLED1->s,0, rgbLED1);
 106:LEDcontrol.c  ****             if(rgbLED2->blink == 1)fillcolor(rgbLED2->h, rgbLED2->s,0, rgbLED2);
 107:LEDcontrol.c  ****             count3 = 0;
 108:LEDcontrol.c  ****         }
 109:LEDcontrol.c  ****         break;
 110:LEDcontrol.c  ****     }
 111:LEDcontrol.c  ****   
 112:LEDcontrol.c  **** }
 113:LEDcontrol.c  **** 
 114:LEDcontrol.c  **** CY_ISR(isr_delay)
 115:LEDcontrol.c  **** {
 116:LEDcontrol.c  ****     count2++;
 117:LEDcontrol.c  ****     startSeq(rgbLED1, rgbLED2);
 118:LEDcontrol.c  **** }
 119:LEDcontrol.c  **** 
 120:LEDcontrol.c  **** void setrefreshrate(int Hz)
 121:LEDcontrol.c  **** {
  32              		.loc 1 121 0
  33              		.cfi_startproc
  34              		@ args = 0, pretend = 0, frame = 0
  35              		@ frame_needed = 0, uses_anonymous_args = 0
  36              	.LVL0:
  37 0000 08B5     		push	{r3, lr}
  38              		.cfi_def_cfa_offset 8
  39              		.cfi_offset 3, -8
  40              		.cfi_offset 14, -4
 122:LEDcontrol.c  ****     Hz = 1/(float)Hz*1000*10;
  41              		.loc 1 122 0
  42 0002 FFF7FEFF 		bl	__aeabi_i2f
  43              	.LVL1:
  44 0006 0146     		mov	r1, r0
  45 0008 4FF07E50 		mov	r0, #1065353216
  46 000c FFF7FEFF 		bl	__aeabi_fdiv
  47              	.LVL2:
  48 0010 0549     		ldr	r1, .L3
  49 0012 FFF7FEFF 		bl	__aeabi_fmul
ARM GAS  C:\Users\cring\AppData\Local\Temp\ccGk4Etb.s 			page 4


  50              	.LVL3:
  51 0016 0549     		ldr	r1, .L3+4
  52 0018 FFF7FEFF 		bl	__aeabi_fmul
  53              	.LVL4:
  54 001c FFF7FEFF 		bl	__aeabi_f2iz
  55              	.LVL5:
 123:LEDcontrol.c  ****     Timer1_WritePeriod(Hz);
  56              		.loc 1 123 0
  57 0020 80B2     		uxth	r0, r0
  58              	.LVL6:
  59 0022 FFF7FEFF 		bl	Timer1_WritePeriod
  60              	.LVL7:
  61 0026 08BD     		pop	{r3, pc}
  62              	.L4:
  63              		.align	2
  64              	.L3:
  65 0028 00007A44 		.word	1148846080
  66 002c 00002041 		.word	1092616192
  67              		.cfi_endproc
  68              	.LFE69:
  69              		.size	setrefreshrate, .-setrefreshrate
  70              		.section	.text.setspeed,"ax",%progbits
  71              		.align	2
  72              		.global	setspeed
  73              		.thumb
  74              		.thumb_func
  75              		.type	setspeed, %function
  76              	setspeed:
  77              	.LFB74:
 124:LEDcontrol.c  **** }
 125:LEDcontrol.c  **** 
 126:LEDcontrol.c  **** void addLEDstrip(int LEDlength_, LEDctrl *rgbLED_, int strip)
 127:LEDcontrol.c  **** {
 128:LEDcontrol.c  ****     if (strip == 1)
 129:LEDcontrol.c  ****     {
 130:LEDcontrol.c  ****         rgbLED1 = rgbLED_;
 131:LEDcontrol.c  ****     }else{
 132:LEDcontrol.c  ****         rgbLED2 = rgbLED_;
 133:LEDcontrol.c  ****     }
 134:LEDcontrol.c  ****     
 135:LEDcontrol.c  ****     rgbLED_->LEDlength = LEDlength_;
 136:LEDcontrol.c  ****     rgbLED_->pin = strip;
 137:LEDcontrol.c  ****     LEDOff(rgbLED_);
 138:LEDcontrol.c  ****     
 139:LEDcontrol.c  ****     for(int i = 0; i < rgbLED_->LEDlength; i++)
 140:LEDcontrol.c  ****     {
 141:LEDcontrol.c  ****         setcolorLED(0,0,0,i, rgbLED_);
 142:LEDcontrol.c  ****     }
 143:LEDcontrol.c  **** }
 144:LEDcontrol.c  **** 
 145:LEDcontrol.c  **** void initLED(int Hz)
 146:LEDcontrol.c  **** {    
 147:LEDcontrol.c  ****     isr_LED_refreshrate_StartEx(isr_refreshrate);
 148:LEDcontrol.c  ****     isr_LED_ring_StartEx(isr_LED_ring);
 149:LEDcontrol.c  ****     isr_LED_pulse_StartEx(isr_LED_pulse);
 150:LEDcontrol.c  ****     isr_BlinkLED_StartEx(isr_BlinkLED);
 151:LEDcontrol.c  ****     isr_delay_StartEx(isr_delay);
ARM GAS  C:\Users\cring\AppData\Local\Temp\ccGk4Etb.s 			page 5


 152:LEDcontrol.c  ****     
 153:LEDcontrol.c  ****     LEDOff(rgbLED1);
 154:LEDcontrol.c  ****     LEDOff(rgbLED2);
 155:LEDcontrol.c  ****     
 156:LEDcontrol.c  ****     pulselength_ = 0;
 157:LEDcontrol.c  ****     index_ = 0;
 158:LEDcontrol.c  ****     index2 = MAXLEDINTENSE;
 159:LEDcontrol.c  ****     count = 0;
 160:LEDcontrol.c  ****     count2 = 0;
 161:LEDcontrol.c  ****     count3 = 0;
 162:LEDcontrol.c  ****     
 163:LEDcontrol.c  ****     
 164:LEDcontrol.c  ****     SPIM_1_Start();
 165:LEDcontrol.c  ****     Timer1_Start();
 166:LEDcontrol.c  ****     Timer2_Start();
 167:LEDcontrol.c  ****     Timer3_Start();
 168:LEDcontrol.c  ****     Timer4_Start();
 169:LEDcontrol.c  ****     
 170:LEDcontrol.c  ****     setrefreshrate(Hz);
 171:LEDcontrol.c  ****     
 172:LEDcontrol.c  **** }
 173:LEDcontrol.c  **** 
 174:LEDcontrol.c  **** 
 175:LEDcontrol.c  **** void fillcolor(double h, double s, double v, LEDctrl *rgbLED)
 176:LEDcontrol.c  **** {
 177:LEDcontrol.c  ****     for(int i = 0; i < rgbLED->LEDlength; i++)
 178:LEDcontrol.c  ****     {
 179:LEDcontrol.c  ****         setcolorLED(h, s, v, i, rgbLED);
 180:LEDcontrol.c  ****     }
 181:LEDcontrol.c  **** }
 182:LEDcontrol.c  **** 
 183:LEDcontrol.c  **** void pulseLED(double h1, double s1, double v1, LEDctrl *rgbLED)
 184:LEDcontrol.c  **** {
 185:LEDcontrol.c  ****     LEDOff(rgbLED);
 186:LEDcontrol.c  ****     rgbLED->pulse = 1;
 187:LEDcontrol.c  ****     
 188:LEDcontrol.c  ****     rgbLED->h = h1;
 189:LEDcontrol.c  ****     rgbLED->s = s1;
 190:LEDcontrol.c  ****     rgbLED->v = v1;
 191:LEDcontrol.c  ****     fillcolor(h1,s1,v1, rgbLED);
 192:LEDcontrol.c  **** }
 193:LEDcontrol.c  **** 
 194:LEDcontrol.c  **** void setspeed(int ms_ring, int ms_pulse, int ms_blink)
 195:LEDcontrol.c  **** {
  78              		.loc 1 195 0
  79              		.cfi_startproc
  80              		@ args = 0, pretend = 0, frame = 0
  81              		@ frame_needed = 0, uses_anonymous_args = 0
  82              	.LVL8:
  83 0000 38B5     		push	{r3, r4, r5, lr}
  84              		.cfi_def_cfa_offset 16
  85              		.cfi_offset 3, -16
  86              		.cfi_offset 4, -12
  87              		.cfi_offset 5, -8
  88              		.cfi_offset 14, -4
  89 0002 0546     		mov	r5, r0
  90 0004 1446     		mov	r4, r2
ARM GAS  C:\Users\cring\AppData\Local\Temp\ccGk4Etb.s 			page 6


 196:LEDcontrol.c  ****     Timer2_WritePeriod(ms_pulse*10);
  91              		.loc 1 196 0
  92 0006 01EB8101 		add	r1, r1, r1, lsl #2
  93              	.LVL9:
  94 000a 4800     		lsls	r0, r1, #1
  95              	.LVL10:
  96 000c 80B2     		uxth	r0, r0
  97 000e FFF7FEFF 		bl	Timer2_WritePeriod
  98              	.LVL11:
 197:LEDcontrol.c  ****     Timer3_WritePeriod(ms_ring*10);
  99              		.loc 1 197 0
 100 0012 05EB8505 		add	r5, r5, r5, lsl #2
 101              	.LVL12:
 102 0016 6800     		lsls	r0, r5, #1
 103 0018 80B2     		uxth	r0, r0
 104 001a FFF7FEFF 		bl	Timer3_WritePeriod
 105              	.LVL13:
 198:LEDcontrol.c  ****     Timer4_WritePeriod(ms_blink*10);
 106              		.loc 1 198 0
 107 001e 04EB8404 		add	r4, r4, r4, lsl #2
 108              	.LVL14:
 109 0022 6000     		lsls	r0, r4, #1
 110 0024 80B2     		uxth	r0, r0
 111 0026 FFF7FEFF 		bl	Timer4_WritePeriod
 112              	.LVL15:
 113 002a 38BD     		pop	{r3, r4, r5, pc}
 114              		.cfi_endproc
 115              	.LFE74:
 116              		.size	setspeed, .-setspeed
 117              		.global	__aeabi_dcmpgt
 118              		.global	__aeabi_dcmple
 119              		.global	__aeabi_d2iz
 120              		.global	__aeabi_dcmpge
 121              		.global	__aeabi_ddiv
 122              		.global	__aeabi_i2d
 123              		.global	__aeabi_dsub
 124              		.global	__aeabi_dmul
 125              		.global	__aeabi_dcmplt
 126              		.section	.text.hsv2rgb,"ax",%progbits
 127              		.align	2
 128              		.global	hsv2rgb
 129              		.thumb
 130              		.thumb_func
 131              		.type	hsv2rgb, %function
 132              	hsv2rgb:
 133              	.LFB76:
 199:LEDcontrol.c  **** }
 200:LEDcontrol.c  **** 
 201:LEDcontrol.c  **** void ringLED(int pulselength, double h1, double s1, double v1, LEDctrl *rgbLED)
 202:LEDcontrol.c  **** {
 203:LEDcontrol.c  ****     pulselength_ = pulselength;
 204:LEDcontrol.c  ****     LEDOff(rgbLED);
 205:LEDcontrol.c  ****     rgbLED->ring = 1;
 206:LEDcontrol.c  ****     
 207:LEDcontrol.c  ****     for(int i = 0; i<rgbLED->LEDlength; i++)
 208:LEDcontrol.c  ****     {
 209:LEDcontrol.c  ****         (rgbLED + i)->h = h1;
ARM GAS  C:\Users\cring\AppData\Local\Temp\ccGk4Etb.s 			page 7


 210:LEDcontrol.c  ****         (rgbLED + i)->s = s1;
 211:LEDcontrol.c  ****         (rgbLED + i)->v = v1;
 212:LEDcontrol.c  ****     }
 213:LEDcontrol.c  **** }
 214:LEDcontrol.c  **** 
 215:LEDcontrol.c  **** void hsv2rgb(double h, double s, double v, int LED, LEDctrl *rgbLED)
 216:LEDcontrol.c  **** {
 134              		.loc 1 216 0
 135              		.cfi_startproc
 136              		@ args = 16, pretend = 0, frame = 16
 137              		@ frame_needed = 0, uses_anonymous_args = 0
 138              	.LVL16:
 139 0000 2DE9F047 		push	{r4, r5, r6, r7, r8, r9, r10, lr}
 140              		.cfi_def_cfa_offset 32
 141              		.cfi_offset 4, -32
 142              		.cfi_offset 5, -28
 143              		.cfi_offset 6, -24
 144              		.cfi_offset 7, -20
 145              		.cfi_offset 8, -16
 146              		.cfi_offset 9, -12
 147              		.cfi_offset 10, -8
 148              		.cfi_offset 14, -4
 149 0004 84B0     		sub	sp, sp, #16
 150              		.cfi_def_cfa_offset 48
 151 0006 0446     		mov	r4, r0
 152 0008 0D46     		mov	r5, r1
 153 000a 9046     		mov	r8, r2
 154 000c 9946     		mov	r9, r3
 155 000e 0E9E     		ldr	r6, [sp, #56]
 156 0010 DDF83CA0 		ldr	r10, [sp, #60]
 217:LEDcontrol.c  ****     double      hh, p, q, t, ff, r, g, b;
 218:LEDcontrol.c  ****     long        i;
 219:LEDcontrol.c  ****     
 220:LEDcontrol.c  ****     if(v > MAXLEDINTENSE) v = MAXLEDINTENSE;
 157              		.loc 1 220 0
 158 0014 0022     		movs	r2, #0
 159              	.LVL17:
 160 0016 824B     		ldr	r3, .L34
 161 0018 DDE90C01 		ldrd	r0, [sp, #48]
 162              	.LVL18:
 163 001c FFF7FEFF 		bl	__aeabi_dcmpgt
 164              	.LVL19:
 165 0020 18B1     		cbz	r0, .L8
 166 0022 0022     		movs	r2, #0
 167 0024 7E4B     		ldr	r3, .L34
 168 0026 CDE90C23 		strd	r2, [sp, #48]
 169              	.L8:
 221:LEDcontrol.c  **** 
 222:LEDcontrol.c  ****     if(s <= 0.0) {       // < is bogus, just shuts up warnings
 170              		.loc 1 222 0
 171 002a 0022     		movs	r2, #0
 172 002c 0023     		movs	r3, #0
 173 002e 4046     		mov	r0, r8
 174 0030 4946     		mov	r1, r9
 175 0032 FFF7FEFF 		bl	__aeabi_dcmple
 176              	.LVL20:
 177 0036 68B1     		cbz	r0, .L32
ARM GAS  C:\Users\cring\AppData\Local\Temp\ccGk4Etb.s 			page 8


 223:LEDcontrol.c  ****         (rgbLED + LED)->green = v;
 178              		.loc 1 223 0
 179 0038 5823     		movs	r3, #88
 180 003a 03FB06F6 		mul	r6, r3, r6
 181 003e 0AEB0604 		add	r4, r10, r6
 182 0042 DDE90C01 		ldrd	r0, [sp, #48]
 183 0046 FFF7FEFF 		bl	__aeabi_d2iz
 184              	.LVL21:
 185 004a 6060     		str	r0, [r4, #4]
 224:LEDcontrol.c  ****         (rgbLED + LED)->red = v;
 186              		.loc 1 224 0
 187 004c 4AF80600 		str	r0, [r10, r6]
 225:LEDcontrol.c  ****         (rgbLED + LED)->blue = v;
 188              		.loc 1 225 0
 189 0050 A060     		str	r0, [r4, #8]
 226:LEDcontrol.c  ****         return;
 190              		.loc 1 226 0
 191 0052 E2E0     		b	.L7
 192              	.L32:
 193              	.LVL22:
 227:LEDcontrol.c  ****     }
 228:LEDcontrol.c  ****     
 229:LEDcontrol.c  ****     hh = h;
 230:LEDcontrol.c  ****     if(hh >= 360.0) hh = 0.0;
 194              		.loc 1 230 0
 195 0054 0022     		movs	r2, #0
 196 0056 734B     		ldr	r3, .L34+4
 197 0058 2046     		mov	r0, r4
 198 005a 2946     		mov	r1, r5
 199 005c FFF7FEFF 		bl	__aeabi_dcmpge
 200              	.LVL23:
 201 0060 08B1     		cbz	r0, .L12
 202 0062 0024     		movs	r4, #0
 203              	.LVL24:
 204 0064 0025     		movs	r5, #0
 205              	.L12:
 206              	.LVL25:
 231:LEDcontrol.c  ****     hh /= 60.0;
 207              		.loc 1 231 0
 208 0066 0022     		movs	r2, #0
 209 0068 6F4B     		ldr	r3, .L34+8
 210 006a 2046     		mov	r0, r4
 211 006c 2946     		mov	r1, r5
 212 006e FFF7FEFF 		bl	__aeabi_ddiv
 213              	.LVL26:
 214 0072 0446     		mov	r4, r0
 215              	.LVL27:
 216 0074 0D46     		mov	r5, r1
 217              	.LVL28:
 232:LEDcontrol.c  ****     i = (long)hh;
 218              		.loc 1 232 0
 219 0076 FFF7FEFF 		bl	__aeabi_d2iz
 220              	.LVL29:
 221 007a 0746     		mov	r7, r0
 222              	.LVL30:
 233:LEDcontrol.c  ****     ff = hh - i;
 223              		.loc 1 233 0
ARM GAS  C:\Users\cring\AppData\Local\Temp\ccGk4Etb.s 			page 9


 224 007c FFF7FEFF 		bl	__aeabi_i2d
 225              	.LVL31:
 226 0080 0246     		mov	r2, r0
 227 0082 0B46     		mov	r3, r1
 228 0084 2046     		mov	r0, r4
 229 0086 2946     		mov	r1, r5
 230 0088 FFF7FEFF 		bl	__aeabi_dsub
 231              	.LVL32:
 232 008c 0446     		mov	r4, r0
 233              	.LVL33:
 234 008e 0D46     		mov	r5, r1
 235              	.LVL34:
 234:LEDcontrol.c  ****     p = v * (1.0 - s);
 236              		.loc 1 234 0
 237 0090 4246     		mov	r2, r8
 238 0092 4B46     		mov	r3, r9
 239 0094 0020     		movs	r0, #0
 240 0096 6549     		ldr	r1, .L34+12
 241 0098 FFF7FEFF 		bl	__aeabi_dsub
 242              	.LVL35:
 243 009c 0246     		mov	r2, r0
 244 009e 0B46     		mov	r3, r1
 245 00a0 DDE90C01 		ldrd	r0, [sp, #48]
 246 00a4 FFF7FEFF 		bl	__aeabi_dmul
 247              	.LVL36:
 248 00a8 CDE90001 		strd	r0, [sp]
 249              	.LVL37:
 235:LEDcontrol.c  ****     q = v * (1.0 - (s * ff));
 250              		.loc 1 235 0
 251 00ac CDE90245 		strd	r4, [sp, #8]
 252 00b0 2246     		mov	r2, r4
 253 00b2 2B46     		mov	r3, r5
 254 00b4 4046     		mov	r0, r8
 255              	.LVL38:
 256 00b6 4946     		mov	r1, r9
 257 00b8 FFF7FEFF 		bl	__aeabi_dmul
 258              	.LVL39:
 259 00bc 0246     		mov	r2, r0
 260 00be 0B46     		mov	r3, r1
 261 00c0 0020     		movs	r0, #0
 262 00c2 5A49     		ldr	r1, .L34+12
 263 00c4 FFF7FEFF 		bl	__aeabi_dsub
 264              	.LVL40:
 265 00c8 0246     		mov	r2, r0
 266 00ca 0B46     		mov	r3, r1
 267 00cc DDE90C01 		ldrd	r0, [sp, #48]
 268 00d0 FFF7FEFF 		bl	__aeabi_dmul
 269              	.LVL41:
 270 00d4 0446     		mov	r4, r0
 271              	.LVL42:
 272 00d6 0D46     		mov	r5, r1
 273              	.LVL43:
 236:LEDcontrol.c  ****     t = v * (1.0 - (s * (1.0 - ff)));
 274              		.loc 1 236 0
 275 00d8 DDE90223 		ldrd	r2, [sp, #8]
 276 00dc 0020     		movs	r0, #0
 277 00de 5349     		ldr	r1, .L34+12
ARM GAS  C:\Users\cring\AppData\Local\Temp\ccGk4Etb.s 			page 10


 278 00e0 FFF7FEFF 		bl	__aeabi_dsub
 279              	.LVL44:
 280 00e4 0246     		mov	r2, r0
 281 00e6 0B46     		mov	r3, r1
 282 00e8 4046     		mov	r0, r8
 283 00ea 4946     		mov	r1, r9
 284 00ec FFF7FEFF 		bl	__aeabi_dmul
 285              	.LVL45:
 286 00f0 0246     		mov	r2, r0
 287 00f2 0B46     		mov	r3, r1
 288 00f4 0020     		movs	r0, #0
 289 00f6 4D49     		ldr	r1, .L34+12
 290 00f8 FFF7FEFF 		bl	__aeabi_dsub
 291              	.LVL46:
 292 00fc 0246     		mov	r2, r0
 293 00fe 0B46     		mov	r3, r1
 294 0100 DDE90C01 		ldrd	r0, [sp, #48]
 295 0104 FFF7FEFF 		bl	__aeabi_dmul
 296              	.LVL47:
 237:LEDcontrol.c  **** 
 238:LEDcontrol.c  ****     switch(i) {
 297              		.loc 1 238 0
 298 0108 042F     		cmp	r7, #4
 299 010a 24D8     		bhi	.L13
 300 010c DFE807F0 		tbb	[pc, r7]
 301              	.L15:
 302 0110 03       		.byte	(.L14-.L15)/2
 303 0111 2D       		.byte	(.L16-.L15)/2
 304 0112 08       		.byte	(.L17-.L15)/2
 305 0113 0D       		.byte	(.L18-.L15)/2
 306 0114 18       		.byte	(.L19-.L15)/2
 307 0115 00       		.p2align 1
 308              	.L14:
 239:LEDcontrol.c  ****     case 0:
 240:LEDcontrol.c  ****         r = v;
 309              		.loc 1 240 0
 310 0116 DDE90C45 		ldrd	r4, [sp, #48]
 311              	.LVL48:
 241:LEDcontrol.c  ****         g = t;
 312              		.loc 1 241 0
 313 011a CDE90C01 		strd	r0, [sp, #48]
 314 011e 24E0     		b	.L16
 315              	.LVL49:
 316              	.L17:
 242:LEDcontrol.c  ****         b = p;
 243:LEDcontrol.c  ****         break;
 244:LEDcontrol.c  ****     case 1:
 245:LEDcontrol.c  ****         r = q;
 246:LEDcontrol.c  ****         g = v;
 247:LEDcontrol.c  ****         b = p;
 248:LEDcontrol.c  ****         break;
 249:LEDcontrol.c  ****     case 2:
 250:LEDcontrol.c  ****         r = p;
 317              		.loc 1 250 0
 318 0120 DDE90045 		ldrd	r4, [sp]
 319              	.LVL50:
 251:LEDcontrol.c  ****         g = v;
ARM GAS  C:\Users\cring\AppData\Local\Temp\ccGk4Etb.s 			page 11


 252:LEDcontrol.c  ****         b = t;
 320              		.loc 1 252 0
 321 0124 CDE90001 		strd	r0, [sp]
 322              	.LVL51:
 253:LEDcontrol.c  ****         break;
 323              		.loc 1 253 0
 324 0128 1FE0     		b	.L16
 325              	.LVL52:
 326              	.L18:
 254:LEDcontrol.c  **** 
 255:LEDcontrol.c  ****     case 3:
 256:LEDcontrol.c  ****         r = p;
 257:LEDcontrol.c  ****         g = q;
 258:LEDcontrol.c  ****         b = v;
 259:LEDcontrol.c  ****         break;
 327              		.loc 1 259 0
 328 012a 2246     		mov	r2, r4
 329 012c 2B46     		mov	r3, r5
 256:LEDcontrol.c  ****         g = q;
 330              		.loc 1 256 0
 331 012e DDE90045 		ldrd	r4, [sp]
 332              	.LVL53:
 258:LEDcontrol.c  ****         break;
 333              		.loc 1 258 0
 334 0132 DDE90C01 		ldrd	r0, [sp, #48]
 335              	.LVL54:
 336 0136 CDE90001 		strd	r0, [sp]
 337              	.LVL55:
 257:LEDcontrol.c  ****         b = v;
 338              		.loc 1 257 0
 339 013a CDE90C23 		strd	r2, [sp, #48]
 340              	.LVL56:
 341              		.loc 1 259 0
 342 013e 14E0     		b	.L16
 343              	.LVL57:
 344              	.L19:
 260:LEDcontrol.c  ****     case 4:
 261:LEDcontrol.c  ****         r = t;
 262:LEDcontrol.c  ****         g = p;
 263:LEDcontrol.c  ****         b = v;
 264:LEDcontrol.c  ****         break;
 345              		.loc 1 264 0
 346 0140 DDE90C23 		ldrd	r2, [sp, #48]
 262:LEDcontrol.c  ****         b = v;
 347              		.loc 1 262 0
 348 0144 DDE90045 		ldrd	r4, [sp]
 349              	.LVL58:
 350 0148 CDE90C45 		strd	r4, [sp, #48]
 351              	.LVL59:
 263:LEDcontrol.c  ****         break;
 352              		.loc 1 263 0
 353 014c CDE90023 		strd	r2, [sp]
 354              	.LVL60:
 261:LEDcontrol.c  ****         g = p;
 355              		.loc 1 261 0
 356 0150 0446     		mov	r4, r0
 357              	.LVL61:
ARM GAS  C:\Users\cring\AppData\Local\Temp\ccGk4Etb.s 			page 12


 358 0152 0D46     		mov	r5, r1
 359              		.loc 1 264 0
 360 0154 09E0     		b	.L16
 361              	.LVL62:
 362              	.L13:
 265:LEDcontrol.c  ****     case 5:
 266:LEDcontrol.c  ****     default:
 267:LEDcontrol.c  ****         r = v;
 268:LEDcontrol.c  ****         g = p;
 269:LEDcontrol.c  ****         b = q;
 270:LEDcontrol.c  ****         break;
 363              		.loc 1 270 0
 364 0156 2246     		mov	r2, r4
 365 0158 2B46     		mov	r3, r5
 267:LEDcontrol.c  ****         g = p;
 366              		.loc 1 267 0
 367 015a DDE90C45 		ldrd	r4, [sp, #48]
 368              	.LVL63:
 268:LEDcontrol.c  ****         b = q;
 369              		.loc 1 268 0
 370 015e DDE90001 		ldrd	r0, [sp]
 371              	.LVL64:
 372 0162 CDE90C01 		strd	r0, [sp, #48]
 373              	.LVL65:
 269:LEDcontrol.c  ****         break;
 374              		.loc 1 269 0
 375 0166 CDE90023 		strd	r2, [sp]
 376              	.LVL66:
 377              	.L16:
 271:LEDcontrol.c  ****     }
 272:LEDcontrol.c  ****     r = r*256.0-1;
 378              		.loc 1 272 0
 379 016a 0022     		movs	r2, #0
 380 016c 304B     		ldr	r3, .L34+16
 381 016e 2046     		mov	r0, r4
 382 0170 2946     		mov	r1, r5
 383 0172 FFF7FEFF 		bl	__aeabi_dmul
 384              	.LVL67:
 385 0176 0022     		movs	r2, #0
 386 0178 2C4B     		ldr	r3, .L34+12
 387 017a FFF7FEFF 		bl	__aeabi_dsub
 388              	.LVL68:
 389 017e 0446     		mov	r4, r0
 390              	.LVL69:
 391 0180 0D46     		mov	r5, r1
 392              	.LVL70:
 273:LEDcontrol.c  ****     g = g*256.0-1;
 393              		.loc 1 273 0
 394 0182 0022     		movs	r2, #0
 395 0184 2A4B     		ldr	r3, .L34+16
 396 0186 DDE90C01 		ldrd	r0, [sp, #48]
 397 018a FFF7FEFF 		bl	__aeabi_dmul
 398              	.LVL71:
 399 018e 0022     		movs	r2, #0
 400 0190 264B     		ldr	r3, .L34+12
 401 0192 FFF7FEFF 		bl	__aeabi_dsub
 402              	.LVL72:
ARM GAS  C:\Users\cring\AppData\Local\Temp\ccGk4Etb.s 			page 13


 403 0196 8046     		mov	r8, r0
 404 0198 8946     		mov	r9, r1
 405              	.LVL73:
 274:LEDcontrol.c  ****     b = b*256.0-1;
 406              		.loc 1 274 0
 407 019a 0022     		movs	r2, #0
 408 019c 244B     		ldr	r3, .L34+16
 409 019e DDE90001 		ldrd	r0, [sp]
 410 01a2 FFF7FEFF 		bl	__aeabi_dmul
 411              	.LVL74:
 412 01a6 0022     		movs	r2, #0
 413 01a8 204B     		ldr	r3, .L34+12
 414 01aa FFF7FEFF 		bl	__aeabi_dsub
 415              	.LVL75:
 416 01ae CDE90001 		strd	r0, [sp]
 417              	.LVL76:
 275:LEDcontrol.c  ****     
 276:LEDcontrol.c  ****     r = r < 0 ? 0 : r;
 418              		.loc 1 276 0
 419 01b2 0022     		movs	r2, #0
 420 01b4 0023     		movs	r3, #0
 421 01b6 2046     		mov	r0, r4
 422              	.LVL77:
 423 01b8 2946     		mov	r1, r5
 424 01ba FFF7FEFF 		bl	__aeabi_dcmplt
 425              	.LVL78:
 426 01be 08B1     		cbz	r0, .L20
 427 01c0 0024     		movs	r4, #0
 428              	.LVL79:
 429 01c2 0025     		movs	r5, #0
 430              	.L20:
 431              	.LVL80:
 277:LEDcontrol.c  ****     g = g < 0 ? 0 : g;
 432              		.loc 1 277 0 discriminator 4
 433 01c4 0022     		movs	r2, #0
 434 01c6 0023     		movs	r3, #0
 435 01c8 4046     		mov	r0, r8
 436 01ca 4946     		mov	r1, r9
 437 01cc FFF7FEFF 		bl	__aeabi_dcmplt
 438              	.LVL81:
 439 01d0 18B1     		cbz	r0, .L22
 440              		.loc 1 277 0 is_stmt 0
 441 01d2 4FF00008 		mov	r8, #0
 442              	.LVL82:
 443 01d6 4FF00009 		mov	r9, #0
 444              	.L22:
 445              	.LVL83:
 278:LEDcontrol.c  ****     b = b < 0 ? 0 : b;
 446              		.loc 1 278 0 is_stmt 1 discriminator 4
 447 01da 0022     		movs	r2, #0
 448 01dc 0023     		movs	r3, #0
 449 01de DDE90001 		ldrd	r0, [sp]
 450 01e2 FFF7FEFF 		bl	__aeabi_dcmplt
 451              	.LVL84:
 452 01e6 18B1     		cbz	r0, .L24
 453              		.loc 1 278 0 is_stmt 0
 454 01e8 0022     		movs	r2, #0
ARM GAS  C:\Users\cring\AppData\Local\Temp\ccGk4Etb.s 			page 14


 455 01ea 0023     		movs	r3, #0
 456 01ec CDE90023 		strd	r2, [sp]
 457              	.LVL85:
 458              	.L24:
 279:LEDcontrol.c  ****     
 280:LEDcontrol.c  ****     (rgbLED + LED)->green = g;
 459              		.loc 1 280 0 is_stmt 1 discriminator 4
 460 01f0 5823     		movs	r3, #88
 461 01f2 03FB06F6 		mul	r6, r3, r6
 462 01f6 0AEB0607 		add	r7, r10, r6
 463              	.LVL86:
 464 01fa 4046     		mov	r0, r8
 465 01fc 4946     		mov	r1, r9
 466 01fe FFF7FEFF 		bl	__aeabi_d2iz
 467              	.LVL87:
 468 0202 7860     		str	r0, [r7, #4]
 281:LEDcontrol.c  ****     (rgbLED + LED)->red = r;
 469              		.loc 1 281 0 discriminator 4
 470 0204 2046     		mov	r0, r4
 471 0206 2946     		mov	r1, r5
 472 0208 FFF7FEFF 		bl	__aeabi_d2iz
 473              	.LVL88:
 474 020c 4AF80600 		str	r0, [r10, r6]
 282:LEDcontrol.c  ****     (rgbLED + LED)->blue = b;
 475              		.loc 1 282 0 discriminator 4
 476 0210 DDE90001 		ldrd	r0, [sp]
 477 0214 FFF7FEFF 		bl	__aeabi_d2iz
 478              	.LVL89:
 479 0218 B860     		str	r0, [r7, #8]
 480              	.LVL90:
 481              	.L7:
 283:LEDcontrol.c  ****     return;
 284:LEDcontrol.c  ****     
 285:LEDcontrol.c  **** }
 482              		.loc 1 285 0
 483 021a 04B0     		add	sp, sp, #16
 484              		.cfi_def_cfa_offset 32
 485              		@ sp needed
 486 021c BDE8F087 		pop	{r4, r5, r6, r7, r8, r9, r10, pc}
 487              	.LVL91:
 488              	.L35:
 489              		.align	2
 490              	.L34:
 491 0220 0000E03F 		.word	1071644672
 492 0224 00807640 		.word	1081507840
 493 0228 00004E40 		.word	1078853632
 494 022c 0000F03F 		.word	1072693248
 495 0230 00007040 		.word	1081081856
 496              		.cfi_endproc
 497              	.LFE76:
 498              		.size	hsv2rgb, .-hsv2rgb
 499              		.section	.text.UpdateLED,"ax",%progbits
 500              		.align	2
 501              		.global	UpdateLED
 502              		.thumb
 503              		.thumb_func
 504              		.type	UpdateLED, %function
ARM GAS  C:\Users\cring\AppData\Local\Temp\ccGk4Etb.s 			page 15


 505              	UpdateLED:
 506              	.LFB77:
 286:LEDcontrol.c  **** 
 287:LEDcontrol.c  **** void UpdateLED(LEDctrl *rgbLED)
 288:LEDcontrol.c  **** {
 507              		.loc 1 288 0
 508              		.cfi_startproc
 509              		@ args = 0, pretend = 0, frame = 0
 510              		@ frame_needed = 0, uses_anonymous_args = 0
 511              	.LVL92:
 512 0000 70B5     		push	{r4, r5, r6, lr}
 513              		.cfi_def_cfa_offset 16
 514              		.cfi_offset 4, -16
 515              		.cfi_offset 5, -12
 516              		.cfi_offset 6, -8
 517              		.cfi_offset 14, -4
 518 0002 0646     		mov	r6, r0
 289:LEDcontrol.c  ****     if(rgbLED->pin == 1){ //Hvis LED strip til pin 1 skiftes SPIM til at output til LEDdata2
 519              		.loc 1 289 0
 520 0004 436C     		ldr	r3, [r0, #68]
 521 0006 012B     		cmp	r3, #1
 522 0008 04D1     		bne	.L37
 290:LEDcontrol.c  ****         SPIMOutCtrl_Write(1);
 523              		.loc 1 290 0
 524 000a 0120     		movs	r0, #1
 525              	.LVL93:
 526 000c FFF7FEFF 		bl	SPIMOutCtrl_Write
 527              	.LVL94:
 528              	.L40:
 288:LEDcontrol.c  ****     if(rgbLED->pin == 1){ //Hvis LED strip til pin 1 skiftes SPIM til at output til LEDdata2
 529              		.loc 1 288 0 discriminator 1
 530 0010 0025     		movs	r5, #0
 531 0012 1BE0     		b	.L38
 532              	.LVL95:
 533              	.L37:
 291:LEDcontrol.c  ****     }else if (rgbLED->pin == 2){ //Hvis LEd stip til pin 2 skiftes SPIM til at output til LEDdata
 534              		.loc 1 291 0
 535 0014 022B     		cmp	r3, #2
 536 0016 1CD1     		bne	.L36
 292:LEDcontrol.c  ****         SPIMOutCtrl_Write(0);
 537              		.loc 1 292 0
 538 0018 0020     		movs	r0, #0
 539              	.LVL96:
 540 001a FFF7FEFF 		bl	SPIMOutCtrl_Write
 541              	.LVL97:
 542 001e F7E7     		b	.L40
 543              	.LVL98:
 544              	.L41:
 545              	.LBB2:
 293:LEDcontrol.c  ****     }else{
 294:LEDcontrol.c  ****         return;
 295:LEDcontrol.c  ****     }
 296:LEDcontrol.c  ****     for(int i = 0; i < rgbLED->LEDlength; i++) //Sender data til LED strip
 297:LEDcontrol.c  ****     {
 298:LEDcontrol.c  ****         //8bit grøn farve
 299:LEDcontrol.c  ****         SPIM_1_WriteTxData((rgbLED + i)->green1);
 546              		.loc 1 299 0 discriminator 3
ARM GAS  C:\Users\cring\AppData\Local\Temp\ccGk4Etb.s 			page 16


 547 0020 5824     		movs	r4, #88
 548 0022 04FB0564 		mla	r4, r4, r5, r6
 549 0026 208D     		ldrh	r0, [r4, #40]
 550 0028 FFF7FEFF 		bl	SPIM_1_WriteTxData
 551              	.LVL99:
 300:LEDcontrol.c  ****         SPIM_1_WriteTxData((rgbLED + i)->green2);
 552              		.loc 1 300 0 discriminator 3
 553 002c A08D     		ldrh	r0, [r4, #44]
 554 002e FFF7FEFF 		bl	SPIM_1_WriteTxData
 555              	.LVL100:
 301:LEDcontrol.c  ****         
 302:LEDcontrol.c  ****         //8bit rød farve
 303:LEDcontrol.c  ****         SPIM_1_WriteTxData((rgbLED + i)->red1);
 556              		.loc 1 303 0 discriminator 3
 557 0032 208E     		ldrh	r0, [r4, #48]
 558 0034 FFF7FEFF 		bl	SPIM_1_WriteTxData
 559              	.LVL101:
 304:LEDcontrol.c  ****         SPIM_1_WriteTxData((rgbLED + i)->red2);
 560              		.loc 1 304 0 discriminator 3
 561 0038 A08E     		ldrh	r0, [r4, #52]
 562 003a FFF7FEFF 		bl	SPIM_1_WriteTxData
 563              	.LVL102:
 305:LEDcontrol.c  ****         
 306:LEDcontrol.c  ****         //8bit blå farve
 307:LEDcontrol.c  ****         SPIM_1_WriteTxData((rgbLED + i)->blue1);
 564              		.loc 1 307 0 discriminator 3
 565 003e 208F     		ldrh	r0, [r4, #56]
 566 0040 FFF7FEFF 		bl	SPIM_1_WriteTxData
 567              	.LVL103:
 308:LEDcontrol.c  ****         SPIM_1_WriteTxData((rgbLED + i)->blue2);
 568              		.loc 1 308 0 discriminator 3
 569 0044 A08F     		ldrh	r0, [r4, #60]
 570 0046 FFF7FEFF 		bl	SPIM_1_WriteTxData
 571              	.LVL104:
 296:LEDcontrol.c  ****     {
 572              		.loc 1 296 0 discriminator 3
 573 004a 0135     		adds	r5, r5, #1
 574              	.LVL105:
 575              	.L38:
 296:LEDcontrol.c  ****     {
 576              		.loc 1 296 0 is_stmt 0 discriminator 1
 577 004c 336C     		ldr	r3, [r6, #64]
 578 004e 9D42     		cmp	r5, r3
 579 0050 E6DB     		blt	.L41
 580              	.LVL106:
 581              	.L36:
 582 0052 70BD     		pop	{r4, r5, r6, pc}
 583              	.LBE2:
 584              		.cfi_endproc
 585              	.LFE77:
 586              		.size	UpdateLED, .-UpdateLED
 587              		.section	.text.isr_refreshrate,"ax",%progbits
 588              		.align	2
 589              		.global	isr_refreshrate
 590              		.thumb
 591              		.thumb_func
 592              		.type	isr_refreshrate, %function
ARM GAS  C:\Users\cring\AppData\Local\Temp\ccGk4Etb.s 			page 17


 593              	isr_refreshrate:
 594              	.LFB64:
  29:LEDcontrol.c  ****     Timer1_Stop();
 595              		.loc 1 29 0 is_stmt 1
 596              		.cfi_startproc
 597              		@ args = 0, pretend = 0, frame = 0
 598              		@ frame_needed = 0, uses_anonymous_args = 0
 599 0000 08B5     		push	{r3, lr}
 600              		.cfi_def_cfa_offset 8
 601              		.cfi_offset 3, -8
 602              		.cfi_offset 14, -4
  30:LEDcontrol.c  ****     //isr_LED_refreshrate_Disable();
 603              		.loc 1 30 0
 604 0002 FFF7FEFF 		bl	Timer1_Stop
 605              	.LVL107:
  32:LEDcontrol.c  ****     {
 606              		.loc 1 32 0
 607 0006 094B     		ldr	r3, .L47
 608 0008 1868     		ldr	r0, [r3]
 609 000a 08B1     		cbz	r0, .L44
  34:LEDcontrol.c  ****     }
 610              		.loc 1 34 0
 611 000c FFF7FEFF 		bl	UpdateLED
 612              	.LVL108:
 613              	.L44:
  36:LEDcontrol.c  ****     if (rgbLED2 != NULL)
 614              		.loc 1 36 0
 615 0010 6420     		movs	r0, #100
 616 0012 FFF7FEFF 		bl	CyDelayUs
 617              	.LVL109:
  37:LEDcontrol.c  ****     {
 618              		.loc 1 37 0
 619 0016 054B     		ldr	r3, .L47
 620 0018 5868     		ldr	r0, [r3, #4]
 621 001a 08B1     		cbz	r0, .L45
  39:LEDcontrol.c  ****     }
 622              		.loc 1 39 0
 623 001c FFF7FEFF 		bl	UpdateLED
 624              	.LVL110:
 625              	.L45:
  41:LEDcontrol.c  ****     //isr_LED_refreshrate_Enable();
 626              		.loc 1 41 0
 627 0020 6420     		movs	r0, #100
 628 0022 FFF7FEFF 		bl	CyDelayUs
 629              	.LVL111:
  43:LEDcontrol.c  **** }
 630              		.loc 1 43 0
 631 0026 FFF7FEFF 		bl	Timer1_Start
 632              	.LVL112:
 633 002a 08BD     		pop	{r3, pc}
 634              	.L48:
 635              		.align	2
 636              	.L47:
 637 002c 00000000 		.word	.LANCHOR0
 638              		.cfi_endproc
 639              	.LFE64:
 640              		.size	isr_refreshrate, .-isr_refreshrate
ARM GAS  C:\Users\cring\AppData\Local\Temp\ccGk4Etb.s 			page 18


 641              		.section	.text.setcolorLED,"ax",%progbits
 642              		.align	2
 643              		.global	setcolorLED
 644              		.thumb
 645              		.thumb_func
 646              		.type	setcolorLED, %function
 647              	setcolorLED:
 648              	.LFB78:
 309:LEDcontrol.c  ****     }
 310:LEDcontrol.c  **** }
 311:LEDcontrol.c  **** 
 312:LEDcontrol.c  **** void setcolorLED(double h, double s, double v, int LED, LEDctrl *rgbLED)
 313:LEDcontrol.c  **** {
 649              		.loc 1 313 0
 650              		.cfi_startproc
 651              		@ args = 16, pretend = 0, frame = 48
 652              		@ frame_needed = 0, uses_anonymous_args = 0
 653              	.LVL113:
 654 0000 F0B5     		push	{r4, r5, r6, r7, lr}
 655              		.cfi_def_cfa_offset 20
 656              		.cfi_offset 4, -20
 657              		.cfi_offset 5, -16
 658              		.cfi_offset 6, -12
 659              		.cfi_offset 7, -8
 660              		.cfi_offset 14, -4
 661 0002 91B0     		sub	sp, sp, #68
 662              		.cfi_def_cfa_offset 88
 663 0004 189D     		ldr	r5, [sp, #96]
 664 0006 199C     		ldr	r4, [sp, #100]
 314:LEDcontrol.c  ****     int Red, Green, Blue;
 315:LEDcontrol.c  ****     
 316:LEDcontrol.c  ****     hsv2rgb(h,s,v,LED, rgbLED); //hsv konverteres til RGB og gemmes i rgbLED's red, green blue
 665              		.loc 1 316 0
 666 0008 0394     		str	r4, [sp, #12]
 667 000a 0295     		str	r5, [sp, #8]
 668 000c DDE91667 		ldrd	r6, [sp, #88]
 669 0010 CDE90067 		strd	r6, [sp]
 670 0014 FFF7FEFF 		bl	hsv2rgb
 671              	.LVL114:
 317:LEDcontrol.c  ****     
 318:LEDcontrol.c  ****     Red = (rgbLED + LED)->red;
 672              		.loc 1 318 0
 673 0018 5823     		movs	r3, #88
 674 001a 03FB05F3 		mul	r3, r3, r5
 675 001e E518     		adds	r5, r4, r3
 676 0020 E158     		ldr	r1, [r4, r3]
 677              	.LVL115:
 319:LEDcontrol.c  ****     Green = (rgbLED + LED)->green;
 678              		.loc 1 319 0
 679 0022 6868     		ldr	r0, [r5, #4]
 680              	.LVL116:
 320:LEDcontrol.c  ****     Blue = (rgbLED + LED)->blue;
 681              		.loc 1 320 0
 682 0024 AA68     		ldr	r2, [r5, #8]
 683              	.LVL117:
 684              	.LBB3:
 321:LEDcontrol.c  ****  
ARM GAS  C:\Users\cring\AppData\Local\Temp\ccGk4Etb.s 			page 19


 322:LEDcontrol.c  ****     int x = Green;
 323:LEDcontrol.c  ****     int buf[12];
 324:LEDcontrol.c  ****     
 325:LEDcontrol.c  ****     for (int i = 0; i<8; i++) //Hver farve er 8bit lang derfor konvertes hver bit til det delay som
 685              		.loc 1 325 0
 686 0026 0023     		movs	r3, #0
 687 0028 11E0     		b	.L50
 688              	.LVL118:
 689              	.L53:
 326:LEDcontrol.c  ****     {
 327:LEDcontrol.c  ****         if(x & 128)     //Tjekker om det bittet på bit plads 7 er 1
 690              		.loc 1 327 0
 691 002a 10F0800F 		tst	r0, #128
 692 002e 06D0     		beq	.L51
 328:LEDcontrol.c  ****         {
 329:LEDcontrol.c  ****             buf[i] = 0b110; //Konverterer 1 til det tilsvarende delay
 693              		.loc 1 329 0
 694 0030 0626     		movs	r6, #6
 695 0032 10AC     		add	r4, sp, #64
 696 0034 04EB8304 		add	r4, r4, r3, lsl #2
 697 0038 44F8306C 		str	r6, [r4, #-48]
 698 003c 05E0     		b	.L52
 699              	.L51:
 330:LEDcontrol.c  ****         }else{
 331:LEDcontrol.c  ****             buf[i] = 0b100; //Konverterer 0 til det tilsvarende delay
 700              		.loc 1 331 0
 701 003e 0426     		movs	r6, #4
 702 0040 10AC     		add	r4, sp, #64
 703 0042 04EB8304 		add	r4, r4, r3, lsl #2
 704 0046 44F8306C 		str	r6, [r4, #-48]
 705              	.L52:
 332:LEDcontrol.c  ****         }
 333:LEDcontrol.c  ****         x = x<<1;   //Flytter alle bit i x til venstre, så næste bit gang tjekkes
 706              		.loc 1 333 0 discriminator 2
 707 004a 4000     		lsls	r0, r0, #1
 708              	.LVL119:
 325:LEDcontrol.c  ****     {
 709              		.loc 1 325 0 discriminator 2
 710 004c 0133     		adds	r3, r3, #1
 711              	.LVL120:
 712              	.L50:
 325:LEDcontrol.c  ****     {
 713              		.loc 1 325 0 is_stmt 0 discriminator 1
 714 004e 072B     		cmp	r3, #7
 715 0050 EBDD     		ble	.L53
 716              	.LBE3:
 334:LEDcontrol.c  ****     }
 335:LEDcontrol.c  ****     //Da SPI komponenten maks kan sende 16bit af gange og der skal sendes 24bit for hver farve dele
 336:LEDcontrol.c  ****     (rgbLED + LED)->green1 = (buf[0]<<9) + (buf[1]<<6) + (buf[2]<<3) + buf[3];
 717              		.loc 1 336 0 is_stmt 1
 718 0052 059B     		ldr	r3, [sp, #20]
 719              	.LVL121:
 720 0054 9B01     		lsls	r3, r3, #6
 721 0056 0498     		ldr	r0, [sp, #16]
 722              	.LVL122:
 723 0058 03EB4023 		add	r3, r3, r0, lsl #9
 724 005c 0698     		ldr	r0, [sp, #24]
ARM GAS  C:\Users\cring\AppData\Local\Temp\ccGk4Etb.s 			page 20


 725 005e 03EBC003 		add	r3, r3, r0, lsl #3
 726 0062 0798     		ldr	r0, [sp, #28]
 727 0064 0344     		add	r3, r3, r0
 728 0066 AB62     		str	r3, [r5, #40]
 337:LEDcontrol.c  ****     (rgbLED + LED)->green2 = (buf[4]<<9) + (buf[5]<<6) + (buf[6]<<3) + buf[7];
 729              		.loc 1 337 0
 730 0068 099B     		ldr	r3, [sp, #36]
 731 006a 9B01     		lsls	r3, r3, #6
 732 006c 0898     		ldr	r0, [sp, #32]
 733 006e 03EB4023 		add	r3, r3, r0, lsl #9
 734 0072 0A98     		ldr	r0, [sp, #40]
 735 0074 03EBC003 		add	r3, r3, r0, lsl #3
 736 0078 0B98     		ldr	r0, [sp, #44]
 737 007a 0344     		add	r3, r3, r0
 738 007c EB62     		str	r3, [r5, #44]
 739              	.LVL123:
 740              	.LBB4:
 338:LEDcontrol.c  ****     
 339:LEDcontrol.c  ****     x = Red;
 340:LEDcontrol.c  ****     for (int i = 0; i<8; i++)
 741              		.loc 1 340 0
 742 007e 0023     		movs	r3, #0
 743 0080 11E0     		b	.L54
 744              	.LVL124:
 745              	.L57:
 341:LEDcontrol.c  ****     {
 342:LEDcontrol.c  ****         if(x & 128)
 746              		.loc 1 342 0
 747 0082 11F0800F 		tst	r1, #128
 748 0086 06D0     		beq	.L55
 343:LEDcontrol.c  ****         {
 344:LEDcontrol.c  ****             buf[i] = 0b110;
 749              		.loc 1 344 0
 750 0088 0624     		movs	r4, #6
 751 008a 10A8     		add	r0, sp, #64
 752 008c 00EB8300 		add	r0, r0, r3, lsl #2
 753 0090 40F8304C 		str	r4, [r0, #-48]
 754 0094 05E0     		b	.L56
 755              	.L55:
 345:LEDcontrol.c  ****         }else{
 346:LEDcontrol.c  ****             buf[i] = 0b100;
 756              		.loc 1 346 0
 757 0096 0424     		movs	r4, #4
 758 0098 10A8     		add	r0, sp, #64
 759 009a 00EB8300 		add	r0, r0, r3, lsl #2
 760 009e 40F8304C 		str	r4, [r0, #-48]
 761              	.L56:
 347:LEDcontrol.c  ****         }
 348:LEDcontrol.c  ****         x = x<<1;
 762              		.loc 1 348 0 discriminator 2
 763 00a2 4900     		lsls	r1, r1, #1
 764              	.LVL125:
 340:LEDcontrol.c  ****     {
 765              		.loc 1 340 0 discriminator 2
 766 00a4 0133     		adds	r3, r3, #1
 767              	.LVL126:
 768              	.L54:
ARM GAS  C:\Users\cring\AppData\Local\Temp\ccGk4Etb.s 			page 21


 340:LEDcontrol.c  ****     {
 769              		.loc 1 340 0 is_stmt 0 discriminator 1
 770 00a6 072B     		cmp	r3, #7
 771 00a8 EBDD     		ble	.L57
 772              	.LBE4:
 349:LEDcontrol.c  ****     }
 350:LEDcontrol.c  ****     (rgbLED + LED)->red1 = (buf[0]<<9) + (buf[1]<<6) + (buf[2]<<3) + buf[3];
 773              		.loc 1 350 0 is_stmt 1
 774 00aa 059B     		ldr	r3, [sp, #20]
 775              	.LVL127:
 776 00ac 9B01     		lsls	r3, r3, #6
 777 00ae 0499     		ldr	r1, [sp, #16]
 778              	.LVL128:
 779 00b0 03EB4123 		add	r3, r3, r1, lsl #9
 780 00b4 0699     		ldr	r1, [sp, #24]
 781 00b6 03EBC103 		add	r3, r3, r1, lsl #3
 782 00ba 0799     		ldr	r1, [sp, #28]
 783 00bc 0B44     		add	r3, r3, r1
 784 00be 2B63     		str	r3, [r5, #48]
 351:LEDcontrol.c  ****     (rgbLED + LED)->red2 = (buf[4]<<9) + (buf[5]<<6) + (buf[6]<<3) + buf[7];
 785              		.loc 1 351 0
 786 00c0 099B     		ldr	r3, [sp, #36]
 787 00c2 9B01     		lsls	r3, r3, #6
 788 00c4 0899     		ldr	r1, [sp, #32]
 789 00c6 03EB4123 		add	r3, r3, r1, lsl #9
 790 00ca 0A99     		ldr	r1, [sp, #40]
 791 00cc 03EBC103 		add	r3, r3, r1, lsl #3
 792 00d0 0B99     		ldr	r1, [sp, #44]
 793 00d2 0B44     		add	r3, r3, r1
 794 00d4 6B63     		str	r3, [r5, #52]
 795              	.LVL129:
 796              	.LBB5:
 352:LEDcontrol.c  ****     
 353:LEDcontrol.c  ****     x = Blue;
 354:LEDcontrol.c  ****     for (int i = 0; i<8; i++)
 797              		.loc 1 354 0
 798 00d6 0023     		movs	r3, #0
 799 00d8 11E0     		b	.L58
 800              	.LVL130:
 801              	.L61:
 355:LEDcontrol.c  ****     {
 356:LEDcontrol.c  ****         if(x & 128)
 802              		.loc 1 356 0
 803 00da 12F0800F 		tst	r2, #128
 804 00de 06D0     		beq	.L59
 357:LEDcontrol.c  ****         {
 358:LEDcontrol.c  ****             buf[i] = 0b110;
 805              		.loc 1 358 0
 806 00e0 0620     		movs	r0, #6
 807 00e2 10A9     		add	r1, sp, #64
 808 00e4 01EB8301 		add	r1, r1, r3, lsl #2
 809 00e8 41F8300C 		str	r0, [r1, #-48]
 810 00ec 05E0     		b	.L60
 811              	.L59:
 359:LEDcontrol.c  ****         }else{
 360:LEDcontrol.c  ****             buf[i] = 0b100;
 812              		.loc 1 360 0
ARM GAS  C:\Users\cring\AppData\Local\Temp\ccGk4Etb.s 			page 22


 813 00ee 0420     		movs	r0, #4
 814 00f0 10A9     		add	r1, sp, #64
 815 00f2 01EB8301 		add	r1, r1, r3, lsl #2
 816 00f6 41F8300C 		str	r0, [r1, #-48]
 817              	.L60:
 361:LEDcontrol.c  ****         }
 362:LEDcontrol.c  ****         x = x<<1;
 818              		.loc 1 362 0 discriminator 2
 819 00fa 5200     		lsls	r2, r2, #1
 820              	.LVL131:
 354:LEDcontrol.c  ****     {
 821              		.loc 1 354 0 discriminator 2
 822 00fc 0133     		adds	r3, r3, #1
 823              	.LVL132:
 824              	.L58:
 354:LEDcontrol.c  ****     {
 825              		.loc 1 354 0 is_stmt 0 discriminator 1
 826 00fe 072B     		cmp	r3, #7
 827 0100 EBDD     		ble	.L61
 828              	.LBE5:
 363:LEDcontrol.c  ****     }
 364:LEDcontrol.c  ****     (rgbLED + LED)->blue1 = (buf[0]<<9) + (buf[1]<<6) + (buf[2]<<3) + buf[3];
 829              		.loc 1 364 0 is_stmt 1
 830 0102 059B     		ldr	r3, [sp, #20]
 831              	.LVL133:
 832 0104 9B01     		lsls	r3, r3, #6
 833 0106 049A     		ldr	r2, [sp, #16]
 834              	.LVL134:
 835 0108 03EB4223 		add	r3, r3, r2, lsl #9
 836 010c 069A     		ldr	r2, [sp, #24]
 837 010e 03EBC203 		add	r3, r3, r2, lsl #3
 838 0112 079A     		ldr	r2, [sp, #28]
 839 0114 1344     		add	r3, r3, r2
 840 0116 AB63     		str	r3, [r5, #56]
 365:LEDcontrol.c  ****     (rgbLED + LED)->blue2 = (buf[4]<<9) + (buf[5]<<6) + (buf[6]<<3) + buf[7];
 841              		.loc 1 365 0
 842 0118 099B     		ldr	r3, [sp, #36]
 843 011a 9B01     		lsls	r3, r3, #6
 844 011c 089A     		ldr	r2, [sp, #32]
 845 011e 03EB4223 		add	r3, r3, r2, lsl #9
 846 0122 0A9A     		ldr	r2, [sp, #40]
 847 0124 03EBC203 		add	r3, r3, r2, lsl #3
 848 0128 0B9A     		ldr	r2, [sp, #44]
 849 012a 1344     		add	r3, r3, r2
 850 012c EB63     		str	r3, [r5, #60]
 366:LEDcontrol.c  **** 
 367:LEDcontrol.c  **** }
 851              		.loc 1 367 0
 852 012e 11B0     		add	sp, sp, #68
 853              		.cfi_def_cfa_offset 20
 854              		@ sp needed
 855 0130 F0BD     		pop	{r4, r5, r6, r7, pc}
 856              		.cfi_endproc
 857              	.LFE78:
 858              		.size	setcolorLED, .-setcolorLED
 859 0132 00BF     		.section	.text.fillcolor,"ax",%progbits
 860              		.align	2
ARM GAS  C:\Users\cring\AppData\Local\Temp\ccGk4Etb.s 			page 23


 861              		.global	fillcolor
 862              		.thumb
 863              		.thumb_func
 864              		.type	fillcolor, %function
 865              	fillcolor:
 866              	.LFB72:
 176:LEDcontrol.c  ****     for(int i = 0; i < rgbLED->LEDlength; i++)
 867              		.loc 1 176 0
 868              		.cfi_startproc
 869              		@ args = 12, pretend = 0, frame = 0
 870              		@ frame_needed = 0, uses_anonymous_args = 0
 871              	.LVL135:
 872 0000 2DE9F04F 		push	{r4, r5, r6, r7, r8, r9, r10, fp, lr}
 873              		.cfi_def_cfa_offset 36
 874              		.cfi_offset 4, -36
 875              		.cfi_offset 5, -32
 876              		.cfi_offset 6, -28
 877              		.cfi_offset 7, -24
 878              		.cfi_offset 8, -20
 879              		.cfi_offset 9, -16
 880              		.cfi_offset 10, -12
 881              		.cfi_offset 11, -8
 882              		.cfi_offset 14, -4
 883 0004 85B0     		sub	sp, sp, #20
 884              		.cfi_def_cfa_offset 56
 885 0006 8046     		mov	r8, r0
 886 0008 8946     		mov	r9, r1
 887 000a 9246     		mov	r10, r2
 888 000c 9B46     		mov	fp, r3
 889 000e DDE90E45 		ldrd	r4, [sp, #56]
 890 0012 109F     		ldr	r7, [sp, #64]
 891              	.LVL136:
 892              	.LBB6:
 177:LEDcontrol.c  ****     {
 893              		.loc 1 177 0
 894 0014 0026     		movs	r6, #0
 895 0016 0AE0     		b	.L64
 896              	.LVL137:
 897              	.L65:
 179:LEDcontrol.c  ****     }
 898              		.loc 1 179 0 discriminator 3
 899 0018 0397     		str	r7, [sp, #12]
 900 001a 0296     		str	r6, [sp, #8]
 901 001c CDE90045 		strd	r4, [sp]
 902 0020 5246     		mov	r2, r10
 903 0022 5B46     		mov	r3, fp
 904 0024 4046     		mov	r0, r8
 905 0026 4946     		mov	r1, r9
 906 0028 FFF7FEFF 		bl	setcolorLED
 907              	.LVL138:
 177:LEDcontrol.c  ****     {
 908              		.loc 1 177 0 discriminator 3
 909 002c 0136     		adds	r6, r6, #1
 910              	.LVL139:
 911              	.L64:
 177:LEDcontrol.c  ****     {
 912              		.loc 1 177 0 is_stmt 0 discriminator 1
ARM GAS  C:\Users\cring\AppData\Local\Temp\ccGk4Etb.s 			page 24


 913 002e 3B6C     		ldr	r3, [r7, #64]
 914 0030 9E42     		cmp	r6, r3
 915 0032 F1DB     		blt	.L65
 916              	.LBE6:
 181:LEDcontrol.c  **** 
 917              		.loc 1 181 0 is_stmt 1
 918 0034 05B0     		add	sp, sp, #20
 919              		.cfi_def_cfa_offset 36
 920              		@ sp needed
 921 0036 BDE8F08F 		pop	{r4, r5, r6, r7, r8, r9, r10, fp, pc}
 922              		.cfi_endproc
 923              	.LFE72:
 924              		.size	fillcolor, .-fillcolor
 925              		.global	__aeabi_f2d
 926              		.global	__aeabi_d2f
 927              		.global	__aeabi_fcmplt
 928              		.global	__aeabi_dadd
 929              		.global	__aeabi_fcmpeq
 930 003a 00BF     		.section	.text.isr_LED_pulse,"ax",%progbits
 931              		.align	2
 932              		.global	isr_LED_pulse
 933              		.thumb
 934              		.thumb_func
 935              		.type	isr_LED_pulse, %function
 936              	isr_LED_pulse:
 937              	.LFB66:
  75:LEDcontrol.c  ****     
 938              		.loc 1 75 0
 939              		.cfi_startproc
 940              		@ args = 0, pretend = 0, frame = 0
 941              		@ frame_needed = 0, uses_anonymous_args = 0
 942 0000 F0B5     		push	{r4, r5, r6, r7, lr}
 943              		.cfi_def_cfa_offset 20
 944              		.cfi_offset 4, -20
 945              		.cfi_offset 5, -16
 946              		.cfi_offset 6, -12
 947              		.cfi_offset 7, -8
 948              		.cfi_offset 14, -4
 949 0002 85B0     		sub	sp, sp, #20
 950              		.cfi_def_cfa_offset 40
  77:LEDcontrol.c  ****     {
 951              		.loc 1 77 0
 952 0004 464B     		ldr	r3, .L79+8
 953 0006 9B68     		ldr	r3, [r3, #8]
 954 0008 002B     		cmp	r3, #0
 955 000a 40D1     		bne	.L68
  79:LEDcontrol.c  ****         if (rgbLED2->pulse == 1)fillcolor(rgbLED2->h,rgbLED2->s,index2, rgbLED2);
 956              		.loc 1 79 0
 957 000c 444B     		ldr	r3, .L79+8
 958 000e 1B68     		ldr	r3, [r3]
 959 0010 DA6C     		ldr	r2, [r3, #76]
 960 0012 012A     		cmp	r2, #1
 961 0014 10D1     		bne	.L69
  79:LEDcontrol.c  ****         if (rgbLED2->pulse == 1)fillcolor(rgbLED2->h,rgbLED2->s,index2, rgbLED2);
 962              		.loc 1 79 0 is_stmt 0 discriminator 1
 963 0016 D3E90667 		ldrd	r6, [r3, #24]
 964 001a D3E90445 		ldrd	r4, [r3, #16]
ARM GAS  C:\Users\cring\AppData\Local\Temp\ccGk4Etb.s 			page 25


 965 001e 0293     		str	r3, [sp, #8]
 966 0020 404B     		ldr	r3, .L79+12
 967 0022 1868     		ldr	r0, [r3]	@ float
 968 0024 FFF7FEFF 		bl	__aeabi_f2d
 969              	.LVL140:
 970 0028 CDE90001 		strd	r0, [sp]
 971 002c 3246     		mov	r2, r6
 972 002e 3B46     		mov	r3, r7
 973 0030 2046     		mov	r0, r4
 974 0032 2946     		mov	r1, r5
 975 0034 FFF7FEFF 		bl	fillcolor
 976              	.LVL141:
 977              	.L69:
  80:LEDcontrol.c  ****         index2 = index2-0.01;
 978              		.loc 1 80 0 is_stmt 1
 979 0038 394B     		ldr	r3, .L79+8
 980 003a 5B68     		ldr	r3, [r3, #4]
 981 003c DA6C     		ldr	r2, [r3, #76]
 982 003e 012A     		cmp	r2, #1
 983 0040 10D1     		bne	.L70
  80:LEDcontrol.c  ****         index2 = index2-0.01;
 984              		.loc 1 80 0 is_stmt 0 discriminator 1
 985 0042 D3E90667 		ldrd	r6, [r3, #24]
 986 0046 D3E90445 		ldrd	r4, [r3, #16]
 987 004a 0293     		str	r3, [sp, #8]
 988 004c 354B     		ldr	r3, .L79+12
 989 004e 1868     		ldr	r0, [r3]	@ float
 990 0050 FFF7FEFF 		bl	__aeabi_f2d
 991              	.LVL142:
 992 0054 CDE90001 		strd	r0, [sp]
 993 0058 3246     		mov	r2, r6
 994 005a 3B46     		mov	r3, r7
 995 005c 2046     		mov	r0, r4
 996 005e 2946     		mov	r1, r5
 997 0060 FFF7FEFF 		bl	fillcolor
 998              	.LVL143:
 999              	.L70:
  81:LEDcontrol.c  ****         if (index2 < 0)count = 1;
 1000              		.loc 1 81 0 is_stmt 1
 1001 0064 2F4C     		ldr	r4, .L79+12
 1002 0066 2068     		ldr	r0, [r4]	@ float
 1003 0068 FFF7FEFF 		bl	__aeabi_f2d
 1004              	.LVL144:
 1005 006c 2AA3     		adr	r3, .L79
 1006 006e D3E90023 		ldrd	r2, [r3]
 1007 0072 FFF7FEFF 		bl	__aeabi_dsub
 1008              	.LVL145:
 1009 0076 FFF7FEFF 		bl	__aeabi_d2f
 1010              	.LVL146:
 1011 007a 2060     		str	r0, [r4]	@ float
  82:LEDcontrol.c  ****     }else if(count == 1){
 1012              		.loc 1 82 0
 1013 007c 0021     		movs	r1, #0
 1014 007e FFF7FEFF 		bl	__aeabi_fcmplt
 1015              	.LVL147:
 1016 0082 0028     		cmp	r0, #0
 1017 0084 45D0     		beq	.L67
ARM GAS  C:\Users\cring\AppData\Local\Temp\ccGk4Etb.s 			page 26


  82:LEDcontrol.c  ****     }else if(count == 1){
 1018              		.loc 1 82 0 is_stmt 0 discriminator 1
 1019 0086 0122     		movs	r2, #1
 1020 0088 254B     		ldr	r3, .L79+8
 1021 008a 9A60     		str	r2, [r3, #8]
 1022 008c 41E0     		b	.L67
 1023              	.L68:
  83:LEDcontrol.c  ****         if (rgbLED1->pulse == 1)fillcolor(rgbLED1->h,rgbLED1->s,index2, rgbLED1);
 1024              		.loc 1 83 0 is_stmt 1
 1025 008e 012B     		cmp	r3, #1
 1026 0090 3FD1     		bne	.L67
  84:LEDcontrol.c  ****         if (rgbLED2->pulse == 1)fillcolor(rgbLED2->h,rgbLED2->s,index2, rgbLED2);
 1027              		.loc 1 84 0
 1028 0092 234B     		ldr	r3, .L79+8
 1029 0094 1B68     		ldr	r3, [r3]
 1030 0096 DA6C     		ldr	r2, [r3, #76]
 1031 0098 012A     		cmp	r2, #1
 1032 009a 10D1     		bne	.L73
  84:LEDcontrol.c  ****         if (rgbLED2->pulse == 1)fillcolor(rgbLED2->h,rgbLED2->s,index2, rgbLED2);
 1033              		.loc 1 84 0 is_stmt 0 discriminator 1
 1034 009c D3E90667 		ldrd	r6, [r3, #24]
 1035 00a0 D3E90445 		ldrd	r4, [r3, #16]
 1036 00a4 0293     		str	r3, [sp, #8]
 1037 00a6 1F4B     		ldr	r3, .L79+12
 1038 00a8 1868     		ldr	r0, [r3]	@ float
 1039 00aa FFF7FEFF 		bl	__aeabi_f2d
 1040              	.LVL148:
 1041 00ae CDE90001 		strd	r0, [sp]
 1042 00b2 3246     		mov	r2, r6
 1043 00b4 3B46     		mov	r3, r7
 1044 00b6 2046     		mov	r0, r4
 1045 00b8 2946     		mov	r1, r5
 1046 00ba FFF7FEFF 		bl	fillcolor
 1047              	.LVL149:
 1048              	.L73:
  85:LEDcontrol.c  ****         index2 = index2+0.01;
 1049              		.loc 1 85 0 is_stmt 1
 1050 00be 184B     		ldr	r3, .L79+8
 1051 00c0 5B68     		ldr	r3, [r3, #4]
 1052 00c2 DA6C     		ldr	r2, [r3, #76]
 1053 00c4 012A     		cmp	r2, #1
 1054 00c6 10D1     		bne	.L74
  85:LEDcontrol.c  ****         index2 = index2+0.01;
 1055              		.loc 1 85 0 is_stmt 0 discriminator 1
 1056 00c8 D3E90667 		ldrd	r6, [r3, #24]
 1057 00cc D3E90445 		ldrd	r4, [r3, #16]
 1058 00d0 0293     		str	r3, [sp, #8]
 1059 00d2 144B     		ldr	r3, .L79+12
 1060 00d4 1868     		ldr	r0, [r3]	@ float
 1061 00d6 FFF7FEFF 		bl	__aeabi_f2d
 1062              	.LVL150:
 1063 00da CDE90001 		strd	r0, [sp]
 1064 00de 3246     		mov	r2, r6
 1065 00e0 3B46     		mov	r3, r7
 1066 00e2 2046     		mov	r0, r4
 1067 00e4 2946     		mov	r1, r5
 1068 00e6 FFF7FEFF 		bl	fillcolor
ARM GAS  C:\Users\cring\AppData\Local\Temp\ccGk4Etb.s 			page 27


 1069              	.LVL151:
 1070              	.L74:
  86:LEDcontrol.c  ****         if (index2 == MAXLEDINTENSE)count = 0;
 1071              		.loc 1 86 0 is_stmt 1
 1072 00ea 0E4C     		ldr	r4, .L79+12
 1073 00ec 2068     		ldr	r0, [r4]	@ float
 1074 00ee FFF7FEFF 		bl	__aeabi_f2d
 1075              	.LVL152:
 1076 00f2 09A3     		adr	r3, .L79
 1077 00f4 D3E90023 		ldrd	r2, [r3]
 1078 00f8 FFF7FEFF 		bl	__aeabi_dadd
 1079              	.LVL153:
 1080 00fc FFF7FEFF 		bl	__aeabi_d2f
 1081              	.LVL154:
 1082 0100 2060     		str	r0, [r4]	@ float
  87:LEDcontrol.c  ****     }
 1083              		.loc 1 87 0
 1084 0102 4FF07C51 		mov	r1, #1056964608
 1085 0106 FFF7FEFF 		bl	__aeabi_fcmpeq
 1086              	.LVL155:
 1087 010a 10B1     		cbz	r0, .L67
  87:LEDcontrol.c  ****     }
 1088              		.loc 1 87 0 is_stmt 0 discriminator 1
 1089 010c 0022     		movs	r2, #0
 1090 010e 044B     		ldr	r3, .L79+8
 1091 0110 9A60     		str	r2, [r3, #8]
 1092              	.L67:
  90:LEDcontrol.c  **** 
 1093              		.loc 1 90 0 is_stmt 1
 1094 0112 05B0     		add	sp, sp, #20
 1095              		.cfi_def_cfa_offset 20
 1096              		@ sp needed
 1097 0114 F0BD     		pop	{r4, r5, r6, r7, pc}
 1098              	.L80:
 1099 0116 00BF     		.align	3
 1100              	.L79:
 1101 0118 7B14AE47 		.word	1202590843
 1102 011c E17A843F 		.word	1065646817
 1103 0120 00000000 		.word	.LANCHOR0
 1104 0124 00000000 		.word	.LANCHOR1
 1105              		.cfi_endproc
 1106              	.LFE66:
 1107              		.size	isr_LED_pulse, .-isr_LED_pulse
 1108              		.section	.text.isr_BlinkLED,"ax",%progbits
 1109              		.align	2
 1110              		.global	isr_BlinkLED
 1111              		.thumb
 1112              		.thumb_func
 1113              		.type	isr_BlinkLED, %function
 1114              	isr_BlinkLED:
 1115              	.LFB67:
  93:LEDcontrol.c  ****     switch (count3)
 1116              		.loc 1 93 0
 1117              		.cfi_startproc
 1118              		@ args = 0, pretend = 0, frame = 0
 1119              		@ frame_needed = 0, uses_anonymous_args = 0
 1120 0000 30B5     		push	{r4, r5, lr}
ARM GAS  C:\Users\cring\AppData\Local\Temp\ccGk4Etb.s 			page 28


 1121              		.cfi_def_cfa_offset 12
 1122              		.cfi_offset 4, -12
 1123              		.cfi_offset 5, -8
 1124              		.cfi_offset 14, -4
 1125 0002 85B0     		sub	sp, sp, #20
 1126              		.cfi_def_cfa_offset 32
  94:LEDcontrol.c  ****     {
 1127              		.loc 1 94 0
 1128 0004 2B4B     		ldr	r3, .L90
 1129 0006 DB68     		ldr	r3, [r3, #12]
 1130 0008 13B1     		cbz	r3, .L83
 1131 000a 012B     		cmp	r3, #1
 1132 000c 29D0     		beq	.L84
 1133 000e 4FE0     		b	.L81
 1134              	.L83:
  98:LEDcontrol.c  ****             if(rgbLED2->blink == 1) fillcolor(rgbLED2->h, rgbLED2->s,1, rgbLED2);
 1135              		.loc 1 98 0
 1136 0010 284B     		ldr	r3, .L90
 1137 0012 1B68     		ldr	r3, [r3]
 1138 0014 1A6D     		ldr	r2, [r3, #80]
 1139 0016 012A     		cmp	r2, #1
 1140 0018 0CD1     		bne	.L85
  98:LEDcontrol.c  ****             if(rgbLED2->blink == 1) fillcolor(rgbLED2->h, rgbLED2->s,1, rgbLED2);
 1141              		.loc 1 98 0 is_stmt 0 discriminator 1
 1142 001a D3E90645 		ldrd	r4, [r3, #24]
 1143 001e D3E90401 		ldrd	r0, [r3, #16]
 1144 0022 0293     		str	r3, [sp, #8]
 1145 0024 0022     		movs	r2, #0
 1146 0026 244B     		ldr	r3, .L90+4
 1147 0028 CDE90023 		strd	r2, [sp]
 1148 002c 2246     		mov	r2, r4
 1149 002e 2B46     		mov	r3, r5
 1150 0030 FFF7FEFF 		bl	fillcolor
 1151              	.LVL156:
 1152              	.L85:
  99:LEDcontrol.c  ****             count3++;
 1153              		.loc 1 99 0 is_stmt 1
 1154 0034 1F4B     		ldr	r3, .L90
 1155 0036 5B68     		ldr	r3, [r3, #4]
 1156 0038 1A6D     		ldr	r2, [r3, #80]
 1157 003a 012A     		cmp	r2, #1
 1158 003c 0CD1     		bne	.L86
  99:LEDcontrol.c  ****             count3++;
 1159              		.loc 1 99 0 is_stmt 0 discriminator 1
 1160 003e D3E90645 		ldrd	r4, [r3, #24]
 1161 0042 D3E90401 		ldrd	r0, [r3, #16]
 1162 0046 0293     		str	r3, [sp, #8]
 1163 0048 0022     		movs	r2, #0
 1164 004a 1B4B     		ldr	r3, .L90+4
 1165 004c CDE90023 		strd	r2, [sp]
 1166 0050 2246     		mov	r2, r4
 1167 0052 2B46     		mov	r3, r5
 1168 0054 FFF7FEFF 		bl	fillcolor
 1169              	.LVL157:
 1170              	.L86:
 100:LEDcontrol.c  ****         }
 1171              		.loc 1 100 0 is_stmt 1
ARM GAS  C:\Users\cring\AppData\Local\Temp\ccGk4Etb.s 			page 29


 1172 0058 164A     		ldr	r2, .L90
 1173 005a D368     		ldr	r3, [r2, #12]
 1174 005c 0133     		adds	r3, r3, #1
 1175 005e D360     		str	r3, [r2, #12]
 102:LEDcontrol.c  ****         case 1:
 1176              		.loc 1 102 0
 1177 0060 26E0     		b	.L81
 1178              	.L84:
 105:LEDcontrol.c  ****             if(rgbLED2->blink == 1)fillcolor(rgbLED2->h, rgbLED2->s,0, rgbLED2);
 1179              		.loc 1 105 0
 1180 0062 144B     		ldr	r3, .L90
 1181 0064 1B68     		ldr	r3, [r3]
 1182 0066 1A6D     		ldr	r2, [r3, #80]
 1183 0068 012A     		cmp	r2, #1
 1184 006a 0CD1     		bne	.L87
 105:LEDcontrol.c  ****             if(rgbLED2->blink == 1)fillcolor(rgbLED2->h, rgbLED2->s,0, rgbLED2);
 1185              		.loc 1 105 0 is_stmt 0 discriminator 1
 1186 006c D3E90645 		ldrd	r4, [r3, #24]
 1187 0070 D3E90401 		ldrd	r0, [r3, #16]
 1188 0074 0293     		str	r3, [sp, #8]
 1189 0076 0022     		movs	r2, #0
 1190 0078 0023     		movs	r3, #0
 1191 007a CDE90023 		strd	r2, [sp]
 1192 007e 2246     		mov	r2, r4
 1193 0080 2B46     		mov	r3, r5
 1194 0082 FFF7FEFF 		bl	fillcolor
 1195              	.LVL158:
 1196              	.L87:
 106:LEDcontrol.c  ****             count3 = 0;
 1197              		.loc 1 106 0 is_stmt 1
 1198 0086 0B4B     		ldr	r3, .L90
 1199 0088 5B68     		ldr	r3, [r3, #4]
 1200 008a 1A6D     		ldr	r2, [r3, #80]
 1201 008c 012A     		cmp	r2, #1
 1202 008e 0CD1     		bne	.L88
 106:LEDcontrol.c  ****             count3 = 0;
 1203              		.loc 1 106 0 is_stmt 0 discriminator 1
 1204 0090 D3E90645 		ldrd	r4, [r3, #24]
 1205 0094 D3E90401 		ldrd	r0, [r3, #16]
 1206 0098 0293     		str	r3, [sp, #8]
 1207 009a 0022     		movs	r2, #0
 1208 009c 0023     		movs	r3, #0
 1209 009e CDE90023 		strd	r2, [sp]
 1210 00a2 2246     		mov	r2, r4
 1211 00a4 2B46     		mov	r3, r5
 1212 00a6 FFF7FEFF 		bl	fillcolor
 1213              	.LVL159:
 1214              	.L88:
 107:LEDcontrol.c  ****         }
 1215              		.loc 1 107 0 is_stmt 1
 1216 00aa 0022     		movs	r2, #0
 1217 00ac 014B     		ldr	r3, .L90
 1218 00ae DA60     		str	r2, [r3, #12]
 1219              	.L81:
 112:LEDcontrol.c  **** 
 1220              		.loc 1 112 0
 1221 00b0 05B0     		add	sp, sp, #20
ARM GAS  C:\Users\cring\AppData\Local\Temp\ccGk4Etb.s 			page 30


 1222              		.cfi_def_cfa_offset 12
 1223              		@ sp needed
 1224 00b2 30BD     		pop	{r4, r5, pc}
 1225              	.L91:
 1226              		.align	2
 1227              	.L90:
 1228 00b4 00000000 		.word	.LANCHOR0
 1229 00b8 0000F03F 		.word	1072693248
 1230              		.cfi_endproc
 1231              	.LFE67:
 1232              		.size	isr_BlinkLED, .-isr_BlinkLED
 1233              		.section	.text.isr_LED_ring,"ax",%progbits
 1234              		.align	2
 1235              		.global	isr_LED_ring
 1236              		.thumb
 1237              		.thumb_func
 1238              		.type	isr_LED_ring, %function
 1239              	isr_LED_ring:
 1240              	.LFB65:
  47:LEDcontrol.c  ****     if((rgbLED1->ring == 0) && (rgbLED2->ring == 0)) return;
 1241              		.loc 1 47 0
 1242              		.cfi_startproc
 1243              		@ args = 0, pretend = 0, frame = 0
 1244              		@ frame_needed = 0, uses_anonymous_args = 0
 1245 0000 2DE9F043 		push	{r4, r5, r6, r7, r8, r9, lr}
 1246              		.cfi_def_cfa_offset 28
 1247              		.cfi_offset 4, -28
 1248              		.cfi_offset 5, -24
 1249              		.cfi_offset 6, -20
 1250              		.cfi_offset 7, -16
 1251              		.cfi_offset 8, -12
 1252              		.cfi_offset 9, -8
 1253              		.cfi_offset 14, -4
 1254 0004 85B0     		sub	sp, sp, #20
 1255              		.cfi_def_cfa_offset 48
  48:LEDcontrol.c  ****     if(rgbLED1->ring == 1) fillcolor(0,0,0,rgbLED1);
 1256              		.loc 1 48 0
 1257 0006 404B     		ldr	r3, .L111
 1258 0008 1A68     		ldr	r2, [r3]
 1259 000a 936C     		ldr	r3, [r2, #72]
 1260 000c 23B9     		cbnz	r3, .L93
  48:LEDcontrol.c  ****     if(rgbLED1->ring == 1) fillcolor(0,0,0,rgbLED1);
 1261              		.loc 1 48 0 is_stmt 0 discriminator 1
 1262 000e 3E49     		ldr	r1, .L111
 1263 0010 4968     		ldr	r1, [r1, #4]
 1264 0012 896C     		ldr	r1, [r1, #72]
 1265 0014 0029     		cmp	r1, #0
 1266 0016 73D0     		beq	.L92
 1267              	.L93:
  49:LEDcontrol.c  ****     if(rgbLED2->ring == 1) fillcolor(0,0,0,rgbLED2);
 1268              		.loc 1 49 0 is_stmt 1
 1269 0018 012B     		cmp	r3, #1
 1270 001a 08D1     		bne	.L95
  49:LEDcontrol.c  ****     if(rgbLED2->ring == 1) fillcolor(0,0,0,rgbLED2);
 1271              		.loc 1 49 0 is_stmt 0 discriminator 1
 1272 001c 0020     		movs	r0, #0
 1273 001e 0021     		movs	r1, #0
ARM GAS  C:\Users\cring\AppData\Local\Temp\ccGk4Etb.s 			page 31


 1274 0020 0292     		str	r2, [sp, #8]
 1275 0022 CDE90001 		strd	r0, [sp]
 1276 0026 0246     		mov	r2, r0
 1277 0028 0B46     		mov	r3, r1
 1278 002a FFF7FEFF 		bl	fillcolor
 1279              	.LVL160:
 1280              	.L95:
  50:LEDcontrol.c  ****     
 1281              		.loc 1 50 0 is_stmt 1
 1282 002e 364B     		ldr	r3, .L111
 1283 0030 5B68     		ldr	r3, [r3, #4]
 1284 0032 9A6C     		ldr	r2, [r3, #72]
 1285 0034 012A     		cmp	r2, #1
 1286 0036 08D1     		bne	.L96
  50:LEDcontrol.c  ****     
 1287              		.loc 1 50 0 is_stmt 0 discriminator 1
 1288 0038 0020     		movs	r0, #0
 1289 003a 0021     		movs	r1, #0
 1290 003c 0293     		str	r3, [sp, #8]
 1291 003e CDE90001 		strd	r0, [sp]
 1292 0042 0246     		mov	r2, r0
 1293 0044 0B46     		mov	r3, r1
 1294 0046 FFF7FEFF 		bl	fillcolor
 1295              	.LVL161:
 1296              	.L96:
 1297              	.LBB7:
  52:LEDcontrol.c  ****         {
 1298              		.loc 1 52 0 is_stmt 1
 1299 004a 2F4B     		ldr	r3, .L111
 1300 004c 1C69     		ldr	r4, [r3, #16]
 1301              	.LVL162:
 1302 004e 38E0     		b	.L97
 1303              	.L102:
  54:LEDcontrol.c  ****             {
 1304              		.loc 1 54 0
 1305 0050 2D4B     		ldr	r3, .L111
 1306 0052 1B68     		ldr	r3, [r3]
 1307 0054 9A6C     		ldr	r2, [r3, #72]
 1308 0056 012A     		cmp	r2, #1
 1309 0058 16D1     		bne	.L98
 1310              	.LBB8:
  56:LEDcontrol.c  ****                 setcolorLED((rgbLED1 + x)->h, (rgbLED1 + x)->s, (rgbLED1 + x)->v, x, rgbLED1);
 1311              		.loc 1 56 0
 1312 005a 1D6C     		ldr	r5, [r3, #64]
 1313 005c AC42     		cmp	r4, r5
 1314 005e 01DB     		blt	.L106
  56:LEDcontrol.c  ****                 setcolorLED((rgbLED1 + x)->h, (rgbLED1 + x)->s, (rgbLED1 + x)->v, x, rgbLED1);
 1315              		.loc 1 56 0 is_stmt 0 discriminator 1
 1316 0060 651B     		subs	r5, r4, r5
 1317 0062 00E0     		b	.L99
 1318              	.L106:
  56:LEDcontrol.c  ****                 setcolorLED((rgbLED1 + x)->h, (rgbLED1 + x)->s, (rgbLED1 + x)->v, x, rgbLED1);
 1319              		.loc 1 56 0
 1320 0064 2546     		mov	r5, r4
 1321              	.L99:
 1322              	.LVL163:
  57:LEDcontrol.c  ****             }
ARM GAS  C:\Users\cring\AppData\Local\Temp\ccGk4Etb.s 			page 32


 1323              		.loc 1 57 0 is_stmt 1 discriminator 4
 1324 0066 5822     		movs	r2, #88
 1325 0068 02FB0532 		mla	r2, r2, r5, r3
 1326 006c D2E90689 		ldrd	r8, [r2, #24]
 1327 0070 D2E90401 		ldrd	r0, [r2, #16]
 1328 0074 0393     		str	r3, [sp, #12]
 1329 0076 0295     		str	r5, [sp, #8]
 1330 0078 D2E90867 		ldrd	r6, [r2, #32]
 1331 007c CDE90067 		strd	r6, [sp]
 1332 0080 4246     		mov	r2, r8
 1333 0082 4B46     		mov	r3, r9
 1334 0084 FFF7FEFF 		bl	setcolorLED
 1335              	.LVL164:
 1336              	.L98:
 1337              	.LBE8:
  59:LEDcontrol.c  ****             {
 1338              		.loc 1 59 0
 1339 0088 1F4B     		ldr	r3, .L111
 1340 008a 5B68     		ldr	r3, [r3, #4]
 1341 008c 9A6C     		ldr	r2, [r3, #72]
 1342 008e 012A     		cmp	r2, #1
 1343 0090 16D1     		bne	.L100
 1344              	.LBB9:
  61:LEDcontrol.c  ****                 setcolorLED((rgbLED2 + x)->h, (rgbLED2 + x)->s, (rgbLED2 + x)->v, x, rgbLED2);  
 1345              		.loc 1 61 0
 1346 0092 1D6C     		ldr	r5, [r3, #64]
 1347 0094 AC42     		cmp	r4, r5
 1348 0096 01DB     		blt	.L107
  61:LEDcontrol.c  ****                 setcolorLED((rgbLED2 + x)->h, (rgbLED2 + x)->s, (rgbLED2 + x)->v, x, rgbLED2);  
 1349              		.loc 1 61 0 is_stmt 0 discriminator 1
 1350 0098 651B     		subs	r5, r4, r5
 1351 009a 00E0     		b	.L101
 1352              	.L107:
  61:LEDcontrol.c  ****                 setcolorLED((rgbLED2 + x)->h, (rgbLED2 + x)->s, (rgbLED2 + x)->v, x, rgbLED2);  
 1353              		.loc 1 61 0
 1354 009c 2546     		mov	r5, r4
 1355              	.L101:
 1356              	.LVL165:
  62:LEDcontrol.c  ****             }
 1357              		.loc 1 62 0 is_stmt 1 discriminator 4
 1358 009e 5822     		movs	r2, #88
 1359 00a0 02FB0532 		mla	r2, r2, r5, r3
 1360 00a4 D2E90689 		ldrd	r8, [r2, #24]
 1361 00a8 D2E90401 		ldrd	r0, [r2, #16]
 1362 00ac 0393     		str	r3, [sp, #12]
 1363 00ae 0295     		str	r5, [sp, #8]
 1364 00b0 D2E90867 		ldrd	r6, [r2, #32]
 1365 00b4 CDE90067 		strd	r6, [sp]
 1366 00b8 4246     		mov	r2, r8
 1367 00ba 4B46     		mov	r3, r9
 1368 00bc FFF7FEFF 		bl	setcolorLED
 1369              	.LVL166:
 1370              	.L100:
 1371              	.LBE9:
  52:LEDcontrol.c  ****         {
 1372              		.loc 1 52 0 discriminator 2
 1373 00c0 0134     		adds	r4, r4, #1
ARM GAS  C:\Users\cring\AppData\Local\Temp\ccGk4Etb.s 			page 33


 1374              	.LVL167:
 1375              	.L97:
  52:LEDcontrol.c  ****         {
 1376              		.loc 1 52 0 is_stmt 0 discriminator 1
 1377 00c2 114B     		ldr	r3, .L111
 1378 00c4 1A69     		ldr	r2, [r3, #16]
 1379 00c6 5B69     		ldr	r3, [r3, #20]
 1380 00c8 1344     		add	r3, r3, r2
 1381 00ca 9C42     		cmp	r4, r3
 1382 00cc C0DB     		blt	.L102
 1383              	.LBE7:
  65:LEDcontrol.c  ****     {
 1384              		.loc 1 65 0 is_stmt 1
 1385 00ce 0E4B     		ldr	r3, .L111
 1386 00d0 1B68     		ldr	r3, [r3]
 1387 00d2 4BB1     		cbz	r3, .L103
  67:LEDcontrol.c  ****         return;
 1388              		.loc 1 67 0
 1389 00d4 1B6C     		ldr	r3, [r3, #64]
 1390 00d6 013B     		subs	r3, r3, #1
 1391 00d8 9A42     		cmp	r2, r3
 1392 00da 01DA     		bge	.L108
  67:LEDcontrol.c  ****         return;
 1393              		.loc 1 67 0 is_stmt 0 discriminator 1
 1394 00dc 0132     		adds	r2, r2, #1
 1395 00de 00E0     		b	.L104
 1396              	.L108:
  67:LEDcontrol.c  ****         return;
 1397              		.loc 1 67 0
 1398 00e0 0022     		movs	r2, #0
 1399              	.L104:
  67:LEDcontrol.c  ****         return;
 1400              		.loc 1 67 0 discriminator 4
 1401 00e2 094B     		ldr	r3, .L111
 1402 00e4 1A61     		str	r2, [r3, #16]
  68:LEDcontrol.c  ****     }else if (rgbLED2 != NULL){
 1403              		.loc 1 68 0 is_stmt 1 discriminator 4
 1404 00e6 0BE0     		b	.L92
 1405              	.L103:
  69:LEDcontrol.c  ****         index_ = index_ < (rgbLED2->LEDlength-1) ? index_ + 1 : 0;
 1406              		.loc 1 69 0
 1407 00e8 074B     		ldr	r3, .L111
 1408 00ea 5B68     		ldr	r3, [r3, #4]
 1409 00ec 43B1     		cbz	r3, .L92
  70:LEDcontrol.c  ****     }
 1410              		.loc 1 70 0
 1411 00ee 1B6C     		ldr	r3, [r3, #64]
 1412 00f0 013B     		subs	r3, r3, #1
 1413 00f2 9A42     		cmp	r2, r3
 1414 00f4 01DA     		bge	.L109
  70:LEDcontrol.c  ****     }
 1415              		.loc 1 70 0 is_stmt 0 discriminator 1
 1416 00f6 0132     		adds	r2, r2, #1
 1417 00f8 00E0     		b	.L105
 1418              	.L109:
  70:LEDcontrol.c  ****     }
 1419              		.loc 1 70 0
ARM GAS  C:\Users\cring\AppData\Local\Temp\ccGk4Etb.s 			page 34


 1420 00fa 0022     		movs	r2, #0
 1421              	.L105:
  70:LEDcontrol.c  ****     }
 1422              		.loc 1 70 0 discriminator 4
 1423 00fc 024B     		ldr	r3, .L111
 1424 00fe 1A61     		str	r2, [r3, #16]
 1425              	.LVL168:
 1426              	.L92:
  72:LEDcontrol.c  **** 
 1427              		.loc 1 72 0 is_stmt 1
 1428 0100 05B0     		add	sp, sp, #20
 1429              		.cfi_def_cfa_offset 28
 1430              		@ sp needed
 1431 0102 BDE8F083 		pop	{r4, r5, r6, r7, r8, r9, pc}
 1432              	.L112:
 1433 0106 00BF     		.align	2
 1434              	.L111:
 1435 0108 00000000 		.word	.LANCHOR0
 1436              		.cfi_endproc
 1437              	.LFE65:
 1438              		.size	isr_LED_ring, .-isr_LED_ring
 1439              		.section	.text.LEDOff,"ax",%progbits
 1440              		.align	2
 1441              		.global	LEDOff
 1442              		.thumb
 1443              		.thumb_func
 1444              		.type	LEDOff, %function
 1445              	LEDOff:
 1446              	.LFB79:
 368:LEDcontrol.c  **** 
 369:LEDcontrol.c  **** void LEDOff(LEDctrl *rgbLED)
 370:LEDcontrol.c  **** {
 1447              		.loc 1 370 0
 1448              		.cfi_startproc
 1449              		@ args = 0, pretend = 0, frame = 0
 1450              		@ frame_needed = 0, uses_anonymous_args = 0
 1451              	.LVL169:
 1452 0000 10B5     		push	{r4, lr}
 1453              		.cfi_def_cfa_offset 8
 1454              		.cfi_offset 4, -8
 1455              		.cfi_offset 14, -4
 1456 0002 0446     		mov	r4, r0
 371:LEDcontrol.c  ****     Timer5_Stop();
 1457              		.loc 1 371 0
 1458 0004 FFF7FEFF 		bl	Timer5_Stop
 1459              	.LVL170:
 372:LEDcontrol.c  ****     rgbLED->ring = 0;
 1460              		.loc 1 372 0
 1461 0008 0023     		movs	r3, #0
 1462 000a A364     		str	r3, [r4, #72]
 373:LEDcontrol.c  ****     rgbLED->pulse = 0;
 1463              		.loc 1 373 0
 1464 000c E364     		str	r3, [r4, #76]
 374:LEDcontrol.c  ****     rgbLED->blink = 0;
 1465              		.loc 1 374 0
 1466 000e 2365     		str	r3, [r4, #80]
 1467 0010 10BD     		pop	{r4, pc}
ARM GAS  C:\Users\cring\AppData\Local\Temp\ccGk4Etb.s 			page 35


 1468              		.cfi_endproc
 1469              	.LFE79:
 1470              		.size	LEDOff, .-LEDOff
 1471 0012 00BF     		.section	.text.addLEDstrip,"ax",%progbits
 1472              		.align	2
 1473              		.global	addLEDstrip
 1474              		.thumb
 1475              		.thumb_func
 1476              		.type	addLEDstrip, %function
 1477              	addLEDstrip:
 1478              	.LFB70:
 127:LEDcontrol.c  ****     if (strip == 1)
 1479              		.loc 1 127 0
 1480              		.cfi_startproc
 1481              		@ args = 0, pretend = 0, frame = 0
 1482              		@ frame_needed = 0, uses_anonymous_args = 0
 1483              	.LVL171:
 1484 0000 30B5     		push	{r4, r5, lr}
 1485              		.cfi_def_cfa_offset 12
 1486              		.cfi_offset 4, -12
 1487              		.cfi_offset 5, -8
 1488              		.cfi_offset 14, -4
 1489 0002 85B0     		sub	sp, sp, #20
 1490              		.cfi_def_cfa_offset 32
 1491 0004 0D46     		mov	r5, r1
 128:LEDcontrol.c  ****     {
 1492              		.loc 1 128 0
 1493 0006 012A     		cmp	r2, #1
 1494 0008 02D1     		bne	.L116
 130:LEDcontrol.c  ****     }else{
 1495              		.loc 1 130 0
 1496 000a 0E4B     		ldr	r3, .L121
 1497 000c 1960     		str	r1, [r3]
 1498 000e 01E0     		b	.L117
 1499              	.L116:
 132:LEDcontrol.c  ****     }
 1500              		.loc 1 132 0
 1501 0010 0C4B     		ldr	r3, .L121
 1502 0012 5960     		str	r1, [r3, #4]
 1503              	.L117:
 135:LEDcontrol.c  ****     rgbLED_->pin = strip;
 1504              		.loc 1 135 0
 1505 0014 2864     		str	r0, [r5, #64]
 136:LEDcontrol.c  ****     LEDOff(rgbLED_);
 1506              		.loc 1 136 0
 1507 0016 6A64     		str	r2, [r5, #68]
 137:LEDcontrol.c  ****     
 1508              		.loc 1 137 0
 1509 0018 2846     		mov	r0, r5
 1510              	.LVL172:
 1511 001a FFF7FEFF 		bl	LEDOff
 1512              	.LVL173:
 1513              	.LBB10:
 139:LEDcontrol.c  ****     {
 1514              		.loc 1 139 0
 1515 001e 0024     		movs	r4, #0
 1516 0020 0AE0     		b	.L118
ARM GAS  C:\Users\cring\AppData\Local\Temp\ccGk4Etb.s 			page 36


 1517              	.LVL174:
 1518              	.L119:
 141:LEDcontrol.c  ****     }
 1519              		.loc 1 141 0 discriminator 3
 1520 0022 0020     		movs	r0, #0
 1521 0024 0021     		movs	r1, #0
 1522 0026 0395     		str	r5, [sp, #12]
 1523 0028 0294     		str	r4, [sp, #8]
 1524 002a CDE90001 		strd	r0, [sp]
 1525 002e 0246     		mov	r2, r0
 1526 0030 0B46     		mov	r3, r1
 1527 0032 FFF7FEFF 		bl	setcolorLED
 1528              	.LVL175:
 139:LEDcontrol.c  ****     {
 1529              		.loc 1 139 0 discriminator 3
 1530 0036 0134     		adds	r4, r4, #1
 1531              	.LVL176:
 1532              	.L118:
 139:LEDcontrol.c  ****     {
 1533              		.loc 1 139 0 is_stmt 0 discriminator 1
 1534 0038 2B6C     		ldr	r3, [r5, #64]
 1535 003a 9C42     		cmp	r4, r3
 1536 003c F1DB     		blt	.L119
 1537              	.LBE10:
 143:LEDcontrol.c  **** 
 1538              		.loc 1 143 0 is_stmt 1
 1539 003e 05B0     		add	sp, sp, #20
 1540              		.cfi_def_cfa_offset 12
 1541              		@ sp needed
 1542 0040 30BD     		pop	{r4, r5, pc}
 1543              	.LVL177:
 1544              	.L122:
 1545 0042 00BF     		.align	2
 1546              	.L121:
 1547 0044 00000000 		.word	.LANCHOR0
 1548              		.cfi_endproc
 1549              	.LFE70:
 1550              		.size	addLEDstrip, .-addLEDstrip
 1551              		.section	.text.initLED,"ax",%progbits
 1552              		.align	2
 1553              		.global	initLED
 1554              		.thumb
 1555              		.thumb_func
 1556              		.type	initLED, %function
 1557              	initLED:
 1558              	.LFB71:
 146:LEDcontrol.c  ****     isr_LED_refreshrate_StartEx(isr_refreshrate);
 1559              		.loc 1 146 0
 1560              		.cfi_startproc
 1561              		@ args = 0, pretend = 0, frame = 0
 1562              		@ frame_needed = 0, uses_anonymous_args = 0
 1563              	.LVL178:
 1564 0000 38B5     		push	{r3, r4, r5, lr}
 1565              		.cfi_def_cfa_offset 16
 1566              		.cfi_offset 3, -16
 1567              		.cfi_offset 4, -12
 1568              		.cfi_offset 5, -8
ARM GAS  C:\Users\cring\AppData\Local\Temp\ccGk4Etb.s 			page 37


 1569              		.cfi_offset 14, -4
 1570 0002 0546     		mov	r5, r0
 147:LEDcontrol.c  ****     isr_LED_ring_StartEx(isr_LED_ring);
 1571              		.loc 1 147 0
 1572 0004 1648     		ldr	r0, .L125
 1573              	.LVL179:
 1574 0006 FFF7FEFF 		bl	isr_LED_refreshrate_StartEx
 1575              	.LVL180:
 148:LEDcontrol.c  ****     isr_LED_pulse_StartEx(isr_LED_pulse);
 1576              		.loc 1 148 0
 1577 000a 1648     		ldr	r0, .L125+4
 1578 000c FFF7FEFF 		bl	isr_LED_ring_StartEx
 1579              	.LVL181:
 149:LEDcontrol.c  ****     isr_BlinkLED_StartEx(isr_BlinkLED);
 1580              		.loc 1 149 0
 1581 0010 1548     		ldr	r0, .L125+8
 1582 0012 FFF7FEFF 		bl	isr_LED_pulse_StartEx
 1583              	.LVL182:
 150:LEDcontrol.c  ****     isr_delay_StartEx(isr_delay);
 1584              		.loc 1 150 0
 1585 0016 1548     		ldr	r0, .L125+12
 1586 0018 FFF7FEFF 		bl	isr_BlinkLED_StartEx
 1587              	.LVL183:
 151:LEDcontrol.c  ****     
 1588              		.loc 1 151 0
 1589 001c 1448     		ldr	r0, .L125+16
 1590 001e FFF7FEFF 		bl	isr_delay_StartEx
 1591              	.LVL184:
 153:LEDcontrol.c  ****     LEDOff(rgbLED2);
 1592              		.loc 1 153 0
 1593 0022 144C     		ldr	r4, .L125+20
 1594 0024 2068     		ldr	r0, [r4]
 1595 0026 FFF7FEFF 		bl	LEDOff
 1596              	.LVL185:
 154:LEDcontrol.c  ****     
 1597              		.loc 1 154 0
 1598 002a 6068     		ldr	r0, [r4, #4]
 1599 002c FFF7FEFF 		bl	LEDOff
 1600              	.LVL186:
 156:LEDcontrol.c  ****     index_ = 0;
 1601              		.loc 1 156 0
 1602 0030 0023     		movs	r3, #0
 1603 0032 6361     		str	r3, [r4, #20]
 157:LEDcontrol.c  ****     index2 = MAXLEDINTENSE;
 1604              		.loc 1 157 0
 1605 0034 2361     		str	r3, [r4, #16]
 158:LEDcontrol.c  ****     count = 0;
 1606              		.loc 1 158 0
 1607 0036 4FF07C51 		mov	r1, #1056964608
 1608 003a 0F4A     		ldr	r2, .L125+24
 1609 003c 1160     		str	r1, [r2]	@ float
 159:LEDcontrol.c  ****     count2 = 0;
 1610              		.loc 1 159 0
 1611 003e A360     		str	r3, [r4, #8]
 160:LEDcontrol.c  ****     count3 = 0;
 1612              		.loc 1 160 0
 1613 0040 A361     		str	r3, [r4, #24]
ARM GAS  C:\Users\cring\AppData\Local\Temp\ccGk4Etb.s 			page 38


 161:LEDcontrol.c  ****     
 1614              		.loc 1 161 0
 1615 0042 E360     		str	r3, [r4, #12]
 164:LEDcontrol.c  ****     Timer1_Start();
 1616              		.loc 1 164 0
 1617 0044 FFF7FEFF 		bl	SPIM_1_Start
 1618              	.LVL187:
 165:LEDcontrol.c  ****     Timer2_Start();
 1619              		.loc 1 165 0
 1620 0048 FFF7FEFF 		bl	Timer1_Start
 1621              	.LVL188:
 166:LEDcontrol.c  ****     Timer3_Start();
 1622              		.loc 1 166 0
 1623 004c FFF7FEFF 		bl	Timer2_Start
 1624              	.LVL189:
 167:LEDcontrol.c  ****     Timer4_Start();
 1625              		.loc 1 167 0
 1626 0050 FFF7FEFF 		bl	Timer3_Start
 1627              	.LVL190:
 168:LEDcontrol.c  ****     
 1628              		.loc 1 168 0
 1629 0054 FFF7FEFF 		bl	Timer4_Start
 1630              	.LVL191:
 170:LEDcontrol.c  ****     
 1631              		.loc 1 170 0
 1632 0058 2846     		mov	r0, r5
 1633 005a FFF7FEFF 		bl	setrefreshrate
 1634              	.LVL192:
 1635 005e 38BD     		pop	{r3, r4, r5, pc}
 1636              	.LVL193:
 1637              	.L126:
 1638              		.align	2
 1639              	.L125:
 1640 0060 00000000 		.word	isr_refreshrate
 1641 0064 00000000 		.word	isr_LED_ring
 1642 0068 00000000 		.word	isr_LED_pulse
 1643 006c 00000000 		.word	isr_BlinkLED
 1644 0070 00000000 		.word	isr_delay
 1645 0074 00000000 		.word	.LANCHOR0
 1646 0078 00000000 		.word	.LANCHOR1
 1647              		.cfi_endproc
 1648              	.LFE71:
 1649              		.size	initLED, .-initLED
 1650              		.section	.text.pulseLED,"ax",%progbits
 1651              		.align	2
 1652              		.global	pulseLED
 1653              		.thumb
 1654              		.thumb_func
 1655              		.type	pulseLED, %function
 1656              	pulseLED:
 1657              	.LFB73:
 184:LEDcontrol.c  ****     LEDOff(rgbLED);
 1658              		.loc 1 184 0
 1659              		.cfi_startproc
 1660              		@ args = 12, pretend = 0, frame = 0
 1661              		@ frame_needed = 0, uses_anonymous_args = 0
 1662              	.LVL194:
ARM GAS  C:\Users\cring\AppData\Local\Temp\ccGk4Etb.s 			page 39


 1663 0000 2DE9F047 		push	{r4, r5, r6, r7, r8, r9, r10, lr}
 1664              		.cfi_def_cfa_offset 32
 1665              		.cfi_offset 4, -32
 1666              		.cfi_offset 5, -28
 1667              		.cfi_offset 6, -24
 1668              		.cfi_offset 7, -20
 1669              		.cfi_offset 8, -16
 1670              		.cfi_offset 9, -12
 1671              		.cfi_offset 10, -8
 1672              		.cfi_offset 14, -4
 1673 0004 84B0     		sub	sp, sp, #16
 1674              		.cfi_def_cfa_offset 48
 1675 0006 0446     		mov	r4, r0
 1676 0008 0D46     		mov	r5, r1
 1677 000a 1646     		mov	r6, r2
 1678 000c 1F46     		mov	r7, r3
 1679 000e DDE90C89 		ldrd	r8, [sp, #48]
 1680 0012 DDF838A0 		ldr	r10, [sp, #56]
 185:LEDcontrol.c  ****     rgbLED->pulse = 1;
 1681              		.loc 1 185 0
 1682 0016 5046     		mov	r0, r10
 1683              	.LVL195:
 1684 0018 FFF7FEFF 		bl	LEDOff
 1685              	.LVL196:
 186:LEDcontrol.c  ****     
 1686              		.loc 1 186 0
 1687 001c 0123     		movs	r3, #1
 1688 001e CAF84C30 		str	r3, [r10, #76]
 188:LEDcontrol.c  ****     rgbLED->s = s1;
 1689              		.loc 1 188 0
 1690 0022 CAE90445 		strd	r4, [r10, #16]
 189:LEDcontrol.c  ****     rgbLED->v = v1;
 1691              		.loc 1 189 0
 1692 0026 CAE90667 		strd	r6, [r10, #24]
 190:LEDcontrol.c  ****     fillcolor(h1,s1,v1, rgbLED);
 1693              		.loc 1 190 0
 1694 002a CAE90889 		strd	r8, [r10, #32]
 191:LEDcontrol.c  **** }
 1695              		.loc 1 191 0
 1696 002e CDF808A0 		str	r10, [sp, #8]
 1697 0032 CDE90089 		strd	r8, [sp]
 1698 0036 3246     		mov	r2, r6
 1699 0038 3B46     		mov	r3, r7
 1700 003a 2046     		mov	r0, r4
 1701 003c 2946     		mov	r1, r5
 1702 003e FFF7FEFF 		bl	fillcolor
 1703              	.LVL197:
 192:LEDcontrol.c  **** 
 1704              		.loc 1 192 0
 1705 0042 04B0     		add	sp, sp, #16
 1706              		.cfi_def_cfa_offset 32
 1707              		@ sp needed
 1708 0044 BDE8F087 		pop	{r4, r5, r6, r7, r8, r9, r10, pc}
 1709              		.cfi_endproc
 1710              	.LFE73:
 1711              		.size	pulseLED, .-pulseLED
 1712              		.section	.text.ringLED,"ax",%progbits
ARM GAS  C:\Users\cring\AppData\Local\Temp\ccGk4Etb.s 			page 40


 1713              		.align	2
 1714              		.global	ringLED
 1715              		.thumb
 1716              		.thumb_func
 1717              		.type	ringLED, %function
 1718              	ringLED:
 1719              	.LFB75:
 202:LEDcontrol.c  ****     pulselength_ = pulselength;
 1720              		.loc 1 202 0
 1721              		.cfi_startproc
 1722              		@ args = 20, pretend = 0, frame = 0
 1723              		@ frame_needed = 0, uses_anonymous_args = 0
 1724              	.LVL198:
 1725 0000 2DE9F047 		push	{r4, r5, r6, r7, r8, r9, r10, lr}
 1726              		.cfi_def_cfa_offset 32
 1727              		.cfi_offset 4, -32
 1728              		.cfi_offset 5, -28
 1729              		.cfi_offset 6, -24
 1730              		.cfi_offset 7, -20
 1731              		.cfi_offset 8, -16
 1732              		.cfi_offset 9, -12
 1733              		.cfi_offset 10, -8
 1734              		.cfi_offset 14, -4
 1735 0004 9046     		mov	r8, r2
 1736 0006 9946     		mov	r9, r3
 1737 0008 DDE90867 		ldrd	r6, [sp, #32]
 1738 000c DDE90A45 		ldrd	r4, [sp, #40]
 1739 0010 DDF830A0 		ldr	r10, [sp, #48]
 203:LEDcontrol.c  ****     LEDOff(rgbLED);
 1740              		.loc 1 203 0
 1741 0014 0C4B     		ldr	r3, .L133
 1742 0016 5861     		str	r0, [r3, #20]
 204:LEDcontrol.c  ****     rgbLED->ring = 1;
 1743              		.loc 1 204 0
 1744 0018 5046     		mov	r0, r10
 1745              	.LVL199:
 1746 001a FFF7FEFF 		bl	LEDOff
 1747              	.LVL200:
 205:LEDcontrol.c  ****     
 1748              		.loc 1 205 0
 1749 001e 0123     		movs	r3, #1
 1750 0020 CAF84830 		str	r3, [r10, #72]
 1751              	.LVL201:
 1752              	.LBB11:
 207:LEDcontrol.c  ****     {
 1753              		.loc 1 207 0
 1754 0024 0022     		movs	r2, #0
 1755 0026 09E0     		b	.L130
 1756              	.LVL202:
 1757              	.L131:
 209:LEDcontrol.c  ****         (rgbLED + i)->s = s1;
 1758              		.loc 1 209 0 discriminator 3
 1759 0028 5823     		movs	r3, #88
 1760 002a 03FB02A3 		mla	r3, r3, r2, r10
 1761 002e C3E90489 		strd	r8, [r3, #16]
 210:LEDcontrol.c  ****         (rgbLED + i)->v = v1;
 1762              		.loc 1 210 0 discriminator 3
ARM GAS  C:\Users\cring\AppData\Local\Temp\ccGk4Etb.s 			page 41


 1763 0032 C3E90667 		strd	r6, [r3, #24]
 211:LEDcontrol.c  ****     }
 1764              		.loc 1 211 0 discriminator 3
 1765 0036 C3E90845 		strd	r4, [r3, #32]
 207:LEDcontrol.c  ****     {
 1766              		.loc 1 207 0 discriminator 3
 1767 003a 0132     		adds	r2, r2, #1
 1768              	.LVL203:
 1769              	.L130:
 207:LEDcontrol.c  ****     {
 1770              		.loc 1 207 0 is_stmt 0 discriminator 1
 1771 003c DAF84030 		ldr	r3, [r10, #64]
 1772 0040 9A42     		cmp	r2, r3
 1773 0042 F1DB     		blt	.L131
 1774              	.LBE11:
 213:LEDcontrol.c  **** 
 1775              		.loc 1 213 0 is_stmt 1
 1776 0044 BDE8F087 		pop	{r4, r5, r6, r7, r8, r9, r10, pc}
 1777              	.LVL204:
 1778              	.L134:
 1779              		.align	2
 1780              	.L133:
 1781 0048 00000000 		.word	.LANCHOR0
 1782              		.cfi_endproc
 1783              	.LFE75:
 1784              		.size	ringLED, .-ringLED
 1785              		.section	.text.BlinkLED,"ax",%progbits
 1786              		.align	2
 1787              		.global	BlinkLED
 1788              		.thumb
 1789              		.thumb_func
 1790              		.type	BlinkLED, %function
 1791              	BlinkLED:
 1792              	.LFB80:
 375:LEDcontrol.c  **** }
 376:LEDcontrol.c  **** 
 377:LEDcontrol.c  **** void BlinkLED(double h1, double s1, double v1, LEDctrl *rgbLED)
 378:LEDcontrol.c  **** {
 1793              		.loc 1 378 0
 1794              		.cfi_startproc
 1795              		@ args = 12, pretend = 0, frame = 0
 1796              		@ frame_needed = 0, uses_anonymous_args = 0
 1797              	.LVL205:
 1798 0000 2DE9F047 		push	{r4, r5, r6, r7, r8, r9, r10, lr}
 1799              		.cfi_def_cfa_offset 32
 1800              		.cfi_offset 4, -32
 1801              		.cfi_offset 5, -28
 1802              		.cfi_offset 6, -24
 1803              		.cfi_offset 7, -20
 1804              		.cfi_offset 8, -16
 1805              		.cfi_offset 9, -12
 1806              		.cfi_offset 10, -8
 1807              		.cfi_offset 14, -4
 1808 0004 8046     		mov	r8, r0
 1809 0006 8946     		mov	r9, r1
 1810 0008 1646     		mov	r6, r2
 1811 000a 1F46     		mov	r7, r3
ARM GAS  C:\Users\cring\AppData\Local\Temp\ccGk4Etb.s 			page 42


 1812 000c DDE90845 		ldrd	r4, [sp, #32]
 1813 0010 DDF828A0 		ldr	r10, [sp, #40]
 379:LEDcontrol.c  ****     LEDOff(rgbLED);
 1814              		.loc 1 379 0
 1815 0014 5046     		mov	r0, r10
 1816              	.LVL206:
 1817 0016 FFF7FEFF 		bl	LEDOff
 1818              	.LVL207:
 1819              	.LBB12:
 380:LEDcontrol.c  ****     
 381:LEDcontrol.c  ****     for(int i = 0; i<rgbLED->LEDlength; i++)
 1820              		.loc 1 381 0
 1821 001a 0022     		movs	r2, #0
 1822 001c 09E0     		b	.L136
 1823              	.LVL208:
 1824              	.L137:
 382:LEDcontrol.c  ****     {
 383:LEDcontrol.c  ****         (rgbLED + i)->h = h1;
 1825              		.loc 1 383 0 discriminator 3
 1826 001e 5823     		movs	r3, #88
 1827 0020 03FB02A3 		mla	r3, r3, r2, r10
 1828 0024 C3E90489 		strd	r8, [r3, #16]
 384:LEDcontrol.c  ****         (rgbLED + i)->s = s1;
 1829              		.loc 1 384 0 discriminator 3
 1830 0028 C3E90667 		strd	r6, [r3, #24]
 385:LEDcontrol.c  ****         (rgbLED + i)->v = v1;
 1831              		.loc 1 385 0 discriminator 3
 1832 002c C3E90845 		strd	r4, [r3, #32]
 381:LEDcontrol.c  ****     {
 1833              		.loc 1 381 0 discriminator 3
 1834 0030 0132     		adds	r2, r2, #1
 1835              	.LVL209:
 1836              	.L136:
 381:LEDcontrol.c  ****     {
 1837              		.loc 1 381 0 is_stmt 0 discriminator 1
 1838 0032 DAF84030 		ldr	r3, [r10, #64]
 1839 0036 9A42     		cmp	r2, r3
 1840 0038 F1DB     		blt	.L137
 1841              	.LBE12:
 386:LEDcontrol.c  ****     }
 387:LEDcontrol.c  ****     
 388:LEDcontrol.c  ****     rgbLED->blink = 1;
 1842              		.loc 1 388 0 is_stmt 1
 1843 003a 0123     		movs	r3, #1
 1844 003c CAF85030 		str	r3, [r10, #80]
 1845 0040 BDE8F087 		pop	{r4, r5, r6, r7, r8, r9, r10, pc}
 1846              		.cfi_endproc
 1847              	.LFE80:
 1848              		.size	BlinkLED, .-BlinkLED
 1849              		.section	.text.LEDinitSeq,"ax",%progbits
 1850              		.align	2
 1851              		.global	LEDinitSeq
 1852              		.thumb
 1853              		.thumb_func
 1854              		.type	LEDinitSeq, %function
 1855              	LEDinitSeq:
 1856              	.LFB81:
ARM GAS  C:\Users\cring\AppData\Local\Temp\ccGk4Etb.s 			page 43


 389:LEDcontrol.c  **** }
 390:LEDcontrol.c  **** 
 391:LEDcontrol.c  **** 
 392:LEDcontrol.c  **** //Forskellige sekvenser til LED OBS ordforklaringer er i system arkitketur
 393:LEDcontrol.c  **** void LEDinitSeq(LEDctrl *rgbLED)    //Initieringssekvens
 394:LEDcontrol.c  **** {
 1857              		.loc 1 394 0
 1858              		.cfi_startproc
 1859              		@ args = 0, pretend = 0, frame = 0
 1860              		@ frame_needed = 0, uses_anonymous_args = 0
 1861              	.LVL210:
 1862 0000 00B5     		push	{lr}
 1863              		.cfi_def_cfa_offset 4
 1864              		.cfi_offset 14, -4
 1865 0002 87B0     		sub	sp, sp, #28
 1866              		.cfi_def_cfa_offset 32
 395:LEDcontrol.c  ****     ringLED(3, 191, 1.0, 0.5, rgbLED);
 1867              		.loc 1 395 0
 1868 0004 0490     		str	r0, [sp, #16]
 1869 0006 0022     		movs	r2, #0
 1870 0008 094B     		ldr	r3, .L141+8
 1871 000a CDE90223 		strd	r2, [sp, #8]
 1872 000e 0022     		movs	r2, #0
 1873 0010 084B     		ldr	r3, .L141+12
 1874 0012 CDE90023 		strd	r2, [sp]
 1875 0016 04A3     		adr	r3, .L141
 1876 0018 D3E90023 		ldrd	r2, [r3]
 1877 001c 0320     		movs	r0, #3
 1878              	.LVL211:
 1879 001e FFF7FEFF 		bl	ringLED
 1880              	.LVL212:
 396:LEDcontrol.c  **** }
 1881              		.loc 1 396 0
 1882 0022 07B0     		add	sp, sp, #28
 1883              		.cfi_def_cfa_offset 4
 1884              		@ sp needed
 1885 0024 5DF804FB 		ldr	pc, [sp], #4
 1886              	.L142:
 1887              		.align	3
 1888              	.L141:
 1889 0028 00000000 		.word	0
 1890 002c 00E06740 		.word	1080549376
 1891 0030 0000E03F 		.word	1071644672
 1892 0034 0000F03F 		.word	1072693248
 1893              		.cfi_endproc
 1894              	.LFE81:
 1895              		.size	LEDinitSeq, .-LEDinitSeq
 1896              		.section	.text.idleSeq,"ax",%progbits
 1897              		.align	2
 1898              		.global	idleSeq
 1899              		.thumb
 1900              		.thumb_func
 1901              		.type	idleSeq, %function
 1902              	idleSeq:
 1903              	.LFB82:
 397:LEDcontrol.c  **** 
 398:LEDcontrol.c  **** void idleSeq(LEDctrl *rgbLED)      //Idle-sekvens
ARM GAS  C:\Users\cring\AppData\Local\Temp\ccGk4Etb.s 			page 44


 399:LEDcontrol.c  **** {
 1904              		.loc 1 399 0
 1905              		.cfi_startproc
 1906              		@ args = 0, pretend = 0, frame = 0
 1907              		@ frame_needed = 0, uses_anonymous_args = 0
 1908              	.LVL213:
 1909 0000 00B5     		push	{lr}
 1910              		.cfi_def_cfa_offset 4
 1911              		.cfi_offset 14, -4
 1912 0002 85B0     		sub	sp, sp, #20
 1913              		.cfi_def_cfa_offset 24
 400:LEDcontrol.c  ****     pulseLED(307, 1.0, 0.85, rgbLED);
 1914              		.loc 1 400 0
 1915 0004 0290     		str	r0, [sp, #8]
 1916 0006 08A3     		adr	r3, .L145
 1917 0008 D3E90023 		ldrd	r2, [r3]
 1918 000c CDE90023 		strd	r2, [sp]
 1919 0010 0022     		movs	r2, #0
 1920 0012 094B     		ldr	r3, .L145+16
 1921 0014 06A1     		adr	r1, .L145+8
 1922 0016 D1E90001 		ldrd	r0, [r1]
 1923              	.LVL214:
 1924 001a FFF7FEFF 		bl	pulseLED
 1925              	.LVL215:
 401:LEDcontrol.c  **** }
 1926              		.loc 1 401 0
 1927 001e 05B0     		add	sp, sp, #20
 1928              		.cfi_def_cfa_offset 4
 1929              		@ sp needed
 1930 0020 5DF804FB 		ldr	pc, [sp], #4
 1931              	.L146:
 1932 0024 AFF30080 		.align	3
 1933              	.L145:
 1934 0028 33333333 		.word	858993459
 1935 002c 3333EB3F 		.word	1072378675
 1936 0030 00000000 		.word	0
 1937 0034 00307340 		.word	1081290752
 1938 0038 0000F03F 		.word	1072693248
 1939              		.cfi_endproc
 1940              	.LFE82:
 1941              		.size	idleSeq, .-idleSeq
 1942              		.section	.text.loserSeq,"ax",%progbits
 1943              		.align	2
 1944              		.global	loserSeq
 1945              		.thumb
 1946              		.thumb_func
 1947              		.type	loserSeq, %function
 1948              	loserSeq:
 1949              	.LFB83:
 402:LEDcontrol.c  **** 
 403:LEDcontrol.c  **** void loserSeq(LEDctrl *rgbLED)     //Tabersekvens
 404:LEDcontrol.c  **** {
 1950              		.loc 1 404 0
 1951              		.cfi_startproc
 1952              		@ args = 0, pretend = 0, frame = 0
 1953              		@ frame_needed = 0, uses_anonymous_args = 0
 1954              	.LVL216:
ARM GAS  C:\Users\cring\AppData\Local\Temp\ccGk4Etb.s 			page 45


 1955 0000 10B5     		push	{r4, lr}
 1956              		.cfi_def_cfa_offset 8
 1957              		.cfi_offset 4, -8
 1958              		.cfi_offset 14, -4
 1959 0002 84B0     		sub	sp, sp, #16
 1960              		.cfi_def_cfa_offset 24
 1961 0004 0446     		mov	r4, r0
 405:LEDcontrol.c  ****     LEDOff(rgbLED);
 1962              		.loc 1 405 0
 1963 0006 FFF7FEFF 		bl	LEDOff
 1964              	.LVL217:
 406:LEDcontrol.c  ****     fillcolor(3, 1.0, 0.83, rgbLED);
 1965              		.loc 1 406 0
 1966 000a 0294     		str	r4, [sp, #8]
 1967 000c 06A3     		adr	r3, .L149
 1968 000e D3E90023 		ldrd	r2, [r3]
 1969 0012 CDE90023 		strd	r2, [sp]
 1970 0016 0022     		movs	r2, #0
 1971 0018 054B     		ldr	r3, .L149+8
 1972 001a 0020     		movs	r0, #0
 1973 001c 0549     		ldr	r1, .L149+12
 1974 001e FFF7FEFF 		bl	fillcolor
 1975              	.LVL218:
 407:LEDcontrol.c  ****     
 408:LEDcontrol.c  **** }
 1976              		.loc 1 408 0
 1977 0022 04B0     		add	sp, sp, #16
 1978              		.cfi_def_cfa_offset 8
 1979              		@ sp needed
 1980 0024 10BD     		pop	{r4, pc}
 1981              	.LVL219:
 1982              	.L150:
 1983 0026 00BF     		.align	3
 1984              	.L149:
 1985 0028 8FC2F528 		.word	687194767
 1986 002c 5C8FEA3F 		.word	1072336732
 1987 0030 0000F03F 		.word	1072693248
 1988 0034 00000840 		.word	1074266112
 1989              		.cfi_endproc
 1990              	.LFE83:
 1991              		.size	loserSeq, .-loserSeq
 1992              		.section	.text.zeroCalibrateSeq,"ax",%progbits
 1993              		.align	2
 1994              		.global	zeroCalibrateSeq
 1995              		.thumb
 1996              		.thumb_func
 1997              		.type	zeroCalibrateSeq, %function
 1998              	zeroCalibrateSeq:
 1999              	.LFB84:
 409:LEDcontrol.c  **** 
 410:LEDcontrol.c  **** void zeroCalibrateSeq(LEDctrl *rgbLED) //Kalibreringssekvens
 411:LEDcontrol.c  **** {
 2000              		.loc 1 411 0
 2001              		.cfi_startproc
 2002              		@ args = 0, pretend = 0, frame = 0
 2003              		@ frame_needed = 0, uses_anonymous_args = 0
 2004              	.LVL220:
ARM GAS  C:\Users\cring\AppData\Local\Temp\ccGk4Etb.s 			page 46


 2005 0000 00B5     		push	{lr}
 2006              		.cfi_def_cfa_offset 4
 2007              		.cfi_offset 14, -4
 2008 0002 85B0     		sub	sp, sp, #20
 2009              		.cfi_def_cfa_offset 24
 412:LEDcontrol.c  ****     pulseLED(65, 1, 1, rgbLED);
 2010              		.loc 1 412 0
 2011 0004 0022     		movs	r2, #0
 2012 0006 054B     		ldr	r3, .L153
 2013 0008 0290     		str	r0, [sp, #8]
 2014 000a CDE90023 		strd	r2, [sp]
 2015 000e 0020     		movs	r0, #0
 2016              	.LVL221:
 2017 0010 0349     		ldr	r1, .L153+4
 2018 0012 FFF7FEFF 		bl	pulseLED
 2019              	.LVL222:
 413:LEDcontrol.c  **** }
 2020              		.loc 1 413 0
 2021 0016 05B0     		add	sp, sp, #20
 2022              		.cfi_def_cfa_offset 4
 2023              		@ sp needed
 2024 0018 5DF804FB 		ldr	pc, [sp], #4
 2025              	.L154:
 2026              		.align	2
 2027              	.L153:
 2028 001c 0000F03F 		.word	1072693248
 2029 0020 00405040 		.word	1079001088
 2030              		.cfi_endproc
 2031              	.LFE84:
 2032              		.size	zeroCalibrateSeq, .-zeroCalibrateSeq
 2033              		.section	.text.checkSeq,"ax",%progbits
 2034              		.align	2
 2035              		.global	checkSeq
 2036              		.thumb
 2037              		.thumb_func
 2038              		.type	checkSeq, %function
 2039              	checkSeq:
 2040              	.LFB85:
 414:LEDcontrol.c  **** 
 415:LEDcontrol.c  **** void checkSeq(LEDctrl *rgbLED) //Tjek vægt sekvens
 416:LEDcontrol.c  **** {
 2041              		.loc 1 416 0
 2042              		.cfi_startproc
 2043              		@ args = 0, pretend = 0, frame = 0
 2044              		@ frame_needed = 0, uses_anonymous_args = 0
 2045              	.LVL223:
 2046 0000 00B5     		push	{lr}
 2047              		.cfi_def_cfa_offset 4
 2048              		.cfi_offset 14, -4
 2049 0002 87B0     		sub	sp, sp, #28
 2050              		.cfi_def_cfa_offset 32
 417:LEDcontrol.c  ****     ringLED(3, 65, 1, 1, rgbLED);
 2051              		.loc 1 417 0
 2052 0004 0490     		str	r0, [sp, #16]
 2053 0006 0022     		movs	r2, #0
 2054 0008 064B     		ldr	r3, .L157
 2055 000a CDE90223 		strd	r2, [sp, #8]
ARM GAS  C:\Users\cring\AppData\Local\Temp\ccGk4Etb.s 			page 47


 2056 000e CDE90023 		strd	r2, [sp]
 2057 0012 0022     		movs	r2, #0
 2058 0014 044B     		ldr	r3, .L157+4
 2059 0016 0320     		movs	r0, #3
 2060              	.LVL224:
 2061 0018 FFF7FEFF 		bl	ringLED
 2062              	.LVL225:
 418:LEDcontrol.c  **** }
 2063              		.loc 1 418 0
 2064 001c 07B0     		add	sp, sp, #28
 2065              		.cfi_def_cfa_offset 4
 2066              		@ sp needed
 2067 001e 5DF804FB 		ldr	pc, [sp], #4
 2068              	.L158:
 2069 0022 00BF     		.align	2
 2070              	.L157:
 2071 0024 0000F03F 		.word	1072693248
 2072 0028 00405040 		.word	1079001088
 2073              		.cfi_endproc
 2074              	.LFE85:
 2075              		.size	checkSeq, .-checkSeq
 2076              		.section	.text.weightapprovedSeq,"ax",%progbits
 2077              		.align	2
 2078              		.global	weightapprovedSeq
 2079              		.thumb
 2080              		.thumb_func
 2081              		.type	weightapprovedSeq, %function
 2082              	weightapprovedSeq:
 2083              	.LFB86:
 419:LEDcontrol.c  **** 
 420:LEDcontrol.c  **** void weightapprovedSeq(LEDctrl *rgbLED) //Vægt godkendt sekvens
 421:LEDcontrol.c  **** {
 2084              		.loc 1 421 0
 2085              		.cfi_startproc
 2086              		@ args = 0, pretend = 0, frame = 0
 2087              		@ frame_needed = 0, uses_anonymous_args = 0
 2088              	.LVL226:
 2089 0000 10B5     		push	{r4, lr}
 2090              		.cfi_def_cfa_offset 8
 2091              		.cfi_offset 4, -8
 2092              		.cfi_offset 14, -4
 2093 0002 84B0     		sub	sp, sp, #16
 2094              		.cfi_def_cfa_offset 24
 2095 0004 0446     		mov	r4, r0
 422:LEDcontrol.c  ****     LEDOff(rgbLED);
 2096              		.loc 1 422 0
 2097 0006 FFF7FEFF 		bl	LEDOff
 2098              	.LVL227:
 423:LEDcontrol.c  ****     fillcolor(116, 1, 1.0, rgbLED);
 2099              		.loc 1 423 0
 2100 000a 0022     		movs	r2, #0
 2101 000c 044B     		ldr	r3, .L161
 2102 000e 0294     		str	r4, [sp, #8]
 2103 0010 CDE90023 		strd	r2, [sp]
 2104 0014 0020     		movs	r0, #0
 2105 0016 0349     		ldr	r1, .L161+4
 2106 0018 FFF7FEFF 		bl	fillcolor
ARM GAS  C:\Users\cring\AppData\Local\Temp\ccGk4Etb.s 			page 48


 2107              	.LVL228:
 424:LEDcontrol.c  **** }
 2108              		.loc 1 424 0
 2109 001c 04B0     		add	sp, sp, #16
 2110              		.cfi_def_cfa_offset 8
 2111              		@ sp needed
 2112 001e 10BD     		pop	{r4, pc}
 2113              	.LVL229:
 2114              	.L162:
 2115              		.align	2
 2116              	.L161:
 2117 0020 0000F03F 		.word	1072693248
 2118 0024 00005D40 		.word	1079836672
 2119              		.cfi_endproc
 2120              	.LFE86:
 2121              		.size	weightapprovedSeq, .-weightapprovedSeq
 2122              		.section	.text.startSeq,"ax",%progbits
 2123              		.align	2
 2124              		.global	startSeq
 2125              		.thumb
 2126              		.thumb_func
 2127              		.type	startSeq, %function
 2128              	startSeq:
 2129              	.LFB87:
 425:LEDcontrol.c  **** 
 426:LEDcontrol.c  **** int startSeq(LEDctrl *rgbLED_1, LEDctrl *rgbLED_2) //Start sekvens
 427:LEDcontrol.c  **** {
 2130              		.loc 1 427 0
 2131              		.cfi_startproc
 2132              		@ args = 0, pretend = 0, frame = 0
 2133              		@ frame_needed = 0, uses_anonymous_args = 0
 2134              	.LVL230:
 2135 0000 2DE9F047 		push	{r4, r5, r6, r7, r8, r9, r10, lr}
 2136              		.cfi_def_cfa_offset 32
 2137              		.cfi_offset 4, -32
 2138              		.cfi_offset 5, -28
 2139              		.cfi_offset 6, -24
 2140              		.cfi_offset 7, -20
 2141              		.cfi_offset 8, -16
 2142              		.cfi_offset 9, -12
 2143              		.cfi_offset 10, -8
 2144              		.cfi_offset 14, -4
 2145 0004 84B0     		sub	sp, sp, #16
 2146              		.cfi_def_cfa_offset 48
 2147 0006 8046     		mov	r8, r0
 2148 0008 8A46     		mov	r10, r1
 428:LEDcontrol.c  ****     switch (count2)
 2149              		.loc 1 428 0
 2150 000a 4F4B     		ldr	r3, .L174+8
 2151 000c 9B69     		ldr	r3, [r3, #24]
 2152 000e 062B     		cmp	r3, #6
 2153 0010 00F28F80 		bhi	.L172
 2154 0014 DFE803F0 		tbb	[pc, r3]
 2155              	.L166:
 2156 0018 04       		.byte	(.L165-.L166)/2
 2157 0019 0D       		.byte	(.L167-.L166)/2
 2158 001a 2B       		.byte	(.L168-.L166)/2
ARM GAS  C:\Users\cring\AppData\Local\Temp\ccGk4Etb.s 			page 49


 2159 001b 44       		.byte	(.L169-.L166)/2
 2160 001c 8D       		.byte	(.L172-.L166)/2
 2161 001d 61       		.byte	(.L170-.L166)/2
 2162 001e 88       		.byte	(.L171-.L166)/2
 2163 001f 00       		.p2align 1
 2164              	.L165:
 429:LEDcontrol.c  ****     {
 430:LEDcontrol.c  ****         case 0:
 431:LEDcontrol.c  ****         {
 432:LEDcontrol.c  ****             LEDOff(rgbLED_1);
 2165              		.loc 1 432 0
 2166 0020 FFF7FEFF 		bl	LEDOff
 2167              	.LVL231:
 433:LEDcontrol.c  ****             LEDOff(rgbLED_2);
 2168              		.loc 1 433 0
 2169 0024 5046     		mov	r0, r10
 2170 0026 FFF7FEFF 		bl	LEDOff
 2171              	.LVL232:
 434:LEDcontrol.c  ****             Timer5_Start();
 2172              		.loc 1 434 0
 2173 002a FFF7FEFF 		bl	Timer5_Start
 2174              	.LVL233:
 435:LEDcontrol.c  ****             isr_delay_Enable();
 2175              		.loc 1 435 0
 2176 002e FFF7FEFF 		bl	isr_delay_Enable
 2177              	.LVL234:
 2178              	.L167:
 436:LEDcontrol.c  ****         }
 437:LEDcontrol.c  ****         case 1:
 438:LEDcontrol.c  ****         {            
 439:LEDcontrol.c  ****             fillcolor(3, 1.0, 0.83, rgbLED_1);
 2179              		.loc 1 439 0
 2180 0032 0026     		movs	r6, #0
 2181 0034 454F     		ldr	r7, .L174+12
 2182 0036 0024     		movs	r4, #0
 2183 0038 454D     		ldr	r5, .L174+16
 2184 003a CDF80880 		str	r8, [sp, #8]
 2185 003e 0FF20019 		adr	r9, .L174
 2186 0042 D9E90089 		ldrd	r8, [r9]
 2187              	.LVL235:
 2188 0046 CDE90089 		strd	r8, [sp]
 2189 004a 3246     		mov	r2, r6
 2190 004c 3B46     		mov	r3, r7
 2191 004e 2046     		mov	r0, r4
 2192 0050 2946     		mov	r1, r5
 2193 0052 FFF7FEFF 		bl	fillcolor
 2194              	.LVL236:
 440:LEDcontrol.c  ****             fillcolor(3, 1.0, 0.83, rgbLED_2);
 2195              		.loc 1 440 0
 2196 0056 CDF808A0 		str	r10, [sp, #8]
 2197 005a CDE90089 		strd	r8, [sp]
 2198 005e 3246     		mov	r2, r6
 2199 0060 3B46     		mov	r3, r7
 2200 0062 2046     		mov	r0, r4
 2201 0064 2946     		mov	r1, r5
 2202 0066 FFF7FEFF 		bl	fillcolor
 2203              	.LVL237:
ARM GAS  C:\Users\cring\AppData\Local\Temp\ccGk4Etb.s 			page 50


 441:LEDcontrol.c  ****         }
 442:LEDcontrol.c  ****         break;
 443:LEDcontrol.c  ****         
 444:LEDcontrol.c  ****         case 2:
 445:LEDcontrol.c  ****         {
 446:LEDcontrol.c  ****             fillcolor(65, 1, 1, rgbLED_1);
 447:LEDcontrol.c  ****             fillcolor(65, 1, 1, rgbLED_2);
 448:LEDcontrol.c  ****             //return 1;
 449:LEDcontrol.c  ****         }
 450:LEDcontrol.c  ****         break;
 451:LEDcontrol.c  ****         
 452:LEDcontrol.c  ****         case 3:
 453:LEDcontrol.c  ****         {
 454:LEDcontrol.c  ****             fillcolor(65, 1, 1, rgbLED_1);
 455:LEDcontrol.c  ****             fillcolor(65, 1, 1, rgbLED_2);
 456:LEDcontrol.c  ****                
 457:LEDcontrol.c  ****             count2++;
 458:LEDcontrol.c  ****             //fillcolor(65, 1, 1, rgbLED_1);
 459:LEDcontrol.c  ****             //fillcolor(65, 1, 1, rgbLED_2);
 460:LEDcontrol.c  ****             //return 1;
 461:LEDcontrol.c  ****             
 462:LEDcontrol.c  ****         }
 463:LEDcontrol.c  ****         break;
 464:LEDcontrol.c  ****         case 4:
 465:LEDcontrol.c  ****         {
 466:LEDcontrol.c  ****             //1 sekund delay
 467:LEDcontrol.c  ****         }
 468:LEDcontrol.c  ****         break;
 469:LEDcontrol.c  ****         case 5:
 470:LEDcontrol.c  ****         {
 471:LEDcontrol.c  ****             LEDOff(rgbLED_1);
 472:LEDcontrol.c  ****             LEDOff(rgbLED_2);
 473:LEDcontrol.c  ****             
 474:LEDcontrol.c  ****             fillcolor(116, 1, 1.0, rgbLED_1);
 475:LEDcontrol.c  ****             fillcolor(116, 1, 1.0, rgbLED_2);
 476:LEDcontrol.c  ****             Timer5_Stop();
 477:LEDcontrol.c  ****             //count2 = 0;
 478:LEDcontrol.c  ****             isr_delay_Disable();
 479:LEDcontrol.c  ****             count2++;
 480:LEDcontrol.c  ****         }
 481:LEDcontrol.c  ****         break;
 482:LEDcontrol.c  ****         case 6:
 483:LEDcontrol.c  ****         {  
 484:LEDcontrol.c  ****             count2 = 0;
 485:LEDcontrol.c  ****             return 1;
 486:LEDcontrol.c  ****         }
 487:LEDcontrol.c  ****         break;
 488:LEDcontrol.c  ****     }
 489:LEDcontrol.c  ****     return 0;
 2204              		.loc 1 489 0
 2205 006a 0020     		movs	r0, #0
 442:LEDcontrol.c  ****         
 2206              		.loc 1 442 0
 2207 006c 62E0     		b	.L164
 2208              	.LVL238:
 2209              	.L168:
 446:LEDcontrol.c  ****             fillcolor(65, 1, 1, rgbLED_2);
ARM GAS  C:\Users\cring\AppData\Local\Temp\ccGk4Etb.s 			page 51


 2210              		.loc 1 446 0
 2211 006e 0024     		movs	r4, #0
 2212 0070 364D     		ldr	r5, .L174+12
 2213 0072 0026     		movs	r6, #0
 2214 0074 374F     		ldr	r7, .L174+20
 2215 0076 0290     		str	r0, [sp, #8]
 2216 0078 CDE90045 		strd	r4, [sp]
 2217 007c 2246     		mov	r2, r4
 2218 007e 2B46     		mov	r3, r5
 2219 0080 3046     		mov	r0, r6
 2220              	.LVL239:
 2221 0082 3946     		mov	r1, r7
 2222              	.LVL240:
 2223 0084 FFF7FEFF 		bl	fillcolor
 2224              	.LVL241:
 447:LEDcontrol.c  ****             //return 1;
 2225              		.loc 1 447 0
 2226 0088 CDF808A0 		str	r10, [sp, #8]
 2227 008c CDE90045 		strd	r4, [sp]
 2228 0090 2246     		mov	r2, r4
 2229 0092 2B46     		mov	r3, r5
 2230 0094 3046     		mov	r0, r6
 2231 0096 3946     		mov	r1, r7
 2232 0098 FFF7FEFF 		bl	fillcolor
 2233              	.LVL242:
 2234              		.loc 1 489 0
 2235 009c 0020     		movs	r0, #0
 450:LEDcontrol.c  ****         
 2236              		.loc 1 450 0
 2237 009e 49E0     		b	.L164
 2238              	.LVL243:
 2239              	.L169:
 454:LEDcontrol.c  ****             fillcolor(65, 1, 1, rgbLED_2);
 2240              		.loc 1 454 0
 2241 00a0 0024     		movs	r4, #0
 2242 00a2 2A4D     		ldr	r5, .L174+12
 2243 00a4 0026     		movs	r6, #0
 2244 00a6 2B4F     		ldr	r7, .L174+20
 2245 00a8 0290     		str	r0, [sp, #8]
 2246 00aa CDE90045 		strd	r4, [sp]
 2247 00ae 2246     		mov	r2, r4
 2248 00b0 2B46     		mov	r3, r5
 2249 00b2 3046     		mov	r0, r6
 2250              	.LVL244:
 2251 00b4 3946     		mov	r1, r7
 2252              	.LVL245:
 2253 00b6 FFF7FEFF 		bl	fillcolor
 2254              	.LVL246:
 455:LEDcontrol.c  ****                
 2255              		.loc 1 455 0
 2256 00ba CDF808A0 		str	r10, [sp, #8]
 2257 00be CDE90045 		strd	r4, [sp]
 2258 00c2 2246     		mov	r2, r4
 2259 00c4 2B46     		mov	r3, r5
 2260 00c6 3046     		mov	r0, r6
 2261 00c8 3946     		mov	r1, r7
 2262 00ca FFF7FEFF 		bl	fillcolor
ARM GAS  C:\Users\cring\AppData\Local\Temp\ccGk4Etb.s 			page 52


 2263              	.LVL247:
 457:LEDcontrol.c  ****             //fillcolor(65, 1, 1, rgbLED_1);
 2264              		.loc 1 457 0
 2265 00ce 1E4A     		ldr	r2, .L174+8
 2266 00d0 9369     		ldr	r3, [r2, #24]
 2267 00d2 0133     		adds	r3, r3, #1
 2268 00d4 9361     		str	r3, [r2, #24]
 2269              		.loc 1 489 0
 2270 00d6 0020     		movs	r0, #0
 463:LEDcontrol.c  ****         case 4:
 2271              		.loc 1 463 0
 2272 00d8 2CE0     		b	.L164
 2273              	.LVL248:
 2274              	.L170:
 471:LEDcontrol.c  ****             LEDOff(rgbLED_2);
 2275              		.loc 1 471 0
 2276 00da FFF7FEFF 		bl	LEDOff
 2277              	.LVL249:
 472:LEDcontrol.c  ****             
 2278              		.loc 1 472 0
 2279 00de 5046     		mov	r0, r10
 2280 00e0 FFF7FEFF 		bl	LEDOff
 2281              	.LVL250:
 474:LEDcontrol.c  ****             fillcolor(116, 1, 1.0, rgbLED_2);
 2282              		.loc 1 474 0
 2283 00e4 0024     		movs	r4, #0
 2284 00e6 194D     		ldr	r5, .L174+12
 2285 00e8 0026     		movs	r6, #0
 2286 00ea 1B4F     		ldr	r7, .L174+24
 2287 00ec CDF80880 		str	r8, [sp, #8]
 2288 00f0 CDE90045 		strd	r4, [sp]
 2289 00f4 2246     		mov	r2, r4
 2290 00f6 2B46     		mov	r3, r5
 2291 00f8 3046     		mov	r0, r6
 2292 00fa 3946     		mov	r1, r7
 2293 00fc FFF7FEFF 		bl	fillcolor
 2294              	.LVL251:
 475:LEDcontrol.c  ****             Timer5_Stop();
 2295              		.loc 1 475 0
 2296 0100 CDF808A0 		str	r10, [sp, #8]
 2297 0104 CDE90045 		strd	r4, [sp]
 2298 0108 2246     		mov	r2, r4
 2299 010a 2B46     		mov	r3, r5
 2300 010c 3046     		mov	r0, r6
 2301 010e 3946     		mov	r1, r7
 2302 0110 FFF7FEFF 		bl	fillcolor
 2303              	.LVL252:
 476:LEDcontrol.c  ****             //count2 = 0;
 2304              		.loc 1 476 0
 2305 0114 FFF7FEFF 		bl	Timer5_Stop
 2306              	.LVL253:
 478:LEDcontrol.c  ****             count2++;
 2307              		.loc 1 478 0
 2308 0118 FFF7FEFF 		bl	isr_delay_Disable
 2309              	.LVL254:
 479:LEDcontrol.c  ****         }
 2310              		.loc 1 479 0
ARM GAS  C:\Users\cring\AppData\Local\Temp\ccGk4Etb.s 			page 53


 2311 011c 0A4A     		ldr	r2, .L174+8
 2312 011e 9369     		ldr	r3, [r2, #24]
 2313 0120 0133     		adds	r3, r3, #1
 2314 0122 9361     		str	r3, [r2, #24]
 2315              		.loc 1 489 0
 2316 0124 0020     		movs	r0, #0
 481:LEDcontrol.c  ****         case 6:
 2317              		.loc 1 481 0
 2318 0126 05E0     		b	.L164
 2319              	.LVL255:
 2320              	.L171:
 484:LEDcontrol.c  ****             return 1;
 2321              		.loc 1 484 0
 2322 0128 0022     		movs	r2, #0
 2323 012a 074B     		ldr	r3, .L174+8
 2324 012c 9A61     		str	r2, [r3, #24]
 485:LEDcontrol.c  ****         }
 2325              		.loc 1 485 0
 2326 012e 0120     		movs	r0, #1
 2327              	.LVL256:
 2328 0130 00E0     		b	.L164
 2329              	.LVL257:
 2330              	.L172:
 2331              		.loc 1 489 0
 2332 0132 0020     		movs	r0, #0
 2333              	.LVL258:
 2334              	.L164:
 490:LEDcontrol.c  **** }
 2335              		.loc 1 490 0
 2336 0134 04B0     		add	sp, sp, #16
 2337              		.cfi_def_cfa_offset 32
 2338              		@ sp needed
 2339 0136 BDE8F087 		pop	{r4, r5, r6, r7, r8, r9, r10, pc}
 2340              	.LVL259:
 2341              	.L175:
 2342 013a 00BFAFF3 		.align	3
 2342      0080
 2343              	.L174:
 2344 0140 8FC2F528 		.word	687194767
 2345 0144 5C8FEA3F 		.word	1072336732
 2346 0148 00000000 		.word	.LANCHOR0
 2347 014c 0000F03F 		.word	1072693248
 2348 0150 00000840 		.word	1074266112
 2349 0154 00405040 		.word	1079001088
 2350 0158 00005D40 		.word	1079836672
 2351              		.cfi_endproc
 2352              	.LFE87:
 2353              		.size	startSeq, .-startSeq
 2354              		.section	.text.isr_delay,"ax",%progbits
 2355              		.align	2
 2356              		.global	isr_delay
 2357              		.thumb
 2358              		.thumb_func
 2359              		.type	isr_delay, %function
 2360              	isr_delay:
 2361              	.LFB68:
 115:LEDcontrol.c  ****     count2++;
ARM GAS  C:\Users\cring\AppData\Local\Temp\ccGk4Etb.s 			page 54


 2362              		.loc 1 115 0
 2363              		.cfi_startproc
 2364              		@ args = 0, pretend = 0, frame = 0
 2365              		@ frame_needed = 0, uses_anonymous_args = 0
 2366 0000 08B5     		push	{r3, lr}
 2367              		.cfi_def_cfa_offset 8
 2368              		.cfi_offset 3, -8
 2369              		.cfi_offset 14, -4
 116:LEDcontrol.c  ****     startSeq(rgbLED1, rgbLED2);
 2370              		.loc 1 116 0
 2371 0002 044B     		ldr	r3, .L178
 2372 0004 9A69     		ldr	r2, [r3, #24]
 2373 0006 0132     		adds	r2, r2, #1
 2374 0008 9A61     		str	r2, [r3, #24]
 117:LEDcontrol.c  **** }
 2375              		.loc 1 117 0
 2376 000a 5968     		ldr	r1, [r3, #4]
 2377 000c 1868     		ldr	r0, [r3]
 2378 000e FFF7FEFF 		bl	startSeq
 2379              	.LVL260:
 2380 0012 08BD     		pop	{r3, pc}
 2381              	.L179:
 2382              		.align	2
 2383              	.L178:
 2384 0014 00000000 		.word	.LANCHOR0
 2385              		.cfi_endproc
 2386              	.LFE68:
 2387              		.size	isr_delay, .-isr_delay
 2388              		.section	.text.errorSeq,"ax",%progbits
 2389              		.align	2
 2390              		.global	errorSeq
 2391              		.thumb
 2392              		.thumb_func
 2393              		.type	errorSeq, %function
 2394              	errorSeq:
 2395              	.LFB88:
 491:LEDcontrol.c  **** 
 492:LEDcontrol.c  **** void errorSeq(LEDctrl *rgbLED) //Fejl sekvens
 493:LEDcontrol.c  **** {
 2396              		.loc 1 493 0
 2397              		.cfi_startproc
 2398              		@ args = 0, pretend = 0, frame = 0
 2399              		@ frame_needed = 0, uses_anonymous_args = 0
 2400              	.LVL261:
 2401 0000 00B5     		push	{lr}
 2402              		.cfi_def_cfa_offset 4
 2403              		.cfi_offset 14, -4
 2404 0002 85B0     		sub	sp, sp, #20
 2405              		.cfi_def_cfa_offset 24
 494:LEDcontrol.c  ****     BlinkLED(3, 1.0, 0.83, rgbLED);
 2406              		.loc 1 494 0
 2407 0004 0290     		str	r0, [sp, #8]
 2408 0006 08A3     		adr	r3, .L182
 2409 0008 D3E90023 		ldrd	r2, [r3]
 2410 000c CDE90023 		strd	r2, [sp]
 2411 0010 0022     		movs	r2, #0
 2412 0012 074B     		ldr	r3, .L182+8
ARM GAS  C:\Users\cring\AppData\Local\Temp\ccGk4Etb.s 			page 55


 2413 0014 0020     		movs	r0, #0
 2414              	.LVL262:
 2415 0016 0749     		ldr	r1, .L182+12
 2416 0018 FFF7FEFF 		bl	BlinkLED
 2417              	.LVL263:
 495:LEDcontrol.c  **** }
 2418              		.loc 1 495 0
 2419 001c 05B0     		add	sp, sp, #20
 2420              		.cfi_def_cfa_offset 4
 2421              		@ sp needed
 2422 001e 5DF804FB 		ldr	pc, [sp], #4
 2423              	.L183:
 2424 0022 00BFAFF3 		.align	3
 2424      0080
 2425              	.L182:
 2426 0028 8FC2F528 		.word	687194767
 2427 002c 5C8FEA3F 		.word	1072336732
 2428 0030 0000F03F 		.word	1072693248
 2429 0034 00000840 		.word	1074266112
 2430              		.cfi_endproc
 2431              	.LFE88:
 2432              		.size	errorSeq, .-errorSeq
 2433              		.section	.text.winnerSeq,"ax",%progbits
 2434              		.align	2
 2435              		.global	winnerSeq
 2436              		.thumb
 2437              		.thumb_func
 2438              		.type	winnerSeq, %function
 2439              	winnerSeq:
 2440              	.LFB89:
 496:LEDcontrol.c  **** 
 497:LEDcontrol.c  **** void winnerSeq(LEDctrl *rgbLED)   //Vindersekvens
 498:LEDcontrol.c  **** {
 2441              		.loc 1 498 0
 2442              		.cfi_startproc
 2443              		@ args = 0, pretend = 0, frame = 0
 2444              		@ frame_needed = 0, uses_anonymous_args = 0
 2445              	.LVL264:
 2446 0000 10B5     		push	{r4, lr}
 2447              		.cfi_def_cfa_offset 8
 2448              		.cfi_offset 4, -8
 2449              		.cfi_offset 14, -4
 2450 0002 84B0     		sub	sp, sp, #16
 2451              		.cfi_def_cfa_offset 24
 2452 0004 0446     		mov	r4, r0
 499:LEDcontrol.c  ****     LEDOff(rgbLED);
 2453              		.loc 1 499 0
 2454 0006 FFF7FEFF 		bl	LEDOff
 2455              	.LVL265:
 500:LEDcontrol.c  ****     fillcolor(116, 1, 1.0, rgbLED);
 2456              		.loc 1 500 0
 2457 000a 0022     		movs	r2, #0
 2458 000c 044B     		ldr	r3, .L186
 2459 000e 0294     		str	r4, [sp, #8]
 2460 0010 CDE90023 		strd	r2, [sp]
 2461 0014 0020     		movs	r0, #0
 2462 0016 0349     		ldr	r1, .L186+4
ARM GAS  C:\Users\cring\AppData\Local\Temp\ccGk4Etb.s 			page 56


 2463 0018 FFF7FEFF 		bl	fillcolor
 2464              	.LVL266:
 501:LEDcontrol.c  **** }
 2465              		.loc 1 501 0
 2466 001c 04B0     		add	sp, sp, #16
 2467              		.cfi_def_cfa_offset 8
 2468              		@ sp needed
 2469 001e 10BD     		pop	{r4, pc}
 2470              	.LVL267:
 2471              	.L187:
 2472              		.align	2
 2473              	.L186:
 2474 0020 0000F03F 		.word	1072693248
 2475 0024 00005D40 		.word	1079836672
 2476              		.cfi_endproc
 2477              	.LFE89:
 2478              		.size	winnerSeq, .-winnerSeq
 2479              		.global	rgbLED2
 2480              		.global	rgbLED1
 2481              		.data
 2482              		.align	2
 2483              		.set	.LANCHOR1,. + 0
 2484              		.type	index2, %object
 2485              		.size	index2, 4
 2486              	index2:
 2487 0000 0000003F 		.word	1056964608
 2488              		.bss
 2489              		.align	2
 2490              		.set	.LANCHOR0,. + 0
 2491              		.type	rgbLED1, %object
 2492              		.size	rgbLED1, 4
 2493              	rgbLED1:
 2494 0000 00000000 		.space	4
 2495              		.type	rgbLED2, %object
 2496              		.size	rgbLED2, 4
 2497              	rgbLED2:
 2498 0004 00000000 		.space	4
 2499              		.type	count, %object
 2500              		.size	count, 4
 2501              	count:
 2502 0008 00000000 		.space	4
 2503              		.type	count3, %object
 2504              		.size	count3, 4
 2505              	count3:
 2506 000c 00000000 		.space	4
 2507              		.type	index_, %object
 2508              		.size	index_, 4
 2509              	index_:
 2510 0010 00000000 		.space	4
 2511              		.type	pulselength_, %object
 2512              		.size	pulselength_, 4
 2513              	pulselength_:
 2514 0014 00000000 		.space	4
 2515              		.type	count2, %object
 2516              		.size	count2, 4
 2517              	count2:
 2518 0018 00000000 		.space	4
ARM GAS  C:\Users\cring\AppData\Local\Temp\ccGk4Etb.s 			page 57


 2519              		.text
 2520              	.Letext0:
 2521              		.file 2 "c:\\program files (x86)\\cypress\\psoc creator\\4.3\\psoc creator\\import\\gnu\\arm\\5.4.
 2522              		.file 3 "c:\\program files (x86)\\cypress\\psoc creator\\4.3\\psoc creator\\import\\gnu\\arm\\5.4.
 2523              		.file 4 "LEDcontrol.h"
 2524              		.file 5 "Generated_Source\\PSoC5/core_cm3.h"
 2525              		.file 6 "Generated_Source\\PSoC5/Timer1.h"
 2526              		.file 7 "Generated_Source\\PSoC5/Timer2.h"
 2527              		.file 8 "Generated_Source\\PSoC5/Timer3.h"
 2528              		.file 9 "Generated_Source\\PSoC5/Timer4.h"
 2529              		.file 10 "Generated_Source\\PSoC5/SPIM_1.h"
 2530              		.file 11 "Generated_Source\\PSoC5/SPIMOutCtrl.h"
 2531              		.file 12 "Generated_Source\\PSoC5/CyLib.h"
 2532              		.file 13 "Generated_Source\\PSoC5/Timer5.h"
 2533              		.file 14 "Generated_Source\\PSoC5/isr_LED_refreshrate.h"
 2534              		.file 15 "Generated_Source\\PSoC5/isr_LED_ring.h"
 2535              		.file 16 "Generated_Source\\PSoC5/isr_LED_pulse.h"
 2536              		.file 17 "Generated_Source\\PSoC5/isr_BlinkLED.h"
 2537              		.file 18 "Generated_Source\\PSoC5/isr_delay.h"
 2538              		.section	.debug_info,"",%progbits
 2539              	.Ldebug_info0:
 2540 0000 9E0F0000 		.4byte	0xf9e
 2541 0004 0400     		.2byte	0x4
 2542 0006 00000000 		.4byte	.Ldebug_abbrev0
 2543 000a 04       		.byte	0x4
 2544 000b 01       		.uleb128 0x1
 2545 000c 7E030000 		.4byte	.LASF97
 2546 0010 0C       		.byte	0xc
 2547 0011 50010000 		.4byte	.LASF98
 2548 0015 56000000 		.4byte	.LASF99
 2549 0019 00000000 		.4byte	.Ldebug_ranges0+0
 2550 001d 00000000 		.4byte	0
 2551 0021 00000000 		.4byte	.Ldebug_line0
 2552 0025 02       		.uleb128 0x2
 2553 0026 08       		.byte	0x8
 2554 0027 04       		.byte	0x4
 2555 0028 5D010000 		.4byte	.LASF0
 2556 002c 02       		.uleb128 0x2
 2557 002d 01       		.byte	0x1
 2558 002e 06       		.byte	0x6
 2559 002f E2000000 		.4byte	.LASF1
 2560 0033 02       		.uleb128 0x2
 2561 0034 01       		.byte	0x1
 2562 0035 08       		.byte	0x8
 2563 0036 21030000 		.4byte	.LASF2
 2564 003a 02       		.uleb128 0x2
 2565 003b 02       		.byte	0x2
 2566 003c 05       		.byte	0x5
 2567 003d 44030000 		.4byte	.LASF3
 2568 0041 02       		.uleb128 0x2
 2569 0042 02       		.byte	0x2
 2570 0043 07       		.byte	0x7
 2571 0044 CA040000 		.4byte	.LASF4
 2572 0048 03       		.uleb128 0x3
 2573 0049 B8040000 		.4byte	.LASF10
 2574 004d 02       		.byte	0x2
 2575 004e 3F       		.byte	0x3f
ARM GAS  C:\Users\cring\AppData\Local\Temp\ccGk4Etb.s 			page 58


 2576 004f 53000000 		.4byte	0x53
 2577 0053 02       		.uleb128 0x2
 2578 0054 04       		.byte	0x4
 2579 0055 05       		.byte	0x5
 2580 0056 04010000 		.4byte	.LASF5
 2581 005a 02       		.uleb128 0x2
 2582 005b 04       		.byte	0x4
 2583 005c 07       		.byte	0x7
 2584 005d 95010000 		.4byte	.LASF6
 2585 0061 02       		.uleb128 0x2
 2586 0062 08       		.byte	0x8
 2587 0063 05       		.byte	0x5
 2588 0064 D4000000 		.4byte	.LASF7
 2589 0068 02       		.uleb128 0x2
 2590 0069 08       		.byte	0x8
 2591 006a 07       		.byte	0x7
 2592 006b 25000000 		.4byte	.LASF8
 2593 006f 04       		.uleb128 0x4
 2594 0070 04       		.byte	0x4
 2595 0071 05       		.byte	0x5
 2596 0072 696E7400 		.ascii	"int\000"
 2597 0076 02       		.uleb128 0x2
 2598 0077 04       		.byte	0x4
 2599 0078 07       		.byte	0x7
 2600 0079 88010000 		.4byte	.LASF9
 2601 007d 03       		.uleb128 0x3
 2602 007e 19030000 		.4byte	.LASF11
 2603 0082 03       		.byte	0x3
 2604 0083 2C       		.byte	0x2c
 2605 0084 48000000 		.4byte	0x48
 2606 0088 02       		.uleb128 0x2
 2607 0089 04       		.byte	0x4
 2608 008a 04       		.byte	0x4
 2609 008b AC020000 		.4byte	.LASF12
 2610 008f 02       		.uleb128 0x2
 2611 0090 01       		.byte	0x1
 2612 0091 08       		.byte	0x8
 2613 0092 68040000 		.4byte	.LASF13
 2614 0096 02       		.uleb128 0x2
 2615 0097 08       		.byte	0x8
 2616 0098 04       		.byte	0x4
 2617 0099 6D040000 		.4byte	.LASF14
 2618 009d 02       		.uleb128 0x2
 2619 009e 04       		.byte	0x4
 2620 009f 07       		.byte	0x7
 2621 00a0 39020000 		.4byte	.LASF15
 2622 00a4 05       		.uleb128 0x5
 2623 00a5 DD010000 		.4byte	.LASF100
 2624 00a9 58       		.byte	0x58
 2625 00aa 04       		.byte	0x4
 2626 00ab 13       		.byte	0x13
 2627 00ac 77010000 		.4byte	0x177
 2628 00b0 06       		.uleb128 0x6
 2629 00b1 72656400 		.ascii	"red\000"
 2630 00b5 04       		.byte	0x4
 2631 00b6 15       		.byte	0x15
 2632 00b7 6F000000 		.4byte	0x6f
ARM GAS  C:\Users\cring\AppData\Local\Temp\ccGk4Etb.s 			page 59


 2633 00bb 00       		.byte	0
 2634 00bc 07       		.uleb128 0x7
 2635 00bd F6040000 		.4byte	.LASF16
 2636 00c1 04       		.byte	0x4
 2637 00c2 16       		.byte	0x16
 2638 00c3 6F000000 		.4byte	0x6f
 2639 00c7 04       		.byte	0x4
 2640 00c8 07       		.uleb128 0x7
 2641 00c9 81020000 		.4byte	.LASF17
 2642 00cd 04       		.byte	0x4
 2643 00ce 17       		.byte	0x17
 2644 00cf 6F000000 		.4byte	0x6f
 2645 00d3 08       		.byte	0x8
 2646 00d4 06       		.uleb128 0x6
 2647 00d5 6800     		.ascii	"h\000"
 2648 00d7 04       		.byte	0x4
 2649 00d8 19       		.byte	0x19
 2650 00d9 25000000 		.4byte	0x25
 2651 00dd 10       		.byte	0x10
 2652 00de 06       		.uleb128 0x6
 2653 00df 7300     		.ascii	"s\000"
 2654 00e1 04       		.byte	0x4
 2655 00e2 1A       		.byte	0x1a
 2656 00e3 25000000 		.4byte	0x25
 2657 00e7 18       		.byte	0x18
 2658 00e8 06       		.uleb128 0x6
 2659 00e9 7600     		.ascii	"v\000"
 2660 00eb 04       		.byte	0x4
 2661 00ec 1B       		.byte	0x1b
 2662 00ed 25000000 		.4byte	0x25
 2663 00f1 20       		.byte	0x20
 2664 00f2 07       		.uleb128 0x7
 2665 00f3 F6000000 		.4byte	.LASF18
 2666 00f7 04       		.byte	0x4
 2667 00f8 1D       		.byte	0x1d
 2668 00f9 6F000000 		.4byte	0x6f
 2669 00fd 28       		.byte	0x28
 2670 00fe 07       		.uleb128 0x7
 2671 00ff FD000000 		.4byte	.LASF19
 2672 0103 04       		.byte	0x4
 2673 0104 1E       		.byte	0x1e
 2674 0105 6F000000 		.4byte	0x6f
 2675 0109 2C       		.byte	0x2c
 2676 010a 07       		.uleb128 0x7
 2677 010b 46010000 		.4byte	.LASF20
 2678 010f 04       		.byte	0x4
 2679 0110 1F       		.byte	0x1f
 2680 0111 6F000000 		.4byte	0x6f
 2681 0115 30       		.byte	0x30
 2682 0116 07       		.uleb128 0x7
 2683 0117 4B010000 		.4byte	.LASF21
 2684 011b 04       		.byte	0x4
 2685 011c 20       		.byte	0x20
 2686 011d 6F000000 		.4byte	0x6f
 2687 0121 34       		.byte	0x34
 2688 0122 07       		.uleb128 0x7
 2689 0123 D1010000 		.4byte	.LASF22
ARM GAS  C:\Users\cring\AppData\Local\Temp\ccGk4Etb.s 			page 60


 2690 0127 04       		.byte	0x4
 2691 0128 21       		.byte	0x21
 2692 0129 6F000000 		.4byte	0x6f
 2693 012d 38       		.byte	0x38
 2694 012e 07       		.uleb128 0x7
 2695 012f D7010000 		.4byte	.LASF23
 2696 0133 04       		.byte	0x4
 2697 0134 22       		.byte	0x22
 2698 0135 6F000000 		.4byte	0x6f
 2699 0139 3C       		.byte	0x3c
 2700 013a 07       		.uleb128 0x7
 2701 013b 29050000 		.4byte	.LASF24
 2702 013f 04       		.byte	0x4
 2703 0140 24       		.byte	0x24
 2704 0141 6F000000 		.4byte	0x6f
 2705 0145 40       		.byte	0x40
 2706 0146 06       		.uleb128 0x6
 2707 0147 70696E00 		.ascii	"pin\000"
 2708 014b 04       		.byte	0x4
 2709 014c 25       		.byte	0x25
 2710 014d 6F000000 		.4byte	0x6f
 2711 0151 44       		.byte	0x44
 2712 0152 07       		.uleb128 0x7
 2713 0153 17050000 		.4byte	.LASF25
 2714 0157 04       		.byte	0x4
 2715 0158 27       		.byte	0x27
 2716 0159 6F000000 		.4byte	0x6f
 2717 015d 48       		.byte	0x48
 2718 015e 07       		.uleb128 0x7
 2719 015f 9C040000 		.4byte	.LASF26
 2720 0163 04       		.byte	0x4
 2721 0164 28       		.byte	0x28
 2722 0165 6F000000 		.4byte	0x6f
 2723 0169 4C       		.byte	0x4c
 2724 016a 07       		.uleb128 0x7
 2725 016b F0040000 		.4byte	.LASF27
 2726 016f 04       		.byte	0x4
 2727 0170 29       		.byte	0x29
 2728 0171 6F000000 		.4byte	0x6f
 2729 0175 50       		.byte	0x50
 2730 0176 00       		.byte	0
 2731 0177 03       		.uleb128 0x3
 2732 0178 79010000 		.4byte	.LASF28
 2733 017c 04       		.byte	0x4
 2734 017d 2A       		.byte	0x2a
 2735 017e A4000000 		.4byte	0xa4
 2736 0182 08       		.uleb128 0x8
 2737 0183 DD020000 		.4byte	.LASF29
 2738 0187 01       		.byte	0x1
 2739 0188 78       		.byte	0x78
 2740 0189 00000000 		.4byte	.LFB69
 2741 018d 30000000 		.4byte	.LFE69-.LFB69
 2742 0191 01       		.uleb128 0x1
 2743 0192 9C       		.byte	0x9c
 2744 0193 AF010000 		.4byte	0x1af
 2745 0197 09       		.uleb128 0x9
 2746 0198 487A00   		.ascii	"Hz\000"
ARM GAS  C:\Users\cring\AppData\Local\Temp\ccGk4Etb.s 			page 61


 2747 019b 01       		.byte	0x1
 2748 019c 78       		.byte	0x78
 2749 019d 6F000000 		.4byte	0x6f
 2750 01a1 00000000 		.4byte	.LLST0
 2751 01a5 0A       		.uleb128 0xa
 2752 01a6 26000000 		.4byte	.LVL7
 2753 01aa AF0E0000 		.4byte	0xeaf
 2754 01ae 00       		.byte	0
 2755 01af 0B       		.uleb128 0xb
 2756 01b0 42020000 		.4byte	.LASF30
 2757 01b4 01       		.byte	0x1
 2758 01b5 C2       		.byte	0xc2
 2759 01b6 00000000 		.4byte	.LFB74
 2760 01ba 2C000000 		.4byte	.LFE74-.LFB74
 2761 01be 01       		.uleb128 0x1
 2762 01bf 9C       		.byte	0x9c
 2763 01c0 37020000 		.4byte	0x237
 2764 01c4 0C       		.uleb128 0xc
 2765 01c5 A2040000 		.4byte	.LASF31
 2766 01c9 01       		.byte	0x1
 2767 01ca C2       		.byte	0xc2
 2768 01cb 6F000000 		.4byte	0x6f
 2769 01cf 2C000000 		.4byte	.LLST1
 2770 01d3 0C       		.uleb128 0xc
 2771 01d4 33050000 		.4byte	.LASF32
 2772 01d8 01       		.byte	0x1
 2773 01d9 C2       		.byte	0xc2
 2774 01da 6F000000 		.4byte	0x6f
 2775 01de 58000000 		.4byte	.LLST2
 2776 01e2 0C       		.uleb128 0xc
 2777 01e3 1C000000 		.4byte	.LASF33
 2778 01e7 01       		.byte	0x1
 2779 01e8 C2       		.byte	0xc2
 2780 01e9 6F000000 		.4byte	0x6f
 2781 01ed 79000000 		.4byte	.LLST3
 2782 01f1 0D       		.uleb128 0xd
 2783 01f2 12000000 		.4byte	.LVL11
 2784 01f6 BA0E0000 		.4byte	0xeba
 2785 01fa 0E020000 		.4byte	0x20e
 2786 01fe 0E       		.uleb128 0xe
 2787 01ff 01       		.uleb128 0x1
 2788 0200 50       		.byte	0x50
 2789 0201 0B       		.uleb128 0xb
 2790 0202 F3       		.byte	0xf3
 2791 0203 01       		.uleb128 0x1
 2792 0204 51       		.byte	0x51
 2793 0205 32       		.byte	0x32
 2794 0206 24       		.byte	0x24
 2795 0207 F3       		.byte	0xf3
 2796 0208 01       		.uleb128 0x1
 2797 0209 51       		.byte	0x51
 2798 020a 22       		.byte	0x22
 2799 020b 31       		.byte	0x31
 2800 020c 24       		.byte	0x24
 2801 020d 00       		.byte	0
 2802 020e 0D       		.uleb128 0xd
 2803 020f 1E000000 		.4byte	.LVL13
ARM GAS  C:\Users\cring\AppData\Local\Temp\ccGk4Etb.s 			page 62


 2804 0213 C50E0000 		.4byte	0xec5
 2805 0217 24020000 		.4byte	0x224
 2806 021b 0E       		.uleb128 0xe
 2807 021c 01       		.uleb128 0x1
 2808 021d 50       		.byte	0x50
 2809 021e 04       		.uleb128 0x4
 2810 021f 75       		.byte	0x75
 2811 0220 00       		.sleb128 0
 2812 0221 31       		.byte	0x31
 2813 0222 24       		.byte	0x24
 2814 0223 00       		.byte	0
 2815 0224 0F       		.uleb128 0xf
 2816 0225 2A000000 		.4byte	.LVL15
 2817 0229 D00E0000 		.4byte	0xed0
 2818 022d 0E       		.uleb128 0xe
 2819 022e 01       		.uleb128 0x1
 2820 022f 50       		.byte	0x50
 2821 0230 04       		.uleb128 0x4
 2822 0231 74       		.byte	0x74
 2823 0232 00       		.sleb128 0
 2824 0233 31       		.byte	0x31
 2825 0234 24       		.byte	0x24
 2826 0235 00       		.byte	0
 2827 0236 00       		.byte	0
 2828 0237 08       		.uleb128 0x8
 2829 0238 EE000000 		.4byte	.LASF34
 2830 023c 01       		.byte	0x1
 2831 023d D7       		.byte	0xd7
 2832 023e 00000000 		.4byte	.LFB76
 2833 0242 34020000 		.4byte	.LFE76-.LFB76
 2834 0246 01       		.uleb128 0x1
 2835 0247 9C       		.byte	0x9c
 2836 0248 09030000 		.4byte	0x309
 2837 024c 09       		.uleb128 0x9
 2838 024d 6800     		.ascii	"h\000"
 2839 024f 01       		.byte	0x1
 2840 0250 D7       		.byte	0xd7
 2841 0251 25000000 		.4byte	0x25
 2842 0255 A5000000 		.4byte	.LLST4
 2843 0259 09       		.uleb128 0x9
 2844 025a 7300     		.ascii	"s\000"
 2845 025c 01       		.byte	0x1
 2846 025d D7       		.byte	0xd7
 2847 025e 25000000 		.4byte	0x25
 2848 0262 CD000000 		.4byte	.LLST5
 2849 0266 09       		.uleb128 0x9
 2850 0267 7600     		.ascii	"v\000"
 2851 0269 01       		.byte	0x1
 2852 026a D7       		.byte	0xd7
 2853 026b 25000000 		.4byte	0x25
 2854 026f F5000000 		.4byte	.LLST6
 2855 0273 09       		.uleb128 0x9
 2856 0274 4C454400 		.ascii	"LED\000"
 2857 0278 01       		.byte	0x1
 2858 0279 D7       		.byte	0xd7
 2859 027a 6F000000 		.4byte	0x6f
 2860 027e 15010000 		.4byte	.LLST7
ARM GAS  C:\Users\cring\AppData\Local\Temp\ccGk4Etb.s 			page 63


 2861 0282 0C       		.uleb128 0xc
 2862 0283 81010000 		.4byte	.LASF35
 2863 0287 01       		.byte	0x1
 2864 0288 D7       		.byte	0xd7
 2865 0289 09030000 		.4byte	0x309
 2866 028d 35010000 		.4byte	.LLST8
 2867 0291 10       		.uleb128 0x10
 2868 0292 686800   		.ascii	"hh\000"
 2869 0295 01       		.byte	0x1
 2870 0296 D9       		.byte	0xd9
 2871 0297 25000000 		.4byte	0x25
 2872 029b 55010000 		.4byte	.LLST9
 2873 029f 10       		.uleb128 0x10
 2874 02a0 7000     		.ascii	"p\000"
 2875 02a2 01       		.byte	0x1
 2876 02a3 D9       		.byte	0xd9
 2877 02a4 25000000 		.4byte	0x25
 2878 02a8 8D010000 		.4byte	.LLST10
 2879 02ac 10       		.uleb128 0x10
 2880 02ad 7100     		.ascii	"q\000"
 2881 02af 01       		.byte	0x1
 2882 02b0 D9       		.byte	0xd9
 2883 02b1 25000000 		.4byte	0x25
 2884 02b5 D5010000 		.4byte	.LLST11
 2885 02b9 10       		.uleb128 0x10
 2886 02ba 7400     		.ascii	"t\000"
 2887 02bc 01       		.byte	0x1
 2888 02bd D9       		.byte	0xd9
 2889 02be 25000000 		.4byte	0x25
 2890 02c2 2D020000 		.4byte	.LLST12
 2891 02c6 10       		.uleb128 0x10
 2892 02c7 666600   		.ascii	"ff\000"
 2893 02ca 01       		.byte	0x1
 2894 02cb D9       		.byte	0xd9
 2895 02cc 25000000 		.4byte	0x25
 2896 02d0 55020000 		.4byte	.LLST13
 2897 02d4 10       		.uleb128 0x10
 2898 02d5 7200     		.ascii	"r\000"
 2899 02d7 01       		.byte	0x1
 2900 02d8 D9       		.byte	0xd9
 2901 02d9 25000000 		.4byte	0x25
 2902 02dd 79020000 		.4byte	.LLST14
 2903 02e1 10       		.uleb128 0x10
 2904 02e2 6700     		.ascii	"g\000"
 2905 02e4 01       		.byte	0x1
 2906 02e5 D9       		.byte	0xd9
 2907 02e6 25000000 		.4byte	0x25
 2908 02ea 05030000 		.4byte	.LLST15
 2909 02ee 10       		.uleb128 0x10
 2910 02ef 6200     		.ascii	"b\000"
 2911 02f1 01       		.byte	0x1
 2912 02f2 D9       		.byte	0xd9
 2913 02f3 25000000 		.4byte	0x25
 2914 02f7 89030000 		.4byte	.LLST16
 2915 02fb 10       		.uleb128 0x10
 2916 02fc 6900     		.ascii	"i\000"
 2917 02fe 01       		.byte	0x1
ARM GAS  C:\Users\cring\AppData\Local\Temp\ccGk4Etb.s 			page 64


 2918 02ff DA       		.byte	0xda
 2919 0300 53000000 		.4byte	0x53
 2920 0304 11040000 		.4byte	.LLST17
 2921 0308 00       		.byte	0
 2922 0309 11       		.uleb128 0x11
 2923 030a 04       		.byte	0x4
 2924 030b 77010000 		.4byte	0x177
 2925 030f 12       		.uleb128 0x12
 2926 0310 A2020000 		.4byte	.LASF36
 2927 0314 01       		.byte	0x1
 2928 0315 1F01     		.2byte	0x11f
 2929 0317 00000000 		.4byte	.LFB77
 2930 031b 54000000 		.4byte	.LFE77-.LFB77
 2931 031f 01       		.uleb128 0x1
 2932 0320 9C       		.byte	0x9c
 2933 0321 AA030000 		.4byte	0x3aa
 2934 0325 13       		.uleb128 0x13
 2935 0326 81010000 		.4byte	.LASF35
 2936 032a 01       		.byte	0x1
 2937 032b 1F01     		.2byte	0x11f
 2938 032d 09030000 		.4byte	0x309
 2939 0331 2F040000 		.4byte	.LLST18
 2940 0335 14       		.uleb128 0x14
 2941 0336 20000000 		.4byte	.LBB2
 2942 033a 34000000 		.4byte	.LBE2-.LBB2
 2943 033e 87030000 		.4byte	0x387
 2944 0342 15       		.uleb128 0x15
 2945 0343 6900     		.ascii	"i\000"
 2946 0345 01       		.byte	0x1
 2947 0346 2801     		.2byte	0x128
 2948 0348 6F000000 		.4byte	0x6f
 2949 034c 63040000 		.4byte	.LLST19
 2950 0350 0A       		.uleb128 0xa
 2951 0351 2C000000 		.4byte	.LVL99
 2952 0355 DB0E0000 		.4byte	0xedb
 2953 0359 0A       		.uleb128 0xa
 2954 035a 32000000 		.4byte	.LVL100
 2955 035e DB0E0000 		.4byte	0xedb
 2956 0362 0A       		.uleb128 0xa
 2957 0363 38000000 		.4byte	.LVL101
 2958 0367 DB0E0000 		.4byte	0xedb
 2959 036b 0A       		.uleb128 0xa
 2960 036c 3E000000 		.4byte	.LVL102
 2961 0370 DB0E0000 		.4byte	0xedb
 2962 0374 0A       		.uleb128 0xa
 2963 0375 44000000 		.4byte	.LVL103
 2964 0379 DB0E0000 		.4byte	0xedb
 2965 037d 0A       		.uleb128 0xa
 2966 037e 4A000000 		.4byte	.LVL104
 2967 0382 DB0E0000 		.4byte	0xedb
 2968 0386 00       		.byte	0
 2969 0387 0D       		.uleb128 0xd
 2970 0388 10000000 		.4byte	.LVL94
 2971 038c E60E0000 		.4byte	0xee6
 2972 0390 9A030000 		.4byte	0x39a
 2973 0394 0E       		.uleb128 0xe
 2974 0395 01       		.uleb128 0x1
ARM GAS  C:\Users\cring\AppData\Local\Temp\ccGk4Etb.s 			page 65


 2975 0396 50       		.byte	0x50
 2976 0397 01       		.uleb128 0x1
 2977 0398 31       		.byte	0x31
 2978 0399 00       		.byte	0
 2979 039a 0F       		.uleb128 0xf
 2980 039b 1E000000 		.4byte	.LVL97
 2981 039f E60E0000 		.4byte	0xee6
 2982 03a3 0E       		.uleb128 0xe
 2983 03a4 01       		.uleb128 0x1
 2984 03a5 50       		.byte	0x50
 2985 03a6 01       		.uleb128 0x1
 2986 03a7 30       		.byte	0x30
 2987 03a8 00       		.byte	0
 2988 03a9 00       		.byte	0
 2989 03aa 0B       		.uleb128 0xb
 2990 03ab 0C040000 		.4byte	.LASF37
 2991 03af 01       		.byte	0x1
 2992 03b0 1C       		.byte	0x1c
 2993 03b1 00000000 		.4byte	.LFB64
 2994 03b5 30000000 		.4byte	.LFE64-.LFB64
 2995 03b9 01       		.uleb128 0x1
 2996 03ba 9C       		.byte	0x9c
 2997 03bb 0C040000 		.4byte	0x40c
 2998 03bf 0A       		.uleb128 0xa
 2999 03c0 06000000 		.4byte	.LVL107
 3000 03c4 F10E0000 		.4byte	0xef1
 3001 03c8 0A       		.uleb128 0xa
 3002 03c9 10000000 		.4byte	.LVL108
 3003 03cd 0F030000 		.4byte	0x30f
 3004 03d1 0D       		.uleb128 0xd
 3005 03d2 16000000 		.4byte	.LVL109
 3006 03d6 FC0E0000 		.4byte	0xefc
 3007 03da E5030000 		.4byte	0x3e5
 3008 03de 0E       		.uleb128 0xe
 3009 03df 01       		.uleb128 0x1
 3010 03e0 50       		.byte	0x50
 3011 03e1 02       		.uleb128 0x2
 3012 03e2 08       		.byte	0x8
 3013 03e3 64       		.byte	0x64
 3014 03e4 00       		.byte	0
 3015 03e5 0A       		.uleb128 0xa
 3016 03e6 20000000 		.4byte	.LVL110
 3017 03ea 0F030000 		.4byte	0x30f
 3018 03ee 0D       		.uleb128 0xd
 3019 03ef 26000000 		.4byte	.LVL111
 3020 03f3 FC0E0000 		.4byte	0xefc
 3021 03f7 02040000 		.4byte	0x402
 3022 03fb 0E       		.uleb128 0xe
 3023 03fc 01       		.uleb128 0x1
 3024 03fd 50       		.byte	0x50
 3025 03fe 02       		.uleb128 0x2
 3026 03ff 08       		.byte	0x8
 3027 0400 64       		.byte	0x64
 3028 0401 00       		.byte	0
 3029 0402 0A       		.uleb128 0xa
 3030 0403 2A000000 		.4byte	.LVL112
 3031 0407 070F0000 		.4byte	0xf07
ARM GAS  C:\Users\cring\AppData\Local\Temp\ccGk4Etb.s 			page 66


 3032 040b 00       		.byte	0
 3033 040c 12       		.uleb128 0x12
 3034 040d 34040000 		.4byte	.LASF38
 3035 0411 01       		.byte	0x1
 3036 0412 3801     		.2byte	0x138
 3037 0414 00000000 		.4byte	.LFB78
 3038 0418 32010000 		.4byte	.LFE78-.LFB78
 3039 041c 01       		.uleb128 0x1
 3040 041d 9C       		.byte	0x9c
 3041 041e 48050000 		.4byte	0x548
 3042 0422 16       		.uleb128 0x16
 3043 0423 6800     		.ascii	"h\000"
 3044 0425 01       		.byte	0x1
 3045 0426 3801     		.2byte	0x138
 3046 0428 25000000 		.4byte	0x25
 3047 042c 76040000 		.4byte	.LLST20
 3048 0430 16       		.uleb128 0x16
 3049 0431 7300     		.ascii	"s\000"
 3050 0433 01       		.byte	0x1
 3051 0434 3801     		.2byte	0x138
 3052 0436 25000000 		.4byte	0x25
 3053 043a 9E040000 		.4byte	.LLST21
 3054 043e 17       		.uleb128 0x17
 3055 043f 7600     		.ascii	"v\000"
 3056 0441 01       		.byte	0x1
 3057 0442 3801     		.2byte	0x138
 3058 0444 25000000 		.4byte	0x25
 3059 0448 02       		.uleb128 0x2
 3060 0449 91       		.byte	0x91
 3061 044a 00       		.sleb128 0
 3062 044b 17       		.uleb128 0x17
 3063 044c 4C454400 		.ascii	"LED\000"
 3064 0450 01       		.byte	0x1
 3065 0451 3801     		.2byte	0x138
 3066 0453 6F000000 		.4byte	0x6f
 3067 0457 02       		.uleb128 0x2
 3068 0458 91       		.byte	0x91
 3069 0459 08       		.sleb128 8
 3070 045a 18       		.uleb128 0x18
 3071 045b 81010000 		.4byte	.LASF35
 3072 045f 01       		.byte	0x1
 3073 0460 3801     		.2byte	0x138
 3074 0462 09030000 		.4byte	0x309
 3075 0466 02       		.uleb128 0x2
 3076 0467 91       		.byte	0x91
 3077 0468 0C       		.sleb128 12
 3078 0469 15       		.uleb128 0x15
 3079 046a 52656400 		.ascii	"Red\000"
 3080 046e 01       		.byte	0x1
 3081 046f 3A01     		.2byte	0x13a
 3082 0471 6F000000 		.4byte	0x6f
 3083 0475 C6040000 		.4byte	.LLST22
 3084 0479 19       		.uleb128 0x19
 3085 047a 96040000 		.4byte	.LASF39
 3086 047e 01       		.byte	0x1
 3087 047f 3A01     		.2byte	0x13a
 3088 0481 6F000000 		.4byte	0x6f
ARM GAS  C:\Users\cring\AppData\Local\Temp\ccGk4Etb.s 			page 67


 3089 0485 E5040000 		.4byte	.LLST23
 3090 0489 19       		.uleb128 0x19
 3091 048a 6A010000 		.4byte	.LASF40
 3092 048e 01       		.byte	0x1
 3093 048f 3A01     		.2byte	0x13a
 3094 0491 6F000000 		.4byte	0x6f
 3095 0495 04050000 		.4byte	.LLST24
 3096 0499 15       		.uleb128 0x15
 3097 049a 7800     		.ascii	"x\000"
 3098 049c 01       		.byte	0x1
 3099 049d 4201     		.2byte	0x142
 3100 049f 6F000000 		.4byte	0x6f
 3101 04a3 23050000 		.4byte	.LLST25
 3102 04a7 1A       		.uleb128 0x1a
 3103 04a8 62756600 		.ascii	"buf\000"
 3104 04ac 01       		.byte	0x1
 3105 04ad 4301     		.2byte	0x143
 3106 04af 48050000 		.4byte	0x548
 3107 04b3 03       		.uleb128 0x3
 3108 04b4 91       		.byte	0x91
 3109 04b5 B87F     		.sleb128 -72
 3110 04b7 14       		.uleb128 0x14
 3111 04b8 26000000 		.4byte	.LBB3
 3112 04bc 2C000000 		.4byte	.LBE3-.LBB3
 3113 04c0 D3040000 		.4byte	0x4d3
 3114 04c4 15       		.uleb128 0x15
 3115 04c5 6900     		.ascii	"i\000"
 3116 04c7 01       		.byte	0x1
 3117 04c8 4501     		.2byte	0x145
 3118 04ca 6F000000 		.4byte	0x6f
 3119 04ce 4C050000 		.4byte	.LLST26
 3120 04d2 00       		.byte	0
 3121 04d3 14       		.uleb128 0x14
 3122 04d4 7E000000 		.4byte	.LBB4
 3123 04d8 2C000000 		.4byte	.LBE4-.LBB4
 3124 04dc EF040000 		.4byte	0x4ef
 3125 04e0 15       		.uleb128 0x15
 3126 04e1 6900     		.ascii	"i\000"
 3127 04e3 01       		.byte	0x1
 3128 04e4 5401     		.2byte	0x154
 3129 04e6 6F000000 		.4byte	0x6f
 3130 04ea 6B050000 		.4byte	.LLST27
 3131 04ee 00       		.byte	0
 3132 04ef 14       		.uleb128 0x14
 3133 04f0 D6000000 		.4byte	.LBB5
 3134 04f4 2C000000 		.4byte	.LBE5-.LBB5
 3135 04f8 0B050000 		.4byte	0x50b
 3136 04fc 15       		.uleb128 0x15
 3137 04fd 6900     		.ascii	"i\000"
 3138 04ff 01       		.byte	0x1
 3139 0500 6201     		.2byte	0x162
 3140 0502 6F000000 		.4byte	0x6f
 3141 0506 8A050000 		.4byte	.LLST28
 3142 050a 00       		.byte	0
 3143 050b 0F       		.uleb128 0xf
 3144 050c 18000000 		.4byte	.LVL114
 3145 0510 37020000 		.4byte	0x237
ARM GAS  C:\Users\cring\AppData\Local\Temp\ccGk4Etb.s 			page 68


 3146 0514 0E       		.uleb128 0xe
 3147 0515 06       		.uleb128 0x6
 3148 0516 50       		.byte	0x50
 3149 0517 93       		.byte	0x93
 3150 0518 04       		.uleb128 0x4
 3151 0519 51       		.byte	0x51
 3152 051a 93       		.byte	0x93
 3153 051b 04       		.uleb128 0x4
 3154 051c 05       		.uleb128 0x5
 3155 051d F3       		.byte	0xf3
 3156 051e 03       		.uleb128 0x3
 3157 051f F5       		.byte	0xf5
 3158 0520 00       		.uleb128 0
 3159 0521 25       		.uleb128 0x25
 3160 0522 0E       		.uleb128 0xe
 3161 0523 06       		.uleb128 0x6
 3162 0524 52       		.byte	0x52
 3163 0525 93       		.byte	0x93
 3164 0526 04       		.uleb128 0x4
 3165 0527 53       		.byte	0x53
 3166 0528 93       		.byte	0x93
 3167 0529 04       		.uleb128 0x4
 3168 052a 05       		.uleb128 0x5
 3169 052b F3       		.byte	0xf3
 3170 052c 03       		.uleb128 0x3
 3171 052d F5       		.byte	0xf5
 3172 052e 02       		.uleb128 0x2
 3173 052f 25       		.uleb128 0x25
 3174 0530 0E       		.uleb128 0xe
 3175 0531 02       		.uleb128 0x2
 3176 0532 7D       		.byte	0x7d
 3177 0533 00       		.sleb128 0
 3178 0534 03       		.uleb128 0x3
 3179 0535 F5       		.byte	0xf5
 3180 0536 06       		.uleb128 0x6
 3181 0537 25       		.uleb128 0x25
 3182 0538 0E       		.uleb128 0xe
 3183 0539 02       		.uleb128 0x2
 3184 053a 7D       		.byte	0x7d
 3185 053b 08       		.sleb128 8
 3186 053c 02       		.uleb128 0x2
 3187 053d 75       		.byte	0x75
 3188 053e 00       		.sleb128 0
 3189 053f 0E       		.uleb128 0xe
 3190 0540 02       		.uleb128 0x2
 3191 0541 7D       		.byte	0x7d
 3192 0542 0C       		.sleb128 12
 3193 0543 02       		.uleb128 0x2
 3194 0544 74       		.byte	0x74
 3195 0545 00       		.sleb128 0
 3196 0546 00       		.byte	0
 3197 0547 00       		.byte	0
 3198 0548 1B       		.uleb128 0x1b
 3199 0549 6F000000 		.4byte	0x6f
 3200 054d 58050000 		.4byte	0x558
 3201 0551 1C       		.uleb128 0x1c
 3202 0552 9D000000 		.4byte	0x9d
ARM GAS  C:\Users\cring\AppData\Local\Temp\ccGk4Etb.s 			page 69


 3203 0556 0B       		.byte	0xb
 3204 0557 00       		.byte	0
 3205 0558 0B       		.uleb128 0xb
 3206 0559 5E040000 		.4byte	.LASF41
 3207 055d 01       		.byte	0x1
 3208 055e AF       		.byte	0xaf
 3209 055f 00000000 		.4byte	.LFB72
 3210 0563 3A000000 		.4byte	.LFE72-.LFB72
 3211 0567 01       		.uleb128 0x1
 3212 0568 9C       		.byte	0x9c
 3213 0569 D9050000 		.4byte	0x5d9
 3214 056d 09       		.uleb128 0x9
 3215 056e 6800     		.ascii	"h\000"
 3216 0570 01       		.byte	0x1
 3217 0571 AF       		.byte	0xaf
 3218 0572 25000000 		.4byte	0x25
 3219 0576 A9050000 		.4byte	.LLST29
 3220 057a 09       		.uleb128 0x9
 3221 057b 7300     		.ascii	"s\000"
 3222 057d 01       		.byte	0x1
 3223 057e AF       		.byte	0xaf
 3224 057f 25000000 		.4byte	0x25
 3225 0583 D1050000 		.4byte	.LLST30
 3226 0587 1D       		.uleb128 0x1d
 3227 0588 7600     		.ascii	"v\000"
 3228 058a 01       		.byte	0x1
 3229 058b AF       		.byte	0xaf
 3230 058c 25000000 		.4byte	0x25
 3231 0590 02       		.uleb128 0x2
 3232 0591 91       		.byte	0x91
 3233 0592 00       		.sleb128 0
 3234 0593 1E       		.uleb128 0x1e
 3235 0594 81010000 		.4byte	.LASF35
 3236 0598 01       		.byte	0x1
 3237 0599 AF       		.byte	0xaf
 3238 059a 09030000 		.4byte	0x309
 3239 059e 02       		.uleb128 0x2
 3240 059f 91       		.byte	0x91
 3241 05a0 08       		.sleb128 8
 3242 05a1 1F       		.uleb128 0x1f
 3243 05a2 14000000 		.4byte	.LBB6
 3244 05a6 20000000 		.4byte	.LBE6-.LBB6
 3245 05aa 10       		.uleb128 0x10
 3246 05ab 6900     		.ascii	"i\000"
 3247 05ad 01       		.byte	0x1
 3248 05ae B1       		.byte	0xb1
 3249 05af 6F000000 		.4byte	0x6f
 3250 05b3 F9050000 		.4byte	.LLST31
 3251 05b7 0F       		.uleb128 0xf
 3252 05b8 2C000000 		.4byte	.LVL138
 3253 05bc 0C040000 		.4byte	0x40c
 3254 05c0 0E       		.uleb128 0xe
 3255 05c1 02       		.uleb128 0x2
 3256 05c2 7D       		.byte	0x7d
 3257 05c3 00       		.sleb128 0
 3258 05c4 03       		.uleb128 0x3
 3259 05c5 F5       		.byte	0xf5
ARM GAS  C:\Users\cring\AppData\Local\Temp\ccGk4Etb.s 			page 70


 3260 05c6 04       		.uleb128 0x4
 3261 05c7 25       		.uleb128 0x25
 3262 05c8 0E       		.uleb128 0xe
 3263 05c9 02       		.uleb128 0x2
 3264 05ca 7D       		.byte	0x7d
 3265 05cb 08       		.sleb128 8
 3266 05cc 02       		.uleb128 0x2
 3267 05cd 76       		.byte	0x76
 3268 05ce 00       		.sleb128 0
 3269 05cf 0E       		.uleb128 0xe
 3270 05d0 02       		.uleb128 0x2
 3271 05d1 7D       		.byte	0x7d
 3272 05d2 0C       		.sleb128 12
 3273 05d3 02       		.uleb128 0x2
 3274 05d4 77       		.byte	0x77
 3275 05d5 00       		.sleb128 0
 3276 05d6 00       		.byte	0
 3277 05d7 00       		.byte	0
 3278 05d8 00       		.byte	0
 3279 05d9 08       		.uleb128 0x8
 3280 05da AA040000 		.4byte	.LASF42
 3281 05de 01       		.byte	0x1
 3282 05df 4A       		.byte	0x4a
 3283 05e0 00000000 		.4byte	.LFB66
 3284 05e4 28010000 		.4byte	.LFE66-.LFB66
 3285 05e8 01       		.uleb128 0x1
 3286 05e9 9C       		.byte	0x9c
 3287 05ea 13060000 		.4byte	0x613
 3288 05ee 0A       		.uleb128 0xa
 3289 05ef 38000000 		.4byte	.LVL141
 3290 05f3 58050000 		.4byte	0x558
 3291 05f7 0A       		.uleb128 0xa
 3292 05f8 64000000 		.4byte	.LVL143
 3293 05fc 58050000 		.4byte	0x558
 3294 0600 0A       		.uleb128 0xa
 3295 0601 BE000000 		.4byte	.LVL149
 3296 0605 58050000 		.4byte	0x558
 3297 0609 0A       		.uleb128 0xa
 3298 060a EA000000 		.4byte	.LVL151
 3299 060e 58050000 		.4byte	0x558
 3300 0612 00       		.byte	0
 3301 0613 0B       		.uleb128 0xb
 3302 0614 FB010000 		.4byte	.LASF43
 3303 0618 01       		.byte	0x1
 3304 0619 5C       		.byte	0x5c
 3305 061a 00000000 		.4byte	.LFB67
 3306 061e BC000000 		.4byte	.LFE67-.LFB67
 3307 0622 01       		.uleb128 0x1
 3308 0623 9C       		.byte	0x9c
 3309 0624 4D060000 		.4byte	0x64d
 3310 0628 0A       		.uleb128 0xa
 3311 0629 34000000 		.4byte	.LVL156
 3312 062d 58050000 		.4byte	0x558
 3313 0631 0A       		.uleb128 0xa
 3314 0632 58000000 		.4byte	.LVL157
 3315 0636 58050000 		.4byte	0x558
 3316 063a 0A       		.uleb128 0xa
ARM GAS  C:\Users\cring\AppData\Local\Temp\ccGk4Etb.s 			page 71


 3317 063b 86000000 		.4byte	.LVL158
 3318 063f 58050000 		.4byte	0x558
 3319 0643 0A       		.uleb128 0xa
 3320 0644 AA000000 		.4byte	.LVL159
 3321 0648 58050000 		.4byte	0x558
 3322 064c 00       		.byte	0
 3323 064d 0B       		.uleb128 0xb
 3324 064e 0A050000 		.4byte	.LASF44
 3325 0652 01       		.byte	0x1
 3326 0653 2E       		.byte	0x2e
 3327 0654 00000000 		.4byte	.LFB65
 3328 0658 0C010000 		.4byte	.LFE65-.LFB65
 3329 065c 01       		.uleb128 0x1
 3330 065d 9C       		.byte	0x9c
 3331 065e F5060000 		.4byte	0x6f5
 3332 0662 14       		.uleb128 0x14
 3333 0663 4A000000 		.4byte	.LBB7
 3334 0667 84000000 		.4byte	.LBE7-.LBB7
 3335 066b E2060000 		.4byte	0x6e2
 3336 066f 10       		.uleb128 0x10
 3337 0670 693200   		.ascii	"i2\000"
 3338 0673 01       		.byte	0x1
 3339 0674 34       		.byte	0x34
 3340 0675 6F000000 		.4byte	0x6f
 3341 0679 18060000 		.4byte	.LLST32
 3342 067d 14       		.uleb128 0x14
 3343 067e 5A000000 		.4byte	.LBB8
 3344 0682 2E000000 		.4byte	.LBE8-.LBB8
 3345 0686 B1060000 		.4byte	0x6b1
 3346 068a 10       		.uleb128 0x10
 3347 068b 7800     		.ascii	"x\000"
 3348 068d 01       		.byte	0x1
 3349 068e 38       		.byte	0x38
 3350 068f 6F000000 		.4byte	0x6f
 3351 0693 2B060000 		.4byte	.LLST33
 3352 0697 0F       		.uleb128 0xf
 3353 0698 88000000 		.4byte	.LVL164
 3354 069c 0C040000 		.4byte	0x40c
 3355 06a0 0E       		.uleb128 0xe
 3356 06a1 02       		.uleb128 0x2
 3357 06a2 7D       		.byte	0x7d
 3358 06a3 00       		.sleb128 0
 3359 06a4 03       		.uleb128 0x3
 3360 06a5 F5       		.byte	0xf5
 3361 06a6 06       		.uleb128 0x6
 3362 06a7 25       		.uleb128 0x25
 3363 06a8 0E       		.uleb128 0xe
 3364 06a9 02       		.uleb128 0x2
 3365 06aa 7D       		.byte	0x7d
 3366 06ab 08       		.sleb128 8
 3367 06ac 02       		.uleb128 0x2
 3368 06ad 75       		.byte	0x75
 3369 06ae 00       		.sleb128 0
 3370 06af 00       		.byte	0
 3371 06b0 00       		.byte	0
 3372 06b1 1F       		.uleb128 0x1f
 3373 06b2 92000000 		.4byte	.LBB9
ARM GAS  C:\Users\cring\AppData\Local\Temp\ccGk4Etb.s 			page 72


 3374 06b6 2E000000 		.4byte	.LBE9-.LBB9
 3375 06ba 10       		.uleb128 0x10
 3376 06bb 7800     		.ascii	"x\000"
 3377 06bd 01       		.byte	0x1
 3378 06be 3D       		.byte	0x3d
 3379 06bf 6F000000 		.4byte	0x6f
 3380 06c3 3E060000 		.4byte	.LLST34
 3381 06c7 0F       		.uleb128 0xf
 3382 06c8 C0000000 		.4byte	.LVL166
 3383 06cc 0C040000 		.4byte	0x40c
 3384 06d0 0E       		.uleb128 0xe
 3385 06d1 02       		.uleb128 0x2
 3386 06d2 7D       		.byte	0x7d
 3387 06d3 00       		.sleb128 0
 3388 06d4 03       		.uleb128 0x3
 3389 06d5 F5       		.byte	0xf5
 3390 06d6 06       		.uleb128 0x6
 3391 06d7 25       		.uleb128 0x25
 3392 06d8 0E       		.uleb128 0xe
 3393 06d9 02       		.uleb128 0x2
 3394 06da 7D       		.byte	0x7d
 3395 06db 08       		.sleb128 8
 3396 06dc 02       		.uleb128 0x2
 3397 06dd 75       		.byte	0x75
 3398 06de 00       		.sleb128 0
 3399 06df 00       		.byte	0
 3400 06e0 00       		.byte	0
 3401 06e1 00       		.byte	0
 3402 06e2 0A       		.uleb128 0xa
 3403 06e3 2E000000 		.4byte	.LVL160
 3404 06e7 58050000 		.4byte	0x558
 3405 06eb 0A       		.uleb128 0xa
 3406 06ec 4A000000 		.4byte	.LVL161
 3407 06f0 58050000 		.4byte	0x558
 3408 06f4 00       		.byte	0
 3409 06f5 12       		.uleb128 0x12
 3410 06f6 DD040000 		.4byte	.LASF45
 3411 06fa 01       		.byte	0x1
 3412 06fb 7101     		.2byte	0x171
 3413 06fd 00000000 		.4byte	.LFB79
 3414 0701 12000000 		.4byte	.LFE79-.LFB79
 3415 0705 01       		.uleb128 0x1
 3416 0706 9C       		.byte	0x9c
 3417 0707 25070000 		.4byte	0x725
 3418 070b 13       		.uleb128 0x13
 3419 070c 81010000 		.4byte	.LASF35
 3420 0710 01       		.byte	0x1
 3421 0711 7101     		.2byte	0x171
 3422 0713 09030000 		.4byte	0x309
 3423 0717 51060000 		.4byte	.LLST35
 3424 071b 0A       		.uleb128 0xa
 3425 071c 08000000 		.4byte	.LVL170
 3426 0720 120F0000 		.4byte	0xf12
 3427 0724 00       		.byte	0
 3428 0725 0B       		.uleb128 0xb
 3429 0726 40040000 		.4byte	.LASF46
 3430 072a 01       		.byte	0x1
ARM GAS  C:\Users\cring\AppData\Local\Temp\ccGk4Etb.s 			page 73


 3431 072b 7E       		.byte	0x7e
 3432 072c 00000000 		.4byte	.LFB70
 3433 0730 48000000 		.4byte	.LFE70-.LFB70
 3434 0734 01       		.uleb128 0x1
 3435 0735 9C       		.byte	0x9c
 3436 0736 AB070000 		.4byte	0x7ab
 3437 073a 0C       		.uleb128 0xc
 3438 073b 0D010000 		.4byte	.LASF47
 3439 073f 01       		.byte	0x1
 3440 0740 7E       		.byte	0x7e
 3441 0741 6F000000 		.4byte	0x6f
 3442 0745 6F060000 		.4byte	.LLST36
 3443 0749 0C       		.uleb128 0xc
 3444 074a 23040000 		.4byte	.LASF48
 3445 074e 01       		.byte	0x1
 3446 074f 7E       		.byte	0x7e
 3447 0750 09030000 		.4byte	0x309
 3448 0754 9D060000 		.4byte	.LLST37
 3449 0758 0C       		.uleb128 0xc
 3450 0759 63030000 		.4byte	.LASF49
 3451 075d 01       		.byte	0x1
 3452 075e 7E       		.byte	0x7e
 3453 075f 6F000000 		.4byte	0x6f
 3454 0763 C9060000 		.4byte	.LLST38
 3455 0767 14       		.uleb128 0x14
 3456 0768 1E000000 		.4byte	.LBB10
 3457 076c 20000000 		.4byte	.LBE10-.LBB10
 3458 0770 9A070000 		.4byte	0x79a
 3459 0774 10       		.uleb128 0x10
 3460 0775 6900     		.ascii	"i\000"
 3461 0777 01       		.byte	0x1
 3462 0778 8B       		.byte	0x8b
 3463 0779 6F000000 		.4byte	0x6f
 3464 077d EA060000 		.4byte	.LLST39
 3465 0781 0F       		.uleb128 0xf
 3466 0782 36000000 		.4byte	.LVL175
 3467 0786 0C040000 		.4byte	0x40c
 3468 078a 0E       		.uleb128 0xe
 3469 078b 02       		.uleb128 0x2
 3470 078c 7D       		.byte	0x7d
 3471 078d 08       		.sleb128 8
 3472 078e 02       		.uleb128 0x2
 3473 078f 74       		.byte	0x74
 3474 0790 00       		.sleb128 0
 3475 0791 0E       		.uleb128 0xe
 3476 0792 02       		.uleb128 0x2
 3477 0793 7D       		.byte	0x7d
 3478 0794 0C       		.sleb128 12
 3479 0795 02       		.uleb128 0x2
 3480 0796 75       		.byte	0x75
 3481 0797 00       		.sleb128 0
 3482 0798 00       		.byte	0
 3483 0799 00       		.byte	0
 3484 079a 0F       		.uleb128 0xf
 3485 079b 1E000000 		.4byte	.LVL173
 3486 079f F5060000 		.4byte	0x6f5
 3487 07a3 0E       		.uleb128 0xe
ARM GAS  C:\Users\cring\AppData\Local\Temp\ccGk4Etb.s 			page 74


 3488 07a4 01       		.uleb128 0x1
 3489 07a5 50       		.byte	0x50
 3490 07a6 02       		.uleb128 0x2
 3491 07a7 75       		.byte	0x75
 3492 07a8 00       		.sleb128 0
 3493 07a9 00       		.byte	0
 3494 07aa 00       		.byte	0
 3495 07ab 0B       		.uleb128 0xb
 3496 07ac A7010000 		.4byte	.LASF50
 3497 07b0 01       		.byte	0x1
 3498 07b1 91       		.byte	0x91
 3499 07b2 00000000 		.4byte	.LFB71
 3500 07b6 7C000000 		.4byte	.LFE71-.LFB71
 3501 07ba 01       		.uleb128 0x1
 3502 07bb 9C       		.byte	0x9c
 3503 07bc 91080000 		.4byte	0x891
 3504 07c0 09       		.uleb128 0x9
 3505 07c1 487A00   		.ascii	"Hz\000"
 3506 07c4 01       		.byte	0x1
 3507 07c5 91       		.byte	0x91
 3508 07c6 6F000000 		.4byte	0x6f
 3509 07ca 09070000 		.4byte	.LLST40
 3510 07ce 0D       		.uleb128 0xd
 3511 07cf 0A000000 		.4byte	.LVL180
 3512 07d3 1D0F0000 		.4byte	0xf1d
 3513 07d7 E5070000 		.4byte	0x7e5
 3514 07db 0E       		.uleb128 0xe
 3515 07dc 01       		.uleb128 0x1
 3516 07dd 50       		.byte	0x50
 3517 07de 05       		.uleb128 0x5
 3518 07df 03       		.byte	0x3
 3519 07e0 00000000 		.4byte	isr_refreshrate
 3520 07e4 00       		.byte	0
 3521 07e5 0D       		.uleb128 0xd
 3522 07e6 10000000 		.4byte	.LVL181
 3523 07ea 280F0000 		.4byte	0xf28
 3524 07ee FC070000 		.4byte	0x7fc
 3525 07f2 0E       		.uleb128 0xe
 3526 07f3 01       		.uleb128 0x1
 3527 07f4 50       		.byte	0x50
 3528 07f5 05       		.uleb128 0x5
 3529 07f6 03       		.byte	0x3
 3530 07f7 00000000 		.4byte	isr_LED_ring
 3531 07fb 00       		.byte	0
 3532 07fc 0D       		.uleb128 0xd
 3533 07fd 16000000 		.4byte	.LVL182
 3534 0801 330F0000 		.4byte	0xf33
 3535 0805 13080000 		.4byte	0x813
 3536 0809 0E       		.uleb128 0xe
 3537 080a 01       		.uleb128 0x1
 3538 080b 50       		.byte	0x50
 3539 080c 05       		.uleb128 0x5
 3540 080d 03       		.byte	0x3
 3541 080e 00000000 		.4byte	isr_LED_pulse
 3542 0812 00       		.byte	0
 3543 0813 0D       		.uleb128 0xd
 3544 0814 1C000000 		.4byte	.LVL183
ARM GAS  C:\Users\cring\AppData\Local\Temp\ccGk4Etb.s 			page 75


 3545 0818 3E0F0000 		.4byte	0xf3e
 3546 081c 2A080000 		.4byte	0x82a
 3547 0820 0E       		.uleb128 0xe
 3548 0821 01       		.uleb128 0x1
 3549 0822 50       		.byte	0x50
 3550 0823 05       		.uleb128 0x5
 3551 0824 03       		.byte	0x3
 3552 0825 00000000 		.4byte	isr_BlinkLED
 3553 0829 00       		.byte	0
 3554 082a 0D       		.uleb128 0xd
 3555 082b 22000000 		.4byte	.LVL184
 3556 082f 490F0000 		.4byte	0xf49
 3557 0833 41080000 		.4byte	0x841
 3558 0837 0E       		.uleb128 0xe
 3559 0838 01       		.uleb128 0x1
 3560 0839 50       		.byte	0x50
 3561 083a 05       		.uleb128 0x5
 3562 083b 03       		.byte	0x3
 3563 083c 00000000 		.4byte	isr_delay
 3564 0840 00       		.byte	0
 3565 0841 0A       		.uleb128 0xa
 3566 0842 2A000000 		.4byte	.LVL185
 3567 0846 F5060000 		.4byte	0x6f5
 3568 084a 0A       		.uleb128 0xa
 3569 084b 30000000 		.4byte	.LVL186
 3570 084f F5060000 		.4byte	0x6f5
 3571 0853 0A       		.uleb128 0xa
 3572 0854 48000000 		.4byte	.LVL187
 3573 0858 540F0000 		.4byte	0xf54
 3574 085c 0A       		.uleb128 0xa
 3575 085d 4C000000 		.4byte	.LVL188
 3576 0861 070F0000 		.4byte	0xf07
 3577 0865 0A       		.uleb128 0xa
 3578 0866 50000000 		.4byte	.LVL189
 3579 086a 5F0F0000 		.4byte	0xf5f
 3580 086e 0A       		.uleb128 0xa
 3581 086f 54000000 		.4byte	.LVL190
 3582 0873 6A0F0000 		.4byte	0xf6a
 3583 0877 0A       		.uleb128 0xa
 3584 0878 58000000 		.4byte	.LVL191
 3585 087c 750F0000 		.4byte	0xf75
 3586 0880 0F       		.uleb128 0xf
 3587 0881 5E000000 		.4byte	.LVL192
 3588 0885 82010000 		.4byte	0x182
 3589 0889 0E       		.uleb128 0xe
 3590 088a 01       		.uleb128 0x1
 3591 088b 50       		.byte	0x50
 3592 088c 02       		.uleb128 0x2
 3593 088d 75       		.byte	0x75
 3594 088e 00       		.sleb128 0
 3595 088f 00       		.byte	0
 3596 0890 00       		.byte	0
 3597 0891 0B       		.uleb128 0xb
 3598 0892 18010000 		.4byte	.LASF51
 3599 0896 01       		.byte	0x1
 3600 0897 B7       		.byte	0xb7
 3601 0898 00000000 		.4byte	.LFB73
ARM GAS  C:\Users\cring\AppData\Local\Temp\ccGk4Etb.s 			page 76


 3602 089c 48000000 		.4byte	.LFE73-.LFB73
 3603 08a0 01       		.uleb128 0x1
 3604 08a1 9C       		.byte	0x9c
 3605 08a2 0B090000 		.4byte	0x90b
 3606 08a6 09       		.uleb128 0x9
 3607 08a7 683100   		.ascii	"h1\000"
 3608 08aa 01       		.byte	0x1
 3609 08ab B7       		.byte	0xb7
 3610 08ac 25000000 		.4byte	0x25
 3611 08b0 35070000 		.4byte	.LLST41
 3612 08b4 09       		.uleb128 0x9
 3613 08b5 733100   		.ascii	"s1\000"
 3614 08b8 01       		.byte	0x1
 3615 08b9 B7       		.byte	0xb7
 3616 08ba 25000000 		.4byte	0x25
 3617 08be 5D070000 		.4byte	.LLST42
 3618 08c2 1D       		.uleb128 0x1d
 3619 08c3 763100   		.ascii	"v1\000"
 3620 08c6 01       		.byte	0x1
 3621 08c7 B7       		.byte	0xb7
 3622 08c8 25000000 		.4byte	0x25
 3623 08cc 02       		.uleb128 0x2
 3624 08cd 91       		.byte	0x91
 3625 08ce 00       		.sleb128 0
 3626 08cf 1E       		.uleb128 0x1e
 3627 08d0 81010000 		.4byte	.LASF35
 3628 08d4 01       		.byte	0x1
 3629 08d5 B7       		.byte	0xb7
 3630 08d6 09030000 		.4byte	0x309
 3631 08da 02       		.uleb128 0x2
 3632 08db 91       		.byte	0x91
 3633 08dc 08       		.sleb128 8
 3634 08dd 0D       		.uleb128 0xd
 3635 08de 1C000000 		.4byte	.LVL196
 3636 08e2 F5060000 		.4byte	0x6f5
 3637 08e6 F1080000 		.4byte	0x8f1
 3638 08ea 0E       		.uleb128 0xe
 3639 08eb 01       		.uleb128 0x1
 3640 08ec 50       		.byte	0x50
 3641 08ed 02       		.uleb128 0x2
 3642 08ee 7A       		.byte	0x7a
 3643 08ef 00       		.sleb128 0
 3644 08f0 00       		.byte	0
 3645 08f1 0F       		.uleb128 0xf
 3646 08f2 42000000 		.4byte	.LVL197
 3647 08f6 58050000 		.4byte	0x558
 3648 08fa 0E       		.uleb128 0xe
 3649 08fb 02       		.uleb128 0x2
 3650 08fc 7D       		.byte	0x7d
 3651 08fd 00       		.sleb128 0
 3652 08fe 03       		.uleb128 0x3
 3653 08ff F5       		.byte	0xf5
 3654 0900 08       		.uleb128 0x8
 3655 0901 25       		.uleb128 0x25
 3656 0902 0E       		.uleb128 0xe
 3657 0903 02       		.uleb128 0x2
 3658 0904 7D       		.byte	0x7d
ARM GAS  C:\Users\cring\AppData\Local\Temp\ccGk4Etb.s 			page 77


 3659 0905 08       		.sleb128 8
 3660 0906 02       		.uleb128 0x2
 3661 0907 7A       		.byte	0x7a
 3662 0908 00       		.sleb128 0
 3663 0909 00       		.byte	0
 3664 090a 00       		.byte	0
 3665 090b 0B       		.uleb128 0xb
 3666 090c 2F030000 		.4byte	.LASF52
 3667 0910 01       		.byte	0x1
 3668 0911 C9       		.byte	0xc9
 3669 0912 00000000 		.4byte	.LFB75
 3670 0916 4C000000 		.4byte	.LFE75-.LFB75
 3671 091a 01       		.uleb128 0x1
 3672 091b 9C       		.byte	0x9c
 3673 091c 94090000 		.4byte	0x994
 3674 0920 0C       		.uleb128 0xc
 3675 0921 1A020000 		.4byte	.LASF53
 3676 0925 01       		.byte	0x1
 3677 0926 C9       		.byte	0xc9
 3678 0927 6F000000 		.4byte	0x6f
 3679 092b 85070000 		.4byte	.LLST43
 3680 092f 09       		.uleb128 0x9
 3681 0930 683100   		.ascii	"h1\000"
 3682 0933 01       		.byte	0x1
 3683 0934 C9       		.byte	0xc9
 3684 0935 25000000 		.4byte	0x25
 3685 0939 B5070000 		.4byte	.LLST44
 3686 093d 09       		.uleb128 0x9
 3687 093e 733100   		.ascii	"s1\000"
 3688 0941 01       		.byte	0x1
 3689 0942 C9       		.byte	0xc9
 3690 0943 25000000 		.4byte	0x25
 3691 0947 DD070000 		.4byte	.LLST45
 3692 094b 09       		.uleb128 0x9
 3693 094c 763100   		.ascii	"v1\000"
 3694 094f 01       		.byte	0x1
 3695 0950 C9       		.byte	0xc9
 3696 0951 25000000 		.4byte	0x25
 3697 0955 FD070000 		.4byte	.LLST46
 3698 0959 0C       		.uleb128 0xc
 3699 095a 81010000 		.4byte	.LASF35
 3700 095e 01       		.byte	0x1
 3701 095f C9       		.byte	0xc9
 3702 0960 09030000 		.4byte	0x309
 3703 0964 1D080000 		.4byte	.LLST47
 3704 0968 14       		.uleb128 0x14
 3705 0969 24000000 		.4byte	.LBB11
 3706 096d 20000000 		.4byte	.LBE11-.LBB11
 3707 0971 83090000 		.4byte	0x983
 3708 0975 10       		.uleb128 0x10
 3709 0976 6900     		.ascii	"i\000"
 3710 0978 01       		.byte	0x1
 3711 0979 CF       		.byte	0xcf
 3712 097a 6F000000 		.4byte	0x6f
 3713 097e 3D080000 		.4byte	.LLST48
 3714 0982 00       		.byte	0
 3715 0983 0F       		.uleb128 0xf
ARM GAS  C:\Users\cring\AppData\Local\Temp\ccGk4Etb.s 			page 78


 3716 0984 1E000000 		.4byte	.LVL200
 3717 0988 F5060000 		.4byte	0x6f5
 3718 098c 0E       		.uleb128 0xe
 3719 098d 01       		.uleb128 0x1
 3720 098e 50       		.byte	0x50
 3721 098f 02       		.uleb128 0x2
 3722 0990 7A       		.byte	0x7a
 3723 0991 00       		.sleb128 0
 3724 0992 00       		.byte	0
 3725 0993 00       		.byte	0
 3726 0994 12       		.uleb128 0x12
 3727 0995 4B020000 		.4byte	.LASF54
 3728 0999 01       		.byte	0x1
 3729 099a 7901     		.2byte	0x179
 3730 099c 00000000 		.4byte	.LFB80
 3731 09a0 44000000 		.4byte	.LFE80-.LFB80
 3732 09a4 01       		.uleb128 0x1
 3733 09a5 9C       		.byte	0x9c
 3734 09a6 120A0000 		.4byte	0xa12
 3735 09aa 16       		.uleb128 0x16
 3736 09ab 683100   		.ascii	"h1\000"
 3737 09ae 01       		.byte	0x1
 3738 09af 7901     		.2byte	0x179
 3739 09b1 25000000 		.4byte	0x25
 3740 09b5 5C080000 		.4byte	.LLST49
 3741 09b9 16       		.uleb128 0x16
 3742 09ba 733100   		.ascii	"s1\000"
 3743 09bd 01       		.byte	0x1
 3744 09be 7901     		.2byte	0x179
 3745 09c0 25000000 		.4byte	0x25
 3746 09c4 84080000 		.4byte	.LLST50
 3747 09c8 17       		.uleb128 0x17
 3748 09c9 763100   		.ascii	"v1\000"
 3749 09cc 01       		.byte	0x1
 3750 09cd 7901     		.2byte	0x179
 3751 09cf 25000000 		.4byte	0x25
 3752 09d3 02       		.uleb128 0x2
 3753 09d4 91       		.byte	0x91
 3754 09d5 00       		.sleb128 0
 3755 09d6 18       		.uleb128 0x18
 3756 09d7 81010000 		.4byte	.LASF35
 3757 09db 01       		.byte	0x1
 3758 09dc 7901     		.2byte	0x179
 3759 09de 09030000 		.4byte	0x309
 3760 09e2 02       		.uleb128 0x2
 3761 09e3 91       		.byte	0x91
 3762 09e4 08       		.sleb128 8
 3763 09e5 14       		.uleb128 0x14
 3764 09e6 1A000000 		.4byte	.LBB12
 3765 09ea 20000000 		.4byte	.LBE12-.LBB12
 3766 09ee 010A0000 		.4byte	0xa01
 3767 09f2 15       		.uleb128 0x15
 3768 09f3 6900     		.ascii	"i\000"
 3769 09f5 01       		.byte	0x1
 3770 09f6 7D01     		.2byte	0x17d
 3771 09f8 6F000000 		.4byte	0x6f
 3772 09fc AC080000 		.4byte	.LLST51
ARM GAS  C:\Users\cring\AppData\Local\Temp\ccGk4Etb.s 			page 79


 3773 0a00 00       		.byte	0
 3774 0a01 0F       		.uleb128 0xf
 3775 0a02 1A000000 		.4byte	.LVL207
 3776 0a06 F5060000 		.4byte	0x6f5
 3777 0a0a 0E       		.uleb128 0xe
 3778 0a0b 01       		.uleb128 0x1
 3779 0a0c 50       		.byte	0x50
 3780 0a0d 02       		.uleb128 0x2
 3781 0a0e 7A       		.byte	0x7a
 3782 0a0f 00       		.sleb128 0
 3783 0a10 00       		.byte	0
 3784 0a11 00       		.byte	0
 3785 0a12 12       		.uleb128 0x12
 3786 0a13 58030000 		.4byte	.LASF55
 3787 0a17 01       		.byte	0x1
 3788 0a18 8901     		.2byte	0x189
 3789 0a1a 00000000 		.4byte	.LFB81
 3790 0a1e 38000000 		.4byte	.LFE81-.LFB81
 3791 0a22 01       		.uleb128 0x1
 3792 0a23 9C       		.byte	0x9c
 3793 0a24 640A0000 		.4byte	0xa64
 3794 0a28 13       		.uleb128 0x13
 3795 0a29 81010000 		.4byte	.LASF35
 3796 0a2d 01       		.byte	0x1
 3797 0a2e 8901     		.2byte	0x189
 3798 0a30 09030000 		.4byte	0x309
 3799 0a34 CB080000 		.4byte	.LLST52
 3800 0a38 0F       		.uleb128 0xf
 3801 0a39 22000000 		.4byte	.LVL212
 3802 0a3d 0B090000 		.4byte	0x90b
 3803 0a41 0E       		.uleb128 0xe
 3804 0a42 01       		.uleb128 0x1
 3805 0a43 50       		.byte	0x50
 3806 0a44 01       		.uleb128 0x1
 3807 0a45 33       		.byte	0x33
 3808 0a46 0E       		.uleb128 0xe
 3809 0a47 06       		.uleb128 0x6
 3810 0a48 52       		.byte	0x52
 3811 0a49 93       		.byte	0x93
 3812 0a4a 04       		.uleb128 0x4
 3813 0a4b 53       		.byte	0x53
 3814 0a4c 93       		.byte	0x93
 3815 0a4d 04       		.uleb128 0x4
 3816 0a4e 0B       		.uleb128 0xb
 3817 0a4f F4       		.byte	0xf4
 3818 0a50 25       		.uleb128 0x25
 3819 0a51 08       		.byte	0x8
 3820 0a52 00000000 		.4byte	0
 3821 0a56 00E06740 		.4byte	0x4067e000
 3822 0a5a 0E       		.uleb128 0xe
 3823 0a5b 02       		.uleb128 0x2
 3824 0a5c 7D       		.byte	0x7d
 3825 0a5d 10       		.sleb128 16
 3826 0a5e 03       		.uleb128 0x3
 3827 0a5f F3       		.byte	0xf3
 3828 0a60 01       		.uleb128 0x1
 3829 0a61 50       		.byte	0x50
ARM GAS  C:\Users\cring\AppData\Local\Temp\ccGk4Etb.s 			page 80


 3830 0a62 00       		.byte	0
 3831 0a63 00       		.byte	0
 3832 0a64 12       		.uleb128 0x12
 3833 0a65 C2040000 		.4byte	.LASF56
 3834 0a69 01       		.byte	0x1
 3835 0a6a 8E01     		.2byte	0x18e
 3836 0a6c 00000000 		.4byte	.LFB82
 3837 0a70 3C000000 		.4byte	.LFE82-.LFB82
 3838 0a74 01       		.uleb128 0x1
 3839 0a75 9C       		.byte	0x9c
 3840 0a76 C10A0000 		.4byte	0xac1
 3841 0a7a 13       		.uleb128 0x13
 3842 0a7b 81010000 		.4byte	.LASF35
 3843 0a7f 01       		.byte	0x1
 3844 0a80 8E01     		.2byte	0x18e
 3845 0a82 09030000 		.4byte	0x309
 3846 0a86 F8080000 		.4byte	.LLST53
 3847 0a8a 0F       		.uleb128 0xf
 3848 0a8b 1E000000 		.4byte	.LVL215
 3849 0a8f 91080000 		.4byte	0x891
 3850 0a93 0E       		.uleb128 0xe
 3851 0a94 06       		.uleb128 0x6
 3852 0a95 50       		.byte	0x50
 3853 0a96 93       		.byte	0x93
 3854 0a97 04       		.uleb128 0x4
 3855 0a98 51       		.byte	0x51
 3856 0a99 93       		.byte	0x93
 3857 0a9a 04       		.uleb128 0x4
 3858 0a9b 0B       		.uleb128 0xb
 3859 0a9c F4       		.byte	0xf4
 3860 0a9d 25       		.uleb128 0x25
 3861 0a9e 08       		.byte	0x8
 3862 0a9f 00000000 		.4byte	0
 3863 0aa3 00307340 		.4byte	0x40733000
 3864 0aa7 0E       		.uleb128 0xe
 3865 0aa8 02       		.uleb128 0x2
 3866 0aa9 7D       		.byte	0x7d
 3867 0aaa 00       		.sleb128 0
 3868 0aab 0B       		.uleb128 0xb
 3869 0aac F4       		.byte	0xf4
 3870 0aad 25       		.uleb128 0x25
 3871 0aae 08       		.byte	0x8
 3872 0aaf 33333333 		.4byte	0x33333333
 3873 0ab3 3333EB3F 		.4byte	0x3feb3333
 3874 0ab7 0E       		.uleb128 0xe
 3875 0ab8 02       		.uleb128 0x2
 3876 0ab9 7D       		.byte	0x7d
 3877 0aba 08       		.sleb128 8
 3878 0abb 03       		.uleb128 0x3
 3879 0abc F3       		.byte	0xf3
 3880 0abd 01       		.uleb128 0x1
 3881 0abe 50       		.byte	0x50
 3882 0abf 00       		.byte	0
 3883 0ac0 00       		.byte	0
 3884 0ac1 12       		.uleb128 0x12
 3885 0ac2 BF020000 		.4byte	.LASF57
 3886 0ac6 01       		.byte	0x1
ARM GAS  C:\Users\cring\AppData\Local\Temp\ccGk4Etb.s 			page 81


 3887 0ac7 9301     		.2byte	0x193
 3888 0ac9 00000000 		.4byte	.LFB83
 3889 0acd 38000000 		.4byte	.LFE83-.LFB83
 3890 0ad1 01       		.uleb128 0x1
 3891 0ad2 9C       		.byte	0x9c
 3892 0ad3 1D0B0000 		.4byte	0xb1d
 3893 0ad7 13       		.uleb128 0x13
 3894 0ad8 81010000 		.4byte	.LASF35
 3895 0adc 01       		.byte	0x1
 3896 0add 9301     		.2byte	0x193
 3897 0adf 09030000 		.4byte	0x309
 3898 0ae3 25090000 		.4byte	.LLST54
 3899 0ae7 0D       		.uleb128 0xd
 3900 0ae8 0A000000 		.4byte	.LVL217
 3901 0aec F5060000 		.4byte	0x6f5
 3902 0af0 FB0A0000 		.4byte	0xafb
 3903 0af4 0E       		.uleb128 0xe
 3904 0af5 01       		.uleb128 0x1
 3905 0af6 50       		.byte	0x50
 3906 0af7 02       		.uleb128 0x2
 3907 0af8 74       		.byte	0x74
 3908 0af9 00       		.sleb128 0
 3909 0afa 00       		.byte	0
 3910 0afb 0F       		.uleb128 0xf
 3911 0afc 22000000 		.4byte	.LVL218
 3912 0b00 58050000 		.4byte	0x558
 3913 0b04 0E       		.uleb128 0xe
 3914 0b05 02       		.uleb128 0x2
 3915 0b06 7D       		.byte	0x7d
 3916 0b07 00       		.sleb128 0
 3917 0b08 0B       		.uleb128 0xb
 3918 0b09 F4       		.byte	0xf4
 3919 0b0a 25       		.uleb128 0x25
 3920 0b0b 08       		.byte	0x8
 3921 0b0c 8FC2F528 		.4byte	0x28f5c28f
 3922 0b10 5C8FEA3F 		.4byte	0x3fea8f5c
 3923 0b14 0E       		.uleb128 0xe
 3924 0b15 02       		.uleb128 0x2
 3925 0b16 7D       		.byte	0x7d
 3926 0b17 08       		.sleb128 8
 3927 0b18 02       		.uleb128 0x2
 3928 0b19 74       		.byte	0x74
 3929 0b1a 00       		.sleb128 0
 3930 0b1b 00       		.byte	0
 3931 0b1c 00       		.byte	0
 3932 0b1d 12       		.uleb128 0x12
 3933 0b1e C0010000 		.4byte	.LASF58
 3934 0b22 01       		.byte	0x1
 3935 0b23 9A01     		.2byte	0x19a
 3936 0b25 00000000 		.4byte	.LFB84
 3937 0b29 24000000 		.4byte	.LFE84-.LFB84
 3938 0b2d 01       		.uleb128 0x1
 3939 0b2e 9C       		.byte	0x9c
 3940 0b2f 560B0000 		.4byte	0xb56
 3941 0b33 13       		.uleb128 0x13
 3942 0b34 81010000 		.4byte	.LASF35
 3943 0b38 01       		.byte	0x1
ARM GAS  C:\Users\cring\AppData\Local\Temp\ccGk4Etb.s 			page 82


 3944 0b39 9A01     		.2byte	0x19a
 3945 0b3b 09030000 		.4byte	0x309
 3946 0b3f 51090000 		.4byte	.LLST55
 3947 0b43 0F       		.uleb128 0xf
 3948 0b44 16000000 		.4byte	.LVL222
 3949 0b48 91080000 		.4byte	0x891
 3950 0b4c 0E       		.uleb128 0xe
 3951 0b4d 02       		.uleb128 0x2
 3952 0b4e 7D       		.byte	0x7d
 3953 0b4f 08       		.sleb128 8
 3954 0b50 03       		.uleb128 0x3
 3955 0b51 F3       		.byte	0xf3
 3956 0b52 01       		.uleb128 0x1
 3957 0b53 50       		.byte	0x50
 3958 0b54 00       		.byte	0
 3959 0b55 00       		.byte	0
 3960 0b56 12       		.uleb128 0x12
 3961 0b57 2B040000 		.4byte	.LASF59
 3962 0b5b 01       		.byte	0x1
 3963 0b5c 9F01     		.2byte	0x19f
 3964 0b5e 00000000 		.4byte	.LFB85
 3965 0b62 2C000000 		.4byte	.LFE85-.LFB85
 3966 0b66 01       		.uleb128 0x1
 3967 0b67 9C       		.byte	0x9c
 3968 0b68 940B0000 		.4byte	0xb94
 3969 0b6c 13       		.uleb128 0x13
 3970 0b6d 81010000 		.4byte	.LASF35
 3971 0b71 01       		.byte	0x1
 3972 0b72 9F01     		.2byte	0x19f
 3973 0b74 09030000 		.4byte	0x309
 3974 0b78 7E090000 		.4byte	.LLST56
 3975 0b7c 0F       		.uleb128 0xf
 3976 0b7d 1C000000 		.4byte	.LVL225
 3977 0b81 0B090000 		.4byte	0x90b
 3978 0b85 0E       		.uleb128 0xe
 3979 0b86 01       		.uleb128 0x1
 3980 0b87 50       		.byte	0x50
 3981 0b88 01       		.uleb128 0x1
 3982 0b89 33       		.byte	0x33
 3983 0b8a 0E       		.uleb128 0xe
 3984 0b8b 02       		.uleb128 0x2
 3985 0b8c 7D       		.byte	0x7d
 3986 0b8d 10       		.sleb128 16
 3987 0b8e 03       		.uleb128 0x3
 3988 0b8f F3       		.byte	0xf3
 3989 0b90 01       		.uleb128 0x1
 3990 0b91 50       		.byte	0x50
 3991 0b92 00       		.byte	0
 3992 0b93 00       		.byte	0
 3993 0b94 12       		.uleb128 0x12
 3994 0b95 B5000000 		.4byte	.LASF60
 3995 0b99 01       		.byte	0x1
 3996 0b9a A401     		.2byte	0x1a4
 3997 0b9c 00000000 		.4byte	.LFB86
 3998 0ba0 28000000 		.4byte	.LFE86-.LFB86
 3999 0ba4 01       		.uleb128 0x1
 4000 0ba5 9C       		.byte	0x9c
ARM GAS  C:\Users\cring\AppData\Local\Temp\ccGk4Etb.s 			page 83


 4001 0ba6 E00B0000 		.4byte	0xbe0
 4002 0baa 13       		.uleb128 0x13
 4003 0bab 81010000 		.4byte	.LASF35
 4004 0baf 01       		.byte	0x1
 4005 0bb0 A401     		.2byte	0x1a4
 4006 0bb2 09030000 		.4byte	0x309
 4007 0bb6 AB090000 		.4byte	.LLST57
 4008 0bba 0D       		.uleb128 0xd
 4009 0bbb 0A000000 		.4byte	.LVL227
 4010 0bbf F5060000 		.4byte	0x6f5
 4011 0bc3 CE0B0000 		.4byte	0xbce
 4012 0bc7 0E       		.uleb128 0xe
 4013 0bc8 01       		.uleb128 0x1
 4014 0bc9 50       		.byte	0x50
 4015 0bca 02       		.uleb128 0x2
 4016 0bcb 74       		.byte	0x74
 4017 0bcc 00       		.sleb128 0
 4018 0bcd 00       		.byte	0
 4019 0bce 0F       		.uleb128 0xf
 4020 0bcf 1C000000 		.4byte	.LVL228
 4021 0bd3 58050000 		.4byte	0x558
 4022 0bd7 0E       		.uleb128 0xe
 4023 0bd8 02       		.uleb128 0x2
 4024 0bd9 7D       		.byte	0x7d
 4025 0bda 08       		.sleb128 8
 4026 0bdb 02       		.uleb128 0x2
 4027 0bdc 74       		.byte	0x74
 4028 0bdd 00       		.sleb128 0
 4029 0bde 00       		.byte	0
 4030 0bdf 00       		.byte	0
 4031 0be0 20       		.uleb128 0x20
 4032 0be1 C8020000 		.4byte	.LASF101
 4033 0be5 01       		.byte	0x1
 4034 0be6 AA01     		.2byte	0x1aa
 4035 0be8 6F000000 		.4byte	0x6f
 4036 0bec 00000000 		.4byte	.LFB87
 4037 0bf0 5C010000 		.4byte	.LFE87-.LFB87
 4038 0bf4 01       		.uleb128 0x1
 4039 0bf5 9C       		.byte	0x9c
 4040 0bf6 620D0000 		.4byte	0xd62
 4041 0bfa 13       		.uleb128 0x13
 4042 0bfb A3000000 		.4byte	.LASF61
 4043 0bff 01       		.byte	0x1
 4044 0c00 AA01     		.2byte	0x1aa
 4045 0c02 09030000 		.4byte	0x309
 4046 0c06 D7090000 		.4byte	.LLST58
 4047 0c0a 13       		.uleb128 0x13
 4048 0c0b AC000000 		.4byte	.LASF62
 4049 0c0f 01       		.byte	0x1
 4050 0c10 AA01     		.2byte	0x1aa
 4051 0c12 09030000 		.4byte	0x309
 4052 0c16 800A0000 		.4byte	.LLST59
 4053 0c1a 0A       		.uleb128 0xa
 4054 0c1b 24000000 		.4byte	.LVL231
 4055 0c1f F5060000 		.4byte	0x6f5
 4056 0c23 0D       		.uleb128 0xd
 4057 0c24 2A000000 		.4byte	.LVL232
ARM GAS  C:\Users\cring\AppData\Local\Temp\ccGk4Etb.s 			page 84


 4058 0c28 F5060000 		.4byte	0x6f5
 4059 0c2c 370C0000 		.4byte	0xc37
 4060 0c30 0E       		.uleb128 0xe
 4061 0c31 01       		.uleb128 0x1
 4062 0c32 50       		.byte	0x50
 4063 0c33 02       		.uleb128 0x2
 4064 0c34 7A       		.byte	0x7a
 4065 0c35 00       		.sleb128 0
 4066 0c36 00       		.byte	0
 4067 0c37 0A       		.uleb128 0xa
 4068 0c38 2E000000 		.4byte	.LVL233
 4069 0c3c 800F0000 		.4byte	0xf80
 4070 0c40 0A       		.uleb128 0xa
 4071 0c41 32000000 		.4byte	.LVL234
 4072 0c45 8B0F0000 		.4byte	0xf8b
 4073 0c49 0D       		.uleb128 0xd
 4074 0c4a 56000000 		.4byte	.LVL236
 4075 0c4e 58050000 		.4byte	0x558
 4076 0c52 670C0000 		.4byte	0xc67
 4077 0c56 0E       		.uleb128 0xe
 4078 0c57 02       		.uleb128 0x2
 4079 0c58 7D       		.byte	0x7d
 4080 0c59 00       		.sleb128 0
 4081 0c5a 03       		.uleb128 0x3
 4082 0c5b F5       		.byte	0xf5
 4083 0c5c 08       		.uleb128 0x8
 4084 0c5d 25       		.uleb128 0x25
 4085 0c5e 0E       		.uleb128 0xe
 4086 0c5f 02       		.uleb128 0x2
 4087 0c60 7D       		.byte	0x7d
 4088 0c61 08       		.sleb128 8
 4089 0c62 03       		.uleb128 0x3
 4090 0c63 F3       		.byte	0xf3
 4091 0c64 01       		.uleb128 0x1
 4092 0c65 50       		.byte	0x50
 4093 0c66 00       		.byte	0
 4094 0c67 0D       		.uleb128 0xd
 4095 0c68 6A000000 		.4byte	.LVL237
 4096 0c6c 58050000 		.4byte	0x558
 4097 0c70 840C0000 		.4byte	0xc84
 4098 0c74 0E       		.uleb128 0xe
 4099 0c75 02       		.uleb128 0x2
 4100 0c76 7D       		.byte	0x7d
 4101 0c77 00       		.sleb128 0
 4102 0c78 03       		.uleb128 0x3
 4103 0c79 F5       		.byte	0xf5
 4104 0c7a 08       		.uleb128 0x8
 4105 0c7b 25       		.uleb128 0x25
 4106 0c7c 0E       		.uleb128 0xe
 4107 0c7d 02       		.uleb128 0x2
 4108 0c7e 7D       		.byte	0x7d
 4109 0c7f 08       		.sleb128 8
 4110 0c80 02       		.uleb128 0x2
 4111 0c81 7A       		.byte	0x7a
 4112 0c82 00       		.sleb128 0
 4113 0c83 00       		.byte	0
 4114 0c84 0D       		.uleb128 0xd
ARM GAS  C:\Users\cring\AppData\Local\Temp\ccGk4Etb.s 			page 85


 4115 0c85 88000000 		.4byte	.LVL241
 4116 0c89 58050000 		.4byte	0x558
 4117 0c8d A10C0000 		.4byte	0xca1
 4118 0c91 0E       		.uleb128 0xe
 4119 0c92 02       		.uleb128 0x2
 4120 0c93 7D       		.byte	0x7d
 4121 0c94 00       		.sleb128 0
 4122 0c95 03       		.uleb128 0x3
 4123 0c96 F5       		.byte	0xf5
 4124 0c97 04       		.uleb128 0x4
 4125 0c98 25       		.uleb128 0x25
 4126 0c99 0E       		.uleb128 0xe
 4127 0c9a 02       		.uleb128 0x2
 4128 0c9b 7D       		.byte	0x7d
 4129 0c9c 08       		.sleb128 8
 4130 0c9d 02       		.uleb128 0x2
 4131 0c9e 78       		.byte	0x78
 4132 0c9f 00       		.sleb128 0
 4133 0ca0 00       		.byte	0
 4134 0ca1 0D       		.uleb128 0xd
 4135 0ca2 9C000000 		.4byte	.LVL242
 4136 0ca6 58050000 		.4byte	0x558
 4137 0caa BE0C0000 		.4byte	0xcbe
 4138 0cae 0E       		.uleb128 0xe
 4139 0caf 02       		.uleb128 0x2
 4140 0cb0 7D       		.byte	0x7d
 4141 0cb1 00       		.sleb128 0
 4142 0cb2 03       		.uleb128 0x3
 4143 0cb3 F5       		.byte	0xf5
 4144 0cb4 04       		.uleb128 0x4
 4145 0cb5 25       		.uleb128 0x25
 4146 0cb6 0E       		.uleb128 0xe
 4147 0cb7 02       		.uleb128 0x2
 4148 0cb8 7D       		.byte	0x7d
 4149 0cb9 08       		.sleb128 8
 4150 0cba 02       		.uleb128 0x2
 4151 0cbb 7A       		.byte	0x7a
 4152 0cbc 00       		.sleb128 0
 4153 0cbd 00       		.byte	0
 4154 0cbe 0D       		.uleb128 0xd
 4155 0cbf BA000000 		.4byte	.LVL246
 4156 0cc3 58050000 		.4byte	0x558
 4157 0cc7 DB0C0000 		.4byte	0xcdb
 4158 0ccb 0E       		.uleb128 0xe
 4159 0ccc 02       		.uleb128 0x2
 4160 0ccd 7D       		.byte	0x7d
 4161 0cce 00       		.sleb128 0
 4162 0ccf 03       		.uleb128 0x3
 4163 0cd0 F5       		.byte	0xf5
 4164 0cd1 04       		.uleb128 0x4
 4165 0cd2 25       		.uleb128 0x25
 4166 0cd3 0E       		.uleb128 0xe
 4167 0cd4 02       		.uleb128 0x2
 4168 0cd5 7D       		.byte	0x7d
 4169 0cd6 08       		.sleb128 8
 4170 0cd7 02       		.uleb128 0x2
 4171 0cd8 78       		.byte	0x78
ARM GAS  C:\Users\cring\AppData\Local\Temp\ccGk4Etb.s 			page 86


 4172 0cd9 00       		.sleb128 0
 4173 0cda 00       		.byte	0
 4174 0cdb 0D       		.uleb128 0xd
 4175 0cdc CE000000 		.4byte	.LVL247
 4176 0ce0 58050000 		.4byte	0x558
 4177 0ce4 F80C0000 		.4byte	0xcf8
 4178 0ce8 0E       		.uleb128 0xe
 4179 0ce9 02       		.uleb128 0x2
 4180 0cea 7D       		.byte	0x7d
 4181 0ceb 00       		.sleb128 0
 4182 0cec 03       		.uleb128 0x3
 4183 0ced F5       		.byte	0xf5
 4184 0cee 04       		.uleb128 0x4
 4185 0cef 25       		.uleb128 0x25
 4186 0cf0 0E       		.uleb128 0xe
 4187 0cf1 02       		.uleb128 0x2
 4188 0cf2 7D       		.byte	0x7d
 4189 0cf3 08       		.sleb128 8
 4190 0cf4 02       		.uleb128 0x2
 4191 0cf5 7A       		.byte	0x7a
 4192 0cf6 00       		.sleb128 0
 4193 0cf7 00       		.byte	0
 4194 0cf8 0A       		.uleb128 0xa
 4195 0cf9 DE000000 		.4byte	.LVL249
 4196 0cfd F5060000 		.4byte	0x6f5
 4197 0d01 0D       		.uleb128 0xd
 4198 0d02 E4000000 		.4byte	.LVL250
 4199 0d06 F5060000 		.4byte	0x6f5
 4200 0d0a 150D0000 		.4byte	0xd15
 4201 0d0e 0E       		.uleb128 0xe
 4202 0d0f 01       		.uleb128 0x1
 4203 0d10 50       		.byte	0x50
 4204 0d11 02       		.uleb128 0x2
 4205 0d12 7A       		.byte	0x7a
 4206 0d13 00       		.sleb128 0
 4207 0d14 00       		.byte	0
 4208 0d15 0D       		.uleb128 0xd
 4209 0d16 00010000 		.4byte	.LVL251
 4210 0d1a 58050000 		.4byte	0x558
 4211 0d1e 320D0000 		.4byte	0xd32
 4212 0d22 0E       		.uleb128 0xe
 4213 0d23 02       		.uleb128 0x2
 4214 0d24 7D       		.byte	0x7d
 4215 0d25 00       		.sleb128 0
 4216 0d26 03       		.uleb128 0x3
 4217 0d27 F5       		.byte	0xf5
 4218 0d28 04       		.uleb128 0x4
 4219 0d29 25       		.uleb128 0x25
 4220 0d2a 0E       		.uleb128 0xe
 4221 0d2b 02       		.uleb128 0x2
 4222 0d2c 7D       		.byte	0x7d
 4223 0d2d 08       		.sleb128 8
 4224 0d2e 02       		.uleb128 0x2
 4225 0d2f 78       		.byte	0x78
 4226 0d30 00       		.sleb128 0
 4227 0d31 00       		.byte	0
 4228 0d32 0D       		.uleb128 0xd
ARM GAS  C:\Users\cring\AppData\Local\Temp\ccGk4Etb.s 			page 87


 4229 0d33 14010000 		.4byte	.LVL252
 4230 0d37 58050000 		.4byte	0x558
 4231 0d3b 4F0D0000 		.4byte	0xd4f
 4232 0d3f 0E       		.uleb128 0xe
 4233 0d40 02       		.uleb128 0x2
 4234 0d41 7D       		.byte	0x7d
 4235 0d42 00       		.sleb128 0
 4236 0d43 03       		.uleb128 0x3
 4237 0d44 F5       		.byte	0xf5
 4238 0d45 04       		.uleb128 0x4
 4239 0d46 25       		.uleb128 0x25
 4240 0d47 0E       		.uleb128 0xe
 4241 0d48 02       		.uleb128 0x2
 4242 0d49 7D       		.byte	0x7d
 4243 0d4a 08       		.sleb128 8
 4244 0d4b 02       		.uleb128 0x2
 4245 0d4c 7A       		.byte	0x7a
 4246 0d4d 00       		.sleb128 0
 4247 0d4e 00       		.byte	0
 4248 0d4f 0A       		.uleb128 0xa
 4249 0d50 18010000 		.4byte	.LVL253
 4250 0d54 120F0000 		.4byte	0xf12
 4251 0d58 0A       		.uleb128 0xa
 4252 0d59 1C010000 		.4byte	.LVL254
 4253 0d5d 960F0000 		.4byte	0xf96
 4254 0d61 00       		.byte	0
 4255 0d62 0B       		.uleb128 0xb
 4256 0d63 6F010000 		.4byte	.LASF63
 4257 0d67 01       		.byte	0x1
 4258 0d68 72       		.byte	0x72
 4259 0d69 00000000 		.4byte	.LFB68
 4260 0d6d 18000000 		.4byte	.LFE68-.LFB68
 4261 0d71 01       		.uleb128 0x1
 4262 0d72 9C       		.byte	0x9c
 4263 0d73 810D0000 		.4byte	0xd81
 4264 0d77 0A       		.uleb128 0xa
 4265 0d78 12000000 		.4byte	.LVL260
 4266 0d7c E00B0000 		.4byte	0xbe0
 4267 0d80 00       		.byte	0
 4268 0d81 12       		.uleb128 0x12
 4269 0d82 13000000 		.4byte	.LASF64
 4270 0d86 01       		.byte	0x1
 4271 0d87 EC01     		.2byte	0x1ec
 4272 0d89 00000000 		.4byte	.LFB88
 4273 0d8d 38000000 		.4byte	.LFE88-.LFB88
 4274 0d91 01       		.uleb128 0x1
 4275 0d92 9C       		.byte	0x9c
 4276 0d93 CA0D0000 		.4byte	0xdca
 4277 0d97 13       		.uleb128 0x13
 4278 0d98 81010000 		.4byte	.LASF35
 4279 0d9c 01       		.byte	0x1
 4280 0d9d EC01     		.2byte	0x1ec
 4281 0d9f 09030000 		.4byte	0x309
 4282 0da3 040B0000 		.4byte	.LLST60
 4283 0da7 0F       		.uleb128 0xf
 4284 0da8 1C000000 		.4byte	.LVL263
 4285 0dac 94090000 		.4byte	0x994
ARM GAS  C:\Users\cring\AppData\Local\Temp\ccGk4Etb.s 			page 88


 4286 0db0 0E       		.uleb128 0xe
 4287 0db1 02       		.uleb128 0x2
 4288 0db2 7D       		.byte	0x7d
 4289 0db3 00       		.sleb128 0
 4290 0db4 0B       		.uleb128 0xb
 4291 0db5 F4       		.byte	0xf4
 4292 0db6 25       		.uleb128 0x25
 4293 0db7 08       		.byte	0x8
 4294 0db8 8FC2F528 		.4byte	0x28f5c28f
 4295 0dbc 5C8FEA3F 		.4byte	0x3fea8f5c
 4296 0dc0 0E       		.uleb128 0xe
 4297 0dc1 02       		.uleb128 0x2
 4298 0dc2 7D       		.byte	0x7d
 4299 0dc3 08       		.sleb128 8
 4300 0dc4 03       		.uleb128 0x3
 4301 0dc5 F3       		.byte	0xf3
 4302 0dc6 01       		.uleb128 0x1
 4303 0dc7 50       		.byte	0x50
 4304 0dc8 00       		.byte	0
 4305 0dc9 00       		.byte	0
 4306 0dca 12       		.uleb128 0x12
 4307 0dcb 4E030000 		.4byte	.LASF65
 4308 0dcf 01       		.byte	0x1
 4309 0dd0 F101     		.2byte	0x1f1
 4310 0dd2 00000000 		.4byte	.LFB89
 4311 0dd6 28000000 		.4byte	.LFE89-.LFB89
 4312 0dda 01       		.uleb128 0x1
 4313 0ddb 9C       		.byte	0x9c
 4314 0ddc 160E0000 		.4byte	0xe16
 4315 0de0 13       		.uleb128 0x13
 4316 0de1 81010000 		.4byte	.LASF35
 4317 0de5 01       		.byte	0x1
 4318 0de6 F101     		.2byte	0x1f1
 4319 0de8 09030000 		.4byte	0x309
 4320 0dec 310B0000 		.4byte	.LLST61
 4321 0df0 0D       		.uleb128 0xd
 4322 0df1 0A000000 		.4byte	.LVL265
 4323 0df5 F5060000 		.4byte	0x6f5
 4324 0df9 040E0000 		.4byte	0xe04
 4325 0dfd 0E       		.uleb128 0xe
 4326 0dfe 01       		.uleb128 0x1
 4327 0dff 50       		.byte	0x50
 4328 0e00 02       		.uleb128 0x2
 4329 0e01 74       		.byte	0x74
 4330 0e02 00       		.sleb128 0
 4331 0e03 00       		.byte	0
 4332 0e04 0F       		.uleb128 0xf
 4333 0e05 1C000000 		.4byte	.LVL266
 4334 0e09 58050000 		.4byte	0x558
 4335 0e0d 0E       		.uleb128 0xe
 4336 0e0e 02       		.uleb128 0x2
 4337 0e0f 7D       		.byte	0x7d
 4338 0e10 08       		.sleb128 8
 4339 0e11 02       		.uleb128 0x2
 4340 0e12 74       		.byte	0x74
 4341 0e13 00       		.sleb128 0
 4342 0e14 00       		.byte	0
ARM GAS  C:\Users\cring\AppData\Local\Temp\ccGk4Etb.s 			page 89


 4343 0e15 00       		.byte	0
 4344 0e16 21       		.uleb128 0x21
 4345 0e17 54020000 		.4byte	.LASF66
 4346 0e1b 01       		.byte	0x1
 4347 0e1c 11       		.byte	0x11
 4348 0e1d 6F000000 		.4byte	0x6f
 4349 0e21 05       		.uleb128 0x5
 4350 0e22 03       		.byte	0x3
 4351 0e23 14000000 		.4byte	pulselength_
 4352 0e27 21       		.uleb128 0x21
 4353 0e28 1C040000 		.4byte	.LASF67
 4354 0e2c 01       		.byte	0x1
 4355 0e2d 12       		.byte	0x12
 4356 0e2e 6F000000 		.4byte	0x6f
 4357 0e32 05       		.uleb128 0x5
 4358 0e33 03       		.byte	0x3
 4359 0e34 10000000 		.4byte	index_
 4360 0e38 21       		.uleb128 0x21
 4361 0e39 EC020000 		.4byte	.LASF68
 4362 0e3d 01       		.byte	0x1
 4363 0e3e 13       		.byte	0x13
 4364 0e3f 88000000 		.4byte	0x88
 4365 0e43 05       		.uleb128 0x5
 4366 0e44 03       		.byte	0x3
 4367 0e45 00000000 		.4byte	index2
 4368 0e49 21       		.uleb128 0x21
 4369 0e4a 64010000 		.4byte	.LASF69
 4370 0e4e 01       		.byte	0x1
 4371 0e4f 14       		.byte	0x14
 4372 0e50 6F000000 		.4byte	0x6f
 4373 0e54 05       		.uleb128 0x5
 4374 0e55 03       		.byte	0x3
 4375 0e56 08000000 		.4byte	count
 4376 0e5a 21       		.uleb128 0x21
 4377 0e5b FC040000 		.4byte	.LASF70
 4378 0e5f 01       		.byte	0x1
 4379 0e60 15       		.byte	0x15
 4380 0e61 6F000000 		.4byte	0x6f
 4381 0e65 05       		.uleb128 0x5
 4382 0e66 03       		.byte	0x3
 4383 0e67 18000000 		.4byte	count2
 4384 0e6b 21       		.uleb128 0x21
 4385 0e6c 03050000 		.4byte	.LASF71
 4386 0e70 01       		.byte	0x1
 4387 0e71 16       		.byte	0x16
 4388 0e72 6F000000 		.4byte	0x6f
 4389 0e76 05       		.uleb128 0x5
 4390 0e77 03       		.byte	0x3
 4391 0e78 0C000000 		.4byte	count3
 4392 0e7c 22       		.uleb128 0x22
 4393 0e7d 49000000 		.4byte	.LASF72
 4394 0e81 05       		.byte	0x5
 4395 0e82 1207     		.2byte	0x712
 4396 0e84 880E0000 		.4byte	0xe88
 4397 0e88 23       		.uleb128 0x23
 4398 0e89 7D000000 		.4byte	0x7d
 4399 0e8d 24       		.uleb128 0x24
ARM GAS  C:\Users\cring\AppData\Local\Temp\ccGk4Etb.s 			page 90


 4400 0e8e F3020000 		.4byte	.LASF73
 4401 0e92 01       		.byte	0x1
 4402 0e93 18       		.byte	0x18
 4403 0e94 09030000 		.4byte	0x309
 4404 0e98 05       		.uleb128 0x5
 4405 0e99 03       		.byte	0x3
 4406 0e9a 00000000 		.4byte	rgbLED1
 4407 0e9e 24       		.uleb128 0x24
 4408 0e9f FB020000 		.4byte	.LASF74
 4409 0ea3 01       		.byte	0x1
 4410 0ea4 19       		.byte	0x19
 4411 0ea5 09030000 		.4byte	0x309
 4412 0ea9 05       		.uleb128 0x5
 4413 0eaa 03       		.byte	0x3
 4414 0eab 00000000 		.4byte	rgbLED2
 4415 0eaf 25       		.uleb128 0x25
 4416 0eb0 33010000 		.4byte	.LASF75
 4417 0eb4 33010000 		.4byte	.LASF75
 4418 0eb8 06       		.byte	0x6
 4419 0eb9 68       		.byte	0x68
 4420 0eba 25       		.uleb128 0x25
 4421 0ebb 26020000 		.4byte	.LASF76
 4422 0ebf 26020000 		.4byte	.LASF76
 4423 0ec3 07       		.byte	0x7
 4424 0ec4 68       		.byte	0x68
 4425 0ec5 25       		.uleb128 0x25
 4426 0ec6 00000000 		.4byte	.LASF77
 4427 0eca 00000000 		.4byte	.LASF77
 4428 0ece 08       		.byte	0x8
 4429 0ecf 68       		.byte	0x68
 4430 0ed0 25       		.uleb128 0x25
 4431 0ed1 61020000 		.4byte	.LASF78
 4432 0ed5 61020000 		.4byte	.LASF78
 4433 0ed9 09       		.byte	0x9
 4434 0eda 68       		.byte	0x68
 4435 0edb 25       		.uleb128 0x25
 4436 0edc 79040000 		.4byte	.LASF79
 4437 0ee0 79040000 		.4byte	.LASF79
 4438 0ee4 0A       		.byte	0xa
 4439 0ee5 5E       		.byte	0x5e
 4440 0ee6 25       		.uleb128 0x25
 4441 0ee7 4C040000 		.4byte	.LASF80
 4442 0eeb 4C040000 		.4byte	.LASF80
 4443 0eef 0B       		.byte	0xb
 4444 0ef0 2F       		.byte	0x2f
 4445 0ef1 25       		.uleb128 0x25
 4446 0ef2 E4040000 		.4byte	.LASF81
 4447 0ef6 E4040000 		.4byte	.LASF81
 4448 0efa 06       		.byte	0x6
 4449 0efb 5B       		.byte	0x5b
 4450 0efc 25       		.uleb128 0x25
 4451 0efd 8C040000 		.4byte	.LASF82
 4452 0f01 8C040000 		.4byte	.LASF82
 4453 0f05 0C       		.byte	0xc
 4454 0f06 77       		.byte	0x77
 4455 0f07 25       		.uleb128 0x25
 4456 0f08 B2020000 		.4byte	.LASF83
ARM GAS  C:\Users\cring\AppData\Local\Temp\ccGk4Etb.s 			page 91


 4457 0f0c B2020000 		.4byte	.LASF83
 4458 0f10 06       		.byte	0x6
 4459 0f11 5A       		.byte	0x5a
 4460 0f12 25       		.uleb128 0x25
 4461 0f13 D1020000 		.4byte	.LASF84
 4462 0f17 D1020000 		.4byte	.LASF84
 4463 0f1b 0D       		.byte	0xd
 4464 0f1c 5B       		.byte	0x5b
 4465 0f1d 25       		.uleb128 0x25
 4466 0f1e 86020000 		.4byte	.LASF85
 4467 0f22 86020000 		.4byte	.LASF85
 4468 0f26 0E       		.byte	0xe
 4469 0f27 18       		.byte	0x18
 4470 0f28 25       		.uleb128 0x25
 4471 0f29 E6010000 		.4byte	.LASF86
 4472 0f2d E6010000 		.4byte	.LASF86
 4473 0f31 0F       		.byte	0xf
 4474 0f32 18       		.byte	0x18
 4475 0f33 25       		.uleb128 0x25
 4476 0f34 03030000 		.4byte	.LASF87
 4477 0f38 03030000 		.4byte	.LASF87
 4478 0f3c 10       		.byte	0x10
 4479 0f3d 18       		.byte	0x18
 4480 0f3e 25       		.uleb128 0x25
 4481 0f3f 69030000 		.4byte	.LASF88
 4482 0f43 69030000 		.4byte	.LASF88
 4483 0f47 11       		.byte	0x11
 4484 0f48 18       		.byte	0x18
 4485 0f49 25       		.uleb128 0x25
 4486 0f4a 21010000 		.4byte	.LASF89
 4487 0f4e 21010000 		.4byte	.LASF89
 4488 0f52 12       		.byte	0x12
 4489 0f53 18       		.byte	0x18
 4490 0f54 25       		.uleb128 0x25
 4491 0f55 1C050000 		.4byte	.LASF90
 4492 0f59 1C050000 		.4byte	.LASF90
 4493 0f5d 0A       		.byte	0xa
 4494 0f5e 4D       		.byte	0x4d
 4495 0f5f 25       		.uleb128 0x25
 4496 0f60 3C000000 		.4byte	.LASF91
 4497 0f64 3C000000 		.4byte	.LASF91
 4498 0f68 07       		.byte	0x7
 4499 0f69 5A       		.byte	0x5a
 4500 0f6a 25       		.uleb128 0x25
 4501 0f6b 74020000 		.4byte	.LASF92
 4502 0f6f 74020000 		.4byte	.LASF92
 4503 0f73 08       		.byte	0x8
 4504 0f74 5A       		.byte	0x5a
 4505 0f75 25       		.uleb128 0x25
 4506 0f76 C7000000 		.4byte	.LASF93
 4507 0f7a C7000000 		.4byte	.LASF93
 4508 0f7e 09       		.byte	0x9
 4509 0f7f 5A       		.byte	0x5a
 4510 0f80 25       		.uleb128 0x25
 4511 0f81 37030000 		.4byte	.LASF94
 4512 0f85 37030000 		.4byte	.LASF94
 4513 0f89 0D       		.byte	0xd
ARM GAS  C:\Users\cring\AppData\Local\Temp\ccGk4Etb.s 			page 92


 4514 0f8a 5A       		.byte	0x5a
 4515 0f8b 25       		.uleb128 0x25
 4516 0f8c AF010000 		.4byte	.LASF95
 4517 0f90 AF010000 		.4byte	.LASF95
 4518 0f94 12       		.byte	0x12
 4519 0f95 23       		.byte	0x23
 4520 0f96 25       		.uleb128 0x25
 4521 0f97 08020000 		.4byte	.LASF96
 4522 0f9b 08020000 		.4byte	.LASF96
 4523 0f9f 12       		.byte	0x12
 4524 0fa0 25       		.byte	0x25
 4525 0fa1 00       		.byte	0
 4526              		.section	.debug_abbrev,"",%progbits
 4527              	.Ldebug_abbrev0:
 4528 0000 01       		.uleb128 0x1
 4529 0001 11       		.uleb128 0x11
 4530 0002 01       		.byte	0x1
 4531 0003 25       		.uleb128 0x25
 4532 0004 0E       		.uleb128 0xe
 4533 0005 13       		.uleb128 0x13
 4534 0006 0B       		.uleb128 0xb
 4535 0007 03       		.uleb128 0x3
 4536 0008 0E       		.uleb128 0xe
 4537 0009 1B       		.uleb128 0x1b
 4538 000a 0E       		.uleb128 0xe
 4539 000b 55       		.uleb128 0x55
 4540 000c 17       		.uleb128 0x17
 4541 000d 11       		.uleb128 0x11
 4542 000e 01       		.uleb128 0x1
 4543 000f 10       		.uleb128 0x10
 4544 0010 17       		.uleb128 0x17
 4545 0011 00       		.byte	0
 4546 0012 00       		.byte	0
 4547 0013 02       		.uleb128 0x2
 4548 0014 24       		.uleb128 0x24
 4549 0015 00       		.byte	0
 4550 0016 0B       		.uleb128 0xb
 4551 0017 0B       		.uleb128 0xb
 4552 0018 3E       		.uleb128 0x3e
 4553 0019 0B       		.uleb128 0xb
 4554 001a 03       		.uleb128 0x3
 4555 001b 0E       		.uleb128 0xe
 4556 001c 00       		.byte	0
 4557 001d 00       		.byte	0
 4558 001e 03       		.uleb128 0x3
 4559 001f 16       		.uleb128 0x16
 4560 0020 00       		.byte	0
 4561 0021 03       		.uleb128 0x3
 4562 0022 0E       		.uleb128 0xe
 4563 0023 3A       		.uleb128 0x3a
 4564 0024 0B       		.uleb128 0xb
 4565 0025 3B       		.uleb128 0x3b
 4566 0026 0B       		.uleb128 0xb
 4567 0027 49       		.uleb128 0x49
 4568 0028 13       		.uleb128 0x13
 4569 0029 00       		.byte	0
 4570 002a 00       		.byte	0
ARM GAS  C:\Users\cring\AppData\Local\Temp\ccGk4Etb.s 			page 93


 4571 002b 04       		.uleb128 0x4
 4572 002c 24       		.uleb128 0x24
 4573 002d 00       		.byte	0
 4574 002e 0B       		.uleb128 0xb
 4575 002f 0B       		.uleb128 0xb
 4576 0030 3E       		.uleb128 0x3e
 4577 0031 0B       		.uleb128 0xb
 4578 0032 03       		.uleb128 0x3
 4579 0033 08       		.uleb128 0x8
 4580 0034 00       		.byte	0
 4581 0035 00       		.byte	0
 4582 0036 05       		.uleb128 0x5
 4583 0037 13       		.uleb128 0x13
 4584 0038 01       		.byte	0x1
 4585 0039 03       		.uleb128 0x3
 4586 003a 0E       		.uleb128 0xe
 4587 003b 0B       		.uleb128 0xb
 4588 003c 0B       		.uleb128 0xb
 4589 003d 3A       		.uleb128 0x3a
 4590 003e 0B       		.uleb128 0xb
 4591 003f 3B       		.uleb128 0x3b
 4592 0040 0B       		.uleb128 0xb
 4593 0041 01       		.uleb128 0x1
 4594 0042 13       		.uleb128 0x13
 4595 0043 00       		.byte	0
 4596 0044 00       		.byte	0
 4597 0045 06       		.uleb128 0x6
 4598 0046 0D       		.uleb128 0xd
 4599 0047 00       		.byte	0
 4600 0048 03       		.uleb128 0x3
 4601 0049 08       		.uleb128 0x8
 4602 004a 3A       		.uleb128 0x3a
 4603 004b 0B       		.uleb128 0xb
 4604 004c 3B       		.uleb128 0x3b
 4605 004d 0B       		.uleb128 0xb
 4606 004e 49       		.uleb128 0x49
 4607 004f 13       		.uleb128 0x13
 4608 0050 38       		.uleb128 0x38
 4609 0051 0B       		.uleb128 0xb
 4610 0052 00       		.byte	0
 4611 0053 00       		.byte	0
 4612 0054 07       		.uleb128 0x7
 4613 0055 0D       		.uleb128 0xd
 4614 0056 00       		.byte	0
 4615 0057 03       		.uleb128 0x3
 4616 0058 0E       		.uleb128 0xe
 4617 0059 3A       		.uleb128 0x3a
 4618 005a 0B       		.uleb128 0xb
 4619 005b 3B       		.uleb128 0x3b
 4620 005c 0B       		.uleb128 0xb
 4621 005d 49       		.uleb128 0x49
 4622 005e 13       		.uleb128 0x13
 4623 005f 38       		.uleb128 0x38
 4624 0060 0B       		.uleb128 0xb
 4625 0061 00       		.byte	0
 4626 0062 00       		.byte	0
 4627 0063 08       		.uleb128 0x8
ARM GAS  C:\Users\cring\AppData\Local\Temp\ccGk4Etb.s 			page 94


 4628 0064 2E       		.uleb128 0x2e
 4629 0065 01       		.byte	0x1
 4630 0066 3F       		.uleb128 0x3f
 4631 0067 19       		.uleb128 0x19
 4632 0068 03       		.uleb128 0x3
 4633 0069 0E       		.uleb128 0xe
 4634 006a 3A       		.uleb128 0x3a
 4635 006b 0B       		.uleb128 0xb
 4636 006c 3B       		.uleb128 0x3b
 4637 006d 0B       		.uleb128 0xb
 4638 006e 27       		.uleb128 0x27
 4639 006f 19       		.uleb128 0x19
 4640 0070 11       		.uleb128 0x11
 4641 0071 01       		.uleb128 0x1
 4642 0072 12       		.uleb128 0x12
 4643 0073 06       		.uleb128 0x6
 4644 0074 40       		.uleb128 0x40
 4645 0075 18       		.uleb128 0x18
 4646 0076 9642     		.uleb128 0x2116
 4647 0078 19       		.uleb128 0x19
 4648 0079 01       		.uleb128 0x1
 4649 007a 13       		.uleb128 0x13
 4650 007b 00       		.byte	0
 4651 007c 00       		.byte	0
 4652 007d 09       		.uleb128 0x9
 4653 007e 05       		.uleb128 0x5
 4654 007f 00       		.byte	0
 4655 0080 03       		.uleb128 0x3
 4656 0081 08       		.uleb128 0x8
 4657 0082 3A       		.uleb128 0x3a
 4658 0083 0B       		.uleb128 0xb
 4659 0084 3B       		.uleb128 0x3b
 4660 0085 0B       		.uleb128 0xb
 4661 0086 49       		.uleb128 0x49
 4662 0087 13       		.uleb128 0x13
 4663 0088 02       		.uleb128 0x2
 4664 0089 17       		.uleb128 0x17
 4665 008a 00       		.byte	0
 4666 008b 00       		.byte	0
 4667 008c 0A       		.uleb128 0xa
 4668 008d 898201   		.uleb128 0x4109
 4669 0090 00       		.byte	0
 4670 0091 11       		.uleb128 0x11
 4671 0092 01       		.uleb128 0x1
 4672 0093 31       		.uleb128 0x31
 4673 0094 13       		.uleb128 0x13
 4674 0095 00       		.byte	0
 4675 0096 00       		.byte	0
 4676 0097 0B       		.uleb128 0xb
 4677 0098 2E       		.uleb128 0x2e
 4678 0099 01       		.byte	0x1
 4679 009a 3F       		.uleb128 0x3f
 4680 009b 19       		.uleb128 0x19
 4681 009c 03       		.uleb128 0x3
 4682 009d 0E       		.uleb128 0xe
 4683 009e 3A       		.uleb128 0x3a
 4684 009f 0B       		.uleb128 0xb
ARM GAS  C:\Users\cring\AppData\Local\Temp\ccGk4Etb.s 			page 95


 4685 00a0 3B       		.uleb128 0x3b
 4686 00a1 0B       		.uleb128 0xb
 4687 00a2 27       		.uleb128 0x27
 4688 00a3 19       		.uleb128 0x19
 4689 00a4 11       		.uleb128 0x11
 4690 00a5 01       		.uleb128 0x1
 4691 00a6 12       		.uleb128 0x12
 4692 00a7 06       		.uleb128 0x6
 4693 00a8 40       		.uleb128 0x40
 4694 00a9 18       		.uleb128 0x18
 4695 00aa 9742     		.uleb128 0x2117
 4696 00ac 19       		.uleb128 0x19
 4697 00ad 01       		.uleb128 0x1
 4698 00ae 13       		.uleb128 0x13
 4699 00af 00       		.byte	0
 4700 00b0 00       		.byte	0
 4701 00b1 0C       		.uleb128 0xc
 4702 00b2 05       		.uleb128 0x5
 4703 00b3 00       		.byte	0
 4704 00b4 03       		.uleb128 0x3
 4705 00b5 0E       		.uleb128 0xe
 4706 00b6 3A       		.uleb128 0x3a
 4707 00b7 0B       		.uleb128 0xb
 4708 00b8 3B       		.uleb128 0x3b
 4709 00b9 0B       		.uleb128 0xb
 4710 00ba 49       		.uleb128 0x49
 4711 00bb 13       		.uleb128 0x13
 4712 00bc 02       		.uleb128 0x2
 4713 00bd 17       		.uleb128 0x17
 4714 00be 00       		.byte	0
 4715 00bf 00       		.byte	0
 4716 00c0 0D       		.uleb128 0xd
 4717 00c1 898201   		.uleb128 0x4109
 4718 00c4 01       		.byte	0x1
 4719 00c5 11       		.uleb128 0x11
 4720 00c6 01       		.uleb128 0x1
 4721 00c7 31       		.uleb128 0x31
 4722 00c8 13       		.uleb128 0x13
 4723 00c9 01       		.uleb128 0x1
 4724 00ca 13       		.uleb128 0x13
 4725 00cb 00       		.byte	0
 4726 00cc 00       		.byte	0
 4727 00cd 0E       		.uleb128 0xe
 4728 00ce 8A8201   		.uleb128 0x410a
 4729 00d1 00       		.byte	0
 4730 00d2 02       		.uleb128 0x2
 4731 00d3 18       		.uleb128 0x18
 4732 00d4 9142     		.uleb128 0x2111
 4733 00d6 18       		.uleb128 0x18
 4734 00d7 00       		.byte	0
 4735 00d8 00       		.byte	0
 4736 00d9 0F       		.uleb128 0xf
 4737 00da 898201   		.uleb128 0x4109
 4738 00dd 01       		.byte	0x1
 4739 00de 11       		.uleb128 0x11
 4740 00df 01       		.uleb128 0x1
 4741 00e0 31       		.uleb128 0x31
ARM GAS  C:\Users\cring\AppData\Local\Temp\ccGk4Etb.s 			page 96


 4742 00e1 13       		.uleb128 0x13
 4743 00e2 00       		.byte	0
 4744 00e3 00       		.byte	0
 4745 00e4 10       		.uleb128 0x10
 4746 00e5 34       		.uleb128 0x34
 4747 00e6 00       		.byte	0
 4748 00e7 03       		.uleb128 0x3
 4749 00e8 08       		.uleb128 0x8
 4750 00e9 3A       		.uleb128 0x3a
 4751 00ea 0B       		.uleb128 0xb
 4752 00eb 3B       		.uleb128 0x3b
 4753 00ec 0B       		.uleb128 0xb
 4754 00ed 49       		.uleb128 0x49
 4755 00ee 13       		.uleb128 0x13
 4756 00ef 02       		.uleb128 0x2
 4757 00f0 17       		.uleb128 0x17
 4758 00f1 00       		.byte	0
 4759 00f2 00       		.byte	0
 4760 00f3 11       		.uleb128 0x11
 4761 00f4 0F       		.uleb128 0xf
 4762 00f5 00       		.byte	0
 4763 00f6 0B       		.uleb128 0xb
 4764 00f7 0B       		.uleb128 0xb
 4765 00f8 49       		.uleb128 0x49
 4766 00f9 13       		.uleb128 0x13
 4767 00fa 00       		.byte	0
 4768 00fb 00       		.byte	0
 4769 00fc 12       		.uleb128 0x12
 4770 00fd 2E       		.uleb128 0x2e
 4771 00fe 01       		.byte	0x1
 4772 00ff 3F       		.uleb128 0x3f
 4773 0100 19       		.uleb128 0x19
 4774 0101 03       		.uleb128 0x3
 4775 0102 0E       		.uleb128 0xe
 4776 0103 3A       		.uleb128 0x3a
 4777 0104 0B       		.uleb128 0xb
 4778 0105 3B       		.uleb128 0x3b
 4779 0106 05       		.uleb128 0x5
 4780 0107 27       		.uleb128 0x27
 4781 0108 19       		.uleb128 0x19
 4782 0109 11       		.uleb128 0x11
 4783 010a 01       		.uleb128 0x1
 4784 010b 12       		.uleb128 0x12
 4785 010c 06       		.uleb128 0x6
 4786 010d 40       		.uleb128 0x40
 4787 010e 18       		.uleb128 0x18
 4788 010f 9742     		.uleb128 0x2117
 4789 0111 19       		.uleb128 0x19
 4790 0112 01       		.uleb128 0x1
 4791 0113 13       		.uleb128 0x13
 4792 0114 00       		.byte	0
 4793 0115 00       		.byte	0
 4794 0116 13       		.uleb128 0x13
 4795 0117 05       		.uleb128 0x5
 4796 0118 00       		.byte	0
 4797 0119 03       		.uleb128 0x3
 4798 011a 0E       		.uleb128 0xe
ARM GAS  C:\Users\cring\AppData\Local\Temp\ccGk4Etb.s 			page 97


 4799 011b 3A       		.uleb128 0x3a
 4800 011c 0B       		.uleb128 0xb
 4801 011d 3B       		.uleb128 0x3b
 4802 011e 05       		.uleb128 0x5
 4803 011f 49       		.uleb128 0x49
 4804 0120 13       		.uleb128 0x13
 4805 0121 02       		.uleb128 0x2
 4806 0122 17       		.uleb128 0x17
 4807 0123 00       		.byte	0
 4808 0124 00       		.byte	0
 4809 0125 14       		.uleb128 0x14
 4810 0126 0B       		.uleb128 0xb
 4811 0127 01       		.byte	0x1
 4812 0128 11       		.uleb128 0x11
 4813 0129 01       		.uleb128 0x1
 4814 012a 12       		.uleb128 0x12
 4815 012b 06       		.uleb128 0x6
 4816 012c 01       		.uleb128 0x1
 4817 012d 13       		.uleb128 0x13
 4818 012e 00       		.byte	0
 4819 012f 00       		.byte	0
 4820 0130 15       		.uleb128 0x15
 4821 0131 34       		.uleb128 0x34
 4822 0132 00       		.byte	0
 4823 0133 03       		.uleb128 0x3
 4824 0134 08       		.uleb128 0x8
 4825 0135 3A       		.uleb128 0x3a
 4826 0136 0B       		.uleb128 0xb
 4827 0137 3B       		.uleb128 0x3b
 4828 0138 05       		.uleb128 0x5
 4829 0139 49       		.uleb128 0x49
 4830 013a 13       		.uleb128 0x13
 4831 013b 02       		.uleb128 0x2
 4832 013c 17       		.uleb128 0x17
 4833 013d 00       		.byte	0
 4834 013e 00       		.byte	0
 4835 013f 16       		.uleb128 0x16
 4836 0140 05       		.uleb128 0x5
 4837 0141 00       		.byte	0
 4838 0142 03       		.uleb128 0x3
 4839 0143 08       		.uleb128 0x8
 4840 0144 3A       		.uleb128 0x3a
 4841 0145 0B       		.uleb128 0xb
 4842 0146 3B       		.uleb128 0x3b
 4843 0147 05       		.uleb128 0x5
 4844 0148 49       		.uleb128 0x49
 4845 0149 13       		.uleb128 0x13
 4846 014a 02       		.uleb128 0x2
 4847 014b 17       		.uleb128 0x17
 4848 014c 00       		.byte	0
 4849 014d 00       		.byte	0
 4850 014e 17       		.uleb128 0x17
 4851 014f 05       		.uleb128 0x5
 4852 0150 00       		.byte	0
 4853 0151 03       		.uleb128 0x3
 4854 0152 08       		.uleb128 0x8
 4855 0153 3A       		.uleb128 0x3a
ARM GAS  C:\Users\cring\AppData\Local\Temp\ccGk4Etb.s 			page 98


 4856 0154 0B       		.uleb128 0xb
 4857 0155 3B       		.uleb128 0x3b
 4858 0156 05       		.uleb128 0x5
 4859 0157 49       		.uleb128 0x49
 4860 0158 13       		.uleb128 0x13
 4861 0159 02       		.uleb128 0x2
 4862 015a 18       		.uleb128 0x18
 4863 015b 00       		.byte	0
 4864 015c 00       		.byte	0
 4865 015d 18       		.uleb128 0x18
 4866 015e 05       		.uleb128 0x5
 4867 015f 00       		.byte	0
 4868 0160 03       		.uleb128 0x3
 4869 0161 0E       		.uleb128 0xe
 4870 0162 3A       		.uleb128 0x3a
 4871 0163 0B       		.uleb128 0xb
 4872 0164 3B       		.uleb128 0x3b
 4873 0165 05       		.uleb128 0x5
 4874 0166 49       		.uleb128 0x49
 4875 0167 13       		.uleb128 0x13
 4876 0168 02       		.uleb128 0x2
 4877 0169 18       		.uleb128 0x18
 4878 016a 00       		.byte	0
 4879 016b 00       		.byte	0
 4880 016c 19       		.uleb128 0x19
 4881 016d 34       		.uleb128 0x34
 4882 016e 00       		.byte	0
 4883 016f 03       		.uleb128 0x3
 4884 0170 0E       		.uleb128 0xe
 4885 0171 3A       		.uleb128 0x3a
 4886 0172 0B       		.uleb128 0xb
 4887 0173 3B       		.uleb128 0x3b
 4888 0174 05       		.uleb128 0x5
 4889 0175 49       		.uleb128 0x49
 4890 0176 13       		.uleb128 0x13
 4891 0177 02       		.uleb128 0x2
 4892 0178 17       		.uleb128 0x17
 4893 0179 00       		.byte	0
 4894 017a 00       		.byte	0
 4895 017b 1A       		.uleb128 0x1a
 4896 017c 34       		.uleb128 0x34
 4897 017d 00       		.byte	0
 4898 017e 03       		.uleb128 0x3
 4899 017f 08       		.uleb128 0x8
 4900 0180 3A       		.uleb128 0x3a
 4901 0181 0B       		.uleb128 0xb
 4902 0182 3B       		.uleb128 0x3b
 4903 0183 05       		.uleb128 0x5
 4904 0184 49       		.uleb128 0x49
 4905 0185 13       		.uleb128 0x13
 4906 0186 02       		.uleb128 0x2
 4907 0187 18       		.uleb128 0x18
 4908 0188 00       		.byte	0
 4909 0189 00       		.byte	0
 4910 018a 1B       		.uleb128 0x1b
 4911 018b 01       		.uleb128 0x1
 4912 018c 01       		.byte	0x1
ARM GAS  C:\Users\cring\AppData\Local\Temp\ccGk4Etb.s 			page 99


 4913 018d 49       		.uleb128 0x49
 4914 018e 13       		.uleb128 0x13
 4915 018f 01       		.uleb128 0x1
 4916 0190 13       		.uleb128 0x13
 4917 0191 00       		.byte	0
 4918 0192 00       		.byte	0
 4919 0193 1C       		.uleb128 0x1c
 4920 0194 21       		.uleb128 0x21
 4921 0195 00       		.byte	0
 4922 0196 49       		.uleb128 0x49
 4923 0197 13       		.uleb128 0x13
 4924 0198 2F       		.uleb128 0x2f
 4925 0199 0B       		.uleb128 0xb
 4926 019a 00       		.byte	0
 4927 019b 00       		.byte	0
 4928 019c 1D       		.uleb128 0x1d
 4929 019d 05       		.uleb128 0x5
 4930 019e 00       		.byte	0
 4931 019f 03       		.uleb128 0x3
 4932 01a0 08       		.uleb128 0x8
 4933 01a1 3A       		.uleb128 0x3a
 4934 01a2 0B       		.uleb128 0xb
 4935 01a3 3B       		.uleb128 0x3b
 4936 01a4 0B       		.uleb128 0xb
 4937 01a5 49       		.uleb128 0x49
 4938 01a6 13       		.uleb128 0x13
 4939 01a7 02       		.uleb128 0x2
 4940 01a8 18       		.uleb128 0x18
 4941 01a9 00       		.byte	0
 4942 01aa 00       		.byte	0
 4943 01ab 1E       		.uleb128 0x1e
 4944 01ac 05       		.uleb128 0x5
 4945 01ad 00       		.byte	0
 4946 01ae 03       		.uleb128 0x3
 4947 01af 0E       		.uleb128 0xe
 4948 01b0 3A       		.uleb128 0x3a
 4949 01b1 0B       		.uleb128 0xb
 4950 01b2 3B       		.uleb128 0x3b
 4951 01b3 0B       		.uleb128 0xb
 4952 01b4 49       		.uleb128 0x49
 4953 01b5 13       		.uleb128 0x13
 4954 01b6 02       		.uleb128 0x2
 4955 01b7 18       		.uleb128 0x18
 4956 01b8 00       		.byte	0
 4957 01b9 00       		.byte	0
 4958 01ba 1F       		.uleb128 0x1f
 4959 01bb 0B       		.uleb128 0xb
 4960 01bc 01       		.byte	0x1
 4961 01bd 11       		.uleb128 0x11
 4962 01be 01       		.uleb128 0x1
 4963 01bf 12       		.uleb128 0x12
 4964 01c0 06       		.uleb128 0x6
 4965 01c1 00       		.byte	0
 4966 01c2 00       		.byte	0
 4967 01c3 20       		.uleb128 0x20
 4968 01c4 2E       		.uleb128 0x2e
 4969 01c5 01       		.byte	0x1
ARM GAS  C:\Users\cring\AppData\Local\Temp\ccGk4Etb.s 			page 100


 4970 01c6 3F       		.uleb128 0x3f
 4971 01c7 19       		.uleb128 0x19
 4972 01c8 03       		.uleb128 0x3
 4973 01c9 0E       		.uleb128 0xe
 4974 01ca 3A       		.uleb128 0x3a
 4975 01cb 0B       		.uleb128 0xb
 4976 01cc 3B       		.uleb128 0x3b
 4977 01cd 05       		.uleb128 0x5
 4978 01ce 27       		.uleb128 0x27
 4979 01cf 19       		.uleb128 0x19
 4980 01d0 49       		.uleb128 0x49
 4981 01d1 13       		.uleb128 0x13
 4982 01d2 11       		.uleb128 0x11
 4983 01d3 01       		.uleb128 0x1
 4984 01d4 12       		.uleb128 0x12
 4985 01d5 06       		.uleb128 0x6
 4986 01d6 40       		.uleb128 0x40
 4987 01d7 18       		.uleb128 0x18
 4988 01d8 9742     		.uleb128 0x2117
 4989 01da 19       		.uleb128 0x19
 4990 01db 01       		.uleb128 0x1
 4991 01dc 13       		.uleb128 0x13
 4992 01dd 00       		.byte	0
 4993 01de 00       		.byte	0
 4994 01df 21       		.uleb128 0x21
 4995 01e0 34       		.uleb128 0x34
 4996 01e1 00       		.byte	0
 4997 01e2 03       		.uleb128 0x3
 4998 01e3 0E       		.uleb128 0xe
 4999 01e4 3A       		.uleb128 0x3a
 5000 01e5 0B       		.uleb128 0xb
 5001 01e6 3B       		.uleb128 0x3b
 5002 01e7 0B       		.uleb128 0xb
 5003 01e8 49       		.uleb128 0x49
 5004 01e9 13       		.uleb128 0x13
 5005 01ea 02       		.uleb128 0x2
 5006 01eb 18       		.uleb128 0x18
 5007 01ec 00       		.byte	0
 5008 01ed 00       		.byte	0
 5009 01ee 22       		.uleb128 0x22
 5010 01ef 34       		.uleb128 0x34
 5011 01f0 00       		.byte	0
 5012 01f1 03       		.uleb128 0x3
 5013 01f2 0E       		.uleb128 0xe
 5014 01f3 3A       		.uleb128 0x3a
 5015 01f4 0B       		.uleb128 0xb
 5016 01f5 3B       		.uleb128 0x3b
 5017 01f6 05       		.uleb128 0x5
 5018 01f7 49       		.uleb128 0x49
 5019 01f8 13       		.uleb128 0x13
 5020 01f9 3F       		.uleb128 0x3f
 5021 01fa 19       		.uleb128 0x19
 5022 01fb 3C       		.uleb128 0x3c
 5023 01fc 19       		.uleb128 0x19
 5024 01fd 00       		.byte	0
 5025 01fe 00       		.byte	0
 5026 01ff 23       		.uleb128 0x23
ARM GAS  C:\Users\cring\AppData\Local\Temp\ccGk4Etb.s 			page 101


 5027 0200 35       		.uleb128 0x35
 5028 0201 00       		.byte	0
 5029 0202 49       		.uleb128 0x49
 5030 0203 13       		.uleb128 0x13
 5031 0204 00       		.byte	0
 5032 0205 00       		.byte	0
 5033 0206 24       		.uleb128 0x24
 5034 0207 34       		.uleb128 0x34
 5035 0208 00       		.byte	0
 5036 0209 03       		.uleb128 0x3
 5037 020a 0E       		.uleb128 0xe
 5038 020b 3A       		.uleb128 0x3a
 5039 020c 0B       		.uleb128 0xb
 5040 020d 3B       		.uleb128 0x3b
 5041 020e 0B       		.uleb128 0xb
 5042 020f 49       		.uleb128 0x49
 5043 0210 13       		.uleb128 0x13
 5044 0211 3F       		.uleb128 0x3f
 5045 0212 19       		.uleb128 0x19
 5046 0213 02       		.uleb128 0x2
 5047 0214 18       		.uleb128 0x18
 5048 0215 00       		.byte	0
 5049 0216 00       		.byte	0
 5050 0217 25       		.uleb128 0x25
 5051 0218 2E       		.uleb128 0x2e
 5052 0219 00       		.byte	0
 5053 021a 3F       		.uleb128 0x3f
 5054 021b 19       		.uleb128 0x19
 5055 021c 3C       		.uleb128 0x3c
 5056 021d 19       		.uleb128 0x19
 5057 021e 6E       		.uleb128 0x6e
 5058 021f 0E       		.uleb128 0xe
 5059 0220 03       		.uleb128 0x3
 5060 0221 0E       		.uleb128 0xe
 5061 0222 3A       		.uleb128 0x3a
 5062 0223 0B       		.uleb128 0xb
 5063 0224 3B       		.uleb128 0x3b
 5064 0225 0B       		.uleb128 0xb
 5065 0226 00       		.byte	0
 5066 0227 00       		.byte	0
 5067 0228 00       		.byte	0
 5068              		.section	.debug_loc,"",%progbits
 5069              	.Ldebug_loc0:
 5070              	.LLST0:
 5071 0000 00000000 		.4byte	.LVL0
 5072 0004 05000000 		.4byte	.LVL1-1
 5073 0008 0100     		.2byte	0x1
 5074 000a 50       		.byte	0x50
 5075 000b 05000000 		.4byte	.LVL1-1
 5076 000f 20000000 		.4byte	.LVL5
 5077 0013 0400     		.2byte	0x4
 5078 0015 F3       		.byte	0xf3
 5079 0016 01       		.uleb128 0x1
 5080 0017 50       		.byte	0x50
 5081 0018 9F       		.byte	0x9f
 5082 0019 20000000 		.4byte	.LVL5
 5083 001d 22000000 		.4byte	.LVL6
ARM GAS  C:\Users\cring\AppData\Local\Temp\ccGk4Etb.s 			page 102


 5084 0021 0100     		.2byte	0x1
 5085 0023 50       		.byte	0x50
 5086 0024 00000000 		.4byte	0
 5087 0028 00000000 		.4byte	0
 5088              	.LLST1:
 5089 002c 00000000 		.4byte	.LVL8
 5090 0030 0C000000 		.4byte	.LVL10
 5091 0034 0100     		.2byte	0x1
 5092 0036 50       		.byte	0x50
 5093 0037 0C000000 		.4byte	.LVL10
 5094 003b 16000000 		.4byte	.LVL12
 5095 003f 0100     		.2byte	0x1
 5096 0041 55       		.byte	0x55
 5097 0042 16000000 		.4byte	.LVL12
 5098 0046 2C000000 		.4byte	.LFE74
 5099 004a 0400     		.2byte	0x4
 5100 004c F3       		.byte	0xf3
 5101 004d 01       		.uleb128 0x1
 5102 004e 50       		.byte	0x50
 5103 004f 9F       		.byte	0x9f
 5104 0050 00000000 		.4byte	0
 5105 0054 00000000 		.4byte	0
 5106              	.LLST2:
 5107 0058 00000000 		.4byte	.LVL8
 5108 005c 0A000000 		.4byte	.LVL9
 5109 0060 0100     		.2byte	0x1
 5110 0062 51       		.byte	0x51
 5111 0063 0A000000 		.4byte	.LVL9
 5112 0067 2C000000 		.4byte	.LFE74
 5113 006b 0400     		.2byte	0x4
 5114 006d F3       		.byte	0xf3
 5115 006e 01       		.uleb128 0x1
 5116 006f 51       		.byte	0x51
 5117 0070 9F       		.byte	0x9f
 5118 0071 00000000 		.4byte	0
 5119 0075 00000000 		.4byte	0
 5120              	.LLST3:
 5121 0079 00000000 		.4byte	.LVL8
 5122 007d 11000000 		.4byte	.LVL11-1
 5123 0081 0100     		.2byte	0x1
 5124 0083 52       		.byte	0x52
 5125 0084 11000000 		.4byte	.LVL11-1
 5126 0088 22000000 		.4byte	.LVL14
 5127 008c 0100     		.2byte	0x1
 5128 008e 54       		.byte	0x54
 5129 008f 22000000 		.4byte	.LVL14
 5130 0093 2C000000 		.4byte	.LFE74
 5131 0097 0400     		.2byte	0x4
 5132 0099 F3       		.byte	0xf3
 5133 009a 01       		.uleb128 0x1
 5134 009b 52       		.byte	0x52
 5135 009c 9F       		.byte	0x9f
 5136 009d 00000000 		.4byte	0
 5137 00a1 00000000 		.4byte	0
 5138              	.LLST4:
 5139 00a5 00000000 		.4byte	.LVL16
 5140 00a9 1C000000 		.4byte	.LVL18
ARM GAS  C:\Users\cring\AppData\Local\Temp\ccGk4Etb.s 			page 103


 5141 00ad 0600     		.2byte	0x6
 5142 00af 50       		.byte	0x50
 5143 00b0 93       		.byte	0x93
 5144 00b1 04       		.uleb128 0x4
 5145 00b2 51       		.byte	0x51
 5146 00b3 93       		.byte	0x93
 5147 00b4 04       		.uleb128 0x4
 5148 00b5 1C000000 		.4byte	.LVL18
 5149 00b9 34020000 		.4byte	.LFE76
 5150 00bd 0600     		.2byte	0x6
 5151 00bf F3       		.byte	0xf3
 5152 00c0 03       		.uleb128 0x3
 5153 00c1 F5       		.byte	0xf5
 5154 00c2 00       		.uleb128 0
 5155 00c3 25       		.uleb128 0x25
 5156 00c4 9F       		.byte	0x9f
 5157 00c5 00000000 		.4byte	0
 5158 00c9 00000000 		.4byte	0
 5159              	.LLST5:
 5160 00cd 00000000 		.4byte	.LVL16
 5161 00d1 16000000 		.4byte	.LVL17
 5162 00d5 0600     		.2byte	0x6
 5163 00d7 52       		.byte	0x52
 5164 00d8 93       		.byte	0x93
 5165 00d9 04       		.uleb128 0x4
 5166 00da 53       		.byte	0x53
 5167 00db 93       		.byte	0x93
 5168 00dc 04       		.uleb128 0x4
 5169 00dd 16000000 		.4byte	.LVL17
 5170 00e1 34020000 		.4byte	.LFE76
 5171 00e5 0600     		.2byte	0x6
 5172 00e7 F3       		.byte	0xf3
 5173 00e8 03       		.uleb128 0x3
 5174 00e9 F5       		.byte	0xf5
 5175 00ea 02       		.uleb128 0x2
 5176 00eb 25       		.uleb128 0x25
 5177 00ec 9F       		.byte	0x9f
 5178 00ed 00000000 		.4byte	0
 5179 00f1 00000000 		.4byte	0
 5180              	.LLST6:
 5181 00f5 00000000 		.4byte	.LVL16
 5182 00f9 20020000 		.4byte	.LVL91
 5183 00fd 0200     		.2byte	0x2
 5184 00ff 91       		.byte	0x91
 5185 0100 00       		.sleb128 0
 5186 0101 20020000 		.4byte	.LVL91
 5187 0105 34020000 		.4byte	.LFE76
 5188 0109 0200     		.2byte	0x2
 5189 010b 7D       		.byte	0x7d
 5190 010c 00       		.sleb128 0
 5191 010d 00000000 		.4byte	0
 5192 0111 00000000 		.4byte	0
 5193              	.LLST7:
 5194 0115 00000000 		.4byte	.LVL16
 5195 0119 20020000 		.4byte	.LVL91
 5196 011d 0200     		.2byte	0x2
 5197 011f 91       		.byte	0x91
ARM GAS  C:\Users\cring\AppData\Local\Temp\ccGk4Etb.s 			page 104


 5198 0120 08       		.sleb128 8
 5199 0121 20020000 		.4byte	.LVL91
 5200 0125 34020000 		.4byte	.LFE76
 5201 0129 0200     		.2byte	0x2
 5202 012b 7D       		.byte	0x7d
 5203 012c 08       		.sleb128 8
 5204 012d 00000000 		.4byte	0
 5205 0131 00000000 		.4byte	0
 5206              	.LLST8:
 5207 0135 00000000 		.4byte	.LVL16
 5208 0139 20020000 		.4byte	.LVL91
 5209 013d 0200     		.2byte	0x2
 5210 013f 91       		.byte	0x91
 5211 0140 0C       		.sleb128 12
 5212 0141 20020000 		.4byte	.LVL91
 5213 0145 34020000 		.4byte	.LFE76
 5214 0149 0200     		.2byte	0x2
 5215 014b 7D       		.byte	0x7d
 5216 014c 0C       		.sleb128 12
 5217 014d 00000000 		.4byte	0
 5218 0151 00000000 		.4byte	0
 5219              	.LLST9:
 5220 0155 54000000 		.4byte	.LVL22
 5221 0159 64000000 		.4byte	.LVL24
 5222 015d 0600     		.2byte	0x6
 5223 015f 54       		.byte	0x54
 5224 0160 93       		.byte	0x93
 5225 0161 04       		.uleb128 0x4
 5226 0162 55       		.byte	0x55
 5227 0163 93       		.byte	0x93
 5228 0164 04       		.uleb128 0x4
 5229 0165 66000000 		.4byte	.LVL25
 5230 0169 74000000 		.4byte	.LVL27
 5231 016d 0600     		.2byte	0x6
 5232 016f 54       		.byte	0x54
 5233 0170 93       		.byte	0x93
 5234 0171 04       		.uleb128 0x4
 5235 0172 55       		.byte	0x55
 5236 0173 93       		.byte	0x93
 5237 0174 04       		.uleb128 0x4
 5238 0175 76000000 		.4byte	.LVL28
 5239 0179 8E000000 		.4byte	.LVL33
 5240 017d 0600     		.2byte	0x6
 5241 017f 54       		.byte	0x54
 5242 0180 93       		.byte	0x93
 5243 0181 04       		.uleb128 0x4
 5244 0182 55       		.byte	0x55
 5245 0183 93       		.byte	0x93
 5246 0184 04       		.uleb128 0x4
 5247 0185 00000000 		.4byte	0
 5248 0189 00000000 		.4byte	0
 5249              	.LLST10:
 5250 018d AC000000 		.4byte	.LVL37
 5251 0191 B6000000 		.4byte	.LVL38
 5252 0195 0600     		.2byte	0x6
 5253 0197 50       		.byte	0x50
 5254 0198 93       		.byte	0x93
ARM GAS  C:\Users\cring\AppData\Local\Temp\ccGk4Etb.s 			page 105


 5255 0199 04       		.uleb128 0x4
 5256 019a 51       		.byte	0x51
 5257 019b 93       		.byte	0x93
 5258 019c 04       		.uleb128 0x4
 5259 019d B6000000 		.4byte	.LVL38
 5260 01a1 28010000 		.4byte	.LVL51
 5261 01a5 0200     		.2byte	0x2
 5262 01a7 7D       		.byte	0x7d
 5263 01a8 00       		.sleb128 0
 5264 01a9 2A010000 		.4byte	.LVL52
 5265 01ad 3A010000 		.4byte	.LVL55
 5266 01b1 0200     		.2byte	0x2
 5267 01b3 7D       		.byte	0x7d
 5268 01b4 00       		.sleb128 0
 5269 01b5 40010000 		.4byte	.LVL57
 5270 01b9 50010000 		.4byte	.LVL60
 5271 01bd 0200     		.2byte	0x2
 5272 01bf 7D       		.byte	0x7d
 5273 01c0 00       		.sleb128 0
 5274 01c1 56010000 		.4byte	.LVL62
 5275 01c5 6A010000 		.4byte	.LVL66
 5276 01c9 0200     		.2byte	0x2
 5277 01cb 7D       		.byte	0x7d
 5278 01cc 00       		.sleb128 0
 5279 01cd 00000000 		.4byte	0
 5280 01d1 00000000 		.4byte	0
 5281              	.LLST11:
 5282 01d5 D8000000 		.4byte	.LVL43
 5283 01d9 1A010000 		.4byte	.LVL48
 5284 01dd 0600     		.2byte	0x6
 5285 01df 54       		.byte	0x54
 5286 01e0 93       		.byte	0x93
 5287 01e1 04       		.uleb128 0x4
 5288 01e2 55       		.byte	0x55
 5289 01e3 93       		.byte	0x93
 5290 01e4 04       		.uleb128 0x4
 5291 01e5 20010000 		.4byte	.LVL49
 5292 01e9 24010000 		.4byte	.LVL50
 5293 01ed 0600     		.2byte	0x6
 5294 01ef 54       		.byte	0x54
 5295 01f0 93       		.byte	0x93
 5296 01f1 04       		.uleb128 0x4
 5297 01f2 55       		.byte	0x55
 5298 01f3 93       		.byte	0x93
 5299 01f4 04       		.uleb128 0x4
 5300 01f5 2A010000 		.4byte	.LVL52
 5301 01f9 32010000 		.4byte	.LVL53
 5302 01fd 0600     		.2byte	0x6
 5303 01ff 54       		.byte	0x54
 5304 0200 93       		.byte	0x93
 5305 0201 04       		.uleb128 0x4
 5306 0202 55       		.byte	0x55
 5307 0203 93       		.byte	0x93
 5308 0204 04       		.uleb128 0x4
 5309 0205 40010000 		.4byte	.LVL57
 5310 0209 48010000 		.4byte	.LVL58
 5311 020d 0600     		.2byte	0x6
ARM GAS  C:\Users\cring\AppData\Local\Temp\ccGk4Etb.s 			page 106


 5312 020f 54       		.byte	0x54
 5313 0210 93       		.byte	0x93
 5314 0211 04       		.uleb128 0x4
 5315 0212 55       		.byte	0x55
 5316 0213 93       		.byte	0x93
 5317 0214 04       		.uleb128 0x4
 5318 0215 56010000 		.4byte	.LVL62
 5319 0219 5E010000 		.4byte	.LVL63
 5320 021d 0600     		.2byte	0x6
 5321 021f 54       		.byte	0x54
 5322 0220 93       		.byte	0x93
 5323 0221 04       		.uleb128 0x4
 5324 0222 55       		.byte	0x55
 5325 0223 93       		.byte	0x93
 5326 0224 04       		.uleb128 0x4
 5327 0225 00000000 		.4byte	0
 5328 0229 00000000 		.4byte	0
 5329              	.LLST12:
 5330 022d 08010000 		.4byte	.LVL47
 5331 0231 36010000 		.4byte	.LVL54
 5332 0235 0600     		.2byte	0x6
 5333 0237 50       		.byte	0x50
 5334 0238 93       		.byte	0x93
 5335 0239 04       		.uleb128 0x4
 5336 023a 51       		.byte	0x51
 5337 023b 93       		.byte	0x93
 5338 023c 04       		.uleb128 0x4
 5339 023d 40010000 		.4byte	.LVL57
 5340 0241 62010000 		.4byte	.LVL64
 5341 0245 0600     		.2byte	0x6
 5342 0247 50       		.byte	0x50
 5343 0248 93       		.byte	0x93
 5344 0249 04       		.uleb128 0x4
 5345 024a 51       		.byte	0x51
 5346 024b 93       		.byte	0x93
 5347 024c 04       		.uleb128 0x4
 5348 024d 00000000 		.4byte	0
 5349 0251 00000000 		.4byte	0
 5350              	.LLST13:
 5351 0255 90000000 		.4byte	.LVL34
 5352 0259 D6000000 		.4byte	.LVL42
 5353 025d 0600     		.2byte	0x6
 5354 025f 54       		.byte	0x54
 5355 0260 93       		.byte	0x93
 5356 0261 04       		.uleb128 0x4
 5357 0262 55       		.byte	0x55
 5358 0263 93       		.byte	0x93
 5359 0264 04       		.uleb128 0x4
 5360 0265 D6000000 		.4byte	.LVL42
 5361 0269 1A020000 		.4byte	.LVL90
 5362 026d 0200     		.2byte	0x2
 5363 026f 91       		.byte	0x91
 5364 0270 58       		.sleb128 -40
 5365 0271 00000000 		.4byte	0
 5366 0275 00000000 		.4byte	0
 5367              	.LLST14:
 5368 0279 20010000 		.4byte	.LVL49
ARM GAS  C:\Users\cring\AppData\Local\Temp\ccGk4Etb.s 			page 107


 5369 027d 28010000 		.4byte	.LVL51
 5370 0281 0200     		.2byte	0x2
 5371 0283 7D       		.byte	0x7d
 5372 0284 00       		.sleb128 0
 5373 0285 28010000 		.4byte	.LVL51
 5374 0289 2A010000 		.4byte	.LVL52
 5375 028d 0600     		.2byte	0x6
 5376 028f 54       		.byte	0x54
 5377 0290 93       		.byte	0x93
 5378 0291 04       		.uleb128 0x4
 5379 0292 55       		.byte	0x55
 5380 0293 93       		.byte	0x93
 5381 0294 04       		.uleb128 0x4
 5382 0295 2A010000 		.4byte	.LVL52
 5383 0299 3A010000 		.4byte	.LVL55
 5384 029d 0200     		.2byte	0x2
 5385 029f 7D       		.byte	0x7d
 5386 02a0 00       		.sleb128 0
 5387 02a1 3A010000 		.4byte	.LVL55
 5388 02a5 40010000 		.4byte	.LVL57
 5389 02a9 0600     		.2byte	0x6
 5390 02ab 54       		.byte	0x54
 5391 02ac 93       		.byte	0x93
 5392 02ad 04       		.uleb128 0x4
 5393 02ae 55       		.byte	0x55
 5394 02af 93       		.byte	0x93
 5395 02b0 04       		.uleb128 0x4
 5396 02b1 40010000 		.4byte	.LVL57
 5397 02b5 56010000 		.4byte	.LVL62
 5398 02b9 0600     		.2byte	0x6
 5399 02bb 50       		.byte	0x50
 5400 02bc 93       		.byte	0x93
 5401 02bd 04       		.uleb128 0x4
 5402 02be 51       		.byte	0x51
 5403 02bf 93       		.byte	0x93
 5404 02c0 04       		.uleb128 0x4
 5405 02c1 56010000 		.4byte	.LVL62
 5406 02c5 66010000 		.4byte	.LVL65
 5407 02c9 0200     		.2byte	0x2
 5408 02cb 91       		.byte	0x91
 5409 02cc 00       		.sleb128 0
 5410 02cd 66010000 		.4byte	.LVL65
 5411 02d1 80010000 		.4byte	.LVL69
 5412 02d5 0600     		.2byte	0x6
 5413 02d7 54       		.byte	0x54
 5414 02d8 93       		.byte	0x93
 5415 02d9 04       		.uleb128 0x4
 5416 02da 55       		.byte	0x55
 5417 02db 93       		.byte	0x93
 5418 02dc 04       		.uleb128 0x4
 5419 02dd 82010000 		.4byte	.LVL70
 5420 02e1 C2010000 		.4byte	.LVL79
 5421 02e5 0600     		.2byte	0x6
 5422 02e7 54       		.byte	0x54
 5423 02e8 93       		.byte	0x93
 5424 02e9 04       		.uleb128 0x4
 5425 02ea 55       		.byte	0x55
ARM GAS  C:\Users\cring\AppData\Local\Temp\ccGk4Etb.s 			page 108


 5426 02eb 93       		.byte	0x93
 5427 02ec 04       		.uleb128 0x4
 5428 02ed C4010000 		.4byte	.LVL80
 5429 02f1 1A020000 		.4byte	.LVL90
 5430 02f5 0600     		.2byte	0x6
 5431 02f7 54       		.byte	0x54
 5432 02f8 93       		.byte	0x93
 5433 02f9 04       		.uleb128 0x4
 5434 02fa 55       		.byte	0x55
 5435 02fb 93       		.byte	0x93
 5436 02fc 04       		.uleb128 0x4
 5437 02fd 00000000 		.4byte	0
 5438 0301 00000000 		.4byte	0
 5439              	.LLST15:
 5440 0305 20010000 		.4byte	.LVL49
 5441 0309 2A010000 		.4byte	.LVL52
 5442 030d 0200     		.2byte	0x2
 5443 030f 91       		.byte	0x91
 5444 0310 00       		.sleb128 0
 5445 0311 2A010000 		.4byte	.LVL52
 5446 0315 32010000 		.4byte	.LVL53
 5447 0319 0600     		.2byte	0x6
 5448 031b 54       		.byte	0x54
 5449 031c 93       		.byte	0x93
 5450 031d 04       		.uleb128 0x4
 5451 031e 55       		.byte	0x55
 5452 031f 93       		.byte	0x93
 5453 0320 04       		.uleb128 0x4
 5454 0321 40010000 		.4byte	.LVL57
 5455 0325 50010000 		.4byte	.LVL60
 5456 0329 0200     		.2byte	0x2
 5457 032b 7D       		.byte	0x7d
 5458 032c 00       		.sleb128 0
 5459 032d 50010000 		.4byte	.LVL60
 5460 0331 52010000 		.4byte	.LVL61
 5461 0335 0600     		.2byte	0x6
 5462 0337 54       		.byte	0x54
 5463 0338 93       		.byte	0x93
 5464 0339 04       		.uleb128 0x4
 5465 033a 55       		.byte	0x55
 5466 033b 93       		.byte	0x93
 5467 033c 04       		.uleb128 0x4
 5468 033d 52010000 		.4byte	.LVL61
 5469 0341 56010000 		.4byte	.LVL62
 5470 0345 0200     		.2byte	0x2
 5471 0347 91       		.byte	0x91
 5472 0348 00       		.sleb128 0
 5473 0349 56010000 		.4byte	.LVL62
 5474 034d 6A010000 		.4byte	.LVL66
 5475 0351 0200     		.2byte	0x2
 5476 0353 7D       		.byte	0x7d
 5477 0354 00       		.sleb128 0
 5478 0355 6A010000 		.4byte	.LVL66
 5479 0359 9A010000 		.4byte	.LVL73
 5480 035d 0200     		.2byte	0x2
 5481 035f 91       		.byte	0x91
 5482 0360 00       		.sleb128 0
ARM GAS  C:\Users\cring\AppData\Local\Temp\ccGk4Etb.s 			page 109


 5483 0361 9A010000 		.4byte	.LVL73
 5484 0365 D6010000 		.4byte	.LVL82
 5485 0369 0600     		.2byte	0x6
 5486 036b 58       		.byte	0x58
 5487 036c 93       		.byte	0x93
 5488 036d 04       		.uleb128 0x4
 5489 036e 59       		.byte	0x59
 5490 036f 93       		.byte	0x93
 5491 0370 04       		.uleb128 0x4
 5492 0371 DA010000 		.4byte	.LVL83
 5493 0375 1A020000 		.4byte	.LVL90
 5494 0379 0600     		.2byte	0x6
 5495 037b 58       		.byte	0x58
 5496 037c 93       		.byte	0x93
 5497 037d 04       		.uleb128 0x4
 5498 037e 59       		.byte	0x59
 5499 037f 93       		.byte	0x93
 5500 0380 04       		.uleb128 0x4
 5501 0381 00000000 		.4byte	0
 5502 0385 00000000 		.4byte	0
 5503              	.LLST16:
 5504 0389 20010000 		.4byte	.LVL49
 5505 038d 2A010000 		.4byte	.LVL52
 5506 0391 0600     		.2byte	0x6
 5507 0393 50       		.byte	0x50
 5508 0394 93       		.byte	0x93
 5509 0395 04       		.uleb128 0x4
 5510 0396 51       		.byte	0x51
 5511 0397 93       		.byte	0x93
 5512 0398 04       		.uleb128 0x4
 5513 0399 2A010000 		.4byte	.LVL52
 5514 039d 3E010000 		.4byte	.LVL56
 5515 03a1 0200     		.2byte	0x2
 5516 03a3 91       		.byte	0x91
 5517 03a4 00       		.sleb128 0
 5518 03a5 3E010000 		.4byte	.LVL56
 5519 03a9 40010000 		.4byte	.LVL57
 5520 03ad 0600     		.2byte	0x6
 5521 03af 50       		.byte	0x50
 5522 03b0 93       		.byte	0x93
 5523 03b1 04       		.uleb128 0x4
 5524 03b2 51       		.byte	0x51
 5525 03b3 93       		.byte	0x93
 5526 03b4 04       		.uleb128 0x4
 5527 03b5 40010000 		.4byte	.LVL57
 5528 03b9 4C010000 		.4byte	.LVL59
 5529 03bd 0200     		.2byte	0x2
 5530 03bf 91       		.byte	0x91
 5531 03c0 00       		.sleb128 0
 5532 03c1 4C010000 		.4byte	.LVL59
 5533 03c5 56010000 		.4byte	.LVL62
 5534 03c9 0600     		.2byte	0x6
 5535 03cb 52       		.byte	0x52
 5536 03cc 93       		.byte	0x93
 5537 03cd 04       		.uleb128 0x4
 5538 03ce 53       		.byte	0x53
 5539 03cf 93       		.byte	0x93
ARM GAS  C:\Users\cring\AppData\Local\Temp\ccGk4Etb.s 			page 110


 5540 03d0 04       		.uleb128 0x4
 5541 03d1 56010000 		.4byte	.LVL62
 5542 03d5 5E010000 		.4byte	.LVL63
 5543 03d9 0600     		.2byte	0x6
 5544 03db 54       		.byte	0x54
 5545 03dc 93       		.byte	0x93
 5546 03dd 04       		.uleb128 0x4
 5547 03de 55       		.byte	0x55
 5548 03df 93       		.byte	0x93
 5549 03e0 04       		.uleb128 0x4
 5550 03e1 6A010000 		.4byte	.LVL66
 5551 03e5 B2010000 		.4byte	.LVL76
 5552 03e9 0200     		.2byte	0x2
 5553 03eb 7D       		.byte	0x7d
 5554 03ec 00       		.sleb128 0
 5555 03ed B2010000 		.4byte	.LVL76
 5556 03f1 B8010000 		.4byte	.LVL77
 5557 03f5 0600     		.2byte	0x6
 5558 03f7 50       		.byte	0x50
 5559 03f8 93       		.byte	0x93
 5560 03f9 04       		.uleb128 0x4
 5561 03fa 51       		.byte	0x51
 5562 03fb 93       		.byte	0x93
 5563 03fc 04       		.uleb128 0x4
 5564 03fd B8010000 		.4byte	.LVL77
 5565 0401 1A020000 		.4byte	.LVL90
 5566 0405 0200     		.2byte	0x2
 5567 0407 7D       		.byte	0x7d
 5568 0408 00       		.sleb128 0
 5569 0409 00000000 		.4byte	0
 5570 040d 00000000 		.4byte	0
 5571              	.LLST17:
 5572 0411 7C000000 		.4byte	.LVL30
 5573 0415 7F000000 		.4byte	.LVL31-1
 5574 0419 0100     		.2byte	0x1
 5575 041b 50       		.byte	0x50
 5576 041c 7F000000 		.4byte	.LVL31-1
 5577 0420 FA010000 		.4byte	.LVL86
 5578 0424 0100     		.2byte	0x1
 5579 0426 57       		.byte	0x57
 5580 0427 00000000 		.4byte	0
 5581 042b 00000000 		.4byte	0
 5582              	.LLST18:
 5583 042f 00000000 		.4byte	.LVL92
 5584 0433 0C000000 		.4byte	.LVL93
 5585 0437 0100     		.2byte	0x1
 5586 0439 50       		.byte	0x50
 5587 043a 0C000000 		.4byte	.LVL93
 5588 043e 14000000 		.4byte	.LVL95
 5589 0442 0100     		.2byte	0x1
 5590 0444 56       		.byte	0x56
 5591 0445 14000000 		.4byte	.LVL95
 5592 0449 1A000000 		.4byte	.LVL96
 5593 044d 0100     		.2byte	0x1
 5594 044f 50       		.byte	0x50
 5595 0450 1A000000 		.4byte	.LVL96
 5596 0454 54000000 		.4byte	.LFE77
ARM GAS  C:\Users\cring\AppData\Local\Temp\ccGk4Etb.s 			page 111


 5597 0458 0100     		.2byte	0x1
 5598 045a 56       		.byte	0x56
 5599 045b 00000000 		.4byte	0
 5600 045f 00000000 		.4byte	0
 5601              	.LLST19:
 5602 0463 20000000 		.4byte	.LVL98
 5603 0467 52000000 		.4byte	.LVL106
 5604 046b 0100     		.2byte	0x1
 5605 046d 55       		.byte	0x55
 5606 046e 00000000 		.4byte	0
 5607 0472 00000000 		.4byte	0
 5608              	.LLST20:
 5609 0476 00000000 		.4byte	.LVL113
 5610 047a 17000000 		.4byte	.LVL114-1
 5611 047e 0600     		.2byte	0x6
 5612 0480 50       		.byte	0x50
 5613 0481 93       		.byte	0x93
 5614 0482 04       		.uleb128 0x4
 5615 0483 51       		.byte	0x51
 5616 0484 93       		.byte	0x93
 5617 0485 04       		.uleb128 0x4
 5618 0486 17000000 		.4byte	.LVL114-1
 5619 048a 32010000 		.4byte	.LFE78
 5620 048e 0600     		.2byte	0x6
 5621 0490 F3       		.byte	0xf3
 5622 0491 03       		.uleb128 0x3
 5623 0492 F5       		.byte	0xf5
 5624 0493 00       		.uleb128 0
 5625 0494 25       		.uleb128 0x25
 5626 0495 9F       		.byte	0x9f
 5627 0496 00000000 		.4byte	0
 5628 049a 00000000 		.4byte	0
 5629              	.LLST21:
 5630 049e 00000000 		.4byte	.LVL113
 5631 04a2 17000000 		.4byte	.LVL114-1
 5632 04a6 0600     		.2byte	0x6
 5633 04a8 52       		.byte	0x52
 5634 04a9 93       		.byte	0x93
 5635 04aa 04       		.uleb128 0x4
 5636 04ab 53       		.byte	0x53
 5637 04ac 93       		.byte	0x93
 5638 04ad 04       		.uleb128 0x4
 5639 04ae 17000000 		.4byte	.LVL114-1
 5640 04b2 32010000 		.4byte	.LFE78
 5641 04b6 0600     		.2byte	0x6
 5642 04b8 F3       		.byte	0xf3
 5643 04b9 03       		.uleb128 0x3
 5644 04ba F5       		.byte	0xf5
 5645 04bb 02       		.uleb128 0x2
 5646 04bc 25       		.uleb128 0x25
 5647 04bd 9F       		.byte	0x9f
 5648 04be 00000000 		.4byte	0
 5649 04c2 00000000 		.4byte	0
 5650              	.LLST22:
 5651 04c6 22000000 		.4byte	.LVL115
 5652 04ca 82000000 		.4byte	.LVL124
 5653 04ce 0100     		.2byte	0x1
ARM GAS  C:\Users\cring\AppData\Local\Temp\ccGk4Etb.s 			page 112


 5654 04d0 51       		.byte	0x51
 5655 04d1 82000000 		.4byte	.LVL124
 5656 04d5 32010000 		.4byte	.LFE78
 5657 04d9 0200     		.2byte	0x2
 5658 04db 75       		.byte	0x75
 5659 04dc 00       		.sleb128 0
 5660 04dd 00000000 		.4byte	0
 5661 04e1 00000000 		.4byte	0
 5662              	.LLST23:
 5663 04e5 24000000 		.4byte	.LVL116
 5664 04e9 2A000000 		.4byte	.LVL118
 5665 04ed 0100     		.2byte	0x1
 5666 04ef 50       		.byte	0x50
 5667 04f0 2A000000 		.4byte	.LVL118
 5668 04f4 32010000 		.4byte	.LFE78
 5669 04f8 0200     		.2byte	0x2
 5670 04fa 75       		.byte	0x75
 5671 04fb 04       		.sleb128 4
 5672 04fc 00000000 		.4byte	0
 5673 0500 00000000 		.4byte	0
 5674              	.LLST24:
 5675 0504 26000000 		.4byte	.LVL117
 5676 0508 DA000000 		.4byte	.LVL130
 5677 050c 0100     		.2byte	0x1
 5678 050e 52       		.byte	0x52
 5679 050f DA000000 		.4byte	.LVL130
 5680 0513 32010000 		.4byte	.LFE78
 5681 0517 0200     		.2byte	0x2
 5682 0519 75       		.byte	0x75
 5683 051a 08       		.sleb128 8
 5684 051b 00000000 		.4byte	0
 5685 051f 00000000 		.4byte	0
 5686              	.LLST25:
 5687 0523 26000000 		.4byte	.LVL117
 5688 0527 58000000 		.4byte	.LVL122
 5689 052b 0100     		.2byte	0x1
 5690 052d 50       		.byte	0x50
 5691 052e 7E000000 		.4byte	.LVL123
 5692 0532 B0000000 		.4byte	.LVL128
 5693 0536 0100     		.2byte	0x1
 5694 0538 51       		.byte	0x51
 5695 0539 D6000000 		.4byte	.LVL129
 5696 053d 08010000 		.4byte	.LVL134
 5697 0541 0100     		.2byte	0x1
 5698 0543 52       		.byte	0x52
 5699 0544 00000000 		.4byte	0
 5700 0548 00000000 		.4byte	0
 5701              	.LLST26:
 5702 054c 26000000 		.4byte	.LVL117
 5703 0550 2A000000 		.4byte	.LVL118
 5704 0554 0200     		.2byte	0x2
 5705 0556 30       		.byte	0x30
 5706 0557 9F       		.byte	0x9f
 5707 0558 2A000000 		.4byte	.LVL118
 5708 055c 54000000 		.4byte	.LVL121
 5709 0560 0100     		.2byte	0x1
 5710 0562 53       		.byte	0x53
ARM GAS  C:\Users\cring\AppData\Local\Temp\ccGk4Etb.s 			page 113


 5711 0563 00000000 		.4byte	0
 5712 0567 00000000 		.4byte	0
 5713              	.LLST27:
 5714 056b 7E000000 		.4byte	.LVL123
 5715 056f 82000000 		.4byte	.LVL124
 5716 0573 0200     		.2byte	0x2
 5717 0575 30       		.byte	0x30
 5718 0576 9F       		.byte	0x9f
 5719 0577 82000000 		.4byte	.LVL124
 5720 057b AC000000 		.4byte	.LVL127
 5721 057f 0100     		.2byte	0x1
 5722 0581 53       		.byte	0x53
 5723 0582 00000000 		.4byte	0
 5724 0586 00000000 		.4byte	0
 5725              	.LLST28:
 5726 058a D6000000 		.4byte	.LVL129
 5727 058e DA000000 		.4byte	.LVL130
 5728 0592 0200     		.2byte	0x2
 5729 0594 30       		.byte	0x30
 5730 0595 9F       		.byte	0x9f
 5731 0596 DA000000 		.4byte	.LVL130
 5732 059a 04010000 		.4byte	.LVL133
 5733 059e 0100     		.2byte	0x1
 5734 05a0 53       		.byte	0x53
 5735 05a1 00000000 		.4byte	0
 5736 05a5 00000000 		.4byte	0
 5737              	.LLST29:
 5738 05a9 00000000 		.4byte	.LVL135
 5739 05ad 18000000 		.4byte	.LVL137
 5740 05b1 0600     		.2byte	0x6
 5741 05b3 50       		.byte	0x50
 5742 05b4 93       		.byte	0x93
 5743 05b5 04       		.uleb128 0x4
 5744 05b6 51       		.byte	0x51
 5745 05b7 93       		.byte	0x93
 5746 05b8 04       		.uleb128 0x4
 5747 05b9 18000000 		.4byte	.LVL137
 5748 05bd 3A000000 		.4byte	.LFE72
 5749 05c1 0600     		.2byte	0x6
 5750 05c3 F3       		.byte	0xf3
 5751 05c4 03       		.uleb128 0x3
 5752 05c5 F5       		.byte	0xf5
 5753 05c6 00       		.uleb128 0
 5754 05c7 25       		.uleb128 0x25
 5755 05c8 9F       		.byte	0x9f
 5756 05c9 00000000 		.4byte	0
 5757 05cd 00000000 		.4byte	0
 5758              	.LLST30:
 5759 05d1 00000000 		.4byte	.LVL135
 5760 05d5 18000000 		.4byte	.LVL137
 5761 05d9 0600     		.2byte	0x6
 5762 05db 52       		.byte	0x52
 5763 05dc 93       		.byte	0x93
 5764 05dd 04       		.uleb128 0x4
 5765 05de 53       		.byte	0x53
 5766 05df 93       		.byte	0x93
 5767 05e0 04       		.uleb128 0x4
ARM GAS  C:\Users\cring\AppData\Local\Temp\ccGk4Etb.s 			page 114


 5768 05e1 18000000 		.4byte	.LVL137
 5769 05e5 3A000000 		.4byte	.LFE72
 5770 05e9 0600     		.2byte	0x6
 5771 05eb F3       		.byte	0xf3
 5772 05ec 03       		.uleb128 0x3
 5773 05ed F5       		.byte	0xf5
 5774 05ee 02       		.uleb128 0x2
 5775 05ef 25       		.uleb128 0x25
 5776 05f0 9F       		.byte	0x9f
 5777 05f1 00000000 		.4byte	0
 5778 05f5 00000000 		.4byte	0
 5779              	.LLST31:
 5780 05f9 14000000 		.4byte	.LVL136
 5781 05fd 18000000 		.4byte	.LVL137
 5782 0601 0200     		.2byte	0x2
 5783 0603 30       		.byte	0x30
 5784 0604 9F       		.byte	0x9f
 5785 0605 18000000 		.4byte	.LVL137
 5786 0609 3A000000 		.4byte	.LFE72
 5787 060d 0100     		.2byte	0x1
 5788 060f 56       		.byte	0x56
 5789 0610 00000000 		.4byte	0
 5790 0614 00000000 		.4byte	0
 5791              	.LLST32:
 5792 0618 4E000000 		.4byte	.LVL162
 5793 061c 00010000 		.4byte	.LVL168
 5794 0620 0100     		.2byte	0x1
 5795 0622 54       		.byte	0x54
 5796 0623 00000000 		.4byte	0
 5797 0627 00000000 		.4byte	0
 5798              	.LLST33:
 5799 062b 66000000 		.4byte	.LVL163
 5800 062f 88000000 		.4byte	.LVL164
 5801 0633 0100     		.2byte	0x1
 5802 0635 55       		.byte	0x55
 5803 0636 00000000 		.4byte	0
 5804 063a 00000000 		.4byte	0
 5805              	.LLST34:
 5806 063e 9E000000 		.4byte	.LVL165
 5807 0642 C0000000 		.4byte	.LVL166
 5808 0646 0100     		.2byte	0x1
 5809 0648 55       		.byte	0x55
 5810 0649 00000000 		.4byte	0
 5811 064d 00000000 		.4byte	0
 5812              	.LLST35:
 5813 0651 00000000 		.4byte	.LVL169
 5814 0655 07000000 		.4byte	.LVL170-1
 5815 0659 0100     		.2byte	0x1
 5816 065b 50       		.byte	0x50
 5817 065c 07000000 		.4byte	.LVL170-1
 5818 0660 12000000 		.4byte	.LFE79
 5819 0664 0100     		.2byte	0x1
 5820 0666 54       		.byte	0x54
 5821 0667 00000000 		.4byte	0
 5822 066b 00000000 		.4byte	0
 5823              	.LLST36:
 5824 066f 00000000 		.4byte	.LVL171
ARM GAS  C:\Users\cring\AppData\Local\Temp\ccGk4Etb.s 			page 115


 5825 0673 1A000000 		.4byte	.LVL172
 5826 0677 0100     		.2byte	0x1
 5827 0679 50       		.byte	0x50
 5828 067a 1A000000 		.4byte	.LVL172
 5829 067e 1D000000 		.4byte	.LVL173-1
 5830 0682 0300     		.2byte	0x3
 5831 0684 70       		.byte	0x70
 5832 0685 C000     		.sleb128 64
 5833 0687 1D000000 		.4byte	.LVL173-1
 5834 068b 48000000 		.4byte	.LFE70
 5835 068f 0400     		.2byte	0x4
 5836 0691 F3       		.byte	0xf3
 5837 0692 01       		.uleb128 0x1
 5838 0693 50       		.byte	0x50
 5839 0694 9F       		.byte	0x9f
 5840 0695 00000000 		.4byte	0
 5841 0699 00000000 		.4byte	0
 5842              	.LLST37:
 5843 069d 00000000 		.4byte	.LVL171
 5844 06a1 1D000000 		.4byte	.LVL173-1
 5845 06a5 0100     		.2byte	0x1
 5846 06a7 51       		.byte	0x51
 5847 06a8 1D000000 		.4byte	.LVL173-1
 5848 06ac 42000000 		.4byte	.LVL177
 5849 06b0 0100     		.2byte	0x1
 5850 06b2 55       		.byte	0x55
 5851 06b3 42000000 		.4byte	.LVL177
 5852 06b7 48000000 		.4byte	.LFE70
 5853 06bb 0400     		.2byte	0x4
 5854 06bd F3       		.byte	0xf3
 5855 06be 01       		.uleb128 0x1
 5856 06bf 51       		.byte	0x51
 5857 06c0 9F       		.byte	0x9f
 5858 06c1 00000000 		.4byte	0
 5859 06c5 00000000 		.4byte	0
 5860              	.LLST38:
 5861 06c9 00000000 		.4byte	.LVL171
 5862 06cd 1D000000 		.4byte	.LVL173-1
 5863 06d1 0100     		.2byte	0x1
 5864 06d3 52       		.byte	0x52
 5865 06d4 1D000000 		.4byte	.LVL173-1
 5866 06d8 48000000 		.4byte	.LFE70
 5867 06dc 0400     		.2byte	0x4
 5868 06de F3       		.byte	0xf3
 5869 06df 01       		.uleb128 0x1
 5870 06e0 52       		.byte	0x52
 5871 06e1 9F       		.byte	0x9f
 5872 06e2 00000000 		.4byte	0
 5873 06e6 00000000 		.4byte	0
 5874              	.LLST39:
 5875 06ea 1E000000 		.4byte	.LVL173
 5876 06ee 22000000 		.4byte	.LVL174
 5877 06f2 0200     		.2byte	0x2
 5878 06f4 30       		.byte	0x30
 5879 06f5 9F       		.byte	0x9f
 5880 06f6 22000000 		.4byte	.LVL174
 5881 06fa 42000000 		.4byte	.LVL177
ARM GAS  C:\Users\cring\AppData\Local\Temp\ccGk4Etb.s 			page 116


 5882 06fe 0100     		.2byte	0x1
 5883 0700 54       		.byte	0x54
 5884 0701 00000000 		.4byte	0
 5885 0705 00000000 		.4byte	0
 5886              	.LLST40:
 5887 0709 00000000 		.4byte	.LVL178
 5888 070d 06000000 		.4byte	.LVL179
 5889 0711 0100     		.2byte	0x1
 5890 0713 50       		.byte	0x50
 5891 0714 06000000 		.4byte	.LVL179
 5892 0718 60000000 		.4byte	.LVL193
 5893 071c 0100     		.2byte	0x1
 5894 071e 55       		.byte	0x55
 5895 071f 60000000 		.4byte	.LVL193
 5896 0723 7C000000 		.4byte	.LFE71
 5897 0727 0400     		.2byte	0x4
 5898 0729 F3       		.byte	0xf3
 5899 072a 01       		.uleb128 0x1
 5900 072b 50       		.byte	0x50
 5901 072c 9F       		.byte	0x9f
 5902 072d 00000000 		.4byte	0
 5903 0731 00000000 		.4byte	0
 5904              	.LLST41:
 5905 0735 00000000 		.4byte	.LVL194
 5906 0739 18000000 		.4byte	.LVL195
 5907 073d 0600     		.2byte	0x6
 5908 073f 50       		.byte	0x50
 5909 0740 93       		.byte	0x93
 5910 0741 04       		.uleb128 0x4
 5911 0742 51       		.byte	0x51
 5912 0743 93       		.byte	0x93
 5913 0744 04       		.uleb128 0x4
 5914 0745 18000000 		.4byte	.LVL195
 5915 0749 48000000 		.4byte	.LFE73
 5916 074d 0600     		.2byte	0x6
 5917 074f F3       		.byte	0xf3
 5918 0750 03       		.uleb128 0x3
 5919 0751 F5       		.byte	0xf5
 5920 0752 00       		.uleb128 0
 5921 0753 25       		.uleb128 0x25
 5922 0754 9F       		.byte	0x9f
 5923 0755 00000000 		.4byte	0
 5924 0759 00000000 		.4byte	0
 5925              	.LLST42:
 5926 075d 00000000 		.4byte	.LVL194
 5927 0761 1B000000 		.4byte	.LVL196-1
 5928 0765 0600     		.2byte	0x6
 5929 0767 52       		.byte	0x52
 5930 0768 93       		.byte	0x93
 5931 0769 04       		.uleb128 0x4
 5932 076a 53       		.byte	0x53
 5933 076b 93       		.byte	0x93
 5934 076c 04       		.uleb128 0x4
 5935 076d 1B000000 		.4byte	.LVL196-1
 5936 0771 48000000 		.4byte	.LFE73
 5937 0775 0600     		.2byte	0x6
 5938 0777 F3       		.byte	0xf3
ARM GAS  C:\Users\cring\AppData\Local\Temp\ccGk4Etb.s 			page 117


 5939 0778 03       		.uleb128 0x3
 5940 0779 F5       		.byte	0xf5
 5941 077a 02       		.uleb128 0x2
 5942 077b 25       		.uleb128 0x25
 5943 077c 9F       		.byte	0x9f
 5944 077d 00000000 		.4byte	0
 5945 0781 00000000 		.4byte	0
 5946              	.LLST43:
 5947 0785 00000000 		.4byte	.LVL198
 5948 0789 1A000000 		.4byte	.LVL199
 5949 078d 0100     		.2byte	0x1
 5950 078f 50       		.byte	0x50
 5951 0790 1A000000 		.4byte	.LVL199
 5952 0794 1D000000 		.4byte	.LVL200-1
 5953 0798 0500     		.2byte	0x5
 5954 079a 03       		.byte	0x3
 5955 079b 14000000 		.4byte	pulselength_
 5956 079f 1D000000 		.4byte	.LVL200-1
 5957 07a3 4C000000 		.4byte	.LFE75
 5958 07a7 0400     		.2byte	0x4
 5959 07a9 F3       		.byte	0xf3
 5960 07aa 01       		.uleb128 0x1
 5961 07ab 50       		.byte	0x50
 5962 07ac 9F       		.byte	0x9f
 5963 07ad 00000000 		.4byte	0
 5964 07b1 00000000 		.4byte	0
 5965              	.LLST44:
 5966 07b5 00000000 		.4byte	.LVL198
 5967 07b9 1D000000 		.4byte	.LVL200-1
 5968 07bd 0600     		.2byte	0x6
 5969 07bf 52       		.byte	0x52
 5970 07c0 93       		.byte	0x93
 5971 07c1 04       		.uleb128 0x4
 5972 07c2 53       		.byte	0x53
 5973 07c3 93       		.byte	0x93
 5974 07c4 04       		.uleb128 0x4
 5975 07c5 1D000000 		.4byte	.LVL200-1
 5976 07c9 4C000000 		.4byte	.LFE75
 5977 07cd 0600     		.2byte	0x6
 5978 07cf F3       		.byte	0xf3
 5979 07d0 03       		.uleb128 0x3
 5980 07d1 F5       		.byte	0xf5
 5981 07d2 02       		.uleb128 0x2
 5982 07d3 25       		.uleb128 0x25
 5983 07d4 9F       		.byte	0x9f
 5984 07d5 00000000 		.4byte	0
 5985 07d9 00000000 		.4byte	0
 5986              	.LLST45:
 5987 07dd 00000000 		.4byte	.LVL198
 5988 07e1 48000000 		.4byte	.LVL204
 5989 07e5 0200     		.2byte	0x2
 5990 07e7 91       		.byte	0x91
 5991 07e8 00       		.sleb128 0
 5992 07e9 48000000 		.4byte	.LVL204
 5993 07ed 4C000000 		.4byte	.LFE75
 5994 07f1 0200     		.2byte	0x2
 5995 07f3 7D       		.byte	0x7d
ARM GAS  C:\Users\cring\AppData\Local\Temp\ccGk4Etb.s 			page 118


 5996 07f4 00       		.sleb128 0
 5997 07f5 00000000 		.4byte	0
 5998 07f9 00000000 		.4byte	0
 5999              	.LLST46:
 6000 07fd 00000000 		.4byte	.LVL198
 6001 0801 48000000 		.4byte	.LVL204
 6002 0805 0200     		.2byte	0x2
 6003 0807 91       		.byte	0x91
 6004 0808 08       		.sleb128 8
 6005 0809 48000000 		.4byte	.LVL204
 6006 080d 4C000000 		.4byte	.LFE75
 6007 0811 0200     		.2byte	0x2
 6008 0813 7D       		.byte	0x7d
 6009 0814 08       		.sleb128 8
 6010 0815 00000000 		.4byte	0
 6011 0819 00000000 		.4byte	0
 6012              	.LLST47:
 6013 081d 00000000 		.4byte	.LVL198
 6014 0821 48000000 		.4byte	.LVL204
 6015 0825 0200     		.2byte	0x2
 6016 0827 91       		.byte	0x91
 6017 0828 10       		.sleb128 16
 6018 0829 48000000 		.4byte	.LVL204
 6019 082d 4C000000 		.4byte	.LFE75
 6020 0831 0200     		.2byte	0x2
 6021 0833 7D       		.byte	0x7d
 6022 0834 10       		.sleb128 16
 6023 0835 00000000 		.4byte	0
 6024 0839 00000000 		.4byte	0
 6025              	.LLST48:
 6026 083d 24000000 		.4byte	.LVL201
 6027 0841 28000000 		.4byte	.LVL202
 6028 0845 0200     		.2byte	0x2
 6029 0847 30       		.byte	0x30
 6030 0848 9F       		.byte	0x9f
 6031 0849 28000000 		.4byte	.LVL202
 6032 084d 4C000000 		.4byte	.LFE75
 6033 0851 0100     		.2byte	0x1
 6034 0853 52       		.byte	0x52
 6035 0854 00000000 		.4byte	0
 6036 0858 00000000 		.4byte	0
 6037              	.LLST49:
 6038 085c 00000000 		.4byte	.LVL205
 6039 0860 16000000 		.4byte	.LVL206
 6040 0864 0600     		.2byte	0x6
 6041 0866 50       		.byte	0x50
 6042 0867 93       		.byte	0x93
 6043 0868 04       		.uleb128 0x4
 6044 0869 51       		.byte	0x51
 6045 086a 93       		.byte	0x93
 6046 086b 04       		.uleb128 0x4
 6047 086c 16000000 		.4byte	.LVL206
 6048 0870 44000000 		.4byte	.LFE80
 6049 0874 0600     		.2byte	0x6
 6050 0876 F3       		.byte	0xf3
 6051 0877 03       		.uleb128 0x3
 6052 0878 F5       		.byte	0xf5
ARM GAS  C:\Users\cring\AppData\Local\Temp\ccGk4Etb.s 			page 119


 6053 0879 00       		.uleb128 0
 6054 087a 25       		.uleb128 0x25
 6055 087b 9F       		.byte	0x9f
 6056 087c 00000000 		.4byte	0
 6057 0880 00000000 		.4byte	0
 6058              	.LLST50:
 6059 0884 00000000 		.4byte	.LVL205
 6060 0888 19000000 		.4byte	.LVL207-1
 6061 088c 0600     		.2byte	0x6
 6062 088e 52       		.byte	0x52
 6063 088f 93       		.byte	0x93
 6064 0890 04       		.uleb128 0x4
 6065 0891 53       		.byte	0x53
 6066 0892 93       		.byte	0x93
 6067 0893 04       		.uleb128 0x4
 6068 0894 19000000 		.4byte	.LVL207-1
 6069 0898 44000000 		.4byte	.LFE80
 6070 089c 0600     		.2byte	0x6
 6071 089e F3       		.byte	0xf3
 6072 089f 03       		.uleb128 0x3
 6073 08a0 F5       		.byte	0xf5
 6074 08a1 02       		.uleb128 0x2
 6075 08a2 25       		.uleb128 0x25
 6076 08a3 9F       		.byte	0x9f
 6077 08a4 00000000 		.4byte	0
 6078 08a8 00000000 		.4byte	0
 6079              	.LLST51:
 6080 08ac 1A000000 		.4byte	.LVL207
 6081 08b0 1E000000 		.4byte	.LVL208
 6082 08b4 0200     		.2byte	0x2
 6083 08b6 30       		.byte	0x30
 6084 08b7 9F       		.byte	0x9f
 6085 08b8 1E000000 		.4byte	.LVL208
 6086 08bc 44000000 		.4byte	.LFE80
 6087 08c0 0100     		.2byte	0x1
 6088 08c2 52       		.byte	0x52
 6089 08c3 00000000 		.4byte	0
 6090 08c7 00000000 		.4byte	0
 6091              	.LLST52:
 6092 08cb 00000000 		.4byte	.LVL210
 6093 08cf 1E000000 		.4byte	.LVL211
 6094 08d3 0100     		.2byte	0x1
 6095 08d5 50       		.byte	0x50
 6096 08d6 1E000000 		.4byte	.LVL211
 6097 08da 21000000 		.4byte	.LVL212-1
 6098 08de 0200     		.2byte	0x2
 6099 08e0 91       		.byte	0x91
 6100 08e1 70       		.sleb128 -16
 6101 08e2 21000000 		.4byte	.LVL212-1
 6102 08e6 38000000 		.4byte	.LFE81
 6103 08ea 0400     		.2byte	0x4
 6104 08ec F3       		.byte	0xf3
 6105 08ed 01       		.uleb128 0x1
 6106 08ee 50       		.byte	0x50
 6107 08ef 9F       		.byte	0x9f
 6108 08f0 00000000 		.4byte	0
 6109 08f4 00000000 		.4byte	0
ARM GAS  C:\Users\cring\AppData\Local\Temp\ccGk4Etb.s 			page 120


 6110              	.LLST53:
 6111 08f8 00000000 		.4byte	.LVL213
 6112 08fc 1A000000 		.4byte	.LVL214
 6113 0900 0100     		.2byte	0x1
 6114 0902 50       		.byte	0x50
 6115 0903 1A000000 		.4byte	.LVL214
 6116 0907 1D000000 		.4byte	.LVL215-1
 6117 090b 0200     		.2byte	0x2
 6118 090d 91       		.byte	0x91
 6119 090e 70       		.sleb128 -16
 6120 090f 1D000000 		.4byte	.LVL215-1
 6121 0913 3C000000 		.4byte	.LFE82
 6122 0917 0400     		.2byte	0x4
 6123 0919 F3       		.byte	0xf3
 6124 091a 01       		.uleb128 0x1
 6125 091b 50       		.byte	0x50
 6126 091c 9F       		.byte	0x9f
 6127 091d 00000000 		.4byte	0
 6128 0921 00000000 		.4byte	0
 6129              	.LLST54:
 6130 0925 00000000 		.4byte	.LVL216
 6131 0929 09000000 		.4byte	.LVL217-1
 6132 092d 0100     		.2byte	0x1
 6133 092f 50       		.byte	0x50
 6134 0930 09000000 		.4byte	.LVL217-1
 6135 0934 26000000 		.4byte	.LVL219
 6136 0938 0100     		.2byte	0x1
 6137 093a 54       		.byte	0x54
 6138 093b 26000000 		.4byte	.LVL219
 6139 093f 38000000 		.4byte	.LFE83
 6140 0943 0400     		.2byte	0x4
 6141 0945 F3       		.byte	0xf3
 6142 0946 01       		.uleb128 0x1
 6143 0947 50       		.byte	0x50
 6144 0948 9F       		.byte	0x9f
 6145 0949 00000000 		.4byte	0
 6146 094d 00000000 		.4byte	0
 6147              	.LLST55:
 6148 0951 00000000 		.4byte	.LVL220
 6149 0955 10000000 		.4byte	.LVL221
 6150 0959 0100     		.2byte	0x1
 6151 095b 50       		.byte	0x50
 6152 095c 10000000 		.4byte	.LVL221
 6153 0960 15000000 		.4byte	.LVL222-1
 6154 0964 0200     		.2byte	0x2
 6155 0966 91       		.byte	0x91
 6156 0967 70       		.sleb128 -16
 6157 0968 15000000 		.4byte	.LVL222-1
 6158 096c 24000000 		.4byte	.LFE84
 6159 0970 0400     		.2byte	0x4
 6160 0972 F3       		.byte	0xf3
 6161 0973 01       		.uleb128 0x1
 6162 0974 50       		.byte	0x50
 6163 0975 9F       		.byte	0x9f
 6164 0976 00000000 		.4byte	0
 6165 097a 00000000 		.4byte	0
 6166              	.LLST56:
ARM GAS  C:\Users\cring\AppData\Local\Temp\ccGk4Etb.s 			page 121


 6167 097e 00000000 		.4byte	.LVL223
 6168 0982 18000000 		.4byte	.LVL224
 6169 0986 0100     		.2byte	0x1
 6170 0988 50       		.byte	0x50
 6171 0989 18000000 		.4byte	.LVL224
 6172 098d 1B000000 		.4byte	.LVL225-1
 6173 0991 0200     		.2byte	0x2
 6174 0993 91       		.byte	0x91
 6175 0994 70       		.sleb128 -16
 6176 0995 1B000000 		.4byte	.LVL225-1
 6177 0999 2C000000 		.4byte	.LFE85
 6178 099d 0400     		.2byte	0x4
 6179 099f F3       		.byte	0xf3
 6180 09a0 01       		.uleb128 0x1
 6181 09a1 50       		.byte	0x50
 6182 09a2 9F       		.byte	0x9f
 6183 09a3 00000000 		.4byte	0
 6184 09a7 00000000 		.4byte	0
 6185              	.LLST57:
 6186 09ab 00000000 		.4byte	.LVL226
 6187 09af 09000000 		.4byte	.LVL227-1
 6188 09b3 0100     		.2byte	0x1
 6189 09b5 50       		.byte	0x50
 6190 09b6 09000000 		.4byte	.LVL227-1
 6191 09ba 20000000 		.4byte	.LVL229
 6192 09be 0100     		.2byte	0x1
 6193 09c0 54       		.byte	0x54
 6194 09c1 20000000 		.4byte	.LVL229
 6195 09c5 28000000 		.4byte	.LFE86
 6196 09c9 0400     		.2byte	0x4
 6197 09cb F3       		.byte	0xf3
 6198 09cc 01       		.uleb128 0x1
 6199 09cd 50       		.byte	0x50
 6200 09ce 9F       		.byte	0x9f
 6201 09cf 00000000 		.4byte	0
 6202 09d3 00000000 		.4byte	0
 6203              	.LLST58:
 6204 09d7 00000000 		.4byte	.LVL230
 6205 09db 23000000 		.4byte	.LVL231-1
 6206 09df 0100     		.2byte	0x1
 6207 09e1 50       		.byte	0x50
 6208 09e2 23000000 		.4byte	.LVL231-1
 6209 09e6 46000000 		.4byte	.LVL235
 6210 09ea 0100     		.2byte	0x1
 6211 09ec 58       		.byte	0x58
 6212 09ed 46000000 		.4byte	.LVL235
 6213 09f1 55000000 		.4byte	.LVL236-1
 6214 09f5 0200     		.2byte	0x2
 6215 09f7 91       		.byte	0x91
 6216 09f8 58       		.sleb128 -40
 6217 09f9 55000000 		.4byte	.LVL236-1
 6218 09fd 6E000000 		.4byte	.LVL238
 6219 0a01 0400     		.2byte	0x4
 6220 0a03 F3       		.byte	0xf3
 6221 0a04 01       		.uleb128 0x1
 6222 0a05 50       		.byte	0x50
 6223 0a06 9F       		.byte	0x9f
ARM GAS  C:\Users\cring\AppData\Local\Temp\ccGk4Etb.s 			page 122


 6224 0a07 6E000000 		.4byte	.LVL238
 6225 0a0b 82000000 		.4byte	.LVL239
 6226 0a0f 0100     		.2byte	0x1
 6227 0a11 50       		.byte	0x50
 6228 0a12 82000000 		.4byte	.LVL239
 6229 0a16 A0000000 		.4byte	.LVL243
 6230 0a1a 0100     		.2byte	0x1
 6231 0a1c 58       		.byte	0x58
 6232 0a1d A0000000 		.4byte	.LVL243
 6233 0a21 B4000000 		.4byte	.LVL244
 6234 0a25 0100     		.2byte	0x1
 6235 0a27 50       		.byte	0x50
 6236 0a28 B4000000 		.4byte	.LVL244
 6237 0a2c DA000000 		.4byte	.LVL248
 6238 0a30 0100     		.2byte	0x1
 6239 0a32 58       		.byte	0x58
 6240 0a33 DA000000 		.4byte	.LVL248
 6241 0a37 DD000000 		.4byte	.LVL249-1
 6242 0a3b 0100     		.2byte	0x1
 6243 0a3d 50       		.byte	0x50
 6244 0a3e DD000000 		.4byte	.LVL249-1
 6245 0a42 28010000 		.4byte	.LVL255
 6246 0a46 0100     		.2byte	0x1
 6247 0a48 58       		.byte	0x58
 6248 0a49 28010000 		.4byte	.LVL255
 6249 0a4d 30010000 		.4byte	.LVL256
 6250 0a51 0100     		.2byte	0x1
 6251 0a53 50       		.byte	0x50
 6252 0a54 30010000 		.4byte	.LVL256
 6253 0a58 32010000 		.4byte	.LVL257
 6254 0a5c 0100     		.2byte	0x1
 6255 0a5e 58       		.byte	0x58
 6256 0a5f 32010000 		.4byte	.LVL257
 6257 0a63 34010000 		.4byte	.LVL258
 6258 0a67 0100     		.2byte	0x1
 6259 0a69 50       		.byte	0x50
 6260 0a6a 34010000 		.4byte	.LVL258
 6261 0a6e 5C010000 		.4byte	.LFE87
 6262 0a72 0400     		.2byte	0x4
 6263 0a74 F3       		.byte	0xf3
 6264 0a75 01       		.uleb128 0x1
 6265 0a76 50       		.byte	0x50
 6266 0a77 9F       		.byte	0x9f
 6267 0a78 00000000 		.4byte	0
 6268 0a7c 00000000 		.4byte	0
 6269              	.LLST59:
 6270 0a80 00000000 		.4byte	.LVL230
 6271 0a84 23000000 		.4byte	.LVL231-1
 6272 0a88 0100     		.2byte	0x1
 6273 0a8a 51       		.byte	0x51
 6274 0a8b 23000000 		.4byte	.LVL231-1
 6275 0a8f 6E000000 		.4byte	.LVL238
 6276 0a93 0100     		.2byte	0x1
 6277 0a95 5A       		.byte	0x5a
 6278 0a96 6E000000 		.4byte	.LVL238
 6279 0a9a 84000000 		.4byte	.LVL240
 6280 0a9e 0100     		.2byte	0x1
ARM GAS  C:\Users\cring\AppData\Local\Temp\ccGk4Etb.s 			page 123


 6281 0aa0 51       		.byte	0x51
 6282 0aa1 84000000 		.4byte	.LVL240
 6283 0aa5 A0000000 		.4byte	.LVL243
 6284 0aa9 0100     		.2byte	0x1
 6285 0aab 5A       		.byte	0x5a
 6286 0aac A0000000 		.4byte	.LVL243
 6287 0ab0 B6000000 		.4byte	.LVL245
 6288 0ab4 0100     		.2byte	0x1
 6289 0ab6 51       		.byte	0x51
 6290 0ab7 B6000000 		.4byte	.LVL245
 6291 0abb DA000000 		.4byte	.LVL248
 6292 0abf 0100     		.2byte	0x1
 6293 0ac1 5A       		.byte	0x5a
 6294 0ac2 DA000000 		.4byte	.LVL248
 6295 0ac6 DD000000 		.4byte	.LVL249-1
 6296 0aca 0100     		.2byte	0x1
 6297 0acc 51       		.byte	0x51
 6298 0acd DD000000 		.4byte	.LVL249-1
 6299 0ad1 28010000 		.4byte	.LVL255
 6300 0ad5 0100     		.2byte	0x1
 6301 0ad7 5A       		.byte	0x5a
 6302 0ad8 28010000 		.4byte	.LVL255
 6303 0adc 34010000 		.4byte	.LVL258
 6304 0ae0 0100     		.2byte	0x1
 6305 0ae2 51       		.byte	0x51
 6306 0ae3 34010000 		.4byte	.LVL258
 6307 0ae7 3A010000 		.4byte	.LVL259
 6308 0aeb 0100     		.2byte	0x1
 6309 0aed 5A       		.byte	0x5a
 6310 0aee 3A010000 		.4byte	.LVL259
 6311 0af2 5C010000 		.4byte	.LFE87
 6312 0af6 0400     		.2byte	0x4
 6313 0af8 F3       		.byte	0xf3
 6314 0af9 01       		.uleb128 0x1
 6315 0afa 51       		.byte	0x51
 6316 0afb 9F       		.byte	0x9f
 6317 0afc 00000000 		.4byte	0
 6318 0b00 00000000 		.4byte	0
 6319              	.LLST60:
 6320 0b04 00000000 		.4byte	.LVL261
 6321 0b08 16000000 		.4byte	.LVL262
 6322 0b0c 0100     		.2byte	0x1
 6323 0b0e 50       		.byte	0x50
 6324 0b0f 16000000 		.4byte	.LVL262
 6325 0b13 1B000000 		.4byte	.LVL263-1
 6326 0b17 0200     		.2byte	0x2
 6327 0b19 91       		.byte	0x91
 6328 0b1a 70       		.sleb128 -16
 6329 0b1b 1B000000 		.4byte	.LVL263-1
 6330 0b1f 38000000 		.4byte	.LFE88
 6331 0b23 0400     		.2byte	0x4
 6332 0b25 F3       		.byte	0xf3
 6333 0b26 01       		.uleb128 0x1
 6334 0b27 50       		.byte	0x50
 6335 0b28 9F       		.byte	0x9f
 6336 0b29 00000000 		.4byte	0
 6337 0b2d 00000000 		.4byte	0
ARM GAS  C:\Users\cring\AppData\Local\Temp\ccGk4Etb.s 			page 124


 6338              	.LLST61:
 6339 0b31 00000000 		.4byte	.LVL264
 6340 0b35 09000000 		.4byte	.LVL265-1
 6341 0b39 0100     		.2byte	0x1
 6342 0b3b 50       		.byte	0x50
 6343 0b3c 09000000 		.4byte	.LVL265-1
 6344 0b40 20000000 		.4byte	.LVL267
 6345 0b44 0100     		.2byte	0x1
 6346 0b46 54       		.byte	0x54
 6347 0b47 20000000 		.4byte	.LVL267
 6348 0b4b 28000000 		.4byte	.LFE89
 6349 0b4f 0400     		.2byte	0x4
 6350 0b51 F3       		.byte	0xf3
 6351 0b52 01       		.uleb128 0x1
 6352 0b53 50       		.byte	0x50
 6353 0b54 9F       		.byte	0x9f
 6354 0b55 00000000 		.4byte	0
 6355 0b59 00000000 		.4byte	0
 6356              		.section	.debug_aranges,"",%progbits
 6357 0000 E4000000 		.4byte	0xe4
 6358 0004 0200     		.2byte	0x2
 6359 0006 00000000 		.4byte	.Ldebug_info0
 6360 000a 04       		.byte	0x4
 6361 000b 00       		.byte	0
 6362 000c 0000     		.2byte	0
 6363 000e 0000     		.2byte	0
 6364 0010 00000000 		.4byte	.LFB69
 6365 0014 30000000 		.4byte	.LFE69-.LFB69
 6366 0018 00000000 		.4byte	.LFB74
 6367 001c 2C000000 		.4byte	.LFE74-.LFB74
 6368 0020 00000000 		.4byte	.LFB76
 6369 0024 34020000 		.4byte	.LFE76-.LFB76
 6370 0028 00000000 		.4byte	.LFB77
 6371 002c 54000000 		.4byte	.LFE77-.LFB77
 6372 0030 00000000 		.4byte	.LFB64
 6373 0034 30000000 		.4byte	.LFE64-.LFB64
 6374 0038 00000000 		.4byte	.LFB78
 6375 003c 32010000 		.4byte	.LFE78-.LFB78
 6376 0040 00000000 		.4byte	.LFB72
 6377 0044 3A000000 		.4byte	.LFE72-.LFB72
 6378 0048 00000000 		.4byte	.LFB66
 6379 004c 28010000 		.4byte	.LFE66-.LFB66
 6380 0050 00000000 		.4byte	.LFB67
 6381 0054 BC000000 		.4byte	.LFE67-.LFB67
 6382 0058 00000000 		.4byte	.LFB65
 6383 005c 0C010000 		.4byte	.LFE65-.LFB65
 6384 0060 00000000 		.4byte	.LFB79
 6385 0064 12000000 		.4byte	.LFE79-.LFB79
 6386 0068 00000000 		.4byte	.LFB70
 6387 006c 48000000 		.4byte	.LFE70-.LFB70
 6388 0070 00000000 		.4byte	.LFB71
 6389 0074 7C000000 		.4byte	.LFE71-.LFB71
 6390 0078 00000000 		.4byte	.LFB73
 6391 007c 48000000 		.4byte	.LFE73-.LFB73
 6392 0080 00000000 		.4byte	.LFB75
 6393 0084 4C000000 		.4byte	.LFE75-.LFB75
 6394 0088 00000000 		.4byte	.LFB80
ARM GAS  C:\Users\cring\AppData\Local\Temp\ccGk4Etb.s 			page 125


 6395 008c 44000000 		.4byte	.LFE80-.LFB80
 6396 0090 00000000 		.4byte	.LFB81
 6397 0094 38000000 		.4byte	.LFE81-.LFB81
 6398 0098 00000000 		.4byte	.LFB82
 6399 009c 3C000000 		.4byte	.LFE82-.LFB82
 6400 00a0 00000000 		.4byte	.LFB83
 6401 00a4 38000000 		.4byte	.LFE83-.LFB83
 6402 00a8 00000000 		.4byte	.LFB84
 6403 00ac 24000000 		.4byte	.LFE84-.LFB84
 6404 00b0 00000000 		.4byte	.LFB85
 6405 00b4 2C000000 		.4byte	.LFE85-.LFB85
 6406 00b8 00000000 		.4byte	.LFB86
 6407 00bc 28000000 		.4byte	.LFE86-.LFB86
 6408 00c0 00000000 		.4byte	.LFB87
 6409 00c4 5C010000 		.4byte	.LFE87-.LFB87
 6410 00c8 00000000 		.4byte	.LFB68
 6411 00cc 18000000 		.4byte	.LFE68-.LFB68
 6412 00d0 00000000 		.4byte	.LFB88
 6413 00d4 38000000 		.4byte	.LFE88-.LFB88
 6414 00d8 00000000 		.4byte	.LFB89
 6415 00dc 28000000 		.4byte	.LFE89-.LFB89
 6416 00e0 00000000 		.4byte	0
 6417 00e4 00000000 		.4byte	0
 6418              		.section	.debug_ranges,"",%progbits
 6419              	.Ldebug_ranges0:
 6420 0000 00000000 		.4byte	.LFB69
 6421 0004 30000000 		.4byte	.LFE69
 6422 0008 00000000 		.4byte	.LFB74
 6423 000c 2C000000 		.4byte	.LFE74
 6424 0010 00000000 		.4byte	.LFB76
 6425 0014 34020000 		.4byte	.LFE76
 6426 0018 00000000 		.4byte	.LFB77
 6427 001c 54000000 		.4byte	.LFE77
 6428 0020 00000000 		.4byte	.LFB64
 6429 0024 30000000 		.4byte	.LFE64
 6430 0028 00000000 		.4byte	.LFB78
 6431 002c 32010000 		.4byte	.LFE78
 6432 0030 00000000 		.4byte	.LFB72
 6433 0034 3A000000 		.4byte	.LFE72
 6434 0038 00000000 		.4byte	.LFB66
 6435 003c 28010000 		.4byte	.LFE66
 6436 0040 00000000 		.4byte	.LFB67
 6437 0044 BC000000 		.4byte	.LFE67
 6438 0048 00000000 		.4byte	.LFB65
 6439 004c 0C010000 		.4byte	.LFE65
 6440 0050 00000000 		.4byte	.LFB79
 6441 0054 12000000 		.4byte	.LFE79
 6442 0058 00000000 		.4byte	.LFB70
 6443 005c 48000000 		.4byte	.LFE70
 6444 0060 00000000 		.4byte	.LFB71
 6445 0064 7C000000 		.4byte	.LFE71
 6446 0068 00000000 		.4byte	.LFB73
 6447 006c 48000000 		.4byte	.LFE73
 6448 0070 00000000 		.4byte	.LFB75
 6449 0074 4C000000 		.4byte	.LFE75
 6450 0078 00000000 		.4byte	.LFB80
 6451 007c 44000000 		.4byte	.LFE80
ARM GAS  C:\Users\cring\AppData\Local\Temp\ccGk4Etb.s 			page 126


 6452 0080 00000000 		.4byte	.LFB81
 6453 0084 38000000 		.4byte	.LFE81
 6454 0088 00000000 		.4byte	.LFB82
 6455 008c 3C000000 		.4byte	.LFE82
 6456 0090 00000000 		.4byte	.LFB83
 6457 0094 38000000 		.4byte	.LFE83
 6458 0098 00000000 		.4byte	.LFB84
 6459 009c 24000000 		.4byte	.LFE84
 6460 00a0 00000000 		.4byte	.LFB85
 6461 00a4 2C000000 		.4byte	.LFE85
 6462 00a8 00000000 		.4byte	.LFB86
 6463 00ac 28000000 		.4byte	.LFE86
 6464 00b0 00000000 		.4byte	.LFB87
 6465 00b4 5C010000 		.4byte	.LFE87
 6466 00b8 00000000 		.4byte	.LFB68
 6467 00bc 18000000 		.4byte	.LFE68
 6468 00c0 00000000 		.4byte	.LFB88
 6469 00c4 38000000 		.4byte	.LFE88
 6470 00c8 00000000 		.4byte	.LFB89
 6471 00cc 28000000 		.4byte	.LFE89
 6472 00d0 00000000 		.4byte	0
 6473 00d4 00000000 		.4byte	0
 6474              		.section	.debug_line,"",%progbits
 6475              	.Ldebug_line0:
 6476 0000 34060000 		.section	.debug_str,"MS",%progbits,1
 6476      02001802 
 6476      00000201 
 6476      FB0E0D00 
 6476      01010101 
 6477              	.LASF77:
 6478 0000 54696D65 		.ascii	"Timer3_WritePeriod\000"
 6478      72335F57 
 6478      72697465 
 6478      50657269 
 6478      6F6400
 6479              	.LASF64:
 6480 0013 6572726F 		.ascii	"errorSeq\000"
 6480      72536571 
 6480      00
 6481              	.LASF33:
 6482 001c 6D735F62 		.ascii	"ms_blink\000"
 6482      6C696E6B 
 6482      00
 6483              	.LASF8:
 6484 0025 6C6F6E67 		.ascii	"long long unsigned int\000"
 6484      206C6F6E 
 6484      6720756E 
 6484      7369676E 
 6484      65642069 
 6485              	.LASF91:
 6486 003c 54696D65 		.ascii	"Timer2_Start\000"
 6486      72325F53 
 6486      74617274 
 6486      00
 6487              	.LASF72:
 6488 0049 49544D5F 		.ascii	"ITM_RxBuffer\000"
 6488      52784275 
ARM GAS  C:\Users\cring\AppData\Local\Temp\ccGk4Etb.s 			page 127


 6488      66666572 
 6488      00
 6489              	.LASF99:
 6490 0056 433A5C55 		.ascii	"C:\\Users\\cring\\Documents\\GitHub\\E5PRJ3\\LED ko"
 6490      73657273 
 6490      5C637269 
 6490      6E675C44 
 6490      6F63756D 
 6491 0083 64655C4C 		.ascii	"de\\LEDcontrol\\LED_control.cydsn\000"
 6491      4544636F 
 6491      6E74726F 
 6491      6C5C4C45 
 6491      445F636F 
 6492              	.LASF61:
 6493 00a3 7267624C 		.ascii	"rgbLED_1\000"
 6493      45445F31 
 6493      00
 6494              	.LASF62:
 6495 00ac 7267624C 		.ascii	"rgbLED_2\000"
 6495      45445F32 
 6495      00
 6496              	.LASF60:
 6497 00b5 77656967 		.ascii	"weightapprovedSeq\000"
 6497      68746170 
 6497      70726F76 
 6497      65645365 
 6497      7100
 6498              	.LASF93:
 6499 00c7 54696D65 		.ascii	"Timer4_Start\000"
 6499      72345F53 
 6499      74617274 
 6499      00
 6500              	.LASF7:
 6501 00d4 6C6F6E67 		.ascii	"long long int\000"
 6501      206C6F6E 
 6501      6720696E 
 6501      7400
 6502              	.LASF1:
 6503 00e2 7369676E 		.ascii	"signed char\000"
 6503      65642063 
 6503      68617200 
 6504              	.LASF34:
 6505 00ee 68737632 		.ascii	"hsv2rgb\000"
 6505      72676200 
 6506              	.LASF18:
 6507 00f6 67726565 		.ascii	"green1\000"
 6507      6E3100
 6508              	.LASF19:
 6509 00fd 67726565 		.ascii	"green2\000"
 6509      6E3200
 6510              	.LASF5:
 6511 0104 6C6F6E67 		.ascii	"long int\000"
 6511      20696E74 
 6511      00
 6512              	.LASF47:
 6513 010d 4C45446C 		.ascii	"LEDlength_\000"
 6513      656E6774 
ARM GAS  C:\Users\cring\AppData\Local\Temp\ccGk4Etb.s 			page 128


 6513      685F00
 6514              	.LASF51:
 6515 0118 70756C73 		.ascii	"pulseLED\000"
 6515      654C4544 
 6515      00
 6516              	.LASF89:
 6517 0121 6973725F 		.ascii	"isr_delay_StartEx\000"
 6517      64656C61 
 6517      795F5374 
 6517      61727445 
 6517      7800
 6518              	.LASF75:
 6519 0133 54696D65 		.ascii	"Timer1_WritePeriod\000"
 6519      72315F57 
 6519      72697465 
 6519      50657269 
 6519      6F6400
 6520              	.LASF20:
 6521 0146 72656431 		.ascii	"red1\000"
 6521      00
 6522              	.LASF21:
 6523 014b 72656432 		.ascii	"red2\000"
 6523      00
 6524              	.LASF98:
 6525 0150 4C454463 		.ascii	"LEDcontrol.c\000"
 6525      6F6E7472 
 6525      6F6C2E63 
 6525      00
 6526              	.LASF0:
 6527 015d 646F7562 		.ascii	"double\000"
 6527      6C6500
 6528              	.LASF69:
 6529 0164 636F756E 		.ascii	"count\000"
 6529      7400
 6530              	.LASF40:
 6531 016a 426C7565 		.ascii	"Blue\000"
 6531      00
 6532              	.LASF63:
 6533 016f 6973725F 		.ascii	"isr_delay\000"
 6533      64656C61 
 6533      7900
 6534              	.LASF28:
 6535 0179 4C454463 		.ascii	"LEDctrl\000"
 6535      74726C00 
 6536              	.LASF35:
 6537 0181 7267624C 		.ascii	"rgbLED\000"
 6537      454400
 6538              	.LASF9:
 6539 0188 756E7369 		.ascii	"unsigned int\000"
 6539      676E6564 
 6539      20696E74 
 6539      00
 6540              	.LASF6:
 6541 0195 6C6F6E67 		.ascii	"long unsigned int\000"
 6541      20756E73 
 6541      69676E65 
 6541      6420696E 
ARM GAS  C:\Users\cring\AppData\Local\Temp\ccGk4Etb.s 			page 129


 6541      7400
 6542              	.LASF50:
 6543 01a7 696E6974 		.ascii	"initLED\000"
 6543      4C454400 
 6544              	.LASF95:
 6545 01af 6973725F 		.ascii	"isr_delay_Enable\000"
 6545      64656C61 
 6545      795F456E 
 6545      61626C65 
 6545      00
 6546              	.LASF58:
 6547 01c0 7A65726F 		.ascii	"zeroCalibrateSeq\000"
 6547      43616C69 
 6547      62726174 
 6547      65536571 
 6547      00
 6548              	.LASF22:
 6549 01d1 626C7565 		.ascii	"blue1\000"
 6549      3100
 6550              	.LASF23:
 6551 01d7 626C7565 		.ascii	"blue2\000"
 6551      3200
 6552              	.LASF100:
 6553 01dd 4C454463 		.ascii	"LEDctrl_\000"
 6553      74726C5F 
 6553      00
 6554              	.LASF86:
 6555 01e6 6973725F 		.ascii	"isr_LED_ring_StartEx\000"
 6555      4C45445F 
 6555      72696E67 
 6555      5F537461 
 6555      72744578 
 6556              	.LASF43:
 6557 01fb 6973725F 		.ascii	"isr_BlinkLED\000"
 6557      426C696E 
 6557      6B4C4544 
 6557      00
 6558              	.LASF96:
 6559 0208 6973725F 		.ascii	"isr_delay_Disable\000"
 6559      64656C61 
 6559      795F4469 
 6559      7361626C 
 6559      6500
 6560              	.LASF53:
 6561 021a 70756C73 		.ascii	"pulselength\000"
 6561      656C656E 
 6561      67746800 
 6562              	.LASF76:
 6563 0226 54696D65 		.ascii	"Timer2_WritePeriod\000"
 6563      72325F57 
 6563      72697465 
 6563      50657269 
 6563      6F6400
 6564              	.LASF15:
 6565 0239 73697A65 		.ascii	"sizetype\000"
 6565      74797065 
 6565      00
ARM GAS  C:\Users\cring\AppData\Local\Temp\ccGk4Etb.s 			page 130


 6566              	.LASF30:
 6567 0242 73657473 		.ascii	"setspeed\000"
 6567      70656564 
 6567      00
 6568              	.LASF54:
 6569 024b 426C696E 		.ascii	"BlinkLED\000"
 6569      6B4C4544 
 6569      00
 6570              	.LASF66:
 6571 0254 70756C73 		.ascii	"pulselength_\000"
 6571      656C656E 
 6571      6774685F 
 6571      00
 6572              	.LASF78:
 6573 0261 54696D65 		.ascii	"Timer4_WritePeriod\000"
 6573      72345F57 
 6573      72697465 
 6573      50657269 
 6573      6F6400
 6574              	.LASF92:
 6575 0274 54696D65 		.ascii	"Timer3_Start\000"
 6575      72335F53 
 6575      74617274 
 6575      00
 6576              	.LASF17:
 6577 0281 626C7565 		.ascii	"blue\000"
 6577      00
 6578              	.LASF85:
 6579 0286 6973725F 		.ascii	"isr_LED_refreshrate_StartEx\000"
 6579      4C45445F 
 6579      72656672 
 6579      65736872 
 6579      6174655F 
 6580              	.LASF36:
 6581 02a2 55706461 		.ascii	"UpdateLED\000"
 6581      74654C45 
 6581      4400
 6582              	.LASF12:
 6583 02ac 666C6F61 		.ascii	"float\000"
 6583      7400
 6584              	.LASF83:
 6585 02b2 54696D65 		.ascii	"Timer1_Start\000"
 6585      72315F53 
 6585      74617274 
 6585      00
 6586              	.LASF57:
 6587 02bf 6C6F7365 		.ascii	"loserSeq\000"
 6587      72536571 
 6587      00
 6588              	.LASF101:
 6589 02c8 73746172 		.ascii	"startSeq\000"
 6589      74536571 
 6589      00
 6590              	.LASF84:
 6591 02d1 54696D65 		.ascii	"Timer5_Stop\000"
 6591      72355F53 
 6591      746F7000 
ARM GAS  C:\Users\cring\AppData\Local\Temp\ccGk4Etb.s 			page 131


 6592              	.LASF29:
 6593 02dd 73657472 		.ascii	"setrefreshrate\000"
 6593      65667265 
 6593      73687261 
 6593      746500
 6594              	.LASF68:
 6595 02ec 696E6465 		.ascii	"index2\000"
 6595      783200
 6596              	.LASF73:
 6597 02f3 7267624C 		.ascii	"rgbLED1\000"
 6597      45443100 
 6598              	.LASF74:
 6599 02fb 7267624C 		.ascii	"rgbLED2\000"
 6599      45443200 
 6600              	.LASF87:
 6601 0303 6973725F 		.ascii	"isr_LED_pulse_StartEx\000"
 6601      4C45445F 
 6601      70756C73 
 6601      655F5374 
 6601      61727445 
 6602              	.LASF11:
 6603 0319 696E7433 		.ascii	"int32_t\000"
 6603      325F7400 
 6604              	.LASF2:
 6605 0321 756E7369 		.ascii	"unsigned char\000"
 6605      676E6564 
 6605      20636861 
 6605      7200
 6606              	.LASF52:
 6607 032f 72696E67 		.ascii	"ringLED\000"
 6607      4C454400 
 6608              	.LASF94:
 6609 0337 54696D65 		.ascii	"Timer5_Start\000"
 6609      72355F53 
 6609      74617274 
 6609      00
 6610              	.LASF3:
 6611 0344 73686F72 		.ascii	"short int\000"
 6611      7420696E 
 6611      7400
 6612              	.LASF65:
 6613 034e 77696E6E 		.ascii	"winnerSeq\000"
 6613      65725365 
 6613      7100
 6614              	.LASF55:
 6615 0358 4C454469 		.ascii	"LEDinitSeq\000"
 6615      6E697453 
 6615      657100
 6616              	.LASF49:
 6617 0363 73747269 		.ascii	"strip\000"
 6617      7000
 6618              	.LASF88:
 6619 0369 6973725F 		.ascii	"isr_BlinkLED_StartEx\000"
 6619      426C696E 
 6619      6B4C4544 
 6619      5F537461 
 6619      72744578 
ARM GAS  C:\Users\cring\AppData\Local\Temp\ccGk4Etb.s 			page 132


 6620              	.LASF97:
 6621 037e 474E5520 		.ascii	"GNU C11 5.4.1 20160609 (release) [ARM/embedded-5-br"
 6621      43313120 
 6621      352E342E 
 6621      31203230 
 6621      31363036 
 6622 03b1 616E6368 		.ascii	"anch revision 237715] -mcpu=cortex-m3 -mthumb -g -O"
 6622      20726576 
 6622      6973696F 
 6622      6E203233 
 6622      37373135 
 6623 03e4 67202D66 		.ascii	"g -ffunction-sections -ffat-lto-objects\000"
 6623      66756E63 
 6623      74696F6E 
 6623      2D736563 
 6623      74696F6E 
 6624              	.LASF37:
 6625 040c 6973725F 		.ascii	"isr_refreshrate\000"
 6625      72656672 
 6625      65736872 
 6625      61746500 
 6626              	.LASF67:
 6627 041c 696E6465 		.ascii	"index_\000"
 6627      785F00
 6628              	.LASF48:
 6629 0423 7267624C 		.ascii	"rgbLED_\000"
 6629      45445F00 
 6630              	.LASF59:
 6631 042b 63686563 		.ascii	"checkSeq\000"
 6631      6B536571 
 6631      00
 6632              	.LASF38:
 6633 0434 73657463 		.ascii	"setcolorLED\000"
 6633      6F6C6F72 
 6633      4C454400 
 6634              	.LASF46:
 6635 0440 6164644C 		.ascii	"addLEDstrip\000"
 6635      45447374 
 6635      72697000 
 6636              	.LASF80:
 6637 044c 5350494D 		.ascii	"SPIMOutCtrl_Write\000"
 6637      4F757443 
 6637      74726C5F 
 6637      57726974 
 6637      6500
 6638              	.LASF41:
 6639 045e 66696C6C 		.ascii	"fillcolor\000"
 6639      636F6C6F 
 6639      7200
 6640              	.LASF13:
 6641 0468 63686172 		.ascii	"char\000"
 6641      00
 6642              	.LASF14:
 6643 046d 6C6F6E67 		.ascii	"long double\000"
 6643      20646F75 
 6643      626C6500 
 6644              	.LASF79:
ARM GAS  C:\Users\cring\AppData\Local\Temp\ccGk4Etb.s 			page 133


 6645 0479 5350494D 		.ascii	"SPIM_1_WriteTxData\000"
 6645      5F315F57 
 6645      72697465 
 6645      54784461 
 6645      746100
 6646              	.LASF82:
 6647 048c 43794465 		.ascii	"CyDelayUs\000"
 6647      6C617955 
 6647      7300
 6648              	.LASF39:
 6649 0496 47726565 		.ascii	"Green\000"
 6649      6E00
 6650              	.LASF26:
 6651 049c 70756C73 		.ascii	"pulse\000"
 6651      6500
 6652              	.LASF31:
 6653 04a2 6D735F72 		.ascii	"ms_ring\000"
 6653      696E6700 
 6654              	.LASF42:
 6655 04aa 6973725F 		.ascii	"isr_LED_pulse\000"
 6655      4C45445F 
 6655      70756C73 
 6655      6500
 6656              	.LASF10:
 6657 04b8 5F5F696E 		.ascii	"__int32_t\000"
 6657      7433325F 
 6657      7400
 6658              	.LASF56:
 6659 04c2 69646C65 		.ascii	"idleSeq\000"
 6659      53657100 
 6660              	.LASF4:
 6661 04ca 73686F72 		.ascii	"short unsigned int\000"
 6661      7420756E 
 6661      7369676E 
 6661      65642069 
 6661      6E7400
 6662              	.LASF45:
 6663 04dd 4C45444F 		.ascii	"LEDOff\000"
 6663      666600
 6664              	.LASF81:
 6665 04e4 54696D65 		.ascii	"Timer1_Stop\000"
 6665      72315F53 
 6665      746F7000 
 6666              	.LASF27:
 6667 04f0 626C696E 		.ascii	"blink\000"
 6667      6B00
 6668              	.LASF16:
 6669 04f6 67726565 		.ascii	"green\000"
 6669      6E00
 6670              	.LASF70:
 6671 04fc 636F756E 		.ascii	"count2\000"
 6671      743200
 6672              	.LASF71:
 6673 0503 636F756E 		.ascii	"count3\000"
 6673      743300
 6674              	.LASF44:
 6675 050a 6973725F 		.ascii	"isr_LED_ring\000"
ARM GAS  C:\Users\cring\AppData\Local\Temp\ccGk4Etb.s 			page 134


 6675      4C45445F 
 6675      72696E67 
 6675      00
 6676              	.LASF25:
 6677 0517 72696E67 		.ascii	"ring\000"
 6677      00
 6678              	.LASF90:
 6679 051c 5350494D 		.ascii	"SPIM_1_Start\000"
 6679      5F315F53 
 6679      74617274 
 6679      00
 6680              	.LASF24:
 6681 0529 4C45446C 		.ascii	"LEDlength\000"
 6681      656E6774 
 6681      6800
 6682              	.LASF32:
 6683 0533 6D735F70 		.ascii	"ms_pulse\000"
 6683      756C7365 
 6683      00
 6684              		.ident	"GCC: (GNU Tools for ARM Embedded Processors) 5.4.1 20160609 (release) [ARM/embedded-5-bran
