ARM GAS  C:\Users\cring\AppData\Local\Temp\ccGk4Etb.s 			page 1


   1              		.syntax unified
   2              		.cpu cortex-m3
   3              		.fpu softvfp
   4              		.eabi_attribute 20, 1
   5              		.eabi_attribute 21, 1
   6              		.eabi_attribute 23, 3
   7              		.eabi_attribute 24, 1
   8              		.eabi_attribute 25, 1
   9              		.eabi_attribute 26, 1
  10              		.eabi_attribute 30, 1
  11              		.eabi_attribute 34, 1
  12              		.eabi_attribute 18, 4
  13              		.thumb
  14              		.syntax unified
  15              		.file	"LEDcontrol.c"
  16              		.text
  17              	.Ltext0:
  18              		.cfi_sections	.debug_frame
  19              		.global	__aeabi_i2f
  20              		.global	__aeabi_fdiv
  21              		.global	__aeabi_fmul
  22              		.global	__aeabi_f2iz
  23              		.section	.text.setrefreshrate,"ax",%progbits
  24              		.align	2
  25              		.global	setrefreshrate
  26              		.thumb
  27              		.thumb_func
  28              		.type	setrefreshrate, %function
  29              	setrefreshrate:
  30              	.LFB69:
  31              		.file 1 "LEDcontrol.c"
   1:LEDcontrol.c  **** /* ========================================
   2:LEDcontrol.c  ****  *
   3:LEDcontrol.c  ****  * Copyright YOUR COMPANY, THE YEAR
   4:LEDcontrol.c  ****  * All Rights Reserved
   5:LEDcontrol.c  ****  * UNPUBLISHED, LICENSED SOFTWARE.
   6:LEDcontrol.c  ****  *
   7:LEDcontrol.c  ****  * CONFIDENTIAL AND PROPRIETARY INFORMATION
   8:LEDcontrol.c  ****  * WHICH IS THE PROPERTY OF your company.
   9:LEDcontrol.c  ****  *
  10:LEDcontrol.c  ****  * ========================================
  11:LEDcontrol.c  **** */
  12:LEDcontrol.c  **** 
  13:LEDcontrol.c  **** /* [] END OF FILE */
  14:LEDcontrol.c  **** #define MAXLEDINTENSE 0.5
  15:LEDcontrol.c  **** #include "LEDcontrol.h"
  16:LEDcontrol.c  **** 
  17:LEDcontrol.c  **** static int pulselength_ = 0;
  18:LEDcontrol.c  **** static int index_ = 0;
  19:LEDcontrol.c  **** static float index2 = MAXLEDINTENSE;
  20:LEDcontrol.c  **** static int count = 0;
  21:LEDcontrol.c  **** static int count2 = 0;
  22:LEDcontrol.c  **** static int count3 = 0;
  23:LEDcontrol.c  **** 
  24:LEDcontrol.c  **** LEDctrl *rgbLED1 = NULL;
  25:LEDcontrol.c  **** LEDctrl *rgbLED2 = NULL;
  26:LEDcontrol.c  **** 
ARM GAS  C:\Users\cring\AppData\Local\Temp\ccGk4Etb.s 			page 2


  27:LEDcontrol.c  **** 
  28:LEDcontrol.c  **** CY_ISR(isr_refreshrate)
  29:LEDcontrol.c  **** {
  30:LEDcontrol.c  ****     Timer1_Stop();
  31:LEDcontrol.c  ****     //isr_LED_refreshrate_Disable();
  32:LEDcontrol.c  ****     if (rgbLED1 != NULL)
  33:LEDcontrol.c  ****     {
  34:LEDcontrol.c  ****     UpdateLED(rgbLED1);
  35:LEDcontrol.c  ****     }
  36:LEDcontrol.c  ****     CyDelayUs(100);
  37:LEDcontrol.c  ****     if (rgbLED2 != NULL)
  38:LEDcontrol.c  ****     {
  39:LEDcontrol.c  ****     UpdateLED(rgbLED2);
  40:LEDcontrol.c  ****     }
  41:LEDcontrol.c  ****     CyDelayUs(100);
  42:LEDcontrol.c  ****     //isr_LED_refreshrate_Enable();
  43:LEDcontrol.c  ****     Timer1_Start();
  44:LEDcontrol.c  **** }
  45:LEDcontrol.c  **** 
  46:LEDcontrol.c  **** CY_ISR(isr_LED_ring)
  47:LEDcontrol.c  **** {
  48:LEDcontrol.c  ****     if((rgbLED1->ring == 0) && (rgbLED2->ring == 0)) return;
  49:LEDcontrol.c  ****     if(rgbLED1->ring == 1) fillcolor(0,0,0,rgbLED1);
  50:LEDcontrol.c  ****     if(rgbLED2->ring == 1) fillcolor(0,0,0,rgbLED2);
  51:LEDcontrol.c  ****     
  52:LEDcontrol.c  ****         for(int i2 = index_; i2 < pulselength_+index_; i2++)
  53:LEDcontrol.c  ****         {
  54:LEDcontrol.c  ****             if(rgbLED1->ring == 1)
  55:LEDcontrol.c  ****             {
  56:LEDcontrol.c  ****                 int x = i2 >= rgbLED1->LEDlength ? i2 - rgbLED1->LEDlength : i2;
  57:LEDcontrol.c  ****                 setcolorLED((rgbLED1 + x)->h, (rgbLED1 + x)->s, (rgbLED1 + x)->v, x, rgbLED1);
  58:LEDcontrol.c  ****             }
  59:LEDcontrol.c  ****             if(rgbLED2->ring == 1)
  60:LEDcontrol.c  ****             {
  61:LEDcontrol.c  ****                 int x = i2 >= rgbLED2->LEDlength ? i2 - rgbLED2->LEDlength : i2;
  62:LEDcontrol.c  ****                 setcolorLED((rgbLED2 + x)->h, (rgbLED2 + x)->s, (rgbLED2 + x)->v, x, rgbLED2);  
  63:LEDcontrol.c  ****             }
  64:LEDcontrol.c  ****         }
  65:LEDcontrol.c  ****     if (rgbLED1 != NULL)
  66:LEDcontrol.c  ****     {
  67:LEDcontrol.c  ****         index_ = index_ < (rgbLED1->LEDlength-1) ? index_ + 1 : 0;
  68:LEDcontrol.c  ****         return;
  69:LEDcontrol.c  ****     }else if (rgbLED2 != NULL){
  70:LEDcontrol.c  ****         index_ = index_ < (rgbLED2->LEDlength-1) ? index_ + 1 : 0;
  71:LEDcontrol.c  ****     }
  72:LEDcontrol.c  **** }
  73:LEDcontrol.c  **** 
  74:LEDcontrol.c  **** CY_ISR(isr_LED_pulse)
  75:LEDcontrol.c  **** {
  76:LEDcontrol.c  ****     
  77:LEDcontrol.c  ****     if(count == 0)
  78:LEDcontrol.c  ****     {
  79:LEDcontrol.c  ****         if (rgbLED1->pulse == 1)fillcolor(rgbLED1->h,rgbLED1->s,index2, rgbLED1);
  80:LEDcontrol.c  ****         if (rgbLED2->pulse == 1)fillcolor(rgbLED2->h,rgbLED2->s,index2, rgbLED2);
  81:LEDcontrol.c  ****         index2 = index2-0.01;
  82:LEDcontrol.c  ****         if (index2 < 0)count = 1;
  83:LEDcontrol.c  ****     }else if(count == 1){
ARM GAS  C:\Users\cring\AppData\Local\Temp\ccGk4Etb.s 			page 3


  84:LEDcontrol.c  ****         if (rgbLED1->pulse == 1)fillcolor(rgbLED1->h,rgbLED1->s,index2, rgbLED1);
  85:LEDcontrol.c  ****         if (rgbLED2->pulse == 1)fillcolor(rgbLED2->h,rgbLED2->s,index2, rgbLED2);
  86:LEDcontrol.c  ****         index2 = index2+0.01;
  87:LEDcontrol.c  ****         if (index2 == MAXLEDINTENSE)count = 0;
  88:LEDcontrol.c  ****     }
  89:LEDcontrol.c  ****     
  90:LEDcontrol.c  **** }
  91:LEDcontrol.c  **** 
  92:LEDcontrol.c  **** CY_ISR(isr_BlinkLED)
  93:LEDcontrol.c  **** {
  94:LEDcontrol.c  ****     switch (count3)
  95:LEDcontrol.c  ****     {
  96:LEDcontrol.c  ****         case 0:
  97:LEDcontrol.c  ****         {
  98:LEDcontrol.c  ****             if(rgbLED1->blink == 1) fillcolor(rgbLED1->h, rgbLED1->s,1, rgbLED1);
  99:LEDcontrol.c  ****             if(rgbLED2->blink == 1) fillcolor(rgbLED2->h, rgbLED2->s,1, rgbLED2);
 100:LEDcontrol.c  ****             count3++;
 101:LEDcontrol.c  ****         }
 102:LEDcontrol.c  ****         break;
 103:LEDcontrol.c  ****         case 1:
 104:LEDcontrol.c  ****         {
 105:LEDcontrol.c  ****             if(rgbLED1->blink == 1)fillcolor(rgbLED1->h, rgbLED1->s,0, rgbLED1);
 106:LEDcontrol.c  ****             if(rgbLED2->blink == 1)fillcolor(rgbLED2->h, rgbLED2->s,0, rgbLED2);
 107:LEDcontrol.c  ****             count3 = 0;
 108:LEDcontrol.c  ****         }
 109:LEDcontrol.c  ****         break;
 110:LEDcontrol.c  ****     }
 111:LEDcontrol.c  ****   
 112:LEDcontrol.c  **** }
 113:LEDcontrol.c  **** 
 114:LEDcontrol.c  **** CY_ISR(isr_delay)
 115:LEDcontrol.c  **** {
 116:LEDcontrol.c  ****     count2++;
 117:LEDcontrol.c  ****     startSeq(rgbLED1, rgbLED2);
 118:LEDcontrol.c  **** }
 119:LEDcontrol.c  **** 
 120:LEDcontrol.c  **** void setrefreshrate(int Hz)
 121:LEDcontrol.c  **** {
  32              		.loc 1 121 0
  33              		.cfi_startproc
  34              		@ args = 0, pretend = 0, frame = 0
  35              		@ frame_needed = 0, uses_anonymous_args = 0
  36              	.LVL0:
  37 0000 08B5     		push	{r3, lr}
  38              		.cfi_def_cfa_offset 8
  39              		.cfi_offset 3, -8
  40              		.cfi_offset 14, -4
 122:LEDcontrol.c  ****     Hz = 1/(float)Hz*1000*10;
  41              		.loc 1 122 0
  42 0002 FFF7FEFF 		bl	__aeabi_i2f
  43              	.LVL1:
  44 0006 0146     		mov	r1, r0
  45 0008 4FF07E50 		mov	r0, #1065353216
  46 000c FFF7FEFF 		bl	__aeabi_fdiv
  47              	.LVL2:
  48 0010 0549     		ldr	r1, .L3
  49 0012 FFF7FEFF 		bl	__aeabi_fmul
ARM GAS  C:\Users\cring\AppData\Local\Temp\ccGk4Etb.s 			page 4


  50              	.LVL3:
  51 0016 0549     		ldr	r1, .L3+4
  52 0018 FFF7FEFF 		bl	__aeabi_fmul
  53              	.LVL4:
  54 001c FFF7FEFF 		bl	__aeabi_f2iz
  55              	.LVL5:
 123:LEDcontrol.c  ****     Timer1_WritePeriod(Hz);
  56              		.loc 1 123 0
  57 0020 80B2     		uxth	r0, r0
  58              	.LVL6:
  59 0022 FFF7FEFF 		bl	Timer1_WritePeriod
  60              	.LVL7:
  61 0026 08BD     		pop	{r3, pc}
  62              	.L4:
  63              		.align	2
  64              	.L3:
  65 0028 00007A44 		.word	1148846080
  66 002c 00002041 		.word	1092616192
  67              		.cfi_endproc
  68              	.LFE69:
  69              		.size	setrefreshrate, .-setrefreshrate
  70              		.section	.text.setspeed,"ax",%progbits
  71              		.align	2
  72              		.global	setspeed
  73              		.thumb
  74              		.thumb_func
  75              		.type	setspeed, %function
  76              	setspeed:
  77              	.LFB74:
 124:LEDcontrol.c  **** }
 125:LEDcontrol.c  **** 
 126:LEDcontrol.c  **** void addLEDstrip(int LEDlength_, LEDctrl *rgbLED_, int strip)
 127:LEDcontrol.c  **** {
 128:LEDcontrol.c  ****     if (strip == 1)
 129:LEDcontrol.c  ****     {
 130:LEDcontrol.c  ****         rgbLED1 = rgbLED_;
 131:LEDcontrol.c  ****     }else{
 132:LEDcontrol.c  ****         rgbLED2 = rgbLED_;
 133:LEDcontrol.c  ****     }
 134:LEDcontrol.c  ****     
 135:LEDcontrol.c  ****     rgbLED_->LEDlength = LEDlength_;
 136:LEDcontrol.c  ****     rgbLED_->pin = strip;
 137:LEDcontrol.c  ****     LEDOff(rgbLED_);
 138:LEDcontrol.c  ****     
 139:LEDcontrol.c  ****     for(int i = 0; i < rgbLED_->LEDlength; i++)
 140:LEDcontrol.c  ****     {
 141:LEDcontrol.c  ****         setcolorLED(0,0,0,i, rgbLED_);
 142:LEDcontrol.c  ****     }
 143:LEDcontrol.c  **** }
 144:LEDcontrol.c  **** 
 145:LEDcontrol.c  **** void initLED(int Hz)
 146:LEDcontrol.c  **** {    
 147:LEDcontrol.c  ****     isr_LED_refreshrate_StartEx(isr_refreshrate);
 148:LEDcontrol.c  ****     isr_LED_ring_StartEx(isr_LED_ring);
 149:LEDcontrol.c  ****     isr_LED_pulse_StartEx(isr_LED_pulse);
 150:LEDcontrol.c  ****     isr_BlinkLED_StartEx(isr_BlinkLED);
 151:LEDcontrol.c  ****     isr_delay_StartEx(isr_delay);
ARM GAS  C:\Users\cring\AppData\Local\Temp\ccGk4Etb.s 			page 5


 152:LEDcontrol.c  ****     
 153:LEDcontrol.c  ****     LEDOff(rgbLED1);
 154:LEDcontrol.c  ****     LEDOff(rgbLED2);
 155:LEDcontrol.c  ****     
 156:LEDcontrol.c  ****     pulselength_ = 0;
 157:LEDcontrol.c  ****     index_ = 0;
 158:LEDcontrol.c  ****     index2 = MAXLEDINTENSE;
 159:LEDcontrol.c  ****     count = 0;
 160:LEDcontrol.c  ****     count2 = 0;
 161:LEDcontrol.c  ****     count3 = 0;
 162:LEDcontrol.c  ****     
 163:LEDcontrol.c  ****     
 164:LEDcontrol.c  ****     SPIM_1_Start();
 165:LEDcontrol.c  ****     Timer1_Start();
 166:LEDcontrol.c  ****     Timer2_Start();
 167:LEDcontrol.c  ****     Timer3_Start();
 168:LEDcontrol.c  ****     Timer4_Start();
 169:LEDcontrol.c  ****     
 170:LEDcontrol.c  ****     setrefreshrate(Hz);
 171:LEDcontrol.c  ****     
 172:LEDcontrol.c  **** }
 173:LEDcontrol.c  **** 
 174:LEDcontrol.c  **** 
 175:LEDcontrol.c  **** void fillcolor(double h, double s, double v, LEDctrl *rgbLED)
 176:LEDcontrol.c  **** {
 177:LEDcontrol.c  ****     for(int i = 0; i < rgbLED->LEDlength; i++)
 178:LEDcontrol.c  ****     {
 179:LEDcontrol.c  ****         setcolorLED(h, s, v, i, rgbLED);
 180:LEDcontrol.c  ****     }
 181:LEDcontrol.c  **** }
 182:LEDcontrol.c  **** 
 183:LEDcontrol.c  **** void pulseLED(double h1, double s1, double v1, LEDctrl *rgbLED)
 184:LEDcontrol.c  **** {
 185:LEDcontrol.c  ****     LEDOff(rgbLED);
 186:LEDcontrol.c  ****     rgbLED->pulse = 1;
 187:LEDcontrol.c  ****     
 188:LEDcontrol.c  ****     rgbLED->h = h1;
 189:LEDcontrol.c  ****     rgbLED->s = s1;
 190:LEDcontrol.c  ****     rgbLED->v = v1;
 191:LEDcontrol.c  ****     fillcolor(h1,s1,v1, rgbLED);
 192:LEDcontrol.c  **** }
 193:LEDcontrol.c  **** 
 194:LEDcontrol.c  **** void setspeed(int ms_ring, int ms_pulse, int ms_blink)
 195:LEDcontrol.c  **** {
  78              		.loc 1 195 0
  79              		.cfi_startproc
  80              		@ args = 0, pretend = 0, frame = 0
  81              		@ frame_needed = 0, uses_anonymous_args = 0
  82              	.LVL8:
  83 0000 38B5     		push	{r3, r4, r5, lr}
  84              		.cfi_def_cfa_offset 16
  85              		.cfi_offset 3, -16
  86              		.cfi_offset 4, -12
  87              		.cfi_offset 5, -8
  88              		.cfi_offset 14, -4
  89 0002 0546     		mov	r5, r0
  90 0004 1446     		mov	r4, r2
ARM GAS  C:\Users\cring\AppData\Local\Temp\ccGk4Etb.s 			page 6


 196:LEDcontrol.c  ****     Timer2_WritePeriod(ms_pulse*10);
  91              		.loc 1 196 0
  92 0006 01EB8101 		add	r1, r1, r1, lsl #2
  93              	.LVL9:
  94 000a 4800     		lsls	r0, r1, #1
  95              	.LVL10:
  96 000c 80B2     		uxth	r0, r0
  97 000e FFF7FEFF 		bl	Timer2_WritePeriod
  98              	.LVL11:
 197:LEDcontrol.c  ****     Timer3_WritePeriod(ms_ring*10);
  99              		.loc 1 197 0
 100 0012 05EB8505 		add	r5, r5, r5, lsl #2
 101              	.LVL12:
 102 0016 6800     		lsls	r0, r5, #1
 103 0018 80B2     		uxth	r0, r0
 104 001a FFF7FEFF 		bl	Timer3_WritePeriod
 105              	.LVL13:
 198:LEDcontrol.c  ****     Timer4_WritePeriod(ms_blink*10);
 106              		.loc 1 198 0
 107 001e 04EB8404 		add	r4, r4, r4, lsl #2
 108              	.LVL14:
 109 0022 6000     		lsls	r0, r4, #1
 110 0024 80B2     		uxth	r0, r0
 111 0026 FFF7FEFF 		bl	Timer4_WritePeriod
 112              	.LVL15:
 113 002a 38BD     		pop	{r3, r4, r5, pc}
 114              		.cfi_endproc
 115              	.LFE74:
 116              		.size	setspeed, .-setspeed
 117              		.global	__aeabi_dcmpgt
 118              		.global	__aeabi_dcmple
 119              		.global	__aeabi_d2iz
 120              		.global	__aeabi_dcmpge
 121              		.global	__aeabi_ddiv
 122              		.global	__aeabi_i2d
 123              		.global	__aeabi_dsub
 124              		.global	__aeabi_dmul
 125              		.global	__aeabi_dcmplt
 126              		.section	.text.hsv2rgb,"ax",%progbits
 127              		.align	2
 128              		.global	hsv2rgb
 129              		.thumb
 130              		.thumb_func
 131              		.type	hsv2rgb, %function
 132              	hsv2rgb:
 133              	.LFB76:
 199:LEDcontrol.c  **** }
 200:LEDcontrol.c  **** 
 201:LEDcontrol.c  **** void ringLED(int pulselength, double h1, double s1, double v1, LEDctrl *rgbLED)
 202:LEDcontrol.c  **** {
 203:LEDcontrol.c  ****     pulselength_ = pulselength;
 204:LEDcontrol.c  ****     LEDOff(rgbLED);
 205:LEDcontrol.c  ****     rgbLED->ring = 1;
 206:LEDcontrol.c  ****     
 207:LEDcontrol.c  ****     for(int i = 0; i<rgbLED->LEDlength; i++)
 208:LEDcontrol.c  ****     {
 209:LEDcontrol.c  ****         (rgbLED + i)->h = h1;
ARM GAS  C:\Users\cring\AppData\Local\Temp\ccGk4Etb.s 			page 7


 210:LEDcontrol.c  ****         (rgbLED + i)->s = s1;
 211:LEDcontrol.c  ****         (rgbLED + i)->v = v1;
 212:LEDcontrol.c  ****     }
 213:LEDcontrol.c  **** }
 214:LEDcontrol.c  **** 
 215:LEDcontrol.c  **** void hsv2rgb(double h, double s, double v, int LED, LEDctrl *rgbLED)
 216:LEDcontrol.c  **** {
 134              		.loc 1 216 0
 135              		.cfi_startproc
 136              		@ args = 16, pretend = 0, frame = 16
 137              		@ frame_needed = 0, uses_anonymous_args = 0
 138              	.LVL16:
 139 0000 2DE9F047 		push	{r4, r5, r6, r7, r8, r9, r10, lr}
 140              		.cfi_def_cfa_offset 32
 141              		.cfi_offset 4, -32
 142              		.cfi_offset 5, -28
 143              		.cfi_offset 6, -24
 144              		.cfi_offset 7, -20
 145              		.cfi_offset 8, -16
 146              		.cfi_offset 9, -12
 147              		.cfi_offset 10, -8
 148              		.cfi_offset 14, -4
 149 0004 84B0     		sub	sp, sp, #16
 150              		.cfi_def_cfa_offset 48
 151 0006 0446     		mov	r4, r0
 152 0008 0D46     		mov	r5, r1
 153 000a 9046     		mov	r8, r2
 154 000c 9946     		mov	r9, r3
 155 000e 0E9E     		ldr	r6, [sp, #56]
 156 0010 DDF83CA0 		ldr	r10, [sp, #60]
 217:LEDcontrol.c  ****     double      hh, p, q, t, ff, r, g, b;
 218:LEDcontrol.c  ****     long        i;
 219:LEDcontrol.c  ****     
 220:LEDcontrol.c  ****     if(v > MAXLEDINTENSE) v = MAXLEDINTENSE;
 157              		.loc 1 220 0
 158 0014 0022     		movs	r2, #0
 159              	.LVL17:
 160 0016 824B     		ldr	r3, .L34
 161 0018 DDE90C01 		ldrd	r0, [sp, #48]
 162              	.LVL18:
 163 001c FFF7FEFF 		bl	__aeabi_dcmpgt
 164              	.LVL19:
 165 0020 18B1     		cbz	r0, .L8
 166 0022 0022     		movs	r2, #0
 167 0024 7E4B     		ldr	r3, .L34
 168 0026 CDE90C23 		strd	r2, [sp, #48]
 169              	.L8:
 221:LEDcontrol.c  **** 
 222:LEDcontrol.c  ****     if(s <= 0.0) {       // < is bogus, just shuts up warnings
 170              		.loc 1 222 0
 171 002a 0022     		movs	r2, #0
 172 002c 0023     		movs	r3, #0
 173 002e 4046     		mov	r0, r8
 174 0030 4946     		mov	r1, r9
 175 0032 FFF7FEFF 		bl	__aeabi_dcmple
 176              	.LVL20:
 177 0036 68B1     		cbz	r0, .L32
ARM GAS  C:\Users\cring\AppData\Local\Temp\ccGk4Etb.s 			page 8


 223:LEDcontrol.c  ****         (rgbLED + LED)->green = v;
 178              		.loc 1 223 0
 179 0038 5823     		movs	r3, #88
 180 003a 03FB06F6 		mul	r6, r3, r6
 181 003e 0AEB0604 		add	r4, r10, r6
 182 0042 DDE90C01 		ldrd	r0, [sp, #48]
 183 0046 FFF7FEFF 		bl	__aeabi_d2iz
 184              	.LVL21:
 185 004a 6060     		str	r0, [r4, #4]
 224:LEDcontrol.c  ****         (rgbLED + LED)->red = v;
 186              		.loc 1 224 0
 187 004c 4AF80600 		str	r0, [r10, r6]
 225:LEDcontrol.c  ****         (rgbLED + LED)->blue = v;
 188              		.loc 1 225 0
 189 0050 A060     		str	r0, [r4, #8]
 226:LEDcontrol.c  ****         return;
 190              		.loc 1 226 0
 191 0052 E2E0     		b	.L7
 192              	.L32:
 193              	.LVL22:
 227:LEDcontrol.c  ****     }
 228:LEDcontrol.c  ****     
 229:LEDcontrol.c  ****     hh = h;
 230:LEDcontrol.c  ****     if(hh >= 360.0) hh = 0.0;
 194              		.loc 1 230 0
 195 0054 0022     		movs	r2, #0
 196 0056 734B     		ldr	r3, .L34+4
 197 0058 2046     		mov	r0, r4
 198 005a 2946     		mov	r1, r5
 199 005c FFF7FEFF 		bl	__aeabi_dcmpge
 200              	.LVL23:
 201 0060 08B1     		cbz	r0, .L12
 202 0062 0024     		movs	r4, #0
 203              	.LVL24:
 204 0064 0025     		movs	r5, #0
 205              	.L12:
 206              	.LVL25:
 231:LEDcontrol.c  ****     hh /= 60.0;
 207              		.loc 1 231 0
 208 0066 0022     		movs	r2, #0
 209 0068 6F4B     		ldr	r3, .L34+8
 210 006a 2046     		mov	r0, r4
 211 006c 2946     		mov	r1, r5
 212 006e FFF7FEFF 		bl	__aeabi_ddiv
 213              	.LVL26:
 214 0072 0446     		mov	r4, r0
 215              	.LVL27:
 216 0074 0D46     		mov	r5, r1
 217              	.LVL28:
 232:LEDcontrol.c  ****     i = (long)hh;
 218              		.loc 1 232 0
 219 0076 FFF7FEFF 		bl	__aeabi_d2iz
 220              	.LVL29:
 221 007a 0746     		mov	r7, r0
 222              	.LVL30:
 233:LEDcontrol.c  ****     ff = hh - i;
 223              		.loc 1 233 0
ARM GAS  C:\Users\cring\AppData\Local\Temp\ccGk4Etb.s 			page 9


 224 007c FFF7FEFF 		bl	__aeabi_i2d
 225              	.LVL31:
 226 0080 0246     		mov	r2, r0
 227 0082 0B46     		mov	r3, r1
 228 0084 2046     		mov	r0, r4
 229 0086 2946     		mov	r1, r5
 230 0088 FFF7FEFF 		bl	__aeabi_dsub
 231              	.LVL32:
 232 008c 0446     		mov	r4, r0
 233              	.LVL33:
 234 008e 0D46     		mov	r5, r1
 235              	.LVL34:
 234:LEDcontrol.c  ****     p = v * (1.0 - s);
 236              		.loc 1 234 0
 237 0090 4246     		mov	r2, r8
 238 0092 4B46     		mov	r3, r9
 239 0094 0020     		movs	r0, #0
 240 0096 6549     		ldr	r1, .L34+12
 241 0098 FFF7FEFF 		bl	__aeabi_dsub
 242              	.LVL35:
 243 009c 0246     		mov	r2, r0
 244 009e 0B46     		mov	r3, r1
 245 00a0 DDE90C01 		ldrd	r0, [sp, #48]
 246 00a4 FFF7FEFF 		bl	__aeabi_dmul
 247              	.LVL36:
 248 00a8 CDE90001 		strd	r0, [sp]
 249              	.LVL37:
 235:LEDcontrol.c  ****     q = v * (1.0 - (s * ff));
 250              		.loc 1 235 0
 251 00ac CDE90245 		strd	r4, [sp, #8]
 252 00b0 2246     		mov	r2, r4
 253 00b2 2B46     		mov	r3, r5
 254 00b4 4046     		mov	r0, r8
 255              	.LVL38:
 256 00b6 4946     		mov	r1, r9
 257 00b8 FFF7FEFF 		bl	__aeabi_dmul
 258              	.LVL39:
 259 00bc 0246     		mov	r2, r0
 260 00be 0B46     		mov	r3, r1
 261 00c0 0020     		movs	r0, #0
 262 00c2 5A49     		ldr	r1, .L34+12
 263 00c4 FFF7FEFF 		bl	__aeabi_dsub
 264              	.LVL40:
 265 00c8 0246     		mov	r2, r0
 266 00ca 0B46     		mov	r3, r1
 267 00cc DDE90C01 		ldrd	r0, [sp, #48]
 268 00d0 FFF7FEFF 		bl	__aeabi_dmul
 269              	.LVL41:
 270 00d4 0446     		mov	r4, r0
 271              	.LVL42:
 272 00d6 0D46     		mov	r5, r1
 273              	.LVL43:
 236:LEDcontrol.c  ****     t = v * (1.0 - (s * (1.0 - ff)));
 274              		.loc 1 236 0
 275 00d8 DDE90223 		ldrd	r2, [sp, #8]
 276 00dc 0020     		movs	r0, #0
 277 00de 5349     		ldr	r1, .L34+12
ARM GAS  C:\Users\cring\AppData\Local\Temp\ccGk4Etb.s 			page 10


 278 00e0 FFF7FEFF 		bl	__aeabi_dsub
 279              	.LVL44:
 280 00e4 0246     		mov	r2, r0
 281 00e6 0B46     		mov	r3, r1
 282 00e8 4046     		mov	r0, r8
 283 00ea 4946     		mov	r1, r9
 284 00ec FFF7FEFF 		bl	__aeabi_dmul
 285              	.LVL45:
 286 00f0 0246     		mov	r2, r0
 287 00f2 0B46     		mov	r3, r1
 288 00f4 0020     		movs	r0, #0
 289 00f6 4D49     		ldr	r1, .L34+12
 290 00f8 FFF7FEFF 		bl	__aeabi_dsub
 291              	.LVL46:
 292 00fc 0246     		mov	r2, r0
 293 00fe 0B46     		mov	r3, r1
 294 0100 DDE90C01 		ldrd	r0, [sp, #48]
 295 0104 FFF7FEFF 		bl	__aeabi_dmul
 296              	.LVL47:
 237:LEDcontrol.c  **** 
 238:LEDcontrol.c  ****     switch(i) {
 297              		.loc 1 238 0
 298 0108 042F     		cmp	r7, #4
 299 010a 24D8     		bhi	.L13
 300 010c DFE807F0 		tbb	[pc, r7]
 301              	.L15:
 302 0110 03       		.byte	(.L14-.L15)/2
 303 0111 2D       		.byte	(.L16-.L15)/2
 304 0112 08       		.byte	(.L17-.L15)/2
 305 0113 0D       		.byte	(.L18-.L15)/2
 306 0114 18       		.byte	(.L19-.L15)/2
 307 0115 00       		.p2align 1
 308              	.L14:
 239:LEDcontrol.c  ****     case 0:
 240:LEDcontrol.c  ****         r = v;
 309              		.loc 1 240 0
 310 0116 DDE90C45 		ldrd	r4, [sp, #48]
 311              	.LVL48:
 241:LEDcontrol.c  ****         g = t;
 312              		.loc 1 241 0
 313 011a CDE90C01 		strd	r0, [sp, #48]
 314 011e 24E0     		b	.L16
 315              	.LVL49:
 316              	.L17:
 242:LEDcontrol.c  ****         b = p;
 243:LEDcontrol.c  ****         break;
 244:LEDcontrol.c  ****     case 1:
 245:LEDcontrol.c  ****         r = q;
 246:LEDcontrol.c  ****         g = v;
 247:LEDcontrol.c  ****         b = p;
 248:LEDcontrol.c  ****         break;
 249:LEDcontrol.c  ****     case 2:
 250:LEDcontrol.c  ****         r = p;
 317              		.loc 1 250 0
 318 0120 DDE90045 		ldrd	r4, [sp]
 319              	.LVL50:
 251:LEDcontrol.c  ****         g = v;
ARM GAS  C:\Users\cring\AppData\Local\Temp\ccGk4Etb.s 			page 11


 252:LEDcontrol.c  ****         b = t;
 320              		.loc 1 252 0
 321 0124 CDE90001 		strd	r0, [sp]
 322              	.LVL51:
 253:LEDcontrol.c  ****         break;
 323              		.loc 1 253 0
 324 0128 1FE0     		b	.L16
 325              	.LVL52:
 326              	.L18:
 254:LEDcontrol.c  **** 
 255:LEDcontrol.c  ****     case 3:
 256:LEDcontrol.c  ****         r = p;
 257:LEDcontrol.c  ****         g = q;
 258:LEDcontrol.c  ****         b = v;
 259:LEDcontrol.c  ****         break;
 327              		.loc 1 259 0
 328 012a 2246     		mov	r2, r4
 329 012c 2B46     		mov	r3, r5
 256:LEDcontrol.c  ****         g = q;
 330              		.loc 1 256 0
 331 012e DDE90045 		ldrd	r4, [sp]
 332              	.LVL53:
 258:LEDcontrol.c  ****         break;
 333              		.loc 1 258 0
 334 0132 DDE90C01 		ldrd	r0, [sp, #48]
 335              	.LVL54:
 336 0136 CDE90001 		strd	r0, [sp]
 337              	.LVL55:
 257:LEDcontrol.c  ****         b = v;
 338              		.loc 1 257 0
 339 013a CDE90C23 		strd	r2, [sp, #48]
 340              	.LVL56:
 341              		.loc 1 259 0
 342 013e 14E0     		b	.L16
 343              	.LVL57:
 344              	.L19:
 260:LEDcontrol.c  ****     case 4:
 261:LEDcontrol.c  ****         r = t;
 262:LEDcontrol.c  ****         g = p;
 263:LEDcontrol.c  ****         b = v;
 264:LEDcontrol.c  ****         break;
 345              		.loc 1 264 0
 346 0140 DDE90C23 		ldrd	r2, [sp, #48]
 262:LEDcontrol.c  ****         b = v;
 347              		.loc 1 262 0
 348 0144 DDE90045 		ldrd	r4, [sp]
 349              	.LVL58:
 350 0148 CDE90C45 		strd	r4, [sp, #48]
 351              	.LVL59:
 263:LEDcontrol.c  ****         break;
 352              		.loc 1 263 0
 353 014c CDE90023 		strd	r2, [sp]
 354              	.LVL60:
 261:LEDcontrol.c  ****         g = p;
 355              		.loc 1 261 0
 356 0150 0446     		mov	r4, r0
 357              	.LVL61:
ARM GAS  C:\Users\cring\AppData\Local\Temp\ccGk4Etb.s 			page 12


 358 0152 0D46     		mov	r5, r1
 359              		.loc 1 264 0
 360 0154 09E0     		b	.L16
 361              	.LVL62:
 362              	.L13:
 265:LEDcontrol.c  ****     case 5:
 266:LEDcontrol.c  ****     default:
 267:LEDcontrol.c  ****         r = v;
 268:LEDcontrol.c  ****         g = p;
 269:LEDcontrol.c  ****         b = q;
 270:LEDcontrol.c  ****         break;
 363              		.loc 1 270 0
 364 0156 2246     		mov	r2, r4
 365 0158 2B46     		mov	r3, r5
 267:LEDcontrol.c  ****         g = p;
 366              		.loc 1 267 0
 367 015a DDE90C45 		ldrd	r4, [sp, #48]
 368              	.LVL63:
 268:LEDcontrol.c  ****         b = q;
 369              		.loc 1 268 0
 370 015e DDE90001 		ldrd	r0, [sp]
 371              	.LVL64:
 372 0162 CDE90C01 		strd	r0, [sp, #48]
 373              	.LVL65:
 269:LEDcontrol.c  ****         break;
 374              		.loc 1 269 0
 375 0166 CDE90023 		strd	r2, [sp]
 376              	.LVL66:
 377              	.L16:
 271:LEDcontrol.c  ****     }
 272:LEDcontrol.c  ****     r = r*256.0-1;
 378              		.loc 1 272 0
 379 016a 0022     		movs	r2, #0
 380 016c 304B     		ldr	r3, .L34+16
 381 016e 2046     		mov	r0, r4
 382 0170 2946     		mov	r1, r5
 383 0172 FFF7FEFF 		bl	__aeabi_dmul
 384              	.LVL67:
 385 0176 0022     		movs	r2, #0
 386 0178 2C4B     		ldr	r3, .L34+12
 387 017a FFF7FEFF 		bl	__aeabi_dsub
 388              	.LVL68:
 389 017e 0446     		mov	r4, r0
 390              	.LVL69:
 391 0180 0D46     		mov	r5, r1
 392              	.LVL70:
 273:LEDcontrol.c  ****     g = g*256.0-1;
 393              		.loc 1 273 0
 394 0182 0022     		movs	r2, #0
 395 0184 2A4B     		ldr	r3, .L34+16
 396 0186 DDE90C01 		ldrd	r0, [sp, #48]
 397 018a FFF7FEFF 		bl	__aeabi_dmul
 398              	.LVL71:
 399 018e 0022     		movs	r2, #0
 400 0190 264B     		ldr	r3, .L34+12
 401 0192 FFF7FEFF 		bl	__aeabi_dsub
 402              	.LVL72:
ARM GAS  C:\Users\cring\AppData\Local\Temp\ccGk4Etb.s 			page 13


 403 0196 8046     		mov	r8, r0
 404 0198 8946     		mov	r9, r1
 405              	.LVL73:
 274:LEDcontrol.c  ****     b = b*256.0-1;
 406              		.loc 1 274 0
 407 019a 0022     		movs	r2, #0
 408 019c 244B     		ldr	r3, .L34+16
 409 019e DDE90001 		ldrd	r0, [sp]
 410 01a2 FFF7FEFF 		bl	__aeabi_dmul
 411              	.LVL74:
 412 01a6 0022     		movs	r2, #0
 413 01a8 204B     		ldr	r3, .L34+12
 414 01aa FFF7FEFF 		bl	__aeabi_dsub
 415              	.LVL75:
 416 01ae CDE90001 		strd	r0, [sp]
 417              	.LVL76:
 275:LEDcontrol.c  ****     
 276:LEDcontrol.c  ****     r = r < 0 ? 0 : r;
 418              		.loc 1 276 0
 419 01b2 0022     		movs	r2, #0
 420 01b4 0023     		movs	r3, #0
 421 01b6 2046     		mov	r0, r4
 422              	.LVL77:
 423 01b8 2946     		mov	r1, r5
 424 01ba FFF7FEFF 		bl	__aeabi_dcmplt
 425              	.LVL78:
 426 01be 08B1     		cbz	r0, .L20
 427 01c0 0024     		movs	r4, #0
 428              	.LVL79:
 429 01c2 0025     		movs	r5, #0
 430              	.L20:
 431              	.LVL80:
 277:LEDcontrol.c  ****     g = g < 0 ? 0 : g;
 432              		.loc 1 277 0 discriminator 4
 433 01c4 0022     		movs	r2, #0
 434 01c6 0023     		movs	r3, #0
 435 01c8 4046     		mov	r0, r8
 436 01ca 4946     		mov	r1, r9
 437 01cc FFF7FEFF 		bl	__aeabi_dcmplt
 438              	.LVL81:
 439 01d0 18B1     		cbz	r0, .L22
 440              		.loc 1 277 0 is_stmt 0
 441 01d2 4FF00008 		mov	r8, #0
 442              	.LVL82:
 443 01d6 4FF00009 		mov	r9, #0
 444              	.L22:
 445              	.LVL83:
 278:LEDcontrol.c  ****     b = b < 0 ? 0 : b;
 446              		.loc 1 278 0 is_stmt 1 discriminator 4
 447 01da 0022     		movs	r2, #0
 448 01dc 0023     		movs	r3, #0
 449 01de DDE90001 		ldrd	r0, [sp]
 450 01e2 FFF7FEFF 		bl	__aeabi_dcmplt
 451              	.LVL84:
 452 01e6 18B1     		cbz	r0, .L24
 453              		.loc 1 278 0 is_stmt 0
 454 01e8 0022     		movs	r2, #0
ARM GAS  C:\Users\cring\AppData\Local\Temp\ccGk4Etb.s 			page 14


 455 01ea 0023     		movs	r3, #0
 456 01ec CDE90023 		strd	r2, [sp]
 457              	.LVL85:
 458              	.L24:
 279:LEDcontrol.c  ****     
 280:LEDcontrol.c  ****     (rgbLED + LED)->green = g;
 459              		.loc 1 280 0 is_stmt 1 discriminator 4
 460 01f0 5823     		movs	r3, #88
 461 01f2 03FB06F6 		mul	r6, r3, r6
 462 01f6 0AEB0607 		add	r7, r10, r6
 463              	.LVL86:
 464 01fa 4046     		mov	r0, r8
 465 01fc 4946     		mov	r1, r9
 466 01fe FFF7FEFF 		bl	__aeabi_d2iz
 467              	.LVL87:
 468 0202 7860     		str	r0, [r7, #4]
 281:LEDcontrol.c  ****     (rgbLED + LED)->red = r;
 469              		.loc 1 281 0 discriminator 4
 470 0204 2046     		mov	r0, r4
 471 0206 2946     		mov	r1, r5
 472 0208 FFF7FEFF 		bl	__aeabi_d2iz
 473              	.LVL88:
 474 020c 4AF80600 		str	r0, [r10, r6]
 282:LEDcontrol.c  ****     (rgbLED + LED)->blue = b;
 475              		.loc 1 282 0 discriminator 4
 476 0210 DDE90001 		ldrd	r0, [sp]
 477 0214 FFF7FEFF 		bl	__aeabi_d2iz
 478              	.LVL89:
 479 0218 B860     		str	r0, [r7, #8]
 480              	.LVL90:
 481              	.L7:
 283:LEDcontrol.c  ****     return;
 284:LEDcontrol.c  ****     
 285:LEDcontrol.c  **** }
 482              		.loc 1 285 0
 483 021a 04B0     		add	sp, sp, #16
 484              		.cfi_def_cfa_offset 32
 485              		@ sp needed
 486 021c BDE8F087 		pop	{r4, r5, r6, r7, r8, r9, r10, pc}
 487              	.LVL91:
 488              	.L35:
 489              		.align	2
 490              	.L34:
 491 0220 0000E03F 		.word	1071644672
 492 0224 00807640 		.word	1081507840
 493 0228 00004E40 		.word	1078853632
 494 022c 0000F03F 		.word	1072693248
 495 0230 00007040 		.word	1081081856
 496              		.cfi_endproc
 497              	.LFE76:
 498              		.size	hsv2rgb, .-hsv2rgb
 499              		.section	.text.UpdateLED,"ax",%progbits
 500              		.align	2
 501              		.global	UpdateLED
 502              		.thumb
 503              		.thumb_func
 504              		.type	UpdateLED, %function
ARM GAS  C:\Users\cring\AppData\Local\Temp\ccGk4Etb.s 			page 15


 505              	UpdateLED:
 506              	.LFB77:
 286:LEDcontrol.c  **** 
 287:LEDcontrol.c  **** void UpdateLED(LEDctrl *rgbLED)
 288:LEDcontrol.c  **** {
 507              		.loc 1 288 0
 508              		.cfi_startproc
 509              		@ args = 0, pretend = 0, frame = 0
 510              		@ frame_needed = 0, uses_anonymous_args = 0
 511              	.LVL92:
 512 0000 70B5     		push	{r4, r5, r6, lr}
 513              		.cfi_def_cfa_offset 16
 514              		.cfi_offset 4, -16
 515              		.cfi_offset 5, -12
 516              		.cfi_offset 6, -8
 517              		.cfi_offset 14, -4
 518 0002 0646     		mov	r6, r0
 289:LEDcontrol.c  ****     if(rgbLED->pin == 1){ //Hvis LED strip til pin 1 skiftes SPIM til at output til LEDdata2
 519              		.loc 1 289 0
 520 0004 436C     		ldr	r3, [r0, #68]
 521 0006 012B     		cmp	r3, #1
 522 0008 04D1     		bne	.L37
 290:LEDcontrol.c  ****         SPIMOutCtrl_Write(1);
 523              		.loc 1 290 0
 524 000a 0120     		movs	r0, #1
 525              	.LVL93:
 526 000c FFF7FEFF 		bl	SPIMOutCtrl_Write
 527              	.LVL94:
 528              	.L40:
 288:LEDcontrol.c  ****     if(rgbLED->pin == 1){ //Hvis LED strip til pin 1 skiftes SPIM til at output til LEDdata2
 529              		.loc 1 288 0 discriminator 1
 530 0010 0025     		movs	r5, #0
 531 0012 1BE0     		b	.L38
 532              	.LVL95:
 533              	.L37:
 291:LEDcontrol.c  ****     }else if (rgbLED->pin == 2){ //Hvis LEd stip til pin 2 skiftes SPIM til at output til LEDdata
 534              		.loc 1 291 0
 535 0014 022B     		cmp	r3, #2
 536 0016 1CD1     		bne	.L36
 292:LEDcontrol.c  ****         SPIMOutCtrl_Write(0);
 537              		.loc 1 292 0
 538 0018 0020     		movs	r0, #0
 539              	.LVL96:
 540 001a FFF7FEFF 		bl	SPIMOutCtrl_Write
 541              	.LVL97:
 542 001e F7E7     		b	.L40
 543              	.LVL98:
 544              	.L41:
 545              	.LBB2:
 293:LEDcontrol.c  ****     }else{
 294:LEDcontrol.c  ****         return;
 295:LEDcontrol.c  ****     }
 296:LEDcontrol.c  ****     for(int i = 0; i < rgbLED->LEDlength; i++) //Sender data til LED strip
 297:LEDcontrol.c  ****     {
 298:LEDcontrol.c  ****         //8bit grøn farve
 299:LEDcontrol.c  ****         SPIM_1_WriteTxData((rgbLED + i)->green1);
 546              		.loc 1 299 0 discriminator 3
ARM GAS  C:\Users\cring\AppData\Local\Temp\ccGk4Etb.s 			page 16


 547 0020 5824     		movs	r4, #88
 548 0022 04FB0564 		mla	r4, r4, r5, r6
 549 0026 208D     		ldrh	r0, [r4, #40]
 550 0028 FFF7FEFF 		bl	SPIM_1_WriteTxData
 551              	.LVL99:
 300:LEDcontrol.c  ****         SPIM_1_WriteTxData((rgbLED + i)->green2);
 552              		.loc 1 300 0 discriminator 3
 553 002c A08D     		ldrh	r0, [r4, #44]
 554 002e FFF7FEFF 		bl	SPIM_1_WriteTxData
 555              	.LVL100:
 301:LEDcontrol.c  ****         
 302:LEDcontrol.c  ****         //8bit rød farve
 303:LEDcontrol.c  ****         SPIM_1_WriteTxData((rgbLED + i)->red1);
 556              		.loc 1 303 0 discriminator 3
 557 0032 208E     		ldrh	r0, [r4, #48]
 558 0034 FFF7FEFF 		bl	SPIM_1_WriteTxData
 559              	.LVL101:
 304:LEDcontrol.c  ****         SPIM_1_WriteTxData((rgbLED + i)->red2);
 560              		.loc 1 304 0 discriminator 3
 561 0038 A08E     		ldrh	r0, [r4, #52]
 562 003a FFF7FEFF 		bl	SPIM_1_WriteTxData
 563              	.LVL102:
 305:LEDcontrol.c  ****         
 306:LEDcontrol.c  ****         //8bit blå farve
 307:LEDcontrol.c  ****         SPIM_1_WriteTxData((rgbLED + i)->blue1);
 564              		.loc 1 307 0 discriminator 3
 565 003e 208F     		ldrh	r0, [r4, #56]
 566 0040 FFF7FEFF 		bl	SPIM_1_WriteTxData
 567              	.LVL103:
 308:LEDcontrol.c  ****         SPIM_1_WriteTxData((rgbLED + i)->blue2);
 568              		.loc 1 308 0 discriminator 3
 569 0044 A08F     		ldrh	r0, [r4, #60]
 570 0046 FFF7FEFF 		bl	SPIM_1_WriteTxData
 571              	.LVL104:
 296:LEDcontrol.c  ****     {
 572              		.loc 1 296 0 discriminator 3
 573 004a 0135     		adds	r5, r5, #1
 574              	.LVL105:
 575              	.L38:
 296:LEDcontrol.c  ****     {
 576              		.loc 1 296 0 is_stmt 0 discriminator 1
 577 004c 336C     		ldr	r3, [r6, #64]
 578 004e 9D42     		cmp	r5, r3
 579 0050 E6DB     		blt	.L41
 580              	.LVL106:
 581              	.L36:
 582 0052 70BD     		pop	{r4, r5, r6, pc}
 583              	.LBE2:
 584              		.cfi_endproc
 585              	.LFE77:
 586              		.size	UpdateLED, .-UpdateLED
 587              		.section	.text.isr_refreshrate,"ax",%progbits
 588              		.align	2
 589              		.global	isr_refreshrate
 590              		.thumb
 591              		.thumb_func
 592              		.type	isr_refreshrate, %function
ARM GAS  C:\Users\cring\AppData\Local\Temp\ccGk4Etb.s 			page 17


 593              	isr_refreshrate:
 594              	.LFB64:
  29:LEDcontrol.c  ****     Timer1_Stop();
 595              		.loc 1 29 0 is_stmt 1
 596              		.cfi_startproc
 597              		@ args = 0, pretend = 0, frame = 0
 598              		@ frame_needed = 0, uses_anonymous_args = 0
 599 0000 08B5     		push	{r3, lr}
 600              		.cfi_def_cfa_offset 8
 601              		.cfi_offset 3, -8
 602              		.cfi_offset 14, -4
  30:LEDcontrol.c  ****     //isr_LED_refreshrate_Disable();
 603              		.loc 1 30 0
 604 0002 FFF7FEFF 		bl	Timer1_Stop
 605              	.LVL107:
  32:LEDcontrol.c  ****     {
 606              		.loc 1 32 0
 607 0006 094B     		ldr	r3, .L47
 608 0008 1868     		ldr	r0, [r3]
 609 000a 08B1     		cbz	r0, .L44
  34:LEDcontrol.c  ****     }
 610              		.loc 1 34 0
 611 000c FFF7FEFF 		bl	UpdateLED
 612              	.LVL108:
 613              	.L44:
  36:LEDcontrol.c  ****     if (rgbLED2 != NULL)
 614              		.loc 1 36 0
 615 0010 6420     		movs	r0, #100
 616 0012 FFF7FEFF 		bl	CyDelayUs
 617              	.LVL109:
  37:LEDcontrol.c  ****     {
 618              		.loc 1 37 0
 619 0016 054B     		ldr	r3, .L47
 620 0018 5868     		ldr	r0, [r3, #4]
 621 001a 08B1     		cbz	r0, .L45
  39:LEDcontrol.c  ****     }
 622              		.loc 1 39 0
 623 001c FFF7FEFF 		bl	UpdateLED
 624              	.LVL110:
 625              	.L45:
  41:LEDcontrol.c  ****     //isr_LED_refreshrate_Enable();
 626              		.loc 1 41 0
 627 0020 6420     		movs	r0, #100
 628 0022 FFF7FEFF 		bl	CyDelayUs
 629              	.LVL111:
  43:LEDcontrol.c  **** }
 630              		.loc 1 43 0
 631 0026 FFF7FEFF 		bl	Timer1_Start
 632              	.LVL112:
 633 002a 08BD     		pop	{r3, pc}
 634              	.L48:
 635              		.align	2
 636              	.L47:
 637 002c 00000000 		.word	.LANCHOR0
 638              		.cfi_endproc
 639              	.LFE64:
 640              		.size	isr_refreshrate, .-isr_refreshrate
ARM GAS  C:\Users\cring\AppData\Local\Temp\ccGk4Etb.s 			page 18


 641              		.section	.text.setcolorLED,"ax",%progbits
 642              		.align	2
 643              		.global	setcolorLED
 644              		.thumb
 645              		.thumb_func
 646              		.type	setcolorLED, %function
 647              	setcolorLED:
 648              	.LFB78:
 309:LEDcontrol.c  ****     }
 310:LEDcontrol.c  **** }
 311:LEDcontrol.c  **** 
 312:LEDcontrol.c  **** void setcolorLED(double h, double s, double v, int LED, LEDctrl *rgbLED)
 313:LEDcontrol.c  **** {
 649              		.loc 1 313 0
 650              		.cfi_startproc
 651              		@ args = 16, pretend = 0, frame = 48
 652              		@ frame_needed = 0, uses_anonymous_args = 0
 653              	.LVL113:
 654 0000 F0B5     		push	{r4, r5, r6, r7, lr}
 655              		.cfi_def_cfa_offset 20
 656              		.cfi_offset 4, -20
 657              		.cfi_offset 5, -16
 658              		.cfi_offset 6, -12
 659              		.cfi_offset 7, -8
 660              		.cfi_offset 14, -4
 661 0002 91B0     		sub	sp, sp, #68
 662              		.cfi_def_cfa_offset 88
 663 0004 189D     		ldr	r5, [sp, #96]
 664 0006 199C     		ldr	r4, [sp, #100]
 314:LEDcontrol.c  ****     int Red, Green, Blue;
 315:LEDcontrol.c  ****     
 316:LEDcontrol.c  ****     hsv2rgb(h,s,v,LED, rgbLED); //hsv konverteres til RGB og gemmes i rgbLED's red, green blue
 665              		.loc 1 316 0
 666 0008 0394     		str	r4, [sp, #12]
 667 000a 0295     		str	r5, [sp, #8]
 668 000c DDE91667 		ldrd	r6, [sp, #88]
 669 0010 CDE90067 		strd	r6, [sp]
 670 0014 FFF7FEFF 		bl	hsv2rgb
 671              	.LVL114:
 317:LEDcontrol.c  ****     
 318:LEDcontrol.c  ****     Red = (rgbLED + LED)->red;
 672              		.loc 1 318 0
 673 0018 5823     		movs	r3, #88
 674 001a 03FB05F3 		mul	r3, r3, r5
 675 001e E518     		adds	r5, r4, r3
 676 0020 E158     		ldr	r1, [r4, r3]
 677              	.LVL115:
 319:LEDcontrol.c  ****     Green = (rgbLED + LED)->green;
 678              		.loc 1 319 0
 679 0022 6868     		ldr	r0, [r5, #4]
 680              	.LVL116:
 320:LEDcontrol.c  ****     Blue = (rgbLED + LED)->blue;
 681              		.loc 1 320 0
 682 0024 AA68     		ldr	r2, [r5, #8]
 683              	.LVL117:
 684              	.LBB3:
 321:LEDcontrol.c  ****  
ARM GAS  C:\Users\cring\AppData\Local\Temp\ccGk4Etb.s 			page 19


 322:LEDcontrol.c  ****     int x = Green;
 323:LEDcontrol.c  ****     int buf[12];
 324:LEDcontrol.c  ****     
 325:LEDcontrol.c  ****     for (int i = 0; i<8; i++) //Hver farve er 8bit lang derfor konvertes hver bit til det delay som
 685              		.loc 1 325 0
 686 0026 0023     		movs	r3, #0
 687 0028 11E0     		b	.L50
 688              	.LVL118:
 689              	.L53:
 326:LEDcontrol.c  ****     {
 327:LEDcontrol.c  ****         if(x & 128)     //Tjekker om det bittet på bit plads 7 er 1
 690              		.loc 1 327 0
 691 002a 10F0800F 		tst	r0, #128
 692 002e 06D0     		beq	.L51
 328:LEDcontrol.c  ****         {
 329:LEDcontrol.c  ****             buf[i] = 0b110; //Konverterer 1 til det tilsvarende delay
 693              		.loc 1 329 0
 694 0030 0626     		movs	r6, #6
 695 0032 10AC     		add	r4, sp, #64
 696 0034 04EB8304 		add	r4, r4, r3, lsl #2
 697 0038 44F8306C 		str	r6, [r4, #-48]
 698 003c 05E0     		b	.L52
 699              	.L51:
 330:LEDcontrol.c  ****         }else{
 331:LEDcontrol.c  ****             buf[i] = 0b100; //Konverterer 0 til det tilsvarende delay
 700              		.loc 1 331 0
 701 003e 0426     		movs	r6, #4
 702 0040 10AC     		add	r4, sp, #64
 703 0042 04EB8304 		add	r4, r4, r3, lsl #2
 704 0046 44F8306C 		str	r6, [r4, #-48]
 705              	.L52:
 332:LEDcontrol.c  ****         }
 333:LEDcontrol.c  ****         x = x<<1;   //Flytter alle bit i x til venstre, så næste bit gang tjekkes
 706              		.loc 1 333 0 discriminator 2
 707 004a 4000     		lsls	r0, r0, #1
 708              	.LVL119:
 325:LEDcontrol.c  ****     {
 709              		.loc 1 325 0 discriminator 2
 710 004c 0133     		adds	r3, r3, #1
 711              	.LVL120:
 712              	.L50:
 325:LEDcontrol.c  ****     {
 713              		.loc 1 325 0 is_stmt 0 discriminator 1
 714 004e 072B     		cmp	r3, #7
 715 0050 EBDD     		ble	.L53
 716              	.LBE3:
 334:LEDcontrol.c  ****     }
 335:LEDcontrol.c  ****     //Da SPI komponenten maks kan sende 16bit af gange og der skal sendes 24bit for hver farve dele
 336:LEDcontrol.c  ****     (rgbLED + LED)->green1 = (buf[0]<<9) + (buf[1]<<6) + (buf[2]<<3) + buf[3];
 717              		.loc 1 336 0 is_stmt 1
 718 0052 059B     		ldr	r3, [sp, #20]
 719              	.LVL121:
 720 0054 9B01     		lsls	r3, r3, #6
 721 0056 0498     		ldr	r0, [sp, #16]
 722              	.LVL122:
 723 0058 03EB4023 		add	r3, r3, r0, lsl #9
 724 005c 0698     		ldr	r0, [sp, #24]
ARM GAS  C:\Users\cring\AppData\Local\Temp\ccGk4Etb.s 			page 20


 725 005e 03EBC003 		add	r3, r3, r0, lsl #3
 726 0062 0798     		ldr	r0, [sp, #28]
 727 0064 0344     		add	r3, r3, r0
 728 0066 AB62     		str	r3, [r5, #40]
 337:LEDcontrol.c  ****     (rgbLED + LED)->green2 = (buf[4]<<9) + (buf[5]<<6) + (buf[6]<<3) + buf[7];
 729              		.loc 1 337 0
 730 0068 099B     		ldr	r3, [sp, #36]
 731 006a 9B01     		lsls	r3, r3, #6
 732 006c 0898     		ldr	r0, [sp, #32]
 733 006e 03EB4023 		add	r3, r3, r0, lsl #9
 734 0072 0A98     		ldr	r0, [sp, #40]
 735 0074 03EBC003 		add	r3, r3, r0, lsl #3
 736 0078 0B98     		ldr	r0, [sp, #44]
 737 007a 0344     		add	r3, r3, r0
 738 007c EB62     		str	r3, [r5, #44]
 739              	.LVL123:
 740              	.LBB4:
 338:LEDcontrol.c  ****     
 339:LEDcontrol.c  ****     x = Red;
 340:LEDcontrol.c  ****     for (int i = 0; i<8; i++)
 741              		.loc 1 340 0
 742 007e 0023     		movs	r3, #0
 743 0080 11E0     		b	.L54
 744              	.LVL124:
 745              	.L57:
 341:LEDcontrol.c  ****     {
 342:LEDcontrol.c  ****         if(x & 128)
 746              		.loc 1 342 0
 747 0082 11F0800F 		tst	r1, #128
 748 0086 06D0     		beq	.L55
 343:LEDcontrol.c  ****         {
 344:LEDcontrol.c  ****             buf[i] = 0b110;
 749              		.loc 1 344 0
 750 0088 0624     		movs	r4, #6
 751 008a 10A8     		add	r0, sp, #64
 752 008c 00EB8300 		add	r0, r0, r3, lsl #2
 753 0090 40F8304C 		str	r4, [r0, #-48]
 754 0094 05E0     		b	.L56
 755              	.L55:
 345:LEDcontrol.c  ****         }else{
 346:LEDcontrol.c  ****             buf[i] = 0b100;
 756              		.loc 1 346 0
 757 0096 0424     		movs	r4, #4
 758 0098 10A8     		add	r0, sp, #64
 759 009a 00EB8300 		add	r0, r0, r3, lsl #2
 760 009e 40F8304C 		str	r4, [r0, #-48]
 761              	.L56:
 347:LEDcontrol.c  ****         }
 348:LEDcontrol.c  ****         x = x<<1;
 762              		.loc 1 348 0 discriminator 2
 763 00a2 4900     		lsls	r1, r1, #1
 764              	.LVL125:
 340:LEDcontrol.c  ****     {
 765              		.loc 1 340 0 discriminator 2
 766 00a4 0133     		adds	r3, r3, #1
 767              	.LVL126:
 768              	.L54:
ARM GAS  C:\Users\cring\AppData\Local\Temp\ccGk4Etb.s 			page 21


 340:LEDcontrol.c  ****     {
 769              		.loc 1 340 0 is_stmt 0 discriminator 1
 770 00a6 072B     		cmp	r3, #7
 771 00a8 EBDD     		ble	.L57
 772              	.LBE4:
 349:LEDcontrol.c  ****     }
 350:LEDcontrol.c  ****     (rgbLED + LED)->red1 = (buf[0]<<9) + (buf[1]<<6) + (buf[2]<<3) + buf[3];
 773              		.loc 1 350 0 is_stmt 1
 774 00aa 059B     		ldr	r3, [sp, #20]
 775              	.LVL127:
 776 00ac 9B01     		lsls	r3, r3, #6
 777 00ae 0499     		ldr	r1, [sp, #16]
 778              	.LVL128:
 779 00b0 03EB4123 		add	r3, r3, r1, lsl #9
 780 00b4 0699     		ldr	r1, [sp, #24]
 781 00b6 03EBC103 		add	r3, r3, r1, lsl #3
 782 00ba 0799     		ldr	r1, [sp, #28]
 783 00bc 0B44     		add	r3, r3, r1
 784 00be 2B63     		str	r3, [r5, #48]
 351:LEDcontrol.c  ****     (rgbLED + LED)->red2 = (buf[4]<<9) + (buf[5]<<6) + (buf[6]<<3) + buf[7];
 785              		.loc 1 351 0
 786 00c0 099B     		ldr	r3, [sp, #36]
 787 00c2 9B01     		lsls	r3, r3, #6
 788 00c4 0899     		ldr	r1, [sp, #32]
 789 00c6 03EB4123 		add	r3, r3, r1, lsl #9
 790 00ca 0A99     		ldr	r1, [sp, #40]
 791 00cc 03EBC103 		add	r3, r3, r1, lsl #3
 792 00d0 0B99     		ldr	r1, [sp, #44]
 793 00d2 0B44     		add	r3, r3, r1
 794 00d4 6B63     		str	r3, [r5, #52]
 795              	.LVL129:
 796              	.LBB5:
 352:LEDcontrol.c  ****     
 353:LEDcontrol.c  ****     x = Blue;
 354:LEDcontrol.c  ****     for (int i = 0; i<8; i++)
 797              		.loc 1 354 0
 798 00d6 0023     		movs	r3, #0
 799 00d8 11E0     		b	.L58
 800              	.LVL130:
 801              	.L61:
 355:LEDcontrol.c  ****     {
 356:LEDcontrol.c  ****         if(x & 128)
 802              		.loc 1 356 0
 803 00da 12F0800F 		tst	r2, #128
 804 00de 06D0     		beq	.L59
 357:LEDcontrol.c  ****         {
 358:LEDcontrol.c  ****             buf[i] = 0b110;
 805              		.loc 1 358 0
 806 00e0 0620     		movs	r0, #6
 807 00e2 10A9     		add	r1, sp, #64
 808 00e4 01EB8301 		add	r1, r1, r3, lsl #2
 809 00e8 41F8300C 		str	r0, [r1, #-48]
 810 00ec 05E0     		b	.L60
 811              	.L59:
 359:LEDcontrol.c  ****         }else{
 360:LEDcontrol.c  ****             buf[i] = 0b100;
 812              		.loc 1 360 0
ARM GAS  C:\Users\cring\AppData\Local\Temp\ccGk4Etb.s 			page 22


 813 00ee 0420     		movs	r0, #4
 814 00f0 10A9     		add	r1, sp, #64
 815 00f2 01EB8301 		add	r1, r1, r3, lsl #2
 816 00f6 41F8300C 		str	r0, [r1, #-48]
 817              	.L60:
 361:LEDcontrol.c  ****         }
 362:LEDcontrol.c  ****         x = x<<1;
 818              		.loc 1 362 0 discriminator 2
 819 00fa 5200     		lsls	r2, r2, #1
 820              	.LVL131:
 354:LEDcontrol.c  ****     {
 821              		.loc 1 354 0 discriminator 2
 822 00fc 0133     		adds	r3, r3, #1
 823              	.LVL132:
 824              	.L58:
 354:LEDcontrol.c  ****     {
 825              		.loc 1 354 0 is_stmt 0 discriminator 1
 826 00fe 072B     		cmp	r3, #7
 827 0100 EBDD     		ble	.L61
 828              	.LBE5:
 363:LEDcontrol.c  ****     }
 364:LEDcontrol.c  ****     (rgbLED + LED)->blue1 = (buf[0]<<9) + (buf[1]<<6) + (buf[2]<<3) + buf[3];
 829              		.loc 1 364 0 is_stmt 1
 830 0102 059B     		ldr	r3, [sp, #20]
 831              	.LVL133:
 832 0104 9B01     		lsls	r3, r3, #6
 833 0106 049A     		ldr	r2, [sp, #16]
 834              	.LVL134:
 835 0108 03EB4223 		add	r3, r3, r2, lsl #9
 836 010c 069A     		ldr	r2, [sp, #24]
 837 010e 03EBC203 		add	r3, r3, r2, lsl #3
 838 0112 079A     		ldr	r2, [sp, #28]
 839 0114 1344     		add	r3, r3, r2
 840 0116 AB63     		str	r3, [r5, #56]
 365:LEDcontrol.c  ****     (rgbLED + LED)->blue2 = (buf[4]<<9) + (buf[5]<<6) + (buf[6]<<3) + buf[7];
 841              		.loc 1 365 0
 842 0118 099B     		ldr	r3, [sp, #36]
 843 011a 9B01     		lsls	r3, r3, #6
 844 011c 089A     		ldr	r2, [sp, #32]
 845 011e 03EB4223 		add	r3, r3, r2, lsl #9
 846 0122 0A9A     		ldr	r2, [sp, #40]
 847 0124 03EBC203 		add	r3, r3, r2, lsl #3
 848 0128 0B9A     		ldr	r2, [sp, #44]
 849 012a 1344     		add	r3, r3, r2
 850 012c EB63     		str	r3, [r5, #60]
 366:LEDcontrol.c  **** 
 367:LEDcontrol.c  **** }
 851              		.loc 1 367 0
 852 012e 11B0     		add	sp, sp, #68
 853              		.cfi_def_cfa_offset 20
 854              		@ sp needed
 855 0130 F0BD     		pop	{r4, r5, r6, r7, pc}
 856              		.cfi_endproc
 857              	.LFE78:
 858              		.size	setcolorLED, .-setcolorLED
 859 0132 00BF     		.section	.text.fillcolor,"ax",%progbits
 860              		.align	2
ARM GAS  C:\Users\cring\AppData\Local\Temp\ccGk4Etb.s 			page 23


 861              		.global	fillcolor
 862              		.thumb
 863              		.thumb_func
 864              		.type	fillcolor, %function
 865              	fillcolor:
 866              	.LFB72:
 176:LEDcontrol.c  ****     for(int i = 0; i < rgbLED->LEDlength; i++)
 867              		.loc 1 176 0
 868              		.cfi_startproc
 869              		@ args = 12, pretend = 0, frame = 0
 870              		@ frame_needed = 0, uses_anonymous_args = 0
 871              	.LVL135:
 872 0000 2DE9F04F 		push	{r4, r5, r6, r7, r8, r9, r10, fp, lr}
 873              		.cfi_def_cfa_offset 36
 874              		.cfi_offset 4, -36
 875              		.cfi_offset 5, -32
 876              		.cfi_offset 6, -28
 877              		.cfi_offset 7, -24
 878              		.cfi_offset 8, -20
 879              		.cfi_offset 9, -16
 880              		.cfi_offset 10, -12
 881              		.cfi_offset 11, -8
 882              		.cfi_offset 14, -4
 883 0004 85B0     		sub	sp, sp, #20
 884              		.cfi_def_cfa_offset 56
 885 0006 8046     		mov	r8, r0
 886 0008 8946     		mov	r9, r1
 887 000a 9246     		mov	r10, r2
 888 000c 9B46     		mov	fp, r3
 889 000e DDE90E45 		ldrd	r4, [sp, #56]
 890 0012 109F     		ldr	r7, [sp, #64]
 891              	.LVL136:
 892              	.LBB6:
 177:LEDcontrol.c  ****     {
 893              		.loc 1 177 0
 894 0014 0026     		movs	r6, #0
 895 0016 0AE0     		b	.L64
 896              	.LVL137:
 897              	.L65:
 179:LEDcontrol.c  ****     }
 898              		.loc 1 179 0 discriminator 3
 899 0018 0397     		str	r7, [sp, #12]
 900 001a 0296     		str	r6, [sp, #8]
 901 001c CDE90045 		strd	r4, [sp]
 902 0020 5246     		mov	r2, r10
 903 0022 5B46     		mov	r3, fp
 904 0024 4046     		mov	r0, r8
 905 0026 4946     		mov	r1, r9
 906 0028 FFF7FEFF 		bl	setcolorLED
 907              	.LVL138:
 177:LEDcontrol.c  ****     {
 908              		.loc 1 177 0 discriminator 3
 909 002c 0136     		adds	r6, r6, #1
 910              	.LVL139:
 911              	.L64:
 177:LEDcontrol.c  ****     {
 912              		.loc 1 177 0 is_stmt 0 discriminator 1
ARM GAS  C:\Users\cring\AppData\Local\Temp\ccGk4Etb.s 			page 24


 913 002e 3B6C     		ldr	r3, [r7, #64]
 914 0030 9E42     		cmp	r6, r3
 915 0032 F1DB     		blt	.L65
 916              	.LBE6:
 181:LEDcontrol.c  **** 
 917              		.loc 1 181 0 is_stmt 1
 918 0034 05B0     		add	sp, sp, #20
 919              		.cfi_def_cfa_offset 36
 920              		@ sp needed
 921 0036 BDE8F08F 		pop	{r4, r5, r6, r7, r8, r9, r10, fp, pc}
 922              		.cfi_endproc
 923              	.LFE72:
 924              		.size	fillcolor, .-fillcolor
 925              		.global	__aeabi_f2d
 926              		.global	__aeabi_d2f
 927              		.global	__aeabi_fcmplt
 928              		.global	__aeabi_dadd
 929              		.global	__aeabi_fcmpeq
 930 003a 00BF     		.section	.text.isr_LED_pulse,"ax",%progbits
 931              		.align	2
 932              		.global	isr_LED_pulse
 933              		.thumb
 934              		.thumb_func
 935              		.type	isr_LED_pulse, %function
 936              	isr_LED_pulse:
 937              	.LFB66:
  75:LEDcontrol.c  ****     
 938              		.loc 1 75 0
 939              		.cfi_startproc
 940              		@ args = 0, pretend = 0, frame = 0
 941              		@ frame_needed = 0, uses_anonymous_args = 0
 942 0000 F0B5     		push	{r4, r5, r6, r7, lr}
 943              		.cfi_def_cfa_offset 20
 944              		.cfi_offset 4, -20
 945              		.cfi_offset 5, -16
 946              		.cfi_offset 6, -12
 947              		.cfi_offset 7, -8
 948              		.cfi_offset 14, -4
 949 0002 85B0     		sub	sp, sp, #20
 950              		.cfi_def_cfa_offset 40
  77:LEDcontrol.c  ****     {
 951              		.loc 1 77 0
 952 0004 464B     		ldr	r3, .L79+8
 953 0006 9B68     		ldr	r3, [r3, #8]
 954 0008 002B     		cmp	r3, #0
 955 000a 40D1     		bne	.L68
  79:LEDcontrol.c  ****         if (rgbLED2->pulse == 1)fillcolor(rgbLED2->h,rgbLED2->s,index2, rgbLED2);
 956              		.loc 1 79 0
 957 000c 444B     		ldr	r3, .L79+8
 958 000e 1B68     		ldr	r3, [r3]
 959 0010 DA6C     		ldr	r2, [r3, #76]
 960 0012 012A     		cmp	r2, #1
 961 0014 10D1     		bne	.L69
  79:LEDcontrol.c  ****         if (rgbLED2->pulse == 1)fillcolor(rgbLED2->h,rgbLED2->s,index2, rgbLED2);
 962              		.loc 1 79 0 is_stmt 0 discriminator 1
 963 0016 D3E90667 		ldrd	r6, [r3, #24]
 964 001a D3E90445 		ldrd	r4, [r3, #16]
ARM GAS  C:\Users\cring\AppData\Local\Temp\ccGk4Etb.s 			page 25


 965 001e 0293     		str	r3, [sp, #8]
 966 0020 404B     		ldr	r3, .L79+12
 967 0022 1868     		ldr	r0, [r3]	@ float
 968 0024 FFF7FEFF 		bl	__aeabi_f2d
 969              	.LVL140:
 970 0028 CDE90001 		strd	r0, [sp]
 971 002c 3246     		mov	r2, r6
 972 002e 3B46     		mov	r3, r7
 973 0030 2046     		mov	r0, r4
 974 0032 2946     		mov	r1, r5
 975 0034 FFF7FEFF 		bl	fillcolor
 976              	.LVL141:
 977              	.L69:
  80:LEDcontrol.c  ****         index2 = index2-0.01;
 978              		.loc 1 80 0 is_stmt 1
 979 0038 394B     		ldr	r3, .L79+8
 980 003a 5B68     		ldr	r3, [r3, #4]
 981 003c DA6C     		ldr	r2, [r3, #76]
 982 003e 012A     		cmp	r2, #1
 983 0040 10D1     		bne	.L70
  80:LEDcontrol.c  ****         index2 = index2-0.01;
 984              		.loc 1 80 0 is_stmt 0 discriminator 1
 985 0042 D3E90667 		ldrd	r6, [r3, #24]
 986 0046 D3E90445 		ldrd	r4, [r3, #16]
 987 004a 0293     		str	r3, [sp, #8]
 988 004c 354B     		ldr	r3, .L79+12
 989 004e 1868     		ldr	r0, [r3]	@ float
 990 0050 FFF7FEFF 		bl	__aeabi_f2d
 991              	.LVL142:
 992 0054 CDE90001 		strd	r0, [sp]
 993 0058 3246     		mov	r2, r6
 994 005a 3B46     		mov	r3, r7
 995 005c 2046     		mov	r0, r4
 996 005e 2946     		mov	r1, r5
 997 0060 FFF7FEFF 		bl	fillcolor
 998              	.LVL143:
 999              	.L70:
  81:LEDcontrol.c  ****         if (index2 < 0)count = 1;
 1000              		.loc 1 81 0 is_stmt 1
 1001 0064 2F4C     		ldr	r4, .L79+12
 1002 0066 2068     		ldr	r0, [r4]	@ float
 1003 0068 FFF7FEFF 		bl	__aeabi_f2d
 1004              	.LVL144:
 1005 006c 2AA3     		adr	r3, .L79
 1006 006e D3E90023 		ldrd	r2, [r3]
 1007 0072 FFF7FEFF 		bl	__aeabi_dsub
 1008              	.LVL145:
 1009 0076 FFF7FEFF 		bl	__aeabi_d2f
 1010              	.LVL146:
 1011 007a 2060     		str	r0, [r4]	@ float
  82:LEDcontrol.c  ****     }else if(count == 1){
 1012              		.loc 1 82 0
 1013 007c 0021     		movs	r1, #0
 1014 007e FFF7FEFF 		bl	__aeabi_fcmplt
 1015              	.LVL147:
 1016 0082 0028     		cmp	r0, #0
 1017 0084 45D0     		beq	.L67
ARM GAS  C:\Users\cring\AppData\Local\Temp\ccGk4Etb.s 			page 26


  82:LEDcontrol.c  ****     }else if(count == 1){
 1018              		.loc 1 82 0 is_stmt 0 discriminator 1
 1019 0086 0122     		movs	r2, #1
 1020 0088 254B     		ldr	r3, .L79+8
 1021 008a 9A60     		str	r2, [r3, #8]
 1022 008c 41E0     		b	.L67
 1023              	.L68:
  83:LEDcontrol.c  ****         if (rgbLED1->pulse == 1)fillcolor(rgbLED1->h,rgbLED1->s,index2, rgbLED1);
 1024              		.loc 1 83 0 is_stmt 1
 1025 008e 012B     		cmp	r3, #1
 1026 0090 3FD1     		bne	.L67
  84:LEDcontrol.c  ****         if (rgbLED2->pulse == 1)fillcolor(rgbLED2->h,rgbLED2->s,index2, rgbLED2);
 1027              		.loc 1 84 0
 1028 0092 234B     		ldr	r3, .L79+8
 1029 0094 1B68     		ldr	r3, [r3]
 1030 0096 DA6C     		ldr	r2, [r3, #76]
 1031 0098 012A     		cmp	r2, #1
 1032 009a 10D1     		bne	.L73
  84:LEDcontrol.c  ****         if (rgbLED2->pulse == 1)fillcolor(rgbLED2->h,rgbLED2->s,index2, rgbLED2);
 1033              		.loc 1 84 0 is_stmt 0 discriminator 1
 1034 009c D3E90667 		ldrd	r6, [r3, #24]
 1035 00a0 D3E90445 		ldrd	r4, [r3, #16]
 1036 00a4 0293     		str	r3, [sp, #8]
 1037 00a6 1F4B     		ldr	r3, .L79+12
 1038 00a8 1868     		ldr	r0, [r3]	@ float
 1039 00aa FFF7FEFF 		bl	__aeabi_f2d
 1040              	.LVL148:
 1041 00ae CDE90001 		strd	r0, [sp]
 1042 00b2 3246     		mov	r2, r6
 1043 00b4 3B46     		mov	r3, r7
 1044 00b6 2046     		mov	r0, r4
 1045 00b8 2946     		mov	r1, r5
 1046 00ba FFF7FEFF 		bl	fillcolor
 1047              	.LVL149:
 1048              	.L73:
  85:LEDcontrol.c  ****         index2 = index2+0.01;
 1049              		.loc 1 85 0 is_stmt 1
 1050 00be 184B     		ldr	r3, .L79+8
 1051 00c0 5B68     		ldr	r3, [r3, #4]
 1052 00c2 DA6C     		ldr	r2, [r3, #76]
 1053 00c4 012A     		cmp	r2, #1
 1054 00c6 10D1     		bne	.L74
  85:LEDcontrol.c  ****         index2 = index2+0.01;
 1055              		.loc 1 85 0 is_stmt 0 discriminator 1
 1056 00c8 D3E90667 		ldrd	r6, [r3, #24]
 1057 00cc D3E90445 		ldrd	r4, [r3, #16]
 1058 00d0 0293     		str	r3, [sp, #8]
 1059 00d2 144B     		ldr	r3, .L79+12
 1060 00d4 1868     		ldr	r0, [r3]	@ float
 1061 00d6 FFF7FEFF 		bl	__aeabi_f2d
 1062              	.LVL150:
 1063 00da CDE90001 		strd	r0, [sp]
 1064 00de 3246     		mov	r2, r6
 1065 00e0 3B46     		mov	r3, r7
 1066 00e2 2046     		mov	r0, r4
 1067 00e4 2946     		mov	r1, r5
 1068 00e6 FFF7FEFF 		bl	fillcolor
ARM GAS  C:\Users\cring\AppData\Local\Temp\ccGk4Etb.s 			page 27


 1069              	.LVL151:
 1070              	.L74:
  86:LEDcontrol.c  ****         if (index2 == MAXLEDINTENSE)count = 0;
 1071              		.loc 1 86 0 is_stmt 1
 1072 00ea 0E4C     		ldr	r4, .L79+12
 1073 00ec 2068     		ldr	r0, [r4]	@ float
 1074 00ee FFF7FEFF 		bl	__aeabi_f2d
 1075              	.LVL152:
 1076 00f2 09A3     		adr	r3, .L79
 1077 00f4 D3E90023 		ldrd	r2, [r3]
 1078 00f8 FFF7FEFF 		bl	__aeabi_dadd
 1079              	.LVL153:
 1080 00fc FFF7FEFF 		bl	__aeabi_d2f
 1081              	.LVL154:
 1082 0100 2060     		str	r0, [r4]	@ float
  87:LEDcontrol.c  ****     }
 1083              		.loc 1 87 0
 1084 0102 4FF07C51 		mov	r1, #1056964608
 1085 0106 FFF7FEFF 		bl	__aeabi_fcmpeq
 1086              	.LVL155:
 1087 010a 10B1     		cbz	r0, .L67
  87:LEDcontrol.c  ****     }
 1088              		.loc 1 87 0 is_stmt 0 discriminator 1
 1089 010c 0022     		movs	r2, #0
 1090 010e 044B     		ldr	r3, .L79+8
 1091 0110 9A60     		str	r2, [r3, #8]
 1092              	.L67:
  90:LEDcontrol.c  **** 
 1093              		.loc 1 90 0 is_stmt 1
 1094 0112 05B0     		add	sp, sp, #20
 1095              		.cfi_def_cfa_offset 20
 1096              		@ sp needed
 1097 0114 F0BD     		pop	{r4, r5, r6, r7, pc}
 1098              	.L80:
 1099 0116 00BF     		.align	3
 1100              	.L79:
 1101 0118 7B14AE47 		.word	1202590843
 1102 011c E17A843F 		.word	1065646817
 1103 0120 00000000 		.word	.LANCHOR0
 1104 0124 00000000 		.word	.LANCHOR1
 1105              		.cfi_endproc
 1106              	.LFE66:
 1107              		.size	isr_LED_pulse, .-isr_LED_pulse
 1108              		.section	.text.isr_BlinkLED,"ax",%progbits
 1109              		.align	2
 1110              		.global	isr_BlinkLED
 1111              		.thumb
 1112              		.thumb_func
 1113              		.type	isr_BlinkLED, %function
 1114              	isr_BlinkLED:
 1115              	.LFB67:
  93:LEDcontrol.c  ****     switch (count3)
 1116              		.loc 1 93 0
 1117              		.cfi_startproc
 1118              		@ args = 0, pretend = 0, frame = 0
 1119              		@ frame_needed = 0, uses_anonymous_args = 0
 1120 0000 30B5     		push	{r4, r5, lr}
ARM GAS  C:\Users\cring\AppData\Local\Temp\ccGk4Etb.s 			page 28


 1121              		.cfi_def_cfa_offset 12
 1122              		.cfi_offset 4, -12
 1123              		.cfi_offset 5, -8
 1124              		.cfi_offset 14, -4
 1125 0002 85B0     		sub	sp, sp, #20
 1126              		.cfi_def_cfa_offset 32
  94:LEDcontrol.c  ****     {
 1127              		.loc 1 94 0
 1128 0004 2B4B     		ldr	r3, .L90
 1129 0006 DB68     		ldr	r3, [r3, #12]
 1130 0008 13B1     		cbz	r3, .L83
 1131 000a 012B     		cmp	r3, #1
 1132 000c 29D0     		beq	.L84
 1133 000e 4FE0     		b	.L81
 1134              	.L83:
  98:LEDcontrol.c  ****             if(rgbLED2->blink == 1) fillcolor(rgbLED2->h, rgbLED2->s,1, rgbLED2);
 1135              		.loc 1 98 0
 1136 0010 284B     		ldr	r3, .L90
 1137 0012 1B68     		ldr	r3, [r3]
 1138 0014 1A6D     		ldr	r2, [r3, #80]
 1139 0016 012A     		cmp	r2, #1
 1140 0018 0CD1     		bne	.L85
  98:LEDcontrol.c  ****             if(rgbLED2->blink == 1) fillcolor(rgbLED2->h, rgbLED2->s,1, rgbLED2);
 1141              		.loc 1 98 0 is_stmt 0 discriminator 1
 1142 001a D3E90645 		ldrd	r4, [r3, #24]
 1143 001e D3E90401 		ldrd	r0, [r3, #16]
 1144 0022 0293     		str	r3, [sp, #8]
 1145 0024 0022     		movs	r2, #0
 1146 0026 244B     		ldr	r3, .L90+4
 1147 0028 CDE90023 		strd	r2, [sp]
 1148 002c 2246     		mov	r2, r4
 1149 002e 2B46     		mov	r3, r5
 1150 0030 FFF7FEFF 		bl	fillcolor
 1151              	.LVL156:
 1152              	.L85:
  99:LEDcontrol.c  ****             count3++;
 1153              		.loc 1 99 0 is_stmt 1
 1154 0034 1F4B     		ldr	r3, .L90
 1155 0036 5B68     		ldr	r3, [r3, #4]
 1156 0038 1A6D     		ldr	r2, [r3, #80]
 1157 003a 012A     		cmp	r2, #1
 1158 003c 0CD1     		bne	.L86
  99:LEDcontrol.c  ****             count3++;
 1159              		.loc 1 99 0 is_stmt 0 discriminator 1
 1160 003e D3E90645 		ldrd	r4, [r3, #24]
 1161 0042 D3E90401 		ldrd	r0, [r3, #16]
 1162 0046 0293     		str	r3, [sp, #8]
 1163 0048 0022     		movs	r2, #0
 1164 004a 1B4B     		ldr	r3, .L90+4
 1165 004c CDE90023 		strd	r2, [sp]
 1166 0050 2246     		mov	r2, r4
 1167 0052 2B46     		mov	r3, r5
 1168 0054 FFF7FEFF 		bl	fillcolor
 1169              	.LVL157:
 1170              	.L86:
 100:LEDcontrol.c  ****         }
 1171              		.loc 1 100 0 is_stmt 1
ARM GAS  C:\Users\cring\AppData\Local\Temp\ccGk4Etb.s 			page 29


 1172 0058 164A     		ldr	r2, .L90
 1173 005a D368     		ldr	r3, [r2, #12]
 1174 005c 0133     		adds	r3, r3, #1
 1175 005e D360     		str	r3, [r2, #12]
 102:LEDcontrol.c  ****         case 1:
 1176              		.loc 1 102 0
 1177 0060 26E0     		b	.L81
 1178              	.L84:
 105:LEDcontrol.c  ****             if(rgbLED2->blink == 1)fillcolor(rgbLED2->h, rgbLED2->s,0, rgbLED2);
 1179              		.loc 1 105 0
 1180 0062 144B     		ldr	r3, .L90
 1181 0064 1B68     		ldr	r3, [r3]
 1182 0066 1A6D     		ldr	r2, [r3, #80]
 1183 0068 012A     		cmp	r2, #1
 1184 006a 0CD1     		bne	.L87
 105:LEDcontrol.c  ****             if(rgbLED2->blink == 1)fillcolor(rgbLED2->h, rgbLED2->s,0, rgbLED2);
 1185              		.loc 1 105 0 is_stmt 0 discriminator 1
 1186 006c D3E90645 		ldrd	r4, [r3, #24]
 1187 0070 D3E90401 		ldrd	r0, [r3, #16]
 1188 0074 0293     		str	r3, [sp, #8]
 1189 0076 0022     		movs	r2, #0
 1190 0078 0023     		movs	r3, #0
 1191 007a CDE90023 		strd	r2, [sp]
 1192 007e 2246     		mov	r2, r4
 1193 0080 2B46     		mov	r3, r5
 1194 0082 FFF7FEFF 		bl	fillcolor
 1195              	.LVL158:
 1196              	.L87:
 106:LEDcontrol.c  ****             count3 = 0;
 1197              		.loc 1 106 0 is_stmt 1
 1198 0086 0B4B     		ldr	r3, .L90
 1199 0088 5B68     		ldr	r3, [r3, #4]
 1200 008a 1A6D     		ldr	r2, [r3, #80]
 1201 008c 012A     		cmp	r2, #1
 1202 008e 0CD1     		bne	.L88
 106:LEDcontrol.c  ****             count3 = 0;
 1203              		.loc 1 106 0 is_stmt 0 discriminator 1
 1204 0090 D3E90645 		ldrd	r4, [r3, #24]
 1205 0094 D3E90401 		ldrd	r0, [r3, #16]
 1206 0098 0293     		str	r3, [sp, #8]
 1207 009a 0022     		movs	r2, #0
 1208 009c 0023     		movs	r3, #0
 1209 009e CDE90023 		strd	r2, [sp]
 1210 00a2 2246     		mov	r2, r4
 1211 00a4 2B46     		mov	r3, r5
 1212 00a6 FFF7FEFF 		bl	fillcolor
 1213              	.LVL159:
 1214              	.L88:
 107:LEDcontrol.c  ****         }
 1215              		.loc 1 107 0 is_stmt 1
 1216 00aa 0022     		movs	r2, #0
 1217 00ac 014B     		ldr	r3, .L90
 1218 00ae DA60     		str	r2, [r3, #12]
 1219              	.L81:
 112:LEDcontrol.c  **** 
 1220              		.loc 1 112 0
 1221 00b0 05B0     		add	sp, sp, #20
ARM GAS  C:\Users\cring\AppData\Local\Temp\ccGk4Etb.s 			page 30


 1222              		.cfi_def_cfa_offset 12
 1223              		@ sp needed
 1224 00b2 30BD     		pop	{r4, r5, pc}
 1225              	.L91:
 1226              		.align	2
 1227              	.L90:
 1228 00b4 00000000 		.word	.LANCHOR0
 1229 00b8 0000F03F 		.word	1072693248
 1230              		.cfi_endproc
 1231              	.LFE67:
 1232              		.size	isr_BlinkLED, .-isr_BlinkLED
 1233              		.section	.text.isr_LED_ring,"ax",%progbits
 1234              		.align	2
 1235              		.global	isr_LED_ring
 1236              		.thumb
 1237              		.thumb_func
 1238              		.type	isr_LED_ring, %function
 1239              	isr_LED_ring:
 1240              	.LFB65:
  47:LEDcontrol.c  ****     if((rgbLED1->ring == 0) && (rgbLED2->ring == 0)) return;
 1241              		.loc 1 47 0
 1242              		.cfi_startproc
 1243              		@ args = 0, pretend = 0, frame = 0
 1244              		@ frame_needed = 0, uses_anonymous_args = 0
 1245 0000 2DE9F043 		push	{r4, r5, r6, r7, r8, r9, lr}
 1246              		.cfi_def_cfa_offset 28
 1247              		.cfi_offset 4, -28
 1248              		.cfi_offset 5, -24
 1249              		.cfi_offset 6, -20
 1250              		.cfi_offset 7, -16
 1251              		.cfi_offset 8, -12
 1252              		.cfi_offset 9, -8
 1253              		.cfi_offset 14, -4
 1254 0004 85B0     		sub	sp, sp, #20
 1255              		.cfi_def_cfa_offset 48
  48:LEDcontrol.c  ****     if(rgbLED1->ring == 1) fillcolor(0,0,0,rgbLED1);
 1256              		.loc 1 48 0
 1257 0006 404B     		ldr	r3, .L111
 1258 0008 1A68     		ldr	r2, [r3]
 1259 000a 936C     		ldr	r3, [r2, #72]
 1260 000c 23B9     		cbnz	r3, .L93
  48:LEDcontrol.c  ****     if(rgbLED1->ring == 1) fillcolor(0,0,0,rgbLED1);
 1261              		.loc 1 48 0 is_stmt 0 discriminator 1
 1262 000e 3E49     		ldr	r1, .L111
 1263 0010 4968     		ldr	r1, [r1, #4]
 1264 0012 896C     		ldr	r1, [r1, #72]
 1265 0014 0029     		cmp	r1, #0
 1266 0016 73D0     		beq	.L92
 1267              	.L93:
  49:LEDcontrol.c  ****     if(rgbLED2->ring == 1) fillcolor(0,0,0,rgbLED2);
 1268              		.loc 1 49 0 is_stmt 1
 1269 0018 012B     		cmp	r3, #1
 1270 001a 08D1     		bne	.L95
  49:LEDcontrol.c  ****     if(rgbLED2->ring == 1) fillcolor(0,0,0,rgbLED2);
 1271              		.loc 1 49 0 is_stmt 0 discriminator 1
 1272 001c 0020     		movs	r0, #0
 1273 001e 0021     		movs	r1, #0
ARM GAS  C:\Users\cring\AppData\Local\Temp\ccGk4Etb.s 			page 31


 1274 0020 0292     		str	r2, [sp, #8]
 1275 0022 CDE90001 		strd	r0, [sp]
 1276 0026 0246     		mov	r2, r0
 1277 0028 0B46     		mov	r3, r1
 1278 002a FFF7FEFF 		bl	fillcolor
 1279              	.LVL160:
 1280              	.L95:
  50:LEDcontrol.c  ****     
 1281              		.loc 1 50 0 is_stmt 1
 1282 002e 364B     		ldr	r3, .L111
 1283 0030 5B68     		ldr	r3, [r3, #4]
 1284 0032 9A6C     		ldr	r2, [r3, #72]
 1285 0034 012A     		cmp	r2, #1
 1286 0036 08D1     		bne	.L96
  50:LEDcontrol.c  ****     
 1287              		.loc 1 50 0 is_stmt 0 discriminator 1
 1288 0038 0020     		movs	r0, #0
 1289 003a 0021     		movs	r1, #0
 1290 003c 0293     		str	r3, [sp, #8]
 1291 003e CDE90001 		strd	r0, [sp]
 1292 0042 0246     		mov	r2, r0
 1293 0044 0B46     		mov	r3, r1
 1294 0046 FFF7FEFF 		bl	fillcolor
 1295              	.LVL161:
 1296              	.L96:
 1297              	.LBB7:
  52:LEDcontrol.c  ****         {
 1298              		.loc 1 52 0 is_stmt 1
 1299 004a 2F4B     		ldr	r3, .L111
 1300 004c 1C69     		ldr	r4, [r3, #16]
 1301              	.LVL162:
 1302 004e 38E0     		b	.L97
 1303              	.L102:
  54:LEDcontrol.c  ****             {
 1304              		.loc 1 54 0
 1305 0050 2D4B     		ldr	r3, .L111
 1306 0052 1B68     		ldr	r3, [r3]
 1307 0054 9A6C     		ldr	r2, [r3, #72]
 1308 0056 012A     		cmp	r2, #1
 1309 0058 16D1     		bne	.L98
 1310              	.LBB8:
  56:LEDcontrol.c  ****                 setcolorLED((rgbLED1 + x)->h, (rgbLED1 + x)->s, (rgbLED1 + x)->v, x, rgbLED1);
 1311              		.loc 1 56 0
 1312 005a 1D6C     		ldr	r5, [r3, #64]
 1313 005c AC42     		cmp	r4, r5
 1314 005e 01DB     		blt	.L106
  56:LEDcontrol.c  ****                 setcolorLED((rgbLED1 + x)->h, (rgbLED1 + x)->s, (rgbLED1 + x)->v, x, rgbLED1);
 1315              		.loc 1 56 0 is_stmt 0 discriminator 1
 1316 0060 651B     		subs	r5, r4, r5
 1317 0062 00E0     		b	.L99
 1318              	.L106:
  56:LEDcontrol.c  ****                 setcolorLED((rgbLED1 + x)->h, (rgbLED1 + x)->s, (rgbLED1 + x)->v, x, rgbLED1);
 1319              		.loc 1 56 0
 1320 0064 2546     		mov	r5, r4
 1321              	.L99:
 1322              	.LVL163:
  57:LEDcontrol.c  ****             }
ARM GAS  C:\Users\cring\AppData\Local\Temp\ccGk4Etb.s 			page 32


 1323              		.loc 1 57 0 is_stmt 1 discriminator 4
 1324 0066 5822     		movs	r2, #88
 1325 0068 02FB0532 		mla	r2, r2, r5, r3
 1326 006c D2E90689 		ldrd	r8, [r2, #24]
 1327 0070 D2E90401 		ldrd	r0, [r2, #16]
 1328 0074 0393     		str	r3, [sp, #12]
 1329 0076 0295     		str	r5, [sp, #8]
 1330 0078 D2E90867 		ldrd	r6, [r2, #32]
 1331 007c CDE90067 		strd	r6, [sp]
 1332 0080 4246     		mov	r2, r8
 1333 0082 4B46     		mov	r3, r9
 1334 0084 FFF7FEFF 		bl	setcolorLED
 1335              	.LVL164:
 1336              	.L98:
 1337              	.LBE8:
  59:LEDcontrol.c  ****             {
 1338              		.loc 1 59 0
 1339 0088 1F4B     		ldr	r3, .L111
 1340 008a 5B68     		ldr	r3, [r3, #4]
 1341 008c 9A6C     		ldr	r2, [r3, #72]
 1342 008e 012A     		cmp	r2, #1
 1343 0090 16D1     		bne	.L100
 1344              	.LBB9:
  61:LEDcontrol.c  ****                 setcolorLED((rgbLED2 + x)->h, (rgbLED2 + x)->s, (rgbLED2 + x)->v, x, rgbLED2);  
 1345              		.loc 1 61 0
 1346 0092 1D6C     		ldr	r5, [r3, #64]
 1347 0094 AC42     		cmp	r4, r5
 1348 0096 01DB     		blt	.L107
  61:LEDcontrol.c  ****                 setcolorLED((rgbLED2 + x)->h, (rgbLED2 + x)->s, (rgbLED2 + x)->v, x, rgbLED2);  
 1349              		.loc 1 61 0 is_stmt 0 discriminator 1
 1350 0098 651B     		subs	r5, r4, r5
 1351 009a 00E0     		b	.L101
 1352              	.L107:
  61:LEDcontrol.c  ****                 setcolorLED((rgbLED2 + x)->h, (rgbLED2 + x)->s, (rgbLED2 + x)->v, x, rgbLED2);  
 1353              		.loc 1 61 0
 1354 009c 2546     		mov	r5, r4
 1355              	.L101:
 1356              	.LVL165:
  62:LEDcontrol.c  ****             }
 1357              		.loc 1 62 0 is_stmt 1 discriminator 4
 1358 009e 5822     		movs	r2, #88
 1359 00a0 02FB0532 		mla	r2, r2, r5, r3
 1360 00a4 D2E90689 		ldrd	r8, [r2, #24]
 1361 00a8 D2E90401 		ldrd	r0, [r2, #16]
 1362 00ac 0393     		str	r3, [sp, #12]
 1363 00ae 0295     		str	r5, [sp, #8]
 1364 00b0 D2E90867 		ldrd	r6, [r2, #32]
 1365 00b4 CDE90067 		strd	r6, [sp]
 1366 00b8 4246     		mov	r2, r8
 1367 00ba 4B46     		mov	r3, r9
 1368 00bc FFF7FEFF 		bl	setcolorLED
 1369              	.LVL166:
 1370              	.L100:
 1371              	.LBE9:
  52:LEDcontrol.c  ****         {
 1372              		.loc 1 52 0 discriminator 2
 1373 00c0 0134     		adds	r4, r4, #1
ARM GAS  C:\Users\cring\AppData\Local\Temp\ccGk4Etb.s 			page 33


 1374              	.LVL167:
 1375              	.L97:
  52:LEDcontrol.c  ****         {
 1376              		.loc 1 52 0 is_stmt 0 discriminator 1
 1377 00c2 114B     		ldr	r3, .L111
 1378 00c4 1A69     		ldr	r2, [r3, #16]
 1379 00c6 5B69     		ldr	r3, [r3, #20]
 1380 00c8 1344     		add	r3, r3, r2
 1381 00ca 9C42     		cmp	r4, r3
 1382 00cc C0DB     		blt	.L102
 1383              	.LBE7:
  65:LEDcontrol.c  ****     {
 1384              		.loc 1 65 0 is_stmt 1
 1385 00ce 0E4B     		ldr	r3, .L111
 1386 00d0 1B68     		ldr	r3, [r3]
 1387 00d2 4BB1     		cbz	r3, .L103
  67:LEDcontrol.c  ****         return;
 1388              		.loc 1 67 0
 1389 00d4 1B6C     		ldr	r3, [r3, #64]
 1390 00d6 013B     		subs	r3, r3, #1
 1391 00d8 9A42     		cmp	r2, r3
 1392 00da 01DA     		bge	.L108
  67:LEDcontrol.c  ****         return;
 1393              		.loc 1 67 0 is_stmt 0 discriminator 1
 1394 00dc 0132     		adds	r2, r2, #1
 1395 00de 00E0     		b	.L104
 1396              	.L108:
  67:LEDcontrol.c  ****         return;
 1397              		.loc 1 67 0
 1398 00e0 0022     		movs	r2, #0
 1399              	.L104:
  67:LEDcontrol.c  ****         return;
 1400              		.loc 1 67 0 discriminator 4
 1401 00e2 094B     		ldr	r3, .L111
 1402 00e4 1A61     		str	r2, [r3, #16]
  68:LEDcontrol.c  ****     }else if (rgbLED2 != NULL){
 1403              		.loc 1 68 0 is_stmt 1 discriminator 4
 1404 00e6 0BE0     		b	.L92
 1405              	.L103:
  69:LEDcontrol.c  ****         index_ = index_ < (rgbLED2->LEDlength-1) ? index_ + 1 : 0;
 1406              		.loc 1 69 0
 1407 00e8 074B     		ldr	r3, .L111
 1408 00ea 5B68     		ldr	r3, [r3, #4]
 1409 00ec 43B1     		cbz	r3, .L92
  70:LEDcontrol.c  ****     }
 1410              		.loc 1 70 0
 1411 00ee 1B6C     		ldr	r3, [r3, #64]
 1412 00f0 013B     		subs	r3, r3, #1
 1413 00f2 9A42     		cmp	r2, r3
 1414 00f4 01DA     		bge	.L109
  70:LEDcontrol.c  ****     }
 1415              		.loc 1 70 0 is_stmt 0 discriminator 1
 1416 00f6 0132     		adds	r2, r2, #1
 1417 00f8 00E0     		b	.L105
 1418              	.L109:
  70:LEDcontrol.c  ****     }
 1419              		.loc 1 70 0
ARM GAS  C:\Users\cring\AppData\Local\Temp\ccGk4Etb.s 			page 34


 1420 00fa 0022     		movs	r2, #0
 1421              	.L105:
  70:LEDcontrol.c  ****     }
 1422              		.loc 1 70 0 discriminator 4
 1423 00fc 024B     		ldr	r3, .L111
 1424 00fe 1A61     		str	r2, [r3, #16]
 1425              	.LVL168:
 1426              	.L92:
  72:LEDcontrol.c  **** 
 1427              		.loc 1 72 0 is_stmt 1
 1428 0100 05B0     		add	sp, sp, #20
 1429              		.cfi_def_cfa_offset 28
 1430              		@ sp needed
 1431 0102 BDE8F083 		pop	{r4, r5, r6, r7, r8, r9, pc}
 1432              	.L112:
 1433 0106 00BF     		.align	2
 1434              	.L111:
 1435 0108 00000000 		.word	.LANCHOR0
 1436              		.cfi_endproc
 1437              	.LFE65:
 1438              		.size	isr_LED_ring, .-isr_LED_ring
 1439              		.section	.text.LEDOff,"ax",%progbits
 1440              		.align	2
 1441              		.global	LEDOff
 1442              		.thumb
 1443              		.thumb_func
 1444              		.type	LEDOff, %function
 1445              	LEDOff:
 1446              	.LFB79:
 368:LEDcontrol.c  **** 
 369:LEDcontrol.c  **** void LEDOff(LEDctrl *rgbLED)
 370:LEDcontrol.c  **** {
 1447              		.loc 1 370 0
 1448              		.cfi_startproc
 1449              		@ args = 0, pretend = 0, frame = 0
 1450              		@ frame_needed = 0, uses_anonymous_args = 0
 1451              	.LVL169:
 1452 0000 10B5     		push	{r4, lr}
 1453              		.cfi_def_cfa_offset 8
 1454              		.cfi_offset 4, -8
 1455              		.cfi_offset 14, -4
 1456 0002 0446     		mov	r4, r0
 371:LEDcontrol.c  ****     Timer5_Stop();
 1457              		.loc 1 371 0
 1458 0004 FFF7FEFF 		bl	Timer5_Stop
 1459              	.LVL170:
 372:LEDcontrol.c  ****     rgbLED->ring = 0;
 1460              		.loc 1 372 0
 1461 0008 0023     		movs	r3, #0
 1462 000a A364     		str	r3, [r4, #72]
 373:LEDcontrol.c  ****     rgbLED->pulse = 0;
 1463              		.loc 1 373 0
 1464 000c E364     		str	r3, [r4, #76]
 374:LEDcontrol.c  ****     rgbLED->blink = 0;
 1465              		.loc 1 374 0
 1466 000e 2365     		str	r3, [r4, #80]
 1467 0010 10BD     		pop	{r4, pc}
ARM GAS  C:\Users\cring\AppData\Local\Temp\ccGk4Etb.s 			page 35


 1468              		.cfi_endproc
 1469              	.LFE79:
 1470              		.size	LEDOff, .-LEDOff
 1471 0012 00BF     		.section	.text.addLEDstrip,"ax",%progbits
 1472              		.align	2
 1473              		.global	addLEDstrip
 1474              		.thumb
 1475              		.thumb_func
 1476              		.type	addLEDstrip, %function
 1477              	addLEDstrip:
 1478              	.LFB70:
 127:LEDcontrol.c  ****     if (strip == 1)
 1479              		.loc 1 127 0
 1480              		.cfi_startproc
 1481              		@ args = 0, pretend = 0, frame = 0
 1482              		@ frame_needed = 0, uses_anonymous_args = 0
 1483              	.LVL171:
 1484 0000 30B5     		push	{r4, r5, lr}
 1485              		.cfi_def_cfa_offset 12
 1486              		.cfi_offset 4, -12
 1487              		.cfi_offset 5, -8
 1488              		.cfi_offset 14, -4
 1489 0002 85B0     		sub	sp, sp, #20
 1490              		.cfi_def_cfa_offset 32
 1491 0004 0D46     		mov	r5, r1
 128:LEDcontrol.c  ****     {
 1492              		.loc 1 128 0
 1493 0006 012A     		cmp	r2, #1
 1494 0008 02D1     		bne	.L116
 130:LEDcontrol.c  ****     }else{
 1495              		.loc 1 130 0
 1496 000a 0E4B     		ldr	r3, .L121
 1497 000c 1960     		str	r1, [r3]
 1498 000e 01E0     		b	.L117
 1499              	.L116:
 132:LEDcontrol.c  ****     }
 1500              		.loc 1 132 0
 1501 0010 0C4B     		ldr	r3, .L121
 1502 0012 5960     		str	r1, [r3, #4]
 1503              	.L117:
 135:LEDcontrol.c  ****     rgbLED_->pin = strip;
 1504              		.loc 1 135 0
 1505 0014 2864     		str	r0, [r5, #64]
 136:LEDcontrol.c  ****     LEDOff(rgbLED_);
 1506              		.loc 1 136 0
 1507 0016 6A64     		str	r2, [r5, #68]
 137:LEDcontrol.c  ****     
 1508              		.loc 1 137 0
 1509 0018 2846     		mov	r0, r5
 1510              	.LVL172:
 1511 001a FFF7FEFF 		bl	LEDOff
 1512              	.LVL173:
 1513              	.LBB10:
 139:LEDcontrol.c  ****     {
 1514              		.loc 1 139 0
 1515 001e 0024     		movs	r4, #0
 1516 0020 0AE0     		b	.L118
ARM GAS  C:\Users\cring\AppData\Local\Temp\ccGk4Etb.s 			page 36


 1517              	.LVL174:
 1518              	.L119:
 141:LEDcontrol.c  ****     }
 1519              		.loc 1 141 0 discriminator 3
 1520 0022 0020     		movs	r0, #0
 1521 0024 0021     		movs	r1, #0
 1522 0026 0395     		str	r5, [sp, #12]
 1523 0028 0294     		str	r4, [sp, #8]
 1524 002a CDE90001 		strd	r0, [sp]
 1525 002e 0246     		mov	r2, r0
 1526 0030 0B46     		mov	r3, r1
 1527 0032 FFF7FEFF 		bl	setcolorLED
 1528              	.LVL175:
 139:LEDcontrol.c  ****     {
 1529              		.loc 1 139 0 discriminator 3
 1530 0036 0134     		adds	r4, r4, #1
 1531              	.LVL176:
 1532              	.L118:
 139:LEDcontrol.c  ****     {
 1533              		.loc 1 139 0 is_stmt 0 discriminator 1
 1534 0038 2B6C     		ldr	r3, [r5, #64]
 1535 003a 9C42     		cmp	r4, r3
 1536 003c F1DB     		blt	.L119
 1537              	.LBE10:
 143:LEDcontrol.c  **** 
 1538              		.loc 1 143 0 is_stmt 1
 1539 003e 05B0     		add	sp, sp, #20
 1540              		.cfi_def_cfa_offset 12
 1541              		@ sp needed
 1542 0040 30BD     		pop	{r4, r5, pc}
 1543              	.LVL177:
 1544              	.L122:
 1545 0042 00BF     		.align	2
 1546              	.L121:
 1547 0044 00000000 		.word	.LANCHOR0
 1548              		.cfi_endproc
 1549              	.LFE70:
 1550              		.size	addLEDstrip, .-addLEDstrip
 1551              		.section	.text.initLED,"ax",%progbits
 1552              		.align	2
 1553              		.global	initLED
 1554              		.thumb
 1555              		.thumb_func
 1556              		.type	initLED, %function
 1557              	initLED:
 1558              	.LFB71:
 146:LEDcontrol.c  ****     isr_LED_refreshrate_StartEx(isr_refreshrate);
 1559              		.loc 1 146 0
 1560              		.cfi_startproc
 1561              		@ args = 0, pretend = 0, frame = 0
 1562              		@ frame_needed = 0, uses_anonymous_args = 0
 1563              	.LVL178:
 1564 0000 38B5     		push	{r3, r4, r5, lr}
 1565              		.cfi_def_cfa_offset 16
 1566              		.cfi_offset 3, -16
 1567              		.cfi_offset 4, -12
 1568              		.cfi_offset 5, -8
ARM GAS  C:\Users\cring\AppData\Local\Temp\ccGk4Etb.s 			page 37


 1569              		.cfi_offset 14, -4
 1570 0002 0546     		mov	r5, r0
 147:LEDcontrol.c  ****     isr_LED_ring_StartEx(isr_LED_ring);
 1571              		.loc 1 147 0
 1572 0004 1648     		ldr	r0, .L125
 1573              	.LVL179:
 1574 0006 FFF7FEFF 		bl	isr_LED_refreshrate_StartEx
 1575              	.LVL180:
 148:LEDcontrol.c  ****     isr_LED_pulse_StartEx(isr_LED_pulse);
 1576              		.loc 1 148 0
 1577 000a 1648     		ldr	r0, .L125+4
 1578 000c FFF7FEFF 		bl	isr_LED_ring_StartEx
 1579              	.LVL181:
 149:LEDcontrol.c  ****     isr_BlinkLED_StartEx(isr_BlinkLED);
 1580              		.loc 1 149 0
 1581 0010 1548     		ldr	r0, .L125+8
 1582 0012 FFF7FEFF 		bl	isr_LED_pulse_StartEx
 1583              	.LVL182:
 150:LEDcontrol.c  ****     isr_delay_StartEx(isr_delay);
 1584              		.loc 1 150 0
 1585 0016 1548     		ldr	r0, .L125+12
 1586 0018 FFF7FEFF 		bl	isr_BlinkLED_StartEx
 1587              	.LVL183:
 151:LEDcontrol.c  ****     
 1588              		.loc 1 151 0
 1589 001c 1448     		ldr	r0, .L125+16
 1590 001e FFF7FEFF 		bl	isr_delay_StartEx
 1591              	.LVL184:
 153:LEDcontrol.c  ****     LEDOff(rgbLED2);
 1592              		.loc 1 153 0
 1593 0022 144C     		ldr	r4, .L125+20
 1594 0024 2068     		ldr	r0, [r4]
 1595 0026 FFF7FEFF 		bl	LEDOff
 1596              	.LVL185:
 154:LEDcontrol.c  ****     
 1597              		.loc 1 154 0
 1598 002a 6068     		ldr	r0, [r4, #4]
 1599 002c FFF7FEFF 		bl	LEDOff
 1600              	.LVL186:
 156:LEDcontrol.c  ****     index_ = 0;
 1601              		.loc 1 156 0
 1602 0030 0023     		movs	r3, #0
 1603 0032 6361     		str	r3, [r4, #20]
 157:LEDcontrol.c  ****     index2 = MAXLEDINTENSE;
 1604              		.loc 1 157 0
 1605 0034 2361     		str	r3, [r4, #16]
 158:LEDcontrol.c  ****     count = 0;
 1606              		.loc 1 158 0
 1607 0036 4FF07C51 		mov	r1, #1056964608
 1608 003a 0F4A     		ldr	r2, .L125+24
 1609 003c 1160     		str	r1, [r2]	@ float
 159:LEDcontrol.c  ****     count2 = 0;
 1610              		.loc 1 159 0
 1611 003e A360     		str	r3, [r4, #8]
 160:LEDcontrol.c  ****     count3 = 0;
 1612              		.loc 1 160 0
 1613 0040 A361     		str	r3, [r4, #24]
ARM GAS  C:\Users\cring\AppData\Local\Temp\ccGk4Etb.s 			page 38


 161:LEDcontrol.c  ****     
 1614              		.loc 1 161 0
 1615 0042 E360     		str	r3, [r4, #12]
 164:LEDcontrol.c  ****     Timer1_Start();
 1616              		.loc 1 164 0
 1617 0044 FFF7FEFF 		bl	SPIM_1_Start
 1618              	.LVL187:
 165:LEDcontrol.c  ****     Timer2_Start();
 1619              		.loc 1 165 0
 1620 0048 FFF7FEFF 		bl	Timer1_Start
 1621              	.LVL188:
 166:LEDcontrol.c  ****     Timer3_Start();
 1622              		.loc 1 166 0
 1623 004c FFF7FEFF 		bl	Timer2_Start
 1624              	.LVL189:
 167:LEDcontrol.c  ****     Timer4_Start();
 1625              		.loc 1 167 0
 1626 0050 FFF7FEFF 		bl	Timer3_Start
 1627              	.LVL190:
 168:LEDcontrol.c  ****     
 1628              		.loc 1 168 0
 1629 0054 FFF7FEFF 		bl	Timer4_Start
 1630              	.LVL191:
 170:LEDcontrol.c  ****     
 1631              		.loc 1 170 0
 1632 0058 2846     		mov	r0, r5
 1633 005a FFF7FEFF 		bl	setrefreshrate
 1634              	.LVL192:
 1635 005e 38BD     		pop	{r3, r4, r5, pc}
 1636              	.LVL193:
 1637              	.L126:
 1638              		.align	2
 1639              	.L125:
 1640 0060 00000000 		.word	isr_refreshrate
 1641 0064 00000000 		.word	isr_LED_ring
 1642 0068 00000000 		.word	isr_LED_pulse
 1643 006c 00000000 		.word	isr_BlinkLED
 1644 0070 00000000 		.word	isr_delay
 1645 0074 00000000 		.word	.LANCHOR0
 1646 0078 00000000 		.word	.LANCHOR1
 1647              		.cfi_endproc
 1648              	.LFE71:
 1649              		.size	initLED, .-initLED
 1650              		.section	.text.pulseLED,"ax",%progbits
 1651              		.align	2
 1652              		.global	pulseLED
 1653              		.thumb
 1654              		.thumb_func
 1655              		.type	pulseLED, %function
 1656              	pulseLED:
 1657              	.LFB73:
 184:LEDcontrol.c  ****     LEDOff(rgbLED);
 1658              		.loc 1 184 0
 1659              		.cfi_startproc
 1660              		@ args = 12, pretend = 0, frame = 0
 1661              		@ frame_needed = 0, uses_anonymous_args = 0
 1662              	.LVL194:
ARM GAS  C:\Users\cring\AppData\Local\Temp\ccGk4Etb.s 			page 39


 1663 0000 2DE9F047 		push	{r4, r5, r6, r7, r8, r9, r10, lr}
 1664              		.cfi_def_cfa_offset 32
 1665              		.cfi_offset 4, -32
 1666              		.cfi_offset 5, -28
 1667              		.cfi_offset 6, -24
 1668              		.cfi_offset 7, -20
 1669              		.cfi_offset 8, -16
 1670              		.cfi_offset 9, -12
 1671              		.cfi_offset 10, -8
 1672              		.cfi_offset 14, -4
 1673 0004 84B0     		sub	sp, sp, #16
 1674              		.cfi_def_cfa_offset 48
 1675 0006 0446     		mov	r4, r0
 1676 0008 0D46     		mov	r5, r1
 1677 000a 1646     		mov	r6, r2
 1678 000c 1F46     		mov	r7, r3
 1679 000e DDE90C89 		ldrd	r8, [sp, #48]
 1680 0012 DDF838A0 		ldr	r10, [sp, #56]
 185:LEDcontrol.c  ****     rgbLED->pulse = 1;
 1681              		.loc 1 185 0
 1682 0016 5046     		mov	r0, r10
 1683              	.LVL195:
 1684 0018 FFF7FEFF 		bl	LEDOff
 1685              	.LVL196:
 186:LEDcontrol.c  ****     
 1686              		.loc 1 186 0
 1687 001c 0123     		movs	r3, #1
 1688 001e CAF84C30 		str	r3, [r10, #76]
 188:LEDcontrol.c  ****     rgbLED->s = s1;
 1689              		.loc 1 188 0
 1690 0022 CAE90445 		strd	r4, [r10, #16]
 189:LEDcontrol.c  ****     rgbLED->v = v1;
 1691              		.loc 1 189 0
 1692 0026 CAE90667 		strd	r6, [r10, #24]
 190:LEDcontrol.c  ****     fillcolor(h1,s1,v1, rgbLED);
 1693              		.loc 1 190 0
 1694 002a CAE90889 		strd	r8, [r10, #32]
 191:LEDcontrol.c  **** }
 1695              		.loc 1 191 0
 1696 002e CDF808A0 		str	r10, [sp, #8]
 1697 0032 CDE90089 		strd	r8, [sp]
 1698 0036 3246     		mov	r2, r6
 1699 0038 3B46     		mov	r3, r7
 1700 003a 2046     		mov	r0, r4
 1701 003c 2946     		mov	r1, r5
 1702 003e FFF7FEFF 		bl	fillcolor
 1703              	.LVL197:
 192:LEDcontrol.c  **** 
 1704              		.loc 1 192 0
 1705 0042 04B0     		add	sp, sp, #16
 1706              		.cfi_def_cfa_offset 32
 1707              		@ sp needed
 1708 0044 BDE8F087 		pop	{r4, r5, r6, r7, r8, r9, r10, pc}
 1709              		.cfi_endproc
 1710              	.LFE73:
 1711              		.size	pulseLED, .-pulseLED
 1712              		.section	.text.ringLED,"ax",%progbits
ARM GAS  C:\Users\cring\AppData\Local\Temp\ccGk4Etb.s 			page 40


 1713              		.align	2
 1714              		.global	ringLED
 1715              		.thumb
 1716              		.thumb_func
 1717              		.type	ringLED, %function
 1718              	ringLED:
 1719              	.LFB75:
 202:LEDcontrol.c  ****     pulselength_ = pulselength;
 1720              		.loc 1 202 0
 1721              		.cfi_startproc
 1722              		@ args = 20, pretend = 0, frame = 0
 1723              		@ frame_needed = 0, uses_anonymous_args = 0
 1724              	.LVL198:
 1725 0000 2DE9F047 		push	{r4, r5, r6, r7, r8, r9, r10, lr}
 1726              		.cfi_def_cfa_offset 32
 1727              		.cfi_offset 4, -32
 1728              		.cfi_offset 5, -28
 1729              		.cfi_offset 6, -24
 1730              		.cfi_offset 7, -20
 1731              		.cfi_offset 8, -16
 1732              		.cfi_offset 9, -12
 1733              		.cfi_offset 10, -8
 1734              		.cfi_offset 14, -4
 1735 0004 9046     		mov	r8, r2
 1736 0006 9946     		mov	r9, r3
 1737 0008 DDE90867 		ldrd	r6, [sp, #32]
 1738 000c DDE90A45 		ldrd	r4, [sp, #40]
 1739 0010 DDF830A0 		ldr	r10, [sp, #48]
 203:LEDcontrol.c  ****     LEDOff(rgbLED);
 1740              		.loc 1 203 0
 1741 0014 0C4B     		ldr	r3, .L133
 1742 0016 5861     		str	r0, [r3, #20]
 204:LEDcontrol.c  ****     rgbLED->ring = 1;
 1743              		.loc 1 204 0
 1744 0018 5046     		mov	r0, r10
 1745              	.LVL199:
 1746 001a FFF7FEFF 		bl	LEDOff
 1747              	.LVL200:
 205:LEDcontrol.c  ****     
 1748              		.loc 1 205 0
 1749 001e 0123     		movs	r3, #1
 1750 0020 CAF84830 		str	r3, [r10, #72]
 1751              	.LVL201:
 1752              	.LBB11:
 207:LEDcontrol.c  ****     {
 1753              		.loc 1 207 0
 1754 0024 0022     		movs	r2, #0
 1755 0026 09E0     		b	.L130
 1756              	.LVL202:
 1757              	.L131:
 209:LEDcontrol.c  ****         (rgbLED + i)->s = s1;
 1758              		.loc 1 209 0 discriminator 3
 1759 0028 5823     		movs	r3, #88
 1760 002a 03FB02A3 		mla	r3, r3, r2, r10
 1761 002e C3E90489 		strd	r8, [r3, #16]
 210:LEDcontrol.c  ****         (rgbLED + i)->v = v1;
 1762              		.loc 1 210 0 discriminator 3
ARM GAS  C:\Users\cring\AppData\Local\Temp\ccGk4Etb.s 			page 41


 1763 0032 C3E90667 		strd	r6, [r3, #24]
 211:LEDcontrol.c  ****     }
 1764              		.loc 1 211 0 discriminator 3
 1765 0036 C3E90845 		strd	r4, [r3, #32]
 207:LEDcontrol.c  ****     {
 1766              		.loc 1 207 0 discriminator 3
 1767 003a 0132     		adds	r2, r2, #1
 1768              	.LVL203:
 1769              	.L130:
 207:LEDcontrol.c  ****     {
 1770              		.loc 1 207 0 is_stmt 0 discriminator 1
 1771 003c DAF84030 		ldr	r3, [r10, #64]
 1772 0040 9A42     		cmp	r2, r3
 1773 0042 F1DB     		blt	.L131
 1774              	.LBE11:
 213:LEDcontrol.c  **** 
 1775              		.loc 1 213 0 is_stmt 1
 1776 0044 BDE8F087 		pop	{r4, r5, r6, r7, r8, r9, r10, pc}
 1777              	.LVL204:
 1778              	.L134:
 1779              		.align	2
 1780              	.L133:
 1781 0048 00000000 		.word	.LANCHOR0
 1782              		.cfi_endproc
 1783              	.LFE75:
 1784              		.size	ringLED, .-ringLED
 1785              		.section	.text.BlinkLED,"ax",%progbits
 1786              		.align	2
 1787              		.global	BlinkLED
 1788              		.thumb
 1789              		.thumb_func
 1790              		.type	BlinkLED, %function
 1791              	BlinkLED:
 1792              	.LFB80:
 375:LEDcontrol.c  **** }
 376:LEDcontrol.c  **** 
 377:LEDcontrol.c  **** void BlinkLED(double h1, double s1, double v1, LEDctrl *rgbLED)
 378:LEDcontrol.c  **** {
 1793              		.loc 1 378 0
 1794              		.cfi_startproc
 1795              		@ args = 12, pretend = 0, frame = 0
 1796              		@ frame_needed = 0, uses_anonymous_args = 0
 1797              	.LVL205:
 1798 0000 2DE9F047 		push	{r4, r5, r6, r7, r8, r9, r10, lr}
 1799              		.cfi_def_cfa_offset 32
 1800              		.cfi_offset 4, -32
 1801              		.cfi_offset 5, -28
 1802              		.cfi_offset 6, -24
 1803              		.cfi_offset 7, -20
 1804              		.cfi_offset 8, -16
 1805              		.cfi_offset 9, -12
 1806              		.cfi_offset 10, -8
 1807              		.cfi_offset 14, -4
 1808 0004 8046     		mov	r8, r0
 1809 0006 8946     		mov	r9, r1
 1810 0008 1646     		mov	r6, r2
 1811 000a 1F46     		mov	r7, r3
ARM GAS  C:\Users\cring\AppData\Local\Temp\ccGk4Etb.s 			page 42


 1812 000c DDE90845 		ldrd	r4, [sp, #32]
 1813 0010 DDF828A0 		ldr	r10, [sp, #40]
 379:LEDcontrol.c  ****     LEDOff(rgbLED);
 1814              		.loc 1 379 0
 1815 0014 5046     		mov	r0, r10
 1816              	.LVL206:
 1817 0016 FFF7FEFF 		bl	LEDOff
 1818              	.LVL207:
 1819              	.LBB12:
 380:LEDcontrol.c  ****     
 381:LEDcontrol.c  ****     for(int i = 0; i<rgbLED->LEDlength; i++)
 1820              		.loc 1 381 0
 1821 001a 0022     		movs	r2, #0
 1822 001c 09E0     		b	.L136
 1823              	.LVL208:
 1824              	.L137:
 382:LEDcontrol.c  ****     {
 383:LEDcontrol.c  ****         (rgbLED + i)->h = h1;
 1825              		.loc 1 383 0 discriminator 3
 1826 001e 5823     		movs	r3, #88
 1827 0020 03FB02A3 		mla	r3, r3, r2, r10
 1828 0024 C3E90489 		strd	r8, [r3, #16]
 384:LEDcontrol.c  ****         (rgbLED + i)->s = s1;
 1829              		.loc 1 384 0 discriminator 3
 1830 0028 C3E90667 		strd	r6, [r3, #24]
 385:LEDcontrol.c  ****         (rgbLED + i)->v = v1;
 1831              		.loc 1 385 0 discriminator 3
 1832 002c C3E90845 		strd	r4, [r3, #32]
 381:LEDcontrol.c  ****     {
 1833              		.loc 1 381 0 discriminator 3
 1834 0030 0132     		adds	r2, r2, #1
 1835              	.LVL209:
 1836              	.L136:
 381:LEDcontrol.c  ****     {
 1837              		.loc 1 381 0 is_stmt 0 discriminator 1
 1838 0032 DAF84030 		ldr	r3, [r10, #64]
 1839 0036 9A42     		cmp	r2, r3
 1840 0038 F1DB     		blt	.L137
 1841              	.LBE12:
 386:LEDcontrol.c  ****     }
 387:LEDcontrol.c  ****     
 388:LEDcontrol.c  ****     rgbLED->blink = 1;
 1842              		.loc 1 388 0 is_stmt 1
 1843 003a 0123     		movs	r3, #1
 1844 003c CAF85030 		str	r3, [r10, #80]
 1845 0040 BDE8F087 		pop	{r4, r5, r6, r7, r8, r9, r10, pc}
 1846              		.cfi_endproc
 1847              	.LFE80:
 1848              		.size	BlinkLED, .-BlinkLED
 1849              		.section	.text.LEDinitSeq,"ax",%progbits
 1850              		.align	2
 1851              		.global	LEDinitSeq
 1852              		.thumb
 1853              		.thumb_func
 1854              		.type	LEDinitSeq, %function
 1855              	LEDinitSeq:
 1856              	.LFB81:
ARM GAS  C:\Users\cring\AppData\Local\Temp\ccGk4Etb.s 			page 43


 389:LEDcontrol.c  **** }
 390:LEDcontrol.c  **** 
 391:LEDcontrol.c  **** 
 392:LEDcontrol.c  **** //Forskellige sekvenser til LED OBS ordforklaringer er i system arkitketur
 393:LEDcontrol.c  **** void LEDinitSeq(LEDctrl *rgbLED)    //Initieringssekvens
 394:LEDcontrol.c  **** {
 1857              		.loc 1 394 0
 1858              		.cfi_startproc
 1859              		@ args = 0, pretend = 0, frame = 0
 1860              		@ frame_needed = 0, uses_anonymous_args = 0
 1861              	.LVL210:
 1862 0000 00B5     		push	{lr}
 1863              		.cfi_def_cfa_offset 4
 1864              		.cfi_offset 14, -4
 1865 0002 87B0     		sub	sp, sp, #28
 1866              		.cfi_def_cfa_offset 32
 395:LEDcontrol.c  ****     ringLED(3, 191, 1.0, 0.5, rgbLED);
 1867              		.loc 1 395 0
 1868 0004 0490     		str	r0, [sp, #16]
 1869 0006 0022     		movs	r2, #0
 1870 0008 094B     		ldr	r3, .L141+8
 1871 000a CDE90223 		strd	r2, [sp, #8]
 1872 000e 0022     		movs	r2, #0
 1873 0010 084B     		ldr	r3, .L141+12
 1874 0012 CDE90023 		strd	r2, [sp]
 1875 0016 04A3     		adr	r3, .L141
 1876 0018 D3E90023 		ldrd	r2, [r3]
 1877 001c 0320     		movs	r0, #3
 1878              	.LVL211:
 1879 001e FFF7FEFF 		bl	ringLED
 1880              	.LVL212:
 396:LEDcontrol.c  **** }
 1881              		.loc 1 396 0
 1882 0022 07B0     		add	sp, sp, #28
 1883              		.cfi_def_cfa_offset 4
 1884              		@ sp needed
 1885 0024 5DF804FB 		ldr	pc, [sp], #4
 1886              	.L142:
 1887              		.align	3
 1888              	.L141:
 1889 0028 00000000 		.word	0
 1890 002c 00E06740 		.word	1080549376
 1891 0030 0000E03F 		.word	1071644672
 1892 0034 0000F03F 		.word	1072693248
 1893              		.cfi_endproc
 1894              	.LFE81:
 1895              		.size	LEDinitSeq, .-LEDinitSeq
 1896              		.section	.text.idleSeq,"ax",%progbits
 1897              		.align	2
 1898              		.global	idleSeq
 1899              		.thumb
 1900              		.thumb_func
 1901              		.type	idleSeq, %function
 1902              	idleSeq:
 1903              	.LFB82:
 397:LEDcontrol.c  **** 
 398:LEDcontrol.c  **** void idleSeq(LEDctrl *rgbLED)      //Idle-sekvens
ARM GAS  C:\Users\cring\AppData\Local\Temp\ccGk4Etb.s 			page 44


 399:LEDcontrol.c  **** {
 1904              		.loc 1 399 0
 1905              		.cfi_startproc
 1906              		@ args = 0, pretend = 0, frame = 0
 1907              		@ frame_needed = 0, uses_anonymous_args = 0
 1908              	.LVL213:
 1909 0000 00B5     		push	{lr}
 1910              		.cfi_def_cfa_offset 4
 1911              		.cfi_offset 14, -4
 1912 0002 85B0     		sub	sp, sp, #20
 1913              		.cfi_def_cfa_offset 24
 400:LEDcontrol.c  ****     pulseLED(307, 1.0, 0.85, rgbLED);
 1914              		.loc 1 400 0
 1915 0004 0290     		str	r0, [sp, #8]
 1916 0006 08A3     		adr	r3, .L145
 1917 0008 D3E90023 		ldrd	r2, [r3]
 1918 000c CDE90023 		strd	r2, [sp]
 1919 0010 0022     		movs	r2, #0
 1920 0012 094B     		ldr	r3, .L145+16
 1921 0014 06A1     		adr	r1, .L145+8
 1922 0016 D1E90001 		ldrd	r0, [r1]
 1923              	.LVL214:
 1924 001a FFF7FEFF 		bl	pulseLED
 1925              	.LVL215:
 401:LEDcontrol.c  **** }
 1926              		.loc 1 401 0
 1927 001e 05B0     		add	sp, sp, #20
 1928              		.cfi_def_cfa_offset 4
 1929              		@ sp needed
 1930 0020 5DF804FB 		ldr	pc, [sp], #4
 1931              	.L146:
 1932 0024 AFF30080 		.align	3
 1933              	.L145:
 1934 0028 33333333 		.word	858993459
 1935 002c 3333EB3F 		.word	1072378675
 1936 0030 00000000 		.word	0
 1937 0034 00307340 		.word	1081290752
 1938 0038 0000F03F 		.word	1072693248
 1939              		.cfi_endproc
 1940              	.LFE82:
 1941              		.size	idleSeq, .-idleSeq
 1942              		.section	.text.loserSeq,"ax",%progbits
 1943              		.align	2
 1944              		.global	loserSeq
 1945              		.thumb
 1946              		.thumb_func
 1947              		.type	loserSeq, %function
 1948              	loserSeq:
 1949              	.LFB83:
 402:LEDcontrol.c  **** 
 403:LEDcontrol.c  **** void loserSeq(LEDctrl *rgbLED)     //Tabersekvens
 404:LEDcontrol.c  **** {
 1950              		.loc 1 404 0
 1951              		.cfi_startproc
 1952              		@ args = 0, pretend = 0, frame = 0
 1953              		@ frame_needed = 0, uses_anonymous_args = 0
 1954              	.LVL216:
ARM GAS  C:\Users\cring\AppData\Local\Temp\ccGk4Etb.s 			page 45


 1955 0000 10B5     		push	{r4, lr}
 1956              		.cfi_def_cfa_offset 8
 1957              		.cfi_offset 4, -8
 1958              		.cfi_offset 14, -4
 1959 0002 84B0     		sub	sp, sp, #16
 1960              		.cfi_def_cfa_offset 24
 1961 0004 0446     		mov	r4, r0
 405:LEDcontrol.c  ****     LEDOff(rgbLED);
 1962              		.loc 1 405 0
 1963 0006 FFF7FEFF 		bl	LEDOff
 1964              	.LVL217:
 406:LEDcontrol.c  ****     fillcolor(3, 1.0, 0.83, rgbLED);
 1965              		.loc 1 406 0
 1966 000a 0294     		str	r4, [sp, #8]
 1967 000c 06A3     		adr	r3, .L149
 1968 000e D3E90023 		ldrd	r2, [r3]
 1969 0012 CDE90023 		strd	r2, [sp]
 1970 0016 0022     		movs	r2, #0
 1971 0018 054B     		ldr	r3, .L149+8
 1972 001a 0020     		movs	r0, #0
 1973 001c 0549     		ldr	r1, .L149+12
 1974 001e FFF7FEFF 		bl	fillcolor
 1975              	.LVL218:
 407:LEDcontrol.c  ****     
 408:LEDcontrol.c  **** }
 1976              		.loc 1 408 0
 1977 0022 04B0     		add	sp, sp, #16
 1978              		.cfi_def_cfa_offset 8
 1979              		@ sp needed
 1980 0024 10BD     		pop	{r4, pc}
 1981              	.LVL219:
 1982              	.L150:
 1983 0026 00BF     		.align	3
 1984              	.L149:
 1985 0028 8FC2F528 		.word	687194767
 1986 002c 5C8FEA3F 		.word	1072336732
 1987 0030 0000F03F 		.word	1072693248
 1988 0034 00000840 		.word	1074266112
 1989              		.cfi_endproc
 1990              	.LFE83:
 1991              		.size	loserSeq, .-loserSeq
 1992              		.section	.text.zeroCalibrateSeq,"ax",%progbits
 1993              		.align	2
 1994              		.global	zeroCalibrateSeq
 1995              		.thumb
 1996              		.thumb_func
 1997              		.type	zeroCalibrateSeq, %function
 1998              	zeroCalibrateSeq:
 1999              	.LFB84:
 409:LEDcontrol.c  **** 
 410:LEDcontrol.c  **** void zeroCalibrateSeq(LEDctrl *rgbLED) //Kalibreringssekvens
 411:LEDcontrol.c  **** {
 2000              		.loc 1 411 0
 2001              		.cfi_startproc
 2002              		@ args = 0, pretend = 0, frame = 0
 2003              		@ frame_needed = 0, uses_anonymous_args = 0
 2004              	.LVL220:
ARM GAS  C:\Users\cring\AppData\Local\Temp\ccGk4Etb.s 			page 46


 2005 0000 00B5     		push	{lr}
 2006              		.cfi_def_cfa_offset 4
 2007              		.cfi_offset 14, -4
 2008 0002 85B0     		sub	sp, sp, #20
 2009              		.cfi_def_cfa_offset 24
 412:LEDcontrol.c  ****     pulseLED(65, 1, 1, rgbLED);
 2010              		.loc 1 412 0
 2011 0004 0022     		movs	r2, #0
 2012 0006 054B     		ldr	r3, .L153
 2013 0008 0290     		str	r0, [sp, #8]
 2014 000a CDE90023 		strd	r2, [sp]
 2015 000e 0020     		movs	r0, #0
 2016              	.LVL221:
 2017 0010 0349     		ldr	r1, .L153+4
 2018 0012 FFF7FEFF 		bl	pulseLED
 2019              	.LVL222:
 413:LEDcontrol.c  **** }
 2020              		.loc 1 413 0
 2021 0016 05B0     		add	sp, sp, #20
 2022              		.cfi_def_cfa_offset 4
 2023              		@ sp needed
 2024 0018 5DF804FB 		ldr	pc, [sp], #4
 2025              	.L154:
 2026              		.align	2
 2027              	.L153:
 2028 001c 0000F03F 		.word	1072693248
 2029 0020 00405040 		.word	1079001088
 2030              		.cfi_endproc
 2031              	.LFE84:
 2032              		.size	zeroCalibrateSeq, .-zeroCalibrateSeq
 2033              		.section	.text.checkSeq,"ax",%progbits
 2034              		.align	2
 2035              		.global	checkSeq
 2036              		.thumb
 2037              		.thumb_func
 2038              		.type	checkSeq, %function
 2039              	checkSeq:
 2040              	.LFB85:
 414:LEDcontrol.c  **** 
 415:LEDcontrol.c  **** void checkSeq(LEDctrl *rgbLED) //Tjek vægt sekvens
 416:LEDcontrol.c  **** {
 2041              		.loc 1 416 0
 2042              		.cfi_startproc
 2043              		@ args = 0, pretend = 0, frame = 0
 2044              		@ frame_needed = 0, uses_anonymous_args = 0
 2045              	.LVL223:
 2046 0000 00B5     		push	{lr}
 2047              		.cfi_def_cfa_offset 4
 2048              		.cfi_offset 14, -4
 2049 0002 87B0     		sub	sp, sp, #28
 2050              		.cfi_def_cfa_offset 32
 417:LEDcontrol.c  ****     ringLED(3, 65, 1, 1, rgbLED);
 2051              		.loc 1 417 0
 2052 0004 0490     		str	r0, [sp, #16]
 2053 0006 0022     		movs	r2, #0
 2054 0008 064B     		ldr	r3, .L157
 2055 000a CDE90223 		strd	r2, [sp, #8]
ARM GAS  C:\Users\cring\AppData\Local\Temp\ccGk4Etb.s 			page 47


 2056 000e CDE90023 		strd	r2, [sp]
 2057 0012 0022     		movs	r2, #0
 2058 0014 044B     		ldr	r3, .L157+4
 2059 0016 0320     		movs	r0, #3
 2060              	.LVL224:
 2061 0018 FFF7FEFF 		bl	ringLED
 2062              	.LVL225:
 418:LEDcontrol.c  **** }
 2063              		.loc 1 418 0
 2064 001c 07B0     		add	sp, sp, #28
 2065              		.cfi_def_cfa_offset 4
 2066              		@ sp needed
 2067 001e 5DF804FB 		ldr	pc, [sp], #4
 2068              	.L158:
 2069 0022 00BF     		.align	2
 2070              	.L157:
 2071 0024 0000F03F 		.word	1072693248
 2072 0028 00405040 		.word	1079001088
 2073              		.cfi_endproc
 2074              	.LFE85:
 2075              		.size	checkSeq, .-checkSeq
 2076              		.section	.text.weightapprovedSeq,"ax",%progbits
 2077              		.align	2
 2078              		.global	weightapprovedSeq
 2079              		.thumb
 2080              		.thumb_func
 2081              		.type	weightapprovedSeq, %function
 2082              	weightapprovedSeq:
 2083              	.LFB86:
 419:LEDcontrol.c  **** 
 420:LEDcontrol.c  **** void weightapprovedSeq(LEDctrl *rgbLED) //Vægt godkendt sekvens
 421:LEDcontrol.c  **** {
 2084              		.loc 1 421 0
 2085              		.cfi_startproc
 2086              		@ args = 0, pretend = 0, frame = 0
 2087              		@ frame_needed = 0, uses_anonymous_args = 0
 2088              	.LVL226:
 2089 0000 10B5     		push	{r4, lr}
 2090              		.cfi_def_cfa_offset 8
 2091              		.cfi_offset 4, -8
 2092              		.cfi_offset 14, -4
 2093 0002 84B0     		sub	sp, sp, #16
 2094              		.cfi_def_cfa_offset 24
 2095 0004 0446     		mov	r4, r0
 422:LEDcontrol.c  ****     LEDOff(rgbLED);
 2096              		.loc 1 422 0
 2097 0006 FFF7FEFF 		bl	LEDOff
 2098              	.LVL227:
 423:LEDcontrol.c  ****     fillcolor(116, 1, 1.0, rgbLED);
 2099              		.loc 1 423 0
 2100 000a 0022     		movs	r2, #0
 2101 000c 044B     		ldr	r3, .L161
 2102 000e 0294     		str	r4, [sp, #8]
 2103 0010 CDE90023 		strd	r2, [sp]
 2104 0014 0020     		movs	r0, #0
 2105 0016 0349     		ldr	r1, .L161+4
 2106 0018 FFF7FEFF 		bl	fillcolor
ARM GAS  C:\Users\cring\AppData\Local\Temp\ccGk4Etb.s 			page 48


 2107              	.LVL228:
 424:LEDcontrol.c  **** }
 2108              		.loc 1 424 0
 2109 001c 04B0     		add	sp, sp, #16
 2110              		.cfi_def_cfa_offset 8
 2111              		@ sp needed
 2112 001e 10BD     		pop	{r4, pc}
 2113              	.LVL229:
 2114              	.L162:
 2115              		.align	2
 2116              	.L161:
 2117 0020 0000F03F 		.word	1072693248
 2118 0024 00005D40 		.word	1079836672
 2119              		.cfi_endproc
 2120              	.LFE86:
 2121              		.size	weightapprovedSeq, .-weightapprovedSeq
 2122              		.section	.text.startSeq,"ax",%progbits
 2123              		.align	2
 2124              		.global	startSeq
 2125              		.thumb
 2126              		.thumb_func
 2127              		.type	startSeq, %function
 2128              	startSeq:
 2129              	.LFB87:
 425:LEDcontrol.c  **** 
 426:LEDcontrol.c  **** int startSeq(LEDctrl *rgbLED_1, LEDctrl *rgbLED_2) //Start sekvens
 427:LEDcontrol.c  **** {
 2130              		.loc 1 427 0
 2131              		.cfi_startproc
 2132              		@ args = 0, pretend = 0, frame = 0
 2133              		@ frame_needed = 0, uses_anonymous_args = 0
 2134              	.LVL230:
 2135 0000 2DE9F047 		push	{r4, r5, r6, r7, r8, r9, r10, lr}
 2136              		.cfi_def_cfa_offset 32
 2137              		.cfi_offset 4, -32
 2138              		.cfi_offset 5, -28
 2139              		.cfi_offset 6, -24
 2140              		.cfi_offset 7, -20
 2141              		.cfi_offset 8, -16
 2142              		.cfi_offset 9, -12
 2143              		.cfi_offset 10, -8
 2144              		.cfi_offset 14, -4
 2145 0004 84B0     		sub	sp, sp, #16
 2146              		.cfi_def_cfa_offset 48
 2147 0006 8046     		mov	r8, r0
 2148 0008 8A46     		mov	r10, r1
 428:LEDcontrol.c  ****     switch (count2)
 2149              		.loc 1 428 0
 2150 000a 4F4B     		ldr	r3, .L174+8
 2151 000c 9B69     		ldr	r3, [r3, #24]
 2152 000e 062B     		cmp	r3, #6
 2153 0010 00F28F80 		bhi	.L172
 2154 0014 DFE803F0 		tbb	[pc, r3]
 2155              	.L166:
 2156 0018 04       		.byte	(.L165-.L166)/2
 2157 0019 0D       		.byte	(.L167-.L166)/2
 2158 001a 2B       		.byte	(.L168-.L166)/2
ARM GAS  C:\Users\cring\AppData\Local\Temp\ccGk4Etb.s 			page 49


 2159 001b 44       		.byte	(.L169-.L166)/2
 2160 001c 8D       		.byte	(.L172-.L166)/2
 2161 001d 61       		.byte	(.L170-.L166)/2
 2162 001e 88       		.byte	(.L171-.L166)/2
 2163 001f 00       		.p2align 1
 2164              	.L165:
 429:LEDcontrol.c  ****     {
 430:LEDcontrol.c  ****         case 0:
 431:LEDcontrol.c  ****         {
 432:LEDcontrol.c  ****             LEDOff(rgbLED_1);
 2165              		.loc 1 432 0
 2166 0020 FFF7FEFF 		bl	LEDOff
 2167              	.LVL231:
 433:LEDcontrol.c  ****             LEDOff(rgbLED_2);
 2168              		.loc 1 433 0
 2169 0024 5046     		mov	r0, r10
 2170 0026 FFF7FEFF 		bl	LEDOff
 2171              	.LVL232:
 434:LEDcontrol.c  ****             Timer5_Start();
 2172              		.loc 1 434 0
 2173 002a FFF7FEFF 		bl	Timer5_Start
 2174              	.LVL233:
 435:LEDcontrol.c  ****             isr_delay_Enable();
 2175              		.loc 1 435 0
 2176 002e FFF7FEFF 		bl	isr_delay_Enable
 2177              	.LVL234:
 2178              	.L167:
 436:LEDcontrol.c  ****         }
 437:LEDcontrol.c  ****         case 1:
 438:LEDcontrol.c  ****         {            
 439:LEDcontrol.c  ****             fillcolor(3, 1.0, 0.83, rgbLED_1);
 2179              		.loc 1 439 0
 2180 0032 0026     		movs	r6, #0
 2181 0034 454F     		ldr	r7, .L174+12
 2182 0036 0024     		movs	r4, #0
 2183 0038 454D     		ldr	r5, .L174+16
 2184 003a CDF80880 		str	r8, [sp, #8]
 2185 003e 0FF20019 		adr	r9, .L174
 2186 0042 D9E90089 		ldrd	r8, [r9]
 2187              	.LVL235:
 2188 0046 CDE90089 		strd	r8, [sp]
 2189 004a 3246     		mov	r2, r6
 2190 004c 3B46     		mov	r3, r7
 2191 004e 2046     		mov	r0, r4
 2192 0050 2946     		mov	r1, r5
 2193 0052 FFF7FEFF 		bl	fillcolor
 2194              	.LVL236:
 440:LEDcontrol.c  ****             fillcolor(3, 1.0, 0.83, rgbLED_2);
 2195              		.loc 1 440 0
 2196 0056 CDF808A0 		str	r10, [sp, #8]
 2197 005a CDE90089 		strd	r8, [sp]
 2198 005e 3246     		mov	r2, r6
 2199 0060 3B46     		mov	r3, r7
 2200 0062 2046     		mov	r0, r4
 2201 0064 2946     		mov	r1, r5
 2202 0066 FFF7FEFF 		bl	fillcolor
 2203              	.LVL237:
ARM GAS  C:\Users\cring\AppData\Local\Temp\ccGk4Etb.s 			page 50


 441:LEDcontrol.c  ****         }
 442:LEDcontrol.c  ****         break;
 443:LEDcontrol.c  ****         
 444:LEDcontrol.c  ****         case 2:
 445:LEDcontrol.c  ****         {
 446:LEDcontrol.c  ****             fillcolor(65, 1, 1, rgbLED_1);
 447:LEDcontrol.c  ****             fillcolor(65, 1, 1, rgbLED_2);
 448:LEDcontrol.c  ****             //return 1;
 449:LEDcontrol.c  ****         }
 450:LEDcontrol.c  ****         break;
 451:LEDcontrol.c  ****         
 452:LEDcontrol.c  ****         case 3:
 453:LEDcontrol.c  ****         {
 454:LEDcontrol.c  ****             fillcolor(65, 1, 1, rgbLED_1);
 455:LEDcontrol.c  ****             fillcolor(65, 1, 1, rgbLED_2);
 456:LEDcontrol.c  ****                
 457:LEDcontrol.c  ****             count2++;
 458:LEDcontrol.c  ****             //fillcolor(65, 1, 1, rgbLED_1);
 459:LEDcontrol.c  ****             //fillcolor(65, 1, 1, rgbLED_2);
 460:LEDcontrol.c  ****             //return 1;
 461:LEDcontrol.c  ****             
 462:LEDcontrol.c  ****         }
 463:LEDcontrol.c  ****         break;
 464:LEDcontrol.c  ****         case 4:
 465:LEDcontrol.c  ****         {
 466:LEDcontrol.c  ****             //1 sekund delay
 467:LEDcontrol.c  ****         }
 468:LEDcontrol.c  ****         break;
 469:LEDcontrol.c  ****         case 5:
 470:LEDcontrol.c  ****         {
 471:LEDcontrol.c  ****             LEDOff(rgbLED_1);
 472:LEDcontrol.c  ****             LEDOff(rgbLED_2);
 473:LEDcontrol.c  ****             
 474:LEDcontrol.c  ****             fillcolor(116, 1, 1.0, rgbLED_1);
 475:LEDcontrol.c  ****             fillcolor(116, 1, 1.0, rgbLED_2);
 476:LEDcontrol.c  ****             Timer5_Stop();
 477:LEDcontrol.c  ****             //count2 = 0;
 478:LEDcontrol.c  ****             isr_delay_Disable();
 479:LEDcontrol.c  ****             count2++;
 480:LEDcontrol.c  ****         }
 481:LEDcontrol.c  ****         break;
 482:LEDcontrol.c  ****         case 6:
 483:LEDcontrol.c  ****         {  
 484:LEDcontrol.c  ****             count2 = 0;
 485:LEDcontrol.c  ****             return 1;
 486:LEDcontrol.c  ****         }
 487:LEDcontrol.c  ****         break;
 488:LEDcontrol.c  ****     }
 489:LEDcontrol.c  ****     return 0;
 2204              		.loc 1 489 0
 2205 006a 0020     		movs	r0, #0
 442:LEDcontrol.c  ****         
 2206              		.loc 1 442 0
 2207 006c 62E0     		b	.L164
 2208              	.LVL238:
 2209              	.L168:
 446:LEDcontrol.c  ****             fillcolor(65, 1, 1, rgbLED_2);
ARM GAS  C:\Users\cring\AppData\Local\Temp\ccGk4Etb.s 			page 51


 2210              		.loc 1 446 0
 2211 006e 0024     		movs	r4, #0
 2212 0070 364D     		ldr	r5, .L174+12
 2213 0072 0026     		movs	r6, #0
 2214 0074 374F     		ldr	r7, .L174+20
 2215 0076 0290     		str	r0, [sp, #8]
 2216 0078 CDE90045 		strd	r4, [sp]
 2217 007c 2246     		mov	r2, r4
 2218 007e 2B46     		mov	r3, r5
 2219 0080 3046     		mov	r0, r6
 2220              	.LVL239:
 2221 0082 3946     		mov	r1, r7
 2222              	.LVL240:
 2223 0084 FFF7FEFF 		bl	fillcolor
 2224              	.LVL241:
 447:LEDcontrol.c  ****             //return 1;
 2225              		.loc 1 447 0
 2226 0088 CDF808A0 		str	r10, [sp, #8]
 2227 008c CDE90045 		strd	r4, [sp]
 2228 0090 2246     		mov	r2, r4
 2229 0092 2B46     		mov	r3, r5
 2230 0094 3046     		mov	r0, r6
 2231 0096 3946     		mov	r1, r7
 2232 0098 FFF7FEFF 		bl	fillcolor
 2233              	.LVL242:
 2234              		.loc 1 489 0
 2235 009c 0020     		movs	r0, #0
 450:LEDcontrol.c  ****         
 2236              		.loc 1 450 0
 2237 009e 49E0     		b	.L164
 2238              	.LVL243:
 2239              	.L169:
 454:LEDcontrol.c  ****             fillcolor(65, 1, 1, rgbLED_2);
 2240              		.loc 1 454 0
 2241 00a0 0024     		movs	r4, #0
 2242 00a2 2A4D     		ldr	r5, .L174+12
 2243 00a4 0026     		movs	r6, #0
 2244 00a6 2B4F     		ldr	r7, .L174+20
 2245 00a8 0290     		str	r0, [sp, #8]
 2246 00aa CDE90045 		strd	r4, [sp]
 2247 00ae 2246     		mov	r2, r4
 2248 00b0 2B46     		mov	r3, r5
 2249 00b2 3046     		mov	r0, r6
 2250              	.LVL244:
 2251 00b4 3946     		mov	r1, r7
 2252              	.LVL245:
 2253 00b6 FFF7FEFF 		bl	fillcolor
 2254              	.LVL246:
 455:LEDcontrol.c  ****                
 2255              		.loc 1 455 0
 2256 00ba CDF808A0 		str	r10, [sp, #8]
 2257 00be CDE90045 		strd	r4, [sp]
 2258 00c2 2246     		mov	r2, r4
 2259 00c4 2B46     		mov	r3, r5
 2260 00c6 3046     		mov	r0, r6
 2261 00c8 3946     		mov	r1, r7
 2262 00ca FFF7FEFF 		bl	fillcolor
ARM GAS  C:\Users\cring\AppData\Local\Temp\ccGk4Etb.s 			page 52


 2263              	.LVL247:
 457:LEDcontrol.c  ****             //fillcolor(65, 1, 1, rgbLED_1);
 2264              		.loc 1 457 0
 2265 00ce 1E4A     		ldr	r2, .L174+8
 2266 00d0 9369     		ldr	r3, [r2, #24]
 2267 00d2 0133     		adds	r3, r3, #1
 2268 00d4 9361     		str	r3, [r2, #24]
 2269              		.loc 1 489 0
 2270 00d6 0020     		movs	r0, #0
 463:LEDcontrol.c  ****         case 4:
 2271              		.loc 1 463 0
 2272 00d8 2CE0     		b	.L164
 2273              	.LVL248:
 2274              	.L170:
 471:LEDcontrol.c  ****             LEDOff(rgbLED_2);
 2275              		.loc 1 471 0
 2276 00da FFF7FEFF 		bl	LEDOff
 2277              	.LVL249:
 472:LEDcontrol.c  ****             
 2278              		.loc 1 472 0
 2279 00de 5046     		mov	r0, r10
 2280 00e0 FFF7FEFF 		bl	LEDOff
 2281              	.LVL250:
 474:LEDcontrol.c  ****             fillcolor(116, 1, 1.0, rgbLED_2);
 2282              		.loc 1 474 0
 2283 00e4 0024     		movs	r4, #0
 2284 00e6 194D     		ldr	r5, .L174+12
 2285 00e8 0026     		movs	r6, #0
 2286 00ea 1B4F     		ldr	r7, .L174+24
 2287 00ec CDF80880 		str	r8, [sp, #8]
 2288 00f0 CDE90045 		strd	r4, [sp]
 2289 00f4 2246     		mov	r2, r4
 2290 00f6 2B46     		mov	r3, r5
 2291 00f8 3046     		mov	r0, r6
 2292 00fa 3946     		mov	r1, r7
 2293 00fc FFF7FEFF 		bl	fillcolor
 2294              	.LVL251:
 475:LEDcontrol.c  ****             Timer5_Stop();
 2295              		.loc 1 475 0
 2296 0100 CDF808A0 		str	r10, [sp, #8]
 2297 0104 CDE90045 		strd	r4, [sp]
 2298 0108 2246     		mov	r2, r4
 2299 010a 2B46     		mov	r3, r5
 2300 010c 3046     		mov	r0, r6
 2301 010e 3946     		mov	r1, r7
 2302 0110 FFF7FEFF 		bl	fillcolor
 2303              	.LVL252:
 476:LEDcontrol.c  ****             //count2 = 0;
 2304              		.loc 1 476 0
 2305 0114 FFF7FEFF 		bl	Timer5_Stop
 2306              	.LVL253:
 478:LEDcontrol.c  ****             count2++;
 2307              		.loc 1 478 0
 2308 0118 FFF7FEFF 		bl	isr_delay_Disable
 2309              	.LVL254:
 479:LEDcontrol.c  ****         }
 2310              		.loc 1 479 0
ARM GAS  C:\Users\cring\AppData\Local\Temp\ccGk4Etb.s 			page 53


 2311 011c 0A4A     		ldr	r2, .L174+8
 2312 011e 9369     		ldr	r3, [r2, #24]
 2313 0120 0133     		adds	r3, r3, #1
 2314 0122 9361     		str	r3, [r2, #24]
 2315              		.loc 1 489 0
 2316 0124 0020     		movs	r0, #0
 481:LEDcontrol.c  ****         case 6:
 2317              		.loc 1 481 0
 2318 0126 05E0     		b	.L164
 2319              	.LVL255:
 2320              	.L171:
 484:LEDcontrol.c  ****             return 1;
 2321              		.loc 1 484 0
 2322 0128 0022     		movs	r2, #0
 2323 012a 074B     		ldr	r3, .L174+8
 2324 012c 9A61     		str	r2, [r3, #24]
 485:LEDcontrol.c  ****         }
 2325              		.loc 1 485 0
 2326 012e 0120     		movs	r0, #1
 2327              	.LVL256:
 2328 0130 00E0     		b	.L164
 2329              	.LVL257:
 2330              	.L172:
 2331              		.loc 1 489 0
 2332 0132 0020     		movs	r0, #0
 2333              	.LVL258:
 2334              	.L164:
 490:LEDcontrol.c  **** }
 2335              		.loc 1 490 0
 2336 0134 04B0     		add	sp, sp, #16
 2337              		.cfi_def_cfa_offset 32
 2338              		@ sp needed
 2339 0136 BDE8F087 		pop	{r4, r5, r6, r7, r8, r9, r10, pc}
 2340              	.LVL259:
 2341              	.L175:
 2342 013a 00BFAFF3 		.align	3
 2342      0080
 2343              	.L174:
 2344 0140 8FC2F528 		.word	687194767
 2345 0144 5C8FEA3F 		.word	1072336732
 2346 0148 00000000 		.word	.LANCHOR0
 2347 014c 0000F03F 		.word	1072693248
 2348 0150 00000840 		.word	1074266112
 2349 0154 00405040 		.word	1079001088
 2350 0158 00005D40 		.word	1079836672
 2351              		.cfi_endproc
 2352              	.LFE87:
 2353              		.size	startSeq, .-startSeq
 2354              		.section	.text.isr_delay,"ax",%progbits
 2355              		.align	2
 2356              		.global	isr_delay
 2357              		.thumb
 2358              		.thumb_func
 2359              		.type	isr_delay, %function
 2360              	isr_delay:
 2361              	.LFB68:
 115:LEDcontrol.c  ****     count2++;
ARM GAS  C:\Users\cring\AppData\Local\Temp\ccGk4Etb.s 			page 54


 2362              		.loc 1 115 0
 2363              		.cfi_startproc
 2364              		@ args = 0, pretend = 0, frame = 0
 2365              		@ frame_needed = 0, uses_anonymous_args = 0
 2366 0000 08B5     		push	{r3, lr}
 2367              		.cfi_def_cfa_offset 8
 2368              		.cfi_offset 3, -8
 2369              		.cfi_offset 14, -4
 116:LEDcontrol.c  ****     startSeq(rgbLED1, rgbLED2);
 2370              		.loc 1 116 0
 2371 0002 044B     		ldr	r3, .L178
 2372 0004 9A69     		ldr	r2, [r3, #24]
 2373 0006 0132     		adds	r2, r2, #1
 2374 0008 9A61     		str	r2, [r3, #24]
 117:LEDcontrol.c  **** }
 2375              		.loc 1 117 0
 2376 000a 5968     		ldr	r1, [r3, #4]
 2377 000c 1868     		ldr	r0, [r3]
 2378 000e FFF7FEFF 		bl	startSeq
 2379              	.LVL260:
 2380 0012 08BD     		pop	{r3, pc}
 2381              	.L179:
 2382              		.align	2
 2383              	.L178:
 2384 0014 00000000 		.word	.LANCHOR0
 2385              		.cfi_endproc
 2386              	.LFE68:
 2387              		.size	isr_delay, .-isr_delay
 2388              		.section	.text.errorSeq,"ax",%progbits
 2389              		.align	2
 2390              		.global	errorSeq
 2391              		.thumb
 2392              		.thumb_func
 2393              		.type	errorSeq, %function
 2394              	errorSeq:
 2395              	.LFB88:
 491:LEDcontrol.c  **** 
 492:LEDcontrol.c  **** void errorSeq(LEDctrl *rgbLED) //Fejl sekvens
 493:LEDcontrol.c  **** {
 2396              		.loc 1 493 0
 2397              		.cfi_startproc
 2398              		@ args = 0, pretend = 0, frame = 0
 2399              		@ frame_needed = 0, uses_anonymous_args = 0
 2400              	.LVL261:
 2401 0000 00B5     		push	{lr}
 2402              		.cfi_def_cfa_offset 4
 2403              		.cfi_offset 14, -4
 2404 0002 85B0     		sub	sp, sp, #20
 2405              		.cfi_def_cfa_offset 24
 494:LEDcontrol.c  ****     BlinkLED(3, 1.0, 0.83, rgbLED);
 2406              		.loc 1 494 0
 2407 0004 0290     		str	r0, [sp, #8]
 2408 0006 08A3     		adr	r3, .L182
 2409 0008 D3E90023 		ldrd	r2, [r3]
 2410 000c CDE90023 		strd	r2, [sp]
 2411 0010 0022     		movs	r2, #0
 2412 0012 074B     		ldr	r3, .L182+8
ARM GAS  C:\Users\cring\AppData\Local\Temp\ccGk4Etb.s 			page 55


 2413 0014 0020     		movs	r0, #0
 2414              	.LVL262:
 2415 0016 0749     		ldr	r1, .L182+12
 2416 0018 FFF7FEFF 		bl	BlinkLED
 2417              	.LVL263:
 495:LEDcontrol.c  **** }
 2418              		.loc 1 495 0
 2419 001c 05B0     		add	sp, sp, #20
 2420              		.cfi_def_cfa_offset 4
 2421              		@ sp needed
 2422 001e 5DF804FB 		ldr	pc, [sp], #4
 2423              	.L183:
 2424 0022 00BFAFF3 		.align	3
 2424      0080
 2425              	.L182:
 2426 0028 8FC2F528 		.word	687194767
 2427 002c 5C8FEA3F 		.word	1072336732
 2428 0030 0000F03F 		.word	1072693248
 2429 0034 00000840 		.word	1074266112
 2430              		.cfi_endproc
 2431              	.LFE88:
 2432              		.size	errorSeq, .-errorSeq
 2433              		.section	.text.winnerSeq,"ax",%progbits
 2434              		.align	2
 2435              		.global	winnerSeq
 2436              		.thumb
 2437              		.thumb_func
 2438              		.type	winnerSeq, %function
 2439              	winnerSeq:
 2440              	.LFB89:
 496:LEDcontrol.c  **** 
 497:LEDcontrol.c  **** void winnerSeq(LEDctrl *rgbLED)   //Vindersekvens
 498:LEDcontrol.c  **** {
 2441              		.loc 1 498 0
 2442              		.cfi_startproc
 2443              		@ args = 0, pretend = 0, frame = 0
 2444              		@ frame_needed = 0, uses_anonymous_args = 0
 2445              	.LVL264:
 2446 0000 10B5     		push	{r4, lr}
 2447              		.cfi_def_cfa_offset 8
 2448              		.cfi_offset 4, -8
 2449              		.cfi_offset 14, -4
 2450 0002 84B0     		sub	sp, sp, #16
 2451              		.cfi_def_cfa_offset 24
 2452 0004 0446     		mov	r4, r0
 499:LEDcontrol.c  ****     LEDOff(rgbLED);
 2453              		.loc 1 499 0
 2454 0006 FFF7FEFF 		bl	LEDOff
 2455              	.LVL265:
 500:LEDcontrol.c  ****     fillcolor(116, 1, 1.0, rgbLED);
 2456              		.loc 1 500 0
 2457 000a 0022     		movs	r2, #0
 2458 000c 044B     		ldr	r3, .L186
 2459 000e 0294     		str	r4, [sp, #8]
 2460 0010 CDE90023 		strd	r2, [sp]
 2461 0014 0020     		movs	r0, #0
 2462 0016 0349     		ldr	r1, .L186+4
ARM GAS  C:\Users\cring\AppData\Local\Temp\ccGk4Etb.s 			page 56


 2463 0018 FFF7FEFF 		bl	fillcolor
 2464              	.LVL266:
 501:LEDcontrol.c  **** }
 2465              		.loc 1 501 0
 2466 001c 04B0     		add	sp, sp, #16
 2467              		.cfi_def_cfa_offset 8
 2468              		@ sp needed
 2469 001e 10BD     		pop	{r4, pc}
 2470              	.LVL267:
 2471              	.L187:
 2472              		.align	2
 2473              	.L186:
 2474 0020 0000F03F 		.word	1072693248
 2475 0024 00005D40 		.word	1079836672
 2476              		.cfi_endproc
 2477              	.LFE89:
 2478              		.size	winnerSeq, .-winnerSeq
 2479              		.global	rgbLED2
 2480              		.global	rgbLED1
 2481              		.data
 2482              		.align	2
 2483              		.set	.LANCHOR1,. + 0
 2484              		.type	index2, %object
 2485              		.size	index2, 4
 2486              	index2:
 2487 0000 0000003F 		.word	1056964608
 2488              		.bss
 2489              		.align	2
 2490              		.set	.LANCHOR0,. + 0
 2491              		.type	rgbLED1, %object
 2492              		.size	rgbLED1, 4
 2493              	rgbLED1:
 2494 0000 00000000 		.space	4
 2495              		.type	rgbLED2, %object
 2496              		.size	rgbLED2, 4
 2497              	rgbLED2:
 2498 0004 00000000 		.space	4
 2499              		.type	count, %object
 2500              		.size	count, 4
 2501              	count:
 2502 0008 00000000 		.space	4
 2503              		.type	count3, %object
 2504              		.size	count3, 4
 2505              	count3:
 2506 000c 00000000 		.space	4
 2507              		.type	index_, %object
 2508              		.size	index_, 4
 2509              	index_:
 2510 0010 00000000 		.space	4
 2511              		.type	pulselength_, %object
 2512              		.size	pulselength_, 4
 2513              	pulselength_:
 2514 0014 00000000 		.space	4
 2515              		.type	count2, %object
 2516              		.size	count2, 4
 2517              	count2:
 2518 0018 00000000 		.space	4
ARM GAS  C:\Users\cring\AppData\Local\Temp\ccGk4Etb.s 			page 57


 2519              		.text
 2520              	.Letext0:
 2521              		.file 2 "c:\\program files (x86)\\cypress\\psoc creator\\4.3\\psoc creator\\import\\gnu\\arm\\5.4.
 2522              		.file 3 "c:\\program files (x86)\\cypress\\psoc creator\\4.3\\psoc creator\\import\\gnu\\arm\\5.4.
 2523              		.file 4 "LEDcontrol.h"
 2524              		.file 5 "Generated_Source\\PSoC5/core_cm3.h"
 2525              		.file 6 "Generated_Source\\PSoC5/Timer1.h"
 2526              		.file 7 "Generated_Source\\PSoC5/Timer2.h"
 2527              		.file 8 "Generated_Source\\PSoC5/Timer3.h"
 2528              		.file 9 "Generated_Source\\PSoC5/Timer4.h"
 2529              		.file 10 "Generated_Source\\PSoC5/SPIM_1.h"
 2530              		.file 11 "Generated_Source\\PSoC5/SPIMOutCtrl.h"
 2531              		.file 12 "Generated_Source\\PSoC5/CyLib.h"
 2532              		.file 13 "Generated_Source\\PSoC5/Timer5.h"
 2533              		.file 14 "Generated_Source\\PSoC5/isr_LED_refreshrate.h"
 2534              		.file 15 "Generated_Source\\PSoC5/isr_LED_ring.h"
 2535              		.file 16 "Generated_Source\\PSoC5/isr_LED_pulse.h"
 2536              		.file 17 "Generated_Source\\PSoC5/isr_BlinkLED.h"
 2537              		.file 18 "Generated_Source\\PSoC5/isr_delay.h"