ARM GAS  C:\Users\cring\AppData\Local\Temp\ccBhWN3K.s 			page 1


   1              		.syntax unified
   2              		.cpu cortex-m3
   3              		.fpu softvfp
   4              		.eabi_attribute 20, 1
   5              		.eabi_attribute 21, 1
   6              		.eabi_attribute 23, 3
   7              		.eabi_attribute 24, 1
   8              		.eabi_attribute 25, 1
   9              		.eabi_attribute 26, 1
  10              		.eabi_attribute 30, 1
  11              		.eabi_attribute 34, 1
  12              		.eabi_attribute 18, 4
  13              		.thumb
  14              		.syntax unified
  15              		.file	"main.c"
  16              		.text
  17              	.Ltext0:
  18              		.cfi_sections	.debug_frame
  19              		.section	.text.main,"ax",%progbits
  20              		.align	2
  21              		.global	main
  22              		.thumb
  23              		.thumb_func
  24              		.type	main, %function
  25              	main:
  26              	.LFB64:
  27              		.file 1 "main.c"
   1:main.c        **** /* ========================================
   2:main.c        ****  *
   3:main.c        ****  * Copyright YOUR COMPANY, THE YEAR
   4:main.c        ****  * All Rights Reserved
   5:main.c        ****  * UNPUBLISHED, LICENSED SOFTWARE.
   6:main.c        ****  *
   7:main.c        ****  * CONFIDENTIAL AND PROPRIETARY INFORMATION
   8:main.c        ****  * WHICH IS THE PROPERTY OF your company.
   9:main.c        ****  *
  10:main.c        ****  * ========================================
  11:main.c        **** */
  12:main.c        **** #include "project.h"
  13:main.c        **** #include "LEDcontrol.h"
  14:main.c        **** 
  15:main.c        **** #define LEDlength 21
  16:main.c        **** 
  17:main.c        **** 
  18:main.c        **** int main(void)
  19:main.c        **** {
  28              		.loc 1 19 0
  29              		.cfi_startproc
  30              		@ args = 0, pretend = 0, frame = 3360
  31              		@ frame_needed = 0, uses_anonymous_args = 0
  32 0000 70B5     		push	{r4, r5, r6, lr}
  33              		.cfi_def_cfa_offset 16
  34              		.cfi_offset 4, -16
  35              		.cfi_offset 5, -12
  36              		.cfi_offset 6, -8
  37              		.cfi_offset 14, -4
  38 0002 ADF6385D 		subw	sp, sp, #3384
ARM GAS  C:\Users\cring\AppData\Local\Temp\ccBhWN3K.s 			page 2


  39              		.cfi_def_cfa_offset 3400
  20:main.c        ****     CyGlobalIntEnable; /* Enable global interrupts. */
  40              		.loc 1 20 0
  41              		.syntax unified
  42              	@ 20 "main.c" 1
  43 0006 62B6     		CPSIE   i
  44              	@ 0 "" 2
  21:main.c        ****     
  22:main.c        ****     LEDctrl rgbstrip1[LEDlength], rgbstrip2[LEDlength];
  23:main.c        ****     addLEDstrip(LEDlength, rgbstrip1, 1);
  45              		.loc 1 23 0
  46              		.thumb
  47              		.syntax unified
  48 0008 0DF5D564 		add	r4, sp, #1704
  49 000c 0122     		movs	r2, #1
  50 000e 2146     		mov	r1, r4
  51 0010 1520     		movs	r0, #21
  52 0012 FFF7FEFF 		bl	addLEDstrip
  53              	.LVL0:
  24:main.c        ****     addLEDstrip(LEDlength, rgbstrip2, 2);
  54              		.loc 1 24 0
  55 0016 06AE     		add	r6, sp, #24
  56 0018 0222     		movs	r2, #2
  57 001a 3146     		mov	r1, r6
  58 001c 1520     		movs	r0, #21
  59 001e FFF7FEFF 		bl	addLEDstrip
  60              	.LVL1:
  25:main.c        ****     LEDinit(120);
  61              		.loc 1 25 0
  62 0022 7820     		movs	r0, #120
  63 0024 FFF7FEFF 		bl	LEDinit
  64              	.LVL2:
  26:main.c        **** 
  27:main.c        ****     setspeed(100, 20);
  65              		.loc 1 27 0
  66 0028 1421     		movs	r1, #20
  67 002a 6420     		movs	r0, #100
  68 002c FFF7FEFF 		bl	setspeed
  69              	.LVL3:
  28:main.c        ****     ringLED(4, 87, 1.0, 0.7, rgbstrip1);
  70              		.loc 1 28 0
  71 0030 0494     		str	r4, [sp, #16]
  72 0032 0DA3     		adr	r3, .L4
  73 0034 D3E90023 		ldrd	r2, [r3]
  74 0038 CDE90223 		strd	r2, [sp, #8]
  75 003c 0024     		movs	r4, #0
  76 003e 0E4D     		ldr	r5, .L4+16
  77 0040 CDE90045 		strd	r4, [sp]
  78 0044 0AA3     		adr	r3, .L4+8
  79 0046 D3E90023 		ldrd	r2, [r3]
  80 004a 0420     		movs	r0, #4
  81 004c FFF7FEFF 		bl	ringLED
  82              	.LVL4:
  29:main.c        ****     pulseLED(200,1,1, rgbstrip2);
  83              		.loc 1 29 0
  84 0050 0296     		str	r6, [sp, #8]
  85 0052 CDE90045 		strd	r4, [sp]
ARM GAS  C:\Users\cring\AppData\Local\Temp\ccBhWN3K.s 			page 3


  86 0056 2246     		mov	r2, r4
  87 0058 2B46     		mov	r3, r5
  88 005a 0020     		movs	r0, #0
  89 005c 0749     		ldr	r1, .L4+20
  90 005e FFF7FEFF 		bl	pulseLED
  91              	.LVL5:
  92              	.L2:
  93 0062 FEE7     		b	.L2
  94              	.L5:
  95 0064 AFF30080 		.align	3
  96              	.L4:
  97 0068 66666666 		.word	1717986918
  98 006c 6666E63F 		.word	1072064102
  99 0070 00000000 		.word	0
 100 0074 00C05540 		.word	1079361536
 101 0078 0000F03F 		.word	1072693248
 102 007c 00006940 		.word	1080623104
 103              		.cfi_endproc
 104              	.LFE64:
 105              		.size	main, .-main
 106              		.text
 107              	.Letext0:
 108              		.file 2 "c:\\program files (x86)\\cypress\\psoc creator\\4.2\\psoc creator\\import\\gnu\\arm\\5.4.
 109              		.file 3 "c:\\program files (x86)\\cypress\\psoc creator\\4.2\\psoc creator\\import\\gnu\\arm\\5.4.
 110              		.file 4 "LEDcontrol.h"
 111              		.file 5 "Generated_Source\\PSoC5/core_cm3.h"